TMS320C2000 Assembler PC v6.4.4 Wed Jul 08 12:49:34 2015

Tools Copyright (c) 1996-2015 Texas Instruments Incorporated
C:\Users\grant\AppData\Local\Temp\0769610                            PAGE    1

       1              ;***************************************************************
       2              ;* TMS320C2000 C/C++ Codegen                         PC v6.4.4 *
       3              ;* Date/Time created: Wed Jul 08 12:49:33 2015                 *
       4              ;***************************************************************
       5                      .compiler_opts --float_support=softlib --hll_source=on --mem_model:code=flat --mem_model:data=large -
       6        0002  FP      .set    XAR2
       7              
       8              $C$DW$CU        .dwtag  DW_TAG_compile_unit
       9                      .dwattr $C$DW$CU, DW_AT_name("C:/ti/motorware/motorware_1_01_00_14/sw/drivers/pie/src/32b/f28x/f2806x
      10                      .dwattr $C$DW$CU, DW_AT_producer("TI TMS320C2000 C/C++ Codegen PC v6.4.4 Copyright (c) 1996-2015 Texa
      11                      .dwattr $C$DW$CU, DW_AT_TI_version(0x01)
      12                      .dwattr $C$DW$CU, DW_AT_comp_dir("C:\work\ws_ccs_motorware\foc_proj_lab21\Release")
      13              ;       C:\ti\ccsv6\tools\compiler\ti-cgt-c2000_6.4.4\bin\opt2000.exe C:\\Users\\grant\\AppData\\Local\\Temp\
      14              ;       C:\ti\ccsv6\tools\compiler\ti-cgt-c2000_6.4.4\bin\ac2000.exe -@C:\\Users\\grant\\AppData\\Local\\Temp
      15 00000000               .sect   ".text"
      16                      .clink
      17                      .global _PIE_unregisterSystemIntHandler
      18              
      19              $C$DW$1 .dwtag  DW_TAG_subprogram, DW_AT_name("PIE_unregisterSystemIntHandler")
      20                      .dwattr $C$DW$1, DW_AT_low_pc(_PIE_unregisterSystemIntHandler)
      21                      .dwattr $C$DW$1, DW_AT_high_pc(0x00)
      22                      .dwattr $C$DW$1, DW_AT_TI_symbol_name("_PIE_unregisterSystemIntHandler")
      23                      .dwattr $C$DW$1, DW_AT_external
      24                      .dwattr $C$DW$1, DW_AT_TI_begin_file("C:/ti/motorware/motorware_1_01_00_14/sw/drivers/pie/src/32b/f28
      25                      .dwattr $C$DW$1, DW_AT_TI_begin_line(0x1c2)
      26                      .dwattr $C$DW$1, DW_AT_TI_begin_column(0x06)
      27                      .dwattr $C$DW$1, DW_AT_TI_max_frame_size(-2)
      28                      .dwpsn  file "C:/ti/motorware/motorware_1_01_00_14/sw/drivers/pie/src/32b/f28x/f2806x/pie.c",line 452
      29              
      30                      .dwfde $C$DW$CIE, _PIE_unregisterSystemIntHandler
      31              $C$DW$2 .dwtag  DW_TAG_formal_parameter, DW_AT_name("pieHandle")
      32                      .dwattr $C$DW$2, DW_AT_TI_symbol_name("_pieHandle")
      33                      .dwattr $C$DW$2, DW_AT_type(*$C$DW$T$62)
      34                      .dwattr $C$DW$2, DW_AT_location[DW_OP_reg12]
      35              $C$DW$3 .dwtag  DW_TAG_formal_parameter, DW_AT_name("systemInt")
      36                      .dwattr $C$DW$3, DW_AT_TI_symbol_name("_systemInt")
      37                      .dwattr $C$DW$3, DW_AT_type(*$C$DW$T$54)
      38                      .dwattr $C$DW$3, DW_AT_location[DW_OP_reg0]
      39              
      40              ;***************************************************************
      41              ;* FNAME: _PIE_unregisterSystemIntHandler FR SIZE:   0           *
      42              ;*                                                             *
      43              ;* FUNCTION ENVIRONMENT                                        *
      44              ;*                                                             *
      45              ;* FUNCTION PROPERTIES                                         *
      46              ;*                            0 Parameter,  0 Auto,  0 SOE     *
      47              ;***************************************************************
      48              
      49              _PIE_unregisterSystemIntHandler:
      50              ;* AR4   assigned to _pieHandle
      51              $C$DW$4 .dwtag  DW_TAG_variable, DW_AT_name("pieHandle")
      52                      .dwattr $C$DW$4, DW_AT_TI_symbol_name("_pieHandle")
      53                      .dwattr $C$DW$4, DW_AT_type(*$C$DW$T$63)
      54                      .dwattr $C$DW$4, DW_AT_location[DW_OP_reg12]
      55                      .dwcfi  cfa_offset, -2
TMS320C2000 Assembler PC v6.4.4 Wed Jul 08 12:49:34 2015

Tools Copyright (c) 1996-2015 Texas Instruments Incorporated
C:\Users\grant\AppData\Local\Temp\0769610                            PAGE    2

      56                      .dwcfi  save_reg_to_mem, 26, 0
      57 00000000 7622   EALLOW
      58 00000001 2901          CLRC      SXM                   ; [CPU_] 
      59                      .dwpsn  file "C:/ti/motorware/motorware_1_01_00_14/sw/drivers/pie/src/32b/f28x/f2806x/pie.c",line 465
      60 00000002 5603          MOV       ACC,AL << 1           ; [CPU_] |465| 
         00000003 01A9 
      61 00000004 5601          ADDL      XAR4,ACC              ; [CPU_] |465| 
         00000005 00A4 
      62 00000006 D020          MOVB      XAR0,#32              ; [CPU_] |465| 
      63 00000007 8F40+         MOVL      XAR5,#_PIE_illegalIsr ; [CPU_U] |465| 
         00000008 0000 
      64 00000009 A094          MOVL      *+XAR4[AR0],XAR5      ; [CPU_] |465| 
      65 0000000a 761A   EDIS
      66 0000000b FF69          SPM       #0                    ; [CPU_] 
      67              $C$DW$5 .dwtag  DW_TAG_TI_branch
      68                      .dwattr $C$DW$5, DW_AT_low_pc(0x00)
      69                      .dwattr $C$DW$5, DW_AT_TI_return
      70 0000000c 0006          LRETR     ; [CPU_] 
      71                      ; return occurs ; [] 
      72                      .dwattr $C$DW$1, DW_AT_TI_end_file("C:/ti/motorware/motorware_1_01_00_14/sw/drivers/pie/src/32b/f28x/
      73                      .dwattr $C$DW$1, DW_AT_TI_end_line(0x1d6)
      74                      .dwattr $C$DW$1, DW_AT_TI_end_column(0x01)
      75                      .dwendentry
      76                      .dwendtag $C$DW$1
      77              
      78 0000000d               .sect   ".text"
      79                      .clink
      80                      .global _PIE_unregisterPieIntHandler
      81              
      82              $C$DW$6 .dwtag  DW_TAG_subprogram, DW_AT_name("PIE_unregisterPieIntHandler")
      83                      .dwattr $C$DW$6, DW_AT_low_pc(_PIE_unregisterPieIntHandler)
      84                      .dwattr $C$DW$6, DW_AT_high_pc(0x00)
      85                      .dwattr $C$DW$6, DW_AT_TI_symbol_name("_PIE_unregisterPieIntHandler")
      86                      .dwattr $C$DW$6, DW_AT_external
      87                      .dwattr $C$DW$6, DW_AT_TI_begin_file("C:/ti/motorware/motorware_1_01_00_14/sw/drivers/pie/src/32b/f28
      88                      .dwattr $C$DW$6, DW_AT_TI_begin_line(0x1a7)
      89                      .dwattr $C$DW$6, DW_AT_TI_begin_column(0x06)
      90                      .dwattr $C$DW$6, DW_AT_TI_max_frame_size(-2)
      91                      .dwpsn  file "C:/ti/motorware/motorware_1_01_00_14/sw/drivers/pie/src/32b/f28x/f2806x/pie.c",line 426
      92              
      93                      .dwfde $C$DW$CIE, _PIE_unregisterPieIntHandler
      94              $C$DW$7 .dwtag  DW_TAG_formal_parameter, DW_AT_name("pieHandle")
      95                      .dwattr $C$DW$7, DW_AT_TI_symbol_name("_pieHandle")
      96                      .dwattr $C$DW$7, DW_AT_type(*$C$DW$T$62)
      97                      .dwattr $C$DW$7, DW_AT_location[DW_OP_reg12]
      98              $C$DW$8 .dwtag  DW_TAG_formal_parameter, DW_AT_name("groupNumber")
      99                      .dwattr $C$DW$8, DW_AT_TI_symbol_name("_groupNumber")
     100                      .dwattr $C$DW$8, DW_AT_type(*$C$DW$T$39)
     101                      .dwattr $C$DW$8, DW_AT_location[DW_OP_reg0]
     102              $C$DW$9 .dwtag  DW_TAG_formal_parameter, DW_AT_name("subGroupNumber")
     103                      .dwattr $C$DW$9, DW_AT_TI_symbol_name("_subGroupNumber")
     104                      .dwattr $C$DW$9, DW_AT_type(*$C$DW$T$51)
     105                      .dwattr $C$DW$9, DW_AT_location[DW_OP_reg1]
     106              
     107              ;***************************************************************
TMS320C2000 Assembler PC v6.4.4 Wed Jul 08 12:49:34 2015

Tools Copyright (c) 1996-2015 Texas Instruments Incorporated
C:\Users\grant\AppData\Local\Temp\0769610                            PAGE    3

     108              ;* FNAME: _PIE_unregisterPieIntHandler  FR SIZE:   0           *
     109              ;*                                                             *
     110              ;* FUNCTION ENVIRONMENT                                        *
     111              ;*                                                             *
     112              ;* FUNCTION PROPERTIES                                         *
     113              ;*                            0 Parameter,  0 Auto,  0 SOE     *
     114              ;***************************************************************
     115              
     116              _PIE_unregisterPieIntHandler:
     117              ;* AR4   assigned to _pieHandle
     118              $C$DW$10        .dwtag  DW_TAG_variable, DW_AT_name("pieHandle")
     119                      .dwattr $C$DW$10, DW_AT_TI_symbol_name("_pieHandle")
     120                      .dwattr $C$DW$10, DW_AT_type(*$C$DW$T$63)
     121                      .dwattr $C$DW$10, DW_AT_location[DW_OP_reg12]
     122              ;* AL    assigned to _groupNumber
     123              $C$DW$11        .dwtag  DW_TAG_variable, DW_AT_name("groupNumber")
     124                      .dwattr $C$DW$11, DW_AT_TI_symbol_name("_groupNumber")
     125                      .dwattr $C$DW$11, DW_AT_type(*$C$DW$T$39)
     126                      .dwattr $C$DW$11, DW_AT_location[DW_OP_reg0]
     127              ;* AH    assigned to _subGroupNumber
     128              $C$DW$12        .dwtag  DW_TAG_variable, DW_AT_name("subGroupNumber")
     129                      .dwattr $C$DW$12, DW_AT_TI_symbol_name("_subGroupNumber")
     130                      .dwattr $C$DW$12, DW_AT_type(*$C$DW$T$51)
     131                      .dwattr $C$DW$12, DW_AT_location[DW_OP_reg1]
     132                      .dwcfi  cfa_offset, -2
     133                      .dwcfi  save_reg_to_mem, 26, 0
     134 0000000d 7622   EALLOW
     135                      .dwpsn  file "C:/ti/motorware/motorware_1_01_00_14/sw/drivers/pie/src/32b/f28x/f2806x/pie.c",line 442
     136 0000000e 27A8          MOV       PL,AH                 ; [CPU_] |442| 
     137 0000000f 2901          CLRC      SXM                   ; [CPU_] 
     138 00000010 2BAA          MOV       PH,#0                 ; [CPU_] |442| 
     139 00000011 FF68          SPM       #1                    ; [CPU_] 
     140 00000012 5603          MOV       ACC,AL << #3          ; [CPU_] |442| 
         00000013 03A9 
     141 00000014 5603          MOV       ACC,AL << 1           ; [CPU_] |442| 
         00000015 01A9 
     142 00000016 10AC          ADDL      ACC,P << PM           ; [CPU_] |442| 
     143 00000017 5601          ADDL      XAR4,ACC              ; [CPU_] |442| 
         00000018 00A4 
     144 00000019 D060          MOVB      XAR0,#96              ; [CPU_] |442| 
     145 0000001a 8F40+         MOVL      XAR5,#_PIE_illegalIsr ; [CPU_U] |442| 
         0000001b 0000 
     146 0000001c A094          MOVL      *+XAR4[AR0],XAR5      ; [CPU_] |442| 
     147 0000001d 761A   EDIS
     148 0000001e FF69          SPM       #0                    ; [CPU_] 
     149              $C$DW$13        .dwtag  DW_TAG_TI_branch
     150                      .dwattr $C$DW$13, DW_AT_low_pc(0x00)
     151                      .dwattr $C$DW$13, DW_AT_TI_return
     152 0000001f 0006          LRETR     ; [CPU_] 
     153                      ; return occurs ; [] 
     154                      .dwattr $C$DW$6, DW_AT_TI_end_file("C:/ti/motorware/motorware_1_01_00_14/sw/drivers/pie/src/32b/f28x/
     155                      .dwattr $C$DW$6, DW_AT_TI_end_line(0x1bf)
     156                      .dwattr $C$DW$6, DW_AT_TI_end_column(0x01)
     157                      .dwendentry
     158                      .dwendtag $C$DW$6
TMS320C2000 Assembler PC v6.4.4 Wed Jul 08 12:49:34 2015

Tools Copyright (c) 1996-2015 Texas Instruments Incorporated
C:\Users\grant\AppData\Local\Temp\0769610                            PAGE    4

     159              
     160 00000020               .sect   ".text"
     161                      .clink
     162                      .global _PIE_setExtIntPolarity
     163              
     164              $C$DW$14        .dwtag  DW_TAG_subprogram, DW_AT_name("PIE_setExtIntPolarity")
     165                      .dwattr $C$DW$14, DW_AT_low_pc(_PIE_setExtIntPolarity)
     166                      .dwattr $C$DW$14, DW_AT_high_pc(0x00)
     167                      .dwattr $C$DW$14, DW_AT_TI_symbol_name("_PIE_setExtIntPolarity")
     168                      .dwattr $C$DW$14, DW_AT_external
     169                      .dwattr $C$DW$14, DW_AT_TI_begin_file("C:/ti/motorware/motorware_1_01_00_14/sw/drivers/pie/src/32b/f2
     170                      .dwattr $C$DW$14, DW_AT_TI_begin_line(0x196)
     171                      .dwattr $C$DW$14, DW_AT_TI_begin_column(0x06)
     172                      .dwattr $C$DW$14, DW_AT_TI_max_frame_size(-2)
     173                      .dwpsn  file "C:/ti/motorware/motorware_1_01_00_14/sw/drivers/pie/src/32b/f28x/f2806x/pie.c",line 409
     174              
     175                      .dwfde $C$DW$CIE, _PIE_setExtIntPolarity
     176              $C$DW$15        .dwtag  DW_TAG_formal_parameter, DW_AT_name("pieHandle")
     177                      .dwattr $C$DW$15, DW_AT_TI_symbol_name("_pieHandle")
     178                      .dwattr $C$DW$15, DW_AT_type(*$C$DW$T$62)
     179                      .dwattr $C$DW$15, DW_AT_location[DW_OP_reg12]
     180              $C$DW$16        .dwtag  DW_TAG_formal_parameter, DW_AT_name("intNumber")
     181                      .dwattr $C$DW$16, DW_AT_TI_symbol_name("_intNumber")
     182                      .dwattr $C$DW$16, DW_AT_type(*$C$DW$T$36)
     183                      .dwattr $C$DW$16, DW_AT_location[DW_OP_reg0]
     184              $C$DW$17        .dwtag  DW_TAG_formal_parameter, DW_AT_name("polarity")
     185                      .dwattr $C$DW$17, DW_AT_TI_symbol_name("_polarity")
     186                      .dwattr $C$DW$17, DW_AT_type(*$C$DW$T$57)
     187                      .dwattr $C$DW$17, DW_AT_location[DW_OP_reg1]
     188              
     189              ;***************************************************************
     190              ;* FNAME: _PIE_setExtIntPolarity        FR SIZE:   0           *
     191              ;*                                                             *
     192              ;* FUNCTION ENVIRONMENT                                        *
     193              ;*                                                             *
     194              ;* FUNCTION PROPERTIES                                         *
     195              ;*                            0 Parameter,  0 Auto,  0 SOE     *
     196              ;***************************************************************
     197              
     198              _PIE_setExtIntPolarity:
     199              ;* AR4   assigned to $O$C1
     200              ;* AR4   assigned to _pieHandle
     201              $C$DW$18        .dwtag  DW_TAG_variable, DW_AT_name("pieHandle")
     202                      .dwattr $C$DW$18, DW_AT_TI_symbol_name("_pieHandle")
     203                      .dwattr $C$DW$18, DW_AT_type(*$C$DW$T$63)
     204                      .dwattr $C$DW$18, DW_AT_location[DW_OP_reg12]
     205              ;* AR7   assigned to _intNumber
     206              $C$DW$19        .dwtag  DW_TAG_variable, DW_AT_name("intNumber")
     207                      .dwattr $C$DW$19, DW_AT_TI_symbol_name("_intNumber")
     208                      .dwattr $C$DW$19, DW_AT_type(*$C$DW$T$36)
     209                      .dwattr $C$DW$19, DW_AT_location[DW_OP_reg18]
     210              ;* AR6   assigned to _polarity
     211              $C$DW$20        .dwtag  DW_TAG_variable, DW_AT_name("polarity")
     212                      .dwattr $C$DW$20, DW_AT_TI_symbol_name("_polarity")
     213                      .dwattr $C$DW$20, DW_AT_type(*$C$DW$T$57)
TMS320C2000 Assembler PC v6.4.4 Wed Jul 08 12:49:34 2015

Tools Copyright (c) 1996-2015 Texas Instruments Incorporated
C:\Users\grant\AppData\Local\Temp\0769610                            PAGE    5

     214                      .dwattr $C$DW$20, DW_AT_location[DW_OP_reg16]
     215                      .dwcfi  cfa_offset, -2
     216                      .dwcfi  save_reg_to_mem, 26, 0
     217 00000020 80A9          MOVZ      AR7,AL                ; [CPU_] |409| 
     218 00000021 88A8          MOVZ      AR6,AH                ; [CPU_] |409| 
     219                      .dwpsn  file "C:/ti/motorware/motorware_1_01_00_14/sw/drivers/pie/src/32b/f28x/f2806x/pie.c",line 414
     220 00000022 A8A9          MOVL      ACC,XAR4              ; [CPU_] |414| 
     221 00000023 0DA7          ADDU      ACC,AR7               ; [CPU_] |414| 
     222 00000024 8AA9          MOVL      XAR4,ACC              ; [CPU_] |414| 
     223 00000025 FF14          ADD       ACC,#1593 << 4        ; [CPU_] |414| 
         00000026 0639 
     224 00000027 83A9          MOVL      XAR5,ACC              ; [CPU_] |414| 
     225                      .dwpsn  file "C:/ti/motorware/motorware_1_01_00_14/sw/drivers/pie/src/32b/f28x/f2806x/pie.c",line 417
     226 00000028 A8A9          MOVL      ACC,XAR4              ; [CPU_] |417| 
     227 00000029 FF14          ADD       ACC,#1593 << 4        ; [CPU_] |417| 
         0000002a 0639 
     228 0000002b 8AA9          MOVL      XAR4,ACC              ; [CPU_] |417| 
     229                      .dwpsn  file "C:/ti/motorware/motorware_1_01_00_14/sw/drivers/pie/src/32b/f28x/f2806x/pie.c",line 414
     230 0000002c 18C5          AND       *+XAR5[0],#0xfff3     ; [CPU_] |414| 
         0000002d FFF3 
     231                      .dwpsn  file "C:/ti/motorware/motorware_1_01_00_14/sw/drivers/pie/src/32b/f28x/f2806x/pie.c",line 417
     232 0000002e 92A6          MOV       AL,AR6                ; [CPU_] |417| 
     233 0000002f 98C4          OR        *+XAR4[0],AL          ; [CPU_] |417| 
     234              $C$DW$21        .dwtag  DW_TAG_TI_branch
     235                      .dwattr $C$DW$21, DW_AT_low_pc(0x00)
     236                      .dwattr $C$DW$21, DW_AT_TI_return
     237 00000030 0006          LRETR     ; [CPU_] 
     238                      ; return occurs ; [] 
     239                      .dwattr $C$DW$14, DW_AT_TI_end_file("C:/ti/motorware/motorware_1_01_00_14/sw/drivers/pie/src/32b/f28x
     240                      .dwattr $C$DW$14, DW_AT_TI_end_line(0x1a4)
     241                      .dwattr $C$DW$14, DW_AT_TI_end_column(0x01)
     242                      .dwendentry
     243                      .dwendtag $C$DW$14
     244              
     245 00000031               .sect   ".text"
     246                      .clink
     247                      .global _PIE_setDefaultIntVectorTable
     248              
     249              $C$DW$22        .dwtag  DW_TAG_subprogram, DW_AT_name("PIE_setDefaultIntVectorTable")
     250                      .dwattr $C$DW$22, DW_AT_low_pc(_PIE_setDefaultIntVectorTable)
     251                      .dwattr $C$DW$22, DW_AT_high_pc(0x00)
     252                      .dwattr $C$DW$22, DW_AT_TI_symbol_name("_PIE_setDefaultIntVectorTable")
     253                      .dwattr $C$DW$22, DW_AT_external
     254                      .dwattr $C$DW$22, DW_AT_TI_begin_file("C:/ti/motorware/motorware_1_01_00_14/sw/drivers/pie/src/32b/f2
     255                      .dwattr $C$DW$22, DW_AT_TI_begin_line(0x182)
     256                      .dwattr $C$DW$22, DW_AT_TI_begin_column(0x06)
     257                      .dwattr $C$DW$22, DW_AT_TI_max_frame_size(-2)
     258                      .dwpsn  file "C:/ti/motorware/motorware_1_01_00_14/sw/drivers/pie/src/32b/f28x/f2806x/pie.c",line 387
     259              
     260                      .dwfde $C$DW$CIE, _PIE_setDefaultIntVectorTable
     261              $C$DW$23        .dwtag  DW_TAG_formal_parameter, DW_AT_name("pieHandle")
     262                      .dwattr $C$DW$23, DW_AT_TI_symbol_name("_pieHandle")
     263                      .dwattr $C$DW$23, DW_AT_type(*$C$DW$T$62)
     264                      .dwattr $C$DW$23, DW_AT_location[DW_OP_reg12]
     265              
TMS320C2000 Assembler PC v6.4.4 Wed Jul 08 12:49:34 2015

Tools Copyright (c) 1996-2015 Texas Instruments Incorporated
C:\Users\grant\AppData\Local\Temp\0769610                            PAGE    6

     266              ;***************************************************************
     267              ;* FNAME: _PIE_setDefaultIntVectorTable FR SIZE:   0           *
     268              ;*                                                             *
     269              ;* FUNCTION ENVIRONMENT                                        *
     270              ;*                                                             *
     271              ;* FUNCTION PROPERTIES                                         *
     272              ;*                            0 Parameter,  0 Auto,  0 SOE     *
     273              ;***************************************************************
     274              
     275              _PIE_setDefaultIntVectorTable:
     276              ;* AR4   assigned to _addr
     277              $C$DW$24        .dwtag  DW_TAG_variable, DW_AT_name("addr")
     278                      .dwattr $C$DW$24, DW_AT_TI_symbol_name("_addr")
     279                      .dwattr $C$DW$24, DW_AT_type(*$C$DW$T$71)
     280                      .dwattr $C$DW$24, DW_AT_location[DW_OP_reg12]
     281                      .dwcfi  cfa_offset, -2
     282                      .dwcfi  save_reg_to_mem, 26, 0
     283                      .dwpsn  file "C:/ti/motorware/motorware_1_01_00_14/sw/drivers/pie/src/32b/f28x/f2806x/pie.c",line 389
     284 00000031 DC22          ADDB      XAR4,#34              ; [CPU_] |389| 
     285 00000032 7622   EALLOW
     286 00000033 BE77          MOVB      XAR6,#119             ; [CPU_] 
     287                      .dwpsn  file "C:/ti/motorware/motorware_1_01_00_14/sw/drivers/pie/src/32b/f28x/f2806x/pie.c",line 397
     288 00000034 8F40+         MOVL      XAR5,#_PIE_illegalIsr ; [CPU_U] |397| 
         00000035 0000 
     289 00000036       $C$L1:    
     290 00000036 A084          MOVL      *XAR4++,XAR5          ; [CPU_] |397| 
     291                      .dwpsn  file "C:/ti/motorware/motorware_1_01_00_14/sw/drivers/pie/src/32b/f28x/f2806x/pie.c",line 395
     292 00000037 000E          BANZ      $C$L1,AR6--           ; [CPU_] |395| 
         00000038 FFFF 
     293                      ; branchcc occurs ; [] |395| 
     294 00000039 761A   EDIS
     295 0000003a FF69          SPM       #0                    ; [CPU_] 
     296              $C$DW$25        .dwtag  DW_TAG_TI_branch
     297                      .dwattr $C$DW$25, DW_AT_low_pc(0x00)
     298                      .dwattr $C$DW$25, DW_AT_TI_return
     299 0000003b 0006          LRETR     ; [CPU_] 
     300                      ; return occurs ; [] 
     301                      .dwattr $C$DW$22, DW_AT_TI_end_file("C:/ti/motorware/motorware_1_01_00_14/sw/drivers/pie/src/32b/f28x
     302                      .dwattr $C$DW$22, DW_AT_TI_end_line(0x193)
     303                      .dwattr $C$DW$22, DW_AT_TI_end_column(0x01)
     304                      .dwendentry
     305                      .dwendtag $C$DW$22
     306              
     307 0000003c               .sect   ".text"
     308                      .clink
     309                      .global _PIE_registerSystemIntHandler
     310              
     311              $C$DW$26        .dwtag  DW_TAG_subprogram, DW_AT_name("PIE_registerSystemIntHandler")
     312                      .dwattr $C$DW$26, DW_AT_low_pc(_PIE_registerSystemIntHandler)
     313                      .dwattr $C$DW$26, DW_AT_high_pc(0x00)
     314                      .dwattr $C$DW$26, DW_AT_TI_symbol_name("_PIE_registerSystemIntHandler")
     315                      .dwattr $C$DW$26, DW_AT_external
     316                      .dwattr $C$DW$26, DW_AT_TI_begin_file("C:/ti/motorware/motorware_1_01_00_14/sw/drivers/pie/src/32b/f2
     317                      .dwattr $C$DW$26, DW_AT_TI_begin_line(0x16a)
     318                      .dwattr $C$DW$26, DW_AT_TI_begin_column(0x06)
TMS320C2000 Assembler PC v6.4.4 Wed Jul 08 12:49:34 2015

Tools Copyright (c) 1996-2015 Texas Instruments Incorporated
C:\Users\grant\AppData\Local\Temp\0769610                            PAGE    7

     319                      .dwattr $C$DW$26, DW_AT_TI_max_frame_size(-2)
     320                      .dwpsn  file "C:/ti/motorware/motorware_1_01_00_14/sw/drivers/pie/src/32b/f28x/f2806x/pie.c",line 365
     321              
     322                      .dwfde $C$DW$CIE, _PIE_registerSystemIntHandler
     323              $C$DW$27        .dwtag  DW_TAG_formal_parameter, DW_AT_name("pieHandle")
     324                      .dwattr $C$DW$27, DW_AT_TI_symbol_name("_pieHandle")
     325                      .dwattr $C$DW$27, DW_AT_type(*$C$DW$T$62)
     326                      .dwattr $C$DW$27, DW_AT_location[DW_OP_reg12]
     327              $C$DW$28        .dwtag  DW_TAG_formal_parameter, DW_AT_name("systemInt")
     328                      .dwattr $C$DW$28, DW_AT_TI_symbol_name("_systemInt")
     329                      .dwattr $C$DW$28, DW_AT_type(*$C$DW$T$54)
     330                      .dwattr $C$DW$28, DW_AT_location[DW_OP_reg0]
     331              $C$DW$29        .dwtag  DW_TAG_formal_parameter, DW_AT_name("vector")
     332                      .dwattr $C$DW$29, DW_AT_TI_symbol_name("_vector")
     333                      .dwattr $C$DW$29, DW_AT_type(*$C$DW$T$70)
     334                      .dwattr $C$DW$29, DW_AT_location[DW_OP_reg14]
     335              
     336              ;***************************************************************
     337              ;* FNAME: _PIE_registerSystemIntHandler FR SIZE:   0           *
     338              ;*                                                             *
     339              ;* FUNCTION ENVIRONMENT                                        *
     340              ;*                                                             *
     341              ;* FUNCTION PROPERTIES                                         *
     342              ;*                            0 Parameter,  0 Auto,  0 SOE     *
     343              ;***************************************************************
     344              
     345              _PIE_registerSystemIntHandler:
     346              ;* AR4   assigned to _pieHandle
     347              $C$DW$30        .dwtag  DW_TAG_variable, DW_AT_name("pieHandle")
     348                      .dwattr $C$DW$30, DW_AT_TI_symbol_name("_pieHandle")
     349                      .dwattr $C$DW$30, DW_AT_type(*$C$DW$T$63)
     350                      .dwattr $C$DW$30, DW_AT_location[DW_OP_reg12]
     351              ;* AR5   assigned to _vector
     352              $C$DW$31        .dwtag  DW_TAG_variable, DW_AT_name("vector")
     353                      .dwattr $C$DW$31, DW_AT_TI_symbol_name("_vector")
     354                      .dwattr $C$DW$31, DW_AT_type(*$C$DW$T$70)
     355                      .dwattr $C$DW$31, DW_AT_location[DW_OP_reg14]
     356                      .dwcfi  cfa_offset, -2
     357                      .dwcfi  save_reg_to_mem, 26, 0
     358 0000003c 7622   EALLOW
     359 0000003d 2901          CLRC      SXM                   ; [CPU_] 
     360                      .dwpsn  file "C:/ti/motorware/motorware_1_01_00_14/sw/drivers/pie/src/32b/f28x/f2806x/pie.c",line 378
     361 0000003e 5603          MOV       ACC,AL << 1           ; [CPU_] |378| 
         0000003f 01A9 
     362 00000040 5601          ADDL      XAR4,ACC              ; [CPU_] |378| 
         00000041 00A4 
     363 00000042 D020          MOVB      XAR0,#32              ; [CPU_] |378| 
     364 00000043 A094          MOVL      *+XAR4[AR0],XAR5      ; [CPU_] |378| 
     365 00000044 761A   EDIS
     366 00000045 FF69          SPM       #0                    ; [CPU_] 
     367              $C$DW$32        .dwtag  DW_TAG_TI_branch
     368                      .dwattr $C$DW$32, DW_AT_low_pc(0x00)
     369                      .dwattr $C$DW$32, DW_AT_TI_return
     370 00000046 0006          LRETR     ; [CPU_] 
     371                      ; return occurs ; [] 
TMS320C2000 Assembler PC v6.4.4 Wed Jul 08 12:49:34 2015

Tools Copyright (c) 1996-2015 Texas Instruments Incorporated
C:\Users\grant\AppData\Local\Temp\0769610                            PAGE    8

     372                      .dwattr $C$DW$26, DW_AT_TI_end_file("C:/ti/motorware/motorware_1_01_00_14/sw/drivers/pie/src/32b/f28x
     373                      .dwattr $C$DW$26, DW_AT_TI_end_line(0x17f)
     374                      .dwattr $C$DW$26, DW_AT_TI_end_column(0x01)
     375                      .dwendentry
     376                      .dwendtag $C$DW$26
     377              
     378 00000047               .sect   ".text"
     379                      .clink
     380                      .global _PIE_registerPieIntHandler
     381              
     382              $C$DW$33        .dwtag  DW_TAG_subprogram, DW_AT_name("PIE_registerPieIntHandler")
     383                      .dwattr $C$DW$33, DW_AT_low_pc(_PIE_registerPieIntHandler)
     384                      .dwattr $C$DW$33, DW_AT_high_pc(0x00)
     385                      .dwattr $C$DW$33, DW_AT_TI_symbol_name("_PIE_registerPieIntHandler")
     386                      .dwattr $C$DW$33, DW_AT_external
     387                      .dwattr $C$DW$33, DW_AT_TI_begin_file("C:/ti/motorware/motorware_1_01_00_14/sw/drivers/pie/src/32b/f2
     388                      .dwattr $C$DW$33, DW_AT_TI_begin_line(0x14e)
     389                      .dwattr $C$DW$33, DW_AT_TI_begin_column(0x06)
     390                      .dwattr $C$DW$33, DW_AT_TI_max_frame_size(-2)
     391                      .dwpsn  file "C:/ti/motorware/motorware_1_01_00_14/sw/drivers/pie/src/32b/f28x/f2806x/pie.c",line 338
     392              
     393                      .dwfde $C$DW$CIE, _PIE_registerPieIntHandler
     394              $C$DW$34        .dwtag  DW_TAG_formal_parameter, DW_AT_name("pieHandle")
     395                      .dwattr $C$DW$34, DW_AT_TI_symbol_name("_pieHandle")
     396                      .dwattr $C$DW$34, DW_AT_type(*$C$DW$T$62)
     397                      .dwattr $C$DW$34, DW_AT_location[DW_OP_reg12]
     398              $C$DW$35        .dwtag  DW_TAG_formal_parameter, DW_AT_name("groupNumber")
     399                      .dwattr $C$DW$35, DW_AT_TI_symbol_name("_groupNumber")
     400                      .dwattr $C$DW$35, DW_AT_type(*$C$DW$T$39)
     401                      .dwattr $C$DW$35, DW_AT_location[DW_OP_reg0]
     402              $C$DW$36        .dwtag  DW_TAG_formal_parameter, DW_AT_name("subGroupNumber")
     403                      .dwattr $C$DW$36, DW_AT_TI_symbol_name("_subGroupNumber")
     404                      .dwattr $C$DW$36, DW_AT_type(*$C$DW$T$51)
     405                      .dwattr $C$DW$36, DW_AT_location[DW_OP_reg1]
     406              $C$DW$37        .dwtag  DW_TAG_formal_parameter, DW_AT_name("vector")
     407                      .dwattr $C$DW$37, DW_AT_TI_symbol_name("_vector")
     408                      .dwattr $C$DW$37, DW_AT_type(*$C$DW$T$70)
     409                      .dwattr $C$DW$37, DW_AT_location[DW_OP_reg14]
     410              
     411              ;***************************************************************
     412              ;* FNAME: _PIE_registerPieIntHandler    FR SIZE:   0           *
     413              ;*                                                             *
     414              ;* FUNCTION ENVIRONMENT                                        *
     415              ;*                                                             *
     416              ;* FUNCTION PROPERTIES                                         *
     417              ;*                            0 Parameter,  0 Auto,  0 SOE     *
     418              ;***************************************************************
     419              
     420              _PIE_registerPieIntHandler:
     421              ;* AR4   assigned to _pieHandle
     422              $C$DW$38        .dwtag  DW_TAG_variable, DW_AT_name("pieHandle")
     423                      .dwattr $C$DW$38, DW_AT_TI_symbol_name("_pieHandle")
     424                      .dwattr $C$DW$38, DW_AT_type(*$C$DW$T$63)
     425                      .dwattr $C$DW$38, DW_AT_location[DW_OP_reg12]
     426              ;* AL    assigned to _groupNumber
TMS320C2000 Assembler PC v6.4.4 Wed Jul 08 12:49:34 2015

Tools Copyright (c) 1996-2015 Texas Instruments Incorporated
C:\Users\grant\AppData\Local\Temp\0769610                            PAGE    9

     427              $C$DW$39        .dwtag  DW_TAG_variable, DW_AT_name("groupNumber")
     428                      .dwattr $C$DW$39, DW_AT_TI_symbol_name("_groupNumber")
     429                      .dwattr $C$DW$39, DW_AT_type(*$C$DW$T$39)
     430                      .dwattr $C$DW$39, DW_AT_location[DW_OP_reg0]
     431              ;* AH    assigned to _subGroupNumber
     432              $C$DW$40        .dwtag  DW_TAG_variable, DW_AT_name("subGroupNumber")
     433                      .dwattr $C$DW$40, DW_AT_TI_symbol_name("_subGroupNumber")
     434                      .dwattr $C$DW$40, DW_AT_type(*$C$DW$T$51)
     435                      .dwattr $C$DW$40, DW_AT_location[DW_OP_reg1]
     436              ;* AR5   assigned to _vector
     437              $C$DW$41        .dwtag  DW_TAG_variable, DW_AT_name("vector")
     438                      .dwattr $C$DW$41, DW_AT_TI_symbol_name("_vector")
     439                      .dwattr $C$DW$41, DW_AT_type(*$C$DW$T$70)
     440                      .dwattr $C$DW$41, DW_AT_location[DW_OP_reg14]
     441                      .dwcfi  cfa_offset, -2
     442                      .dwcfi  save_reg_to_mem, 26, 0
     443 00000047 7622   EALLOW
     444                      .dwpsn  file "C:/ti/motorware/motorware_1_01_00_14/sw/drivers/pie/src/32b/f28x/f2806x/pie.c",line 354
     445 00000048 27A8          MOV       PL,AH                 ; [CPU_] |354| 
     446 00000049 2901          CLRC      SXM                   ; [CPU_] 
     447 0000004a 2BAA          MOV       PH,#0                 ; [CPU_] |354| 
     448 0000004b FF68          SPM       #1                    ; [CPU_] 
     449 0000004c 5603          MOV       ACC,AL << #3          ; [CPU_] |354| 
         0000004d 03A9 
     450 0000004e 5603          MOV       ACC,AL << 1           ; [CPU_] |354| 
         0000004f 01A9 
     451 00000050 10AC          ADDL      ACC,P << PM           ; [CPU_] |354| 
     452 00000051 5601          ADDL      XAR4,ACC              ; [CPU_] |354| 
         00000052 00A4 
     453 00000053 D060          MOVB      XAR0,#96              ; [CPU_] |354| 
     454 00000054 A094          MOVL      *+XAR4[AR0],XAR5      ; [CPU_] |354| 
     455 00000055 761A   EDIS
     456 00000056 FF69          SPM       #0                    ; [CPU_] 
     457              $C$DW$42        .dwtag  DW_TAG_TI_branch
     458                      .dwattr $C$DW$42, DW_AT_low_pc(0x00)
     459                      .dwattr $C$DW$42, DW_AT_TI_return
     460 00000057 0006          LRETR     ; [CPU_] 
     461                      ; return occurs ; [] 
     462                      .dwattr $C$DW$33, DW_AT_TI_end_file("C:/ti/motorware/motorware_1_01_00_14/sw/drivers/pie/src/32b/f28x
     463                      .dwattr $C$DW$33, DW_AT_TI_end_line(0x167)
     464                      .dwattr $C$DW$33, DW_AT_TI_end_column(0x01)
     465                      .dwendentry
     466                      .dwendtag $C$DW$33
     467              
     468 00000058               .sect   ".text"
     469                      .clink
     470                      .global _PIE_init
     471              
     472              $C$DW$43        .dwtag  DW_TAG_subprogram, DW_AT_name("PIE_init")
     473                      .dwattr $C$DW$43, DW_AT_low_pc(_PIE_init)
     474                      .dwattr $C$DW$43, DW_AT_high_pc(0x00)
     475                      .dwattr $C$DW$43, DW_AT_TI_symbol_name("_PIE_init")
     476                      .dwattr $C$DW$43, DW_AT_external
     477                      .dwattr $C$DW$43, DW_AT_type(*$C$DW$T$62)
     478                      .dwattr $C$DW$43, DW_AT_TI_begin_file("C:/ti/motorware/motorware_1_01_00_14/sw/drivers/pie/src/32b/f2
TMS320C2000 Assembler PC v6.4.4 Wed Jul 08 12:49:34 2015

Tools Copyright (c) 1996-2015 Texas Instruments Incorporated
C:\Users\grant\AppData\Local\Temp\0769610                            PAGE   10

     479                      .dwattr $C$DW$43, DW_AT_TI_begin_line(0x13e)
     480                      .dwattr $C$DW$43, DW_AT_TI_begin_column(0x0c)
     481                      .dwattr $C$DW$43, DW_AT_TI_max_frame_size(-2)
     482                      .dwpsn  file "C:/ti/motorware/motorware_1_01_00_14/sw/drivers/pie/src/32b/f28x/f2806x/pie.c",line 319
     483              
     484                      .dwfde $C$DW$CIE, _PIE_init
     485              $C$DW$44        .dwtag  DW_TAG_formal_parameter, DW_AT_name("pMemory")
     486                      .dwattr $C$DW$44, DW_AT_TI_symbol_name("_pMemory")
     487                      .dwattr $C$DW$44, DW_AT_type(*$C$DW$T$3)
     488                      .dwattr $C$DW$44, DW_AT_location[DW_OP_reg12]
     489              $C$DW$45        .dwtag  DW_TAG_formal_parameter, DW_AT_name("numBytes")
     490                      .dwattr $C$DW$45, DW_AT_TI_symbol_name("_numBytes")
     491                      .dwattr $C$DW$45, DW_AT_type(*$C$DW$T$65)
     492                      .dwattr $C$DW$45, DW_AT_location[DW_OP_reg0]
     493              
     494              ;***************************************************************
     495              ;* FNAME: _PIE_init                     FR SIZE:   0           *
     496              ;*                                                             *
     497              ;* FUNCTION ENVIRONMENT                                        *
     498              ;*                                                             *
     499              ;* FUNCTION PROPERTIES                                         *
     500              ;*                            0 Parameter,  0 Auto,  0 SOE     *
     501              ;***************************************************************
     502              
     503              _PIE_init:
     504              ;* AR6   assigned to _numBytes
     505              $C$DW$46        .dwtag  DW_TAG_variable, DW_AT_name("numBytes")
     506                      .dwattr $C$DW$46, DW_AT_TI_symbol_name("_numBytes")
     507                      .dwattr $C$DW$46, DW_AT_type(*$C$DW$T$65)
     508                      .dwattr $C$DW$46, DW_AT_location[DW_OP_reg16]
     509                      .dwcfi  cfa_offset, -2
     510                      .dwcfi  save_reg_to_mem, 26, 0
     511 00000058 1EA6          MOVL      XAR6,ACC              ; [CPU_] |319| 
     512                      .dwpsn  file "C:/ti/motorware/motorware_1_01_00_14/sw/drivers/pie/src/32b/f28x/f2806x/pie.c",line 324
     513 00000059 8F40          MOVL      XAR5,#25500           ; [CPU_U] |324| 
         0000005a 639C 
     514 0000005b A0A9          MOVL      ACC,XAR5              ; [CPU_] |324| 
     515 0000005c 0FA6          CMPL      ACC,XAR6              ; [CPU_] |324| 
     516 0000005d 56C9          BF        $C$L2,LOS             ; [CPU_] |324| 
         0000005e 0003 
     517                      ; branchcc occurs ; [] |324| 
     518 0000005f D400          MOVB      XAR4,#0               ; [CPU_] |324| 
     519              $C$L2:    
     520              $C$DW$47        .dwtag  DW_TAG_TI_branch
     521                      .dwattr $C$DW$47, DW_AT_low_pc(0x00)
     522                      .dwattr $C$DW$47, DW_AT_TI_return
     523 00000060 0006          LRETR     ; [CPU_] 
     524                      ; return occurs ; [] 
     525                      .dwattr $C$DW$43, DW_AT_TI_end_file("C:/ti/motorware/motorware_1_01_00_14/sw/drivers/pie/src/32b/f28x
     526                      .dwattr $C$DW$43, DW_AT_TI_end_line(0x14a)
     527                      .dwattr $C$DW$43, DW_AT_TI_end_column(0x01)
     528                      .dwendentry
     529                      .dwendtag $C$DW$43
     530              
     531 00000000               .sect   ".text:retain"
TMS320C2000 Assembler PC v6.4.4 Wed Jul 08 12:49:34 2015

Tools Copyright (c) 1996-2015 Texas Instruments Incorporated
C:\Users\grant\AppData\Local\Temp\0769610                            PAGE   11

     532                      .retain
     533                      .retainrefs
     534                      .global _PIE_illegalIsr
     535              
     536              $C$DW$48        .dwtag  DW_TAG_subprogram, DW_AT_name("PIE_illegalIsr")
     537                      .dwattr $C$DW$48, DW_AT_low_pc(_PIE_illegalIsr)
     538                      .dwattr $C$DW$48, DW_AT_high_pc(0x00)
     539                      .dwattr $C$DW$48, DW_AT_TI_symbol_name("_PIE_illegalIsr")
     540                      .dwattr $C$DW$48, DW_AT_external
     541                      .dwattr $C$DW$48, DW_AT_TI_begin_file("C:/ti/motorware/motorware_1_01_00_14/sw/drivers/pie/src/32b/f2
     542                      .dwattr $C$DW$48, DW_AT_TI_begin_line(0x132)
     543                      .dwattr $C$DW$48, DW_AT_TI_begin_column(0x10)
     544                      .dwattr $C$DW$48, DW_AT_TI_interrupt
     545                      .dwattr $C$DW$48, DW_AT_TI_max_frame_size(-2)
     546                      .dwpsn  file "C:/ti/motorware/motorware_1_01_00_14/sw/drivers/pie/src/32b/f28x/f2806x/pie.c",line 307
     547              
     548                      .dwfde $C$DW$CIE, _PIE_illegalIsr
     549              
     550              ;***************************************************************
     551              ;* FNAME: _PIE_illegalIsr               FR SIZE:   0           *
     552              ;*                                                             *
     553              ;* FUNCTION ENVIRONMENT                                        *
     554              ;*                                                             *
     555              ;* FUNCTION PROPERTIES                                         *
     556              ;*                            0 Parameter,  0 Auto,  0 SOE     *
     557              ;***************************************************************
     558              
     559 00000000       _PIE_illegalIsr:
     560                      .dwcfi  cfa_offset, -2
     561                      .dwcfi  save_reg_to_mem, 26, 0
     562 00000000 761B          ASP       ; [CPU_] 
     563 00000001 2942          CLRC      PAGE0,OVM             ; [CPU_] 
     564 00000002 5616          CLRC      AMODE                 ; [CPU_] 
     565 00000003 7625   ESTOP0
     566 00000004       $C$L3:    
     567                      .dwpsn  file "C:/ti/motorware/motorware_1_01_00_14/sw/drivers/pie/src/32b/f28x/f2806x/pie.c",line 313
     568 00000004 6F00          B         $C$L3,UNC             ; [CPU_] |313| 
     569                      ; branch occurs ; [] |313| 
     570                      .dwattr $C$DW$48, DW_AT_TI_end_file("C:/ti/motorware/motorware_1_01_00_14/sw/drivers/pie/src/32b/f28x
     571                      .dwattr $C$DW$48, DW_AT_TI_end_line(0x13b)
     572                      .dwattr $C$DW$48, DW_AT_TI_end_column(0x01)
     573                      .dwendentry
     574                      .dwendtag $C$DW$48
     575              
     576 00000061               .sect   ".text"
     577                      .clink
     578                      .global _PIE_getIntFlags
     579              
     580              $C$DW$49        .dwtag  DW_TAG_subprogram, DW_AT_name("PIE_getIntFlags")
     581                      .dwattr $C$DW$49, DW_AT_low_pc(_PIE_getIntFlags)
     582                      .dwattr $C$DW$49, DW_AT_high_pc(0x00)
     583                      .dwattr $C$DW$49, DW_AT_TI_symbol_name("_PIE_getIntFlags")
     584                      .dwattr $C$DW$49, DW_AT_external
     585                      .dwattr $C$DW$49, DW_AT_type(*$C$DW$T$19)
     586                      .dwattr $C$DW$49, DW_AT_TI_begin_file("C:/ti/motorware/motorware_1_01_00_14/sw/drivers/pie/src/32b/f2
TMS320C2000 Assembler PC v6.4.4 Wed Jul 08 12:49:34 2015

Tools Copyright (c) 1996-2015 Texas Instruments Incorporated
C:\Users\grant\AppData\Local\Temp\0769610                            PAGE   12

     587                      .dwattr $C$DW$49, DW_AT_TI_begin_line(0x12a)
     588                      .dwattr $C$DW$49, DW_AT_TI_begin_column(0x0a)
     589                      .dwattr $C$DW$49, DW_AT_TI_max_frame_size(-2)
     590                      .dwpsn  file "C:/ti/motorware/motorware_1_01_00_14/sw/drivers/pie/src/32b/f28x/f2806x/pie.c",line 299
     591              
     592                      .dwfde $C$DW$CIE, _PIE_getIntFlags
     593              $C$DW$50        .dwtag  DW_TAG_formal_parameter, DW_AT_name("pieHandle")
     594                      .dwattr $C$DW$50, DW_AT_TI_symbol_name("_pieHandle")
     595                      .dwattr $C$DW$50, DW_AT_type(*$C$DW$T$62)
     596                      .dwattr $C$DW$50, DW_AT_location[DW_OP_reg12]
     597              $C$DW$51        .dwtag  DW_TAG_formal_parameter, DW_AT_name("group")
     598                      .dwattr $C$DW$51, DW_AT_TI_symbol_name("_group")
     599                      .dwattr $C$DW$51, DW_AT_type(*$C$DW$T$39)
     600                      .dwattr $C$DW$51, DW_AT_location[DW_OP_reg0]
     601              
     602              ;***************************************************************
     603              ;* FNAME: _PIE_getIntFlags              FR SIZE:   0           *
     604              ;*                                                             *
     605              ;* FUNCTION ENVIRONMENT                                        *
     606              ;*                                                             *
     607              ;* FUNCTION PROPERTIES                                         *
     608              ;*                            0 Parameter,  0 Auto,  0 SOE     *
     609              ;***************************************************************
     610              
     611              _PIE_getIntFlags:
     612              ;* AR4   assigned to _pieHandle
     613              $C$DW$52        .dwtag  DW_TAG_variable, DW_AT_name("pieHandle")
     614                      .dwattr $C$DW$52, DW_AT_TI_symbol_name("_pieHandle")
     615                      .dwattr $C$DW$52, DW_AT_type(*$C$DW$T$63)
     616                      .dwattr $C$DW$52, DW_AT_location[DW_OP_reg12]
     617                      .dwcfi  cfa_offset, -2
     618                      .dwcfi  save_reg_to_mem, 26, 0
     619 00000061 2901          CLRC      SXM                   ; [CPU_] 
     620                      .dwpsn  file "C:/ti/motorware/motorware_1_01_00_14/sw/drivers/pie/src/32b/f28x/f2806x/pie.c",line 302
     621 00000062 5603          MOV       ACC,AL << 1           ; [CPU_] |302| 
         00000063 01A9 
     622 00000064 5601          ADDL      XAR4,ACC              ; [CPU_] |302| 
         00000065 00A4 
     623 00000066 92DC          MOV       AL,*+XAR4[3]          ; [CPU_] |302| 
     624              $C$DW$53        .dwtag  DW_TAG_TI_branch
     625                      .dwattr $C$DW$53, DW_AT_low_pc(0x00)
     626                      .dwattr $C$DW$53, DW_AT_TI_return
     627 00000067 0006          LRETR     ; [CPU_] 
     628                      ; return occurs ; [] 
     629                      .dwattr $C$DW$49, DW_AT_TI_end_file("C:/ti/motorware/motorware_1_01_00_14/sw/drivers/pie/src/32b/f28x
     630                      .dwattr $C$DW$49, DW_AT_TI_end_line(0x12f)
     631                      .dwattr $C$DW$49, DW_AT_TI_end_column(0x01)
     632                      .dwendentry
     633                      .dwendtag $C$DW$49
     634              
     635 00000068               .sect   ".text"
     636                      .clink
     637                      .global _PIE_getIntEnables
     638              
     639              $C$DW$54        .dwtag  DW_TAG_subprogram, DW_AT_name("PIE_getIntEnables")
TMS320C2000 Assembler PC v6.4.4 Wed Jul 08 12:49:34 2015

Tools Copyright (c) 1996-2015 Texas Instruments Incorporated
C:\Users\grant\AppData\Local\Temp\0769610                            PAGE   13

     640                      .dwattr $C$DW$54, DW_AT_low_pc(_PIE_getIntEnables)
     641                      .dwattr $C$DW$54, DW_AT_high_pc(0x00)
     642                      .dwattr $C$DW$54, DW_AT_TI_symbol_name("_PIE_getIntEnables")
     643                      .dwattr $C$DW$54, DW_AT_external
     644                      .dwattr $C$DW$54, DW_AT_type(*$C$DW$T$19)
     645                      .dwattr $C$DW$54, DW_AT_TI_begin_file("C:/ti/motorware/motorware_1_01_00_14/sw/drivers/pie/src/32b/f2
     646                      .dwattr $C$DW$54, DW_AT_TI_begin_line(0x122)
     647                      .dwattr $C$DW$54, DW_AT_TI_begin_column(0x0a)
     648                      .dwattr $C$DW$54, DW_AT_TI_max_frame_size(-2)
     649                      .dwpsn  file "C:/ti/motorware/motorware_1_01_00_14/sw/drivers/pie/src/32b/f28x/f2806x/pie.c",line 291
     650              
     651                      .dwfde $C$DW$CIE, _PIE_getIntEnables
     652              $C$DW$55        .dwtag  DW_TAG_formal_parameter, DW_AT_name("pieHandle")
     653                      .dwattr $C$DW$55, DW_AT_TI_symbol_name("_pieHandle")
     654                      .dwattr $C$DW$55, DW_AT_type(*$C$DW$T$62)
     655                      .dwattr $C$DW$55, DW_AT_location[DW_OP_reg12]
     656              $C$DW$56        .dwtag  DW_TAG_formal_parameter, DW_AT_name("group")
     657                      .dwattr $C$DW$56, DW_AT_TI_symbol_name("_group")
     658                      .dwattr $C$DW$56, DW_AT_type(*$C$DW$T$39)
     659                      .dwattr $C$DW$56, DW_AT_location[DW_OP_reg0]
     660              
     661              ;***************************************************************
     662              ;* FNAME: _PIE_getIntEnables            FR SIZE:   0           *
     663              ;*                                                             *
     664              ;* FUNCTION ENVIRONMENT                                        *
     665              ;*                                                             *
     666              ;* FUNCTION PROPERTIES                                         *
     667              ;*                            0 Parameter,  0 Auto,  0 SOE     *
     668              ;***************************************************************
     669              
     670              _PIE_getIntEnables:
     671              ;* AR4   assigned to _pieHandle
     672              $C$DW$57        .dwtag  DW_TAG_variable, DW_AT_name("pieHandle")
     673                      .dwattr $C$DW$57, DW_AT_TI_symbol_name("_pieHandle")
     674                      .dwattr $C$DW$57, DW_AT_type(*$C$DW$T$63)
     675                      .dwattr $C$DW$57, DW_AT_location[DW_OP_reg12]
     676                      .dwcfi  cfa_offset, -2
     677                      .dwcfi  save_reg_to_mem, 26, 0
     678 00000068 2901          CLRC      SXM                   ; [CPU_] 
     679                      .dwpsn  file "C:/ti/motorware/motorware_1_01_00_14/sw/drivers/pie/src/32b/f28x/f2806x/pie.c",line 294
     680 00000069 5603          MOV       ACC,AL << 1           ; [CPU_] |294| 
         0000006a 01A9 
     681 0000006b 5601          ADDL      XAR4,ACC              ; [CPU_] |294| 
         0000006c 00A4 
     682 0000006d 92D4          MOV       AL,*+XAR4[2]          ; [CPU_] |294| 
     683              $C$DW$58        .dwtag  DW_TAG_TI_branch
     684                      .dwattr $C$DW$58, DW_AT_low_pc(0x00)
     685                      .dwattr $C$DW$58, DW_AT_TI_return
     686 0000006e 0006          LRETR     ; [CPU_] 
     687                      ; return occurs ; [] 
     688                      .dwattr $C$DW$54, DW_AT_TI_end_file("C:/ti/motorware/motorware_1_01_00_14/sw/drivers/pie/src/32b/f28x
     689                      .dwattr $C$DW$54, DW_AT_TI_end_line(0x127)
     690                      .dwattr $C$DW$54, DW_AT_TI_end_column(0x01)
     691                      .dwendentry
     692                      .dwendtag $C$DW$54
TMS320C2000 Assembler PC v6.4.4 Wed Jul 08 12:49:34 2015

Tools Copyright (c) 1996-2015 Texas Instruments Incorporated
C:\Users\grant\AppData\Local\Temp\0769610                            PAGE   14

     693              
     694 0000006f               .sect   ".text"
     695                      .clink
     696                      .global _PIE_getExtIntCount
     697              
     698              $C$DW$59        .dwtag  DW_TAG_subprogram, DW_AT_name("PIE_getExtIntCount")
     699                      .dwattr $C$DW$59, DW_AT_low_pc(_PIE_getExtIntCount)
     700                      .dwattr $C$DW$59, DW_AT_high_pc(0x00)
     701                      .dwattr $C$DW$59, DW_AT_TI_symbol_name("_PIE_getExtIntCount")
     702                      .dwattr $C$DW$59, DW_AT_external
     703                      .dwattr $C$DW$59, DW_AT_type(*$C$DW$T$19)
     704                      .dwattr $C$DW$59, DW_AT_TI_begin_file("C:/ti/motorware/motorware_1_01_00_14/sw/drivers/pie/src/32b/f2
     705                      .dwattr $C$DW$59, DW_AT_TI_begin_line(0x116)
     706                      .dwattr $C$DW$59, DW_AT_TI_begin_column(0x0a)
     707                      .dwattr $C$DW$59, DW_AT_TI_max_frame_size(-2)
     708                      .dwpsn  file "C:/ti/motorware/motorware_1_01_00_14/sw/drivers/pie/src/32b/f28x/f2806x/pie.c",line 279
     709              
     710                      .dwfde $C$DW$CIE, _PIE_getExtIntCount
     711              $C$DW$60        .dwtag  DW_TAG_formal_parameter, DW_AT_name("pieHandle")
     712                      .dwattr $C$DW$60, DW_AT_TI_symbol_name("_pieHandle")
     713                      .dwattr $C$DW$60, DW_AT_type(*$C$DW$T$62)
     714                      .dwattr $C$DW$60, DW_AT_location[DW_OP_reg12]
     715              $C$DW$61        .dwtag  DW_TAG_formal_parameter, DW_AT_name("intNumber")
     716                      .dwattr $C$DW$61, DW_AT_TI_symbol_name("_intNumber")
     717                      .dwattr $C$DW$61, DW_AT_type(*$C$DW$T$36)
     718                      .dwattr $C$DW$61, DW_AT_location[DW_OP_reg0]
     719              
     720              ;***************************************************************
     721              ;* FNAME: _PIE_getExtIntCount           FR SIZE:   0           *
     722              ;*                                                             *
     723              ;* FUNCTION ENVIRONMENT                                        *
     724              ;*                                                             *
     725              ;* FUNCTION PROPERTIES                                         *
     726              ;*                            0 Parameter,  0 Auto,  0 SOE     *
     727              ;***************************************************************
     728              
     729              _PIE_getExtIntCount:
     730              ;* AL    assigned to _pieHandle
     731              $C$DW$62        .dwtag  DW_TAG_variable, DW_AT_name("pieHandle")
     732                      .dwattr $C$DW$62, DW_AT_TI_symbol_name("_pieHandle")
     733                      .dwattr $C$DW$62, DW_AT_type(*$C$DW$T$63)
     734                      .dwattr $C$DW$62, DW_AT_location[DW_OP_reg0]
     735              ;* AR6   assigned to _intNumber
     736              $C$DW$63        .dwtag  DW_TAG_variable, DW_AT_name("intNumber")
     737                      .dwattr $C$DW$63, DW_AT_TI_symbol_name("_intNumber")
     738                      .dwattr $C$DW$63, DW_AT_type(*$C$DW$T$36)
     739                      .dwattr $C$DW$63, DW_AT_location[DW_OP_reg16]
     740              ;* AL    assigned to _count
     741              $C$DW$64        .dwtag  DW_TAG_variable, DW_AT_name("count")
     742                      .dwattr $C$DW$64, DW_AT_TI_symbol_name("_count")
     743                      .dwattr $C$DW$64, DW_AT_type(*$C$DW$T$19)
     744                      .dwattr $C$DW$64, DW_AT_location[DW_OP_reg0]
     745                      .dwcfi  cfa_offset, -2
     746                      .dwcfi  save_reg_to_mem, 26, 0
     747 0000006f 88A9          MOVZ      AR6,AL                ; [CPU_] |279| 
TMS320C2000 Assembler PC v6.4.4 Wed Jul 08 12:49:34 2015

Tools Copyright (c) 1996-2015 Texas Instruments Incorporated
C:\Users\grant\AppData\Local\Temp\0769610                            PAGE   15

     748 00000070 A8A9          MOVL      ACC,XAR4              ; [CPU_] |279| 
     749                      .dwpsn  file "C:/ti/motorware/motorware_1_01_00_14/sw/drivers/pie/src/32b/f28x/f2806x/pie.c",line 284
     750 00000071 0DA6          ADDU      ACC,AR6               ; [CPU_] |284| 
     751 00000072 FF13          ADD       ACC,#3187 << 3        ; [CPU_] |284| 
         00000073 0C73 
     752 00000074 8AA9          MOVL      XAR4,ACC              ; [CPU_] |284| 
     753 00000075 92C4          MOV       AL,*+XAR4[0]          ; [CPU_] |284| 
     754              $C$DW$65        .dwtag  DW_TAG_TI_branch
     755                      .dwattr $C$DW$65, DW_AT_low_pc(0x00)
     756                      .dwattr $C$DW$65, DW_AT_TI_return
     757 00000076 0006          LRETR     ; [CPU_] 
     758                      ; return occurs ; [] 
     759                      .dwattr $C$DW$59, DW_AT_TI_end_file("C:/ti/motorware/motorware_1_01_00_14/sw/drivers/pie/src/32b/f28x
     760                      .dwattr $C$DW$59, DW_AT_TI_end_line(0x11f)
     761                      .dwattr $C$DW$59, DW_AT_TI_end_column(0x01)
     762                      .dwendentry
     763                      .dwendtag $C$DW$59
     764              
     765 00000077               .sect   ".text"
     766                      .clink
     767                      .global _PIE_forceInt
     768              
     769              $C$DW$66        .dwtag  DW_TAG_subprogram, DW_AT_name("PIE_forceInt")
     770                      .dwattr $C$DW$66, DW_AT_low_pc(_PIE_forceInt)
     771                      .dwattr $C$DW$66, DW_AT_high_pc(0x00)
     772                      .dwattr $C$DW$66, DW_AT_TI_symbol_name("_PIE_forceInt")
     773                      .dwattr $C$DW$66, DW_AT_external
     774                      .dwattr $C$DW$66, DW_AT_TI_begin_file("C:/ti/motorware/motorware_1_01_00_14/sw/drivers/pie/src/32b/f2
     775                      .dwattr $C$DW$66, DW_AT_TI_begin_line(0x10c)
     776                      .dwattr $C$DW$66, DW_AT_TI_begin_column(0x06)
     777                      .dwattr $C$DW$66, DW_AT_TI_max_frame_size(-2)
     778                      .dwpsn  file "C:/ti/motorware/motorware_1_01_00_14/sw/drivers/pie/src/32b/f28x/f2806x/pie.c",line 269
     779              
     780                      .dwfde $C$DW$CIE, _PIE_forceInt
     781              $C$DW$67        .dwtag  DW_TAG_formal_parameter, DW_AT_name("pieHandle")
     782                      .dwattr $C$DW$67, DW_AT_TI_symbol_name("_pieHandle")
     783                      .dwattr $C$DW$67, DW_AT_type(*$C$DW$T$62)
     784                      .dwattr $C$DW$67, DW_AT_location[DW_OP_reg12]
     785              $C$DW$68        .dwtag  DW_TAG_formal_parameter, DW_AT_name("group")
     786                      .dwattr $C$DW$68, DW_AT_TI_symbol_name("_group")
     787                      .dwattr $C$DW$68, DW_AT_type(*$C$DW$T$39)
     788                      .dwattr $C$DW$68, DW_AT_location[DW_OP_reg0]
     789              $C$DW$69        .dwtag  DW_TAG_formal_parameter, DW_AT_name("intSource")
     790                      .dwattr $C$DW$69, DW_AT_TI_symbol_name("_intSource")
     791                      .dwattr $C$DW$69, DW_AT_type(*$C$DW$T$42)
     792                      .dwattr $C$DW$69, DW_AT_location[DW_OP_reg1]
     793              
     794              ;***************************************************************
     795              ;* FNAME: _PIE_forceInt                 FR SIZE:   0           *
     796              ;*                                                             *
     797              ;* FUNCTION ENVIRONMENT                                        *
     798              ;*                                                             *
     799              ;* FUNCTION PROPERTIES                                         *
     800              ;*                            0 Parameter,  0 Auto,  0 SOE     *
     801              ;***************************************************************
TMS320C2000 Assembler PC v6.4.4 Wed Jul 08 12:49:34 2015

Tools Copyright (c) 1996-2015 Texas Instruments Incorporated
C:\Users\grant\AppData\Local\Temp\0769610                            PAGE   16

     802              
     803              _PIE_forceInt:
     804              ;* AR4   assigned to _pieHandle
     805              $C$DW$70        .dwtag  DW_TAG_variable, DW_AT_name("pieHandle")
     806                      .dwattr $C$DW$70, DW_AT_TI_symbol_name("_pieHandle")
     807                      .dwattr $C$DW$70, DW_AT_type(*$C$DW$T$63)
     808                      .dwattr $C$DW$70, DW_AT_location[DW_OP_reg12]
     809              ;* AR6   assigned to _intSource
     810              $C$DW$71        .dwtag  DW_TAG_variable, DW_AT_name("intSource")
     811                      .dwattr $C$DW$71, DW_AT_TI_symbol_name("_intSource")
     812                      .dwattr $C$DW$71, DW_AT_type(*$C$DW$T$42)
     813                      .dwattr $C$DW$71, DW_AT_location[DW_OP_reg16]
     814                      .dwcfi  cfa_offset, -2
     815                      .dwcfi  save_reg_to_mem, 26, 0
     816 00000077 88A8          MOVZ      AR6,AH                ; [CPU_] |269| 
     817 00000078 2901          CLRC      SXM                   ; [CPU_] 
     818                      .dwpsn  file "C:/ti/motorware/motorware_1_01_00_14/sw/drivers/pie/src/32b/f28x/f2806x/pie.c",line 272
     819 00000079 5603          MOV       ACC,AL << 1           ; [CPU_] |272| 
         0000007a 01A9 
     820 0000007b 5601          ADDL      XAR4,ACC              ; [CPU_] |272| 
         0000007c 00A4 
     821 0000007d 92A6          MOV       AL,AR6                ; [CPU_] |272| 
     822 0000007e 98DC          OR        *+XAR4[3],AL          ; [CPU_] |272| 
     823              $C$DW$72        .dwtag  DW_TAG_TI_branch
     824                      .dwattr $C$DW$72, DW_AT_low_pc(0x00)
     825                      .dwattr $C$DW$72, DW_AT_TI_return
     826 0000007f 0006          LRETR     ; [CPU_] 
     827                      ; return occurs ; [] 
     828                      .dwattr $C$DW$66, DW_AT_TI_end_file("C:/ti/motorware/motorware_1_01_00_14/sw/drivers/pie/src/32b/f28x
     829                      .dwattr $C$DW$66, DW_AT_TI_end_line(0x113)
     830                      .dwattr $C$DW$66, DW_AT_TI_end_column(0x01)
     831                      .dwendentry
     832                      .dwendtag $C$DW$66
     833              
     834 00000080               .sect   ".text"
     835                      .clink
     836                      .global _PIE_enableTimer0Int
     837              
     838              $C$DW$73        .dwtag  DW_TAG_subprogram, DW_AT_name("PIE_enableTimer0Int")
     839                      .dwattr $C$DW$73, DW_AT_low_pc(_PIE_enableTimer0Int)
     840                      .dwattr $C$DW$73, DW_AT_high_pc(0x00)
     841                      .dwattr $C$DW$73, DW_AT_TI_symbol_name("_PIE_enableTimer0Int")
     842                      .dwattr $C$DW$73, DW_AT_external
     843                      .dwattr $C$DW$73, DW_AT_TI_begin_file("C:/ti/motorware/motorware_1_01_00_14/sw/drivers/pie/src/32b/f2
     844                      .dwattr $C$DW$73, DW_AT_TI_begin_line(0x101)
     845                      .dwattr $C$DW$73, DW_AT_TI_begin_column(0x06)
     846                      .dwattr $C$DW$73, DW_AT_TI_max_frame_size(-2)
     847                      .dwpsn  file "C:/ti/motorware/motorware_1_01_00_14/sw/drivers/pie/src/32b/f28x/f2806x/pie.c",line 258
     848              
     849                      .dwfde $C$DW$CIE, _PIE_enableTimer0Int
     850              $C$DW$74        .dwtag  DW_TAG_formal_parameter, DW_AT_name("pieHandle")
     851                      .dwattr $C$DW$74, DW_AT_TI_symbol_name("_pieHandle")
     852                      .dwattr $C$DW$74, DW_AT_type(*$C$DW$T$62)
     853                      .dwattr $C$DW$74, DW_AT_location[DW_OP_reg12]
     854              
TMS320C2000 Assembler PC v6.4.4 Wed Jul 08 12:49:34 2015

Tools Copyright (c) 1996-2015 Texas Instruments Incorporated
C:\Users\grant\AppData\Local\Temp\0769610                            PAGE   17

     855              ;***************************************************************
     856              ;* FNAME: _PIE_enableTimer0Int          FR SIZE:   0           *
     857              ;*                                                             *
     858              ;* FUNCTION ENVIRONMENT                                        *
     859              ;*                                                             *
     860              ;* FUNCTION PROPERTIES                                         *
     861              ;*                            0 Parameter,  0 Auto,  0 SOE     *
     862              ;***************************************************************
     863              
     864              _PIE_enableTimer0Int:
     865              ;* AR4   assigned to _pieHandle
     866              $C$DW$75        .dwtag  DW_TAG_variable, DW_AT_name("pieHandle")
     867                      .dwattr $C$DW$75, DW_AT_TI_symbol_name("_pieHandle")
     868                      .dwattr $C$DW$75, DW_AT_type(*$C$DW$T$63)
     869                      .dwattr $C$DW$75, DW_AT_location[DW_OP_reg12]
     870                      .dwcfi  cfa_offset, -2
     871                      .dwcfi  save_reg_to_mem, 26, 0
     872                      .dwpsn  file "C:/ti/motorware/motorware_1_01_00_14/sw/drivers/pie/src/32b/f28x/f2806x/pie.c",line 262
     873 00000080 1AD4          OR        *+XAR4[2],#0x0040     ; [CPU_] |262| 
         00000081 0040 
     874              $C$DW$76        .dwtag  DW_TAG_TI_branch
     875                      .dwattr $C$DW$76, DW_AT_low_pc(0x00)
     876                      .dwattr $C$DW$76, DW_AT_TI_return
     877 00000082 0006          LRETR     ; [CPU_] 
     878                      ; return occurs ; [] 
     879                      .dwattr $C$DW$73, DW_AT_TI_end_file("C:/ti/motorware/motorware_1_01_00_14/sw/drivers/pie/src/32b/f28x
     880                      .dwattr $C$DW$73, DW_AT_TI_end_line(0x109)
     881                      .dwattr $C$DW$73, DW_AT_TI_end_column(0x01)
     882                      .dwendentry
     883                      .dwendtag $C$DW$73
     884              
     885 00000083               .sect   ".text"
     886                      .clink
     887                      .global _PIE_enablePwmTzInt
     888              
     889              $C$DW$77        .dwtag  DW_TAG_subprogram, DW_AT_name("PIE_enablePwmTzInt")
     890                      .dwattr $C$DW$77, DW_AT_low_pc(_PIE_enablePwmTzInt)
     891                      .dwattr $C$DW$77, DW_AT_high_pc(0x00)
     892                      .dwattr $C$DW$77, DW_AT_TI_symbol_name("_PIE_enablePwmTzInt")
     893                      .dwattr $C$DW$77, DW_AT_external
     894                      .dwattr $C$DW$77, DW_AT_TI_begin_file("C:/ti/motorware/motorware_1_01_00_14/sw/drivers/pie/src/32b/f2
     895                      .dwattr $C$DW$77, DW_AT_TI_begin_line(0xf4)
     896                      .dwattr $C$DW$77, DW_AT_TI_begin_column(0x06)
     897                      .dwattr $C$DW$77, DW_AT_TI_max_frame_size(-2)
     898                      .dwpsn  file "C:/ti/motorware/motorware_1_01_00_14/sw/drivers/pie/src/32b/f28x/f2806x/pie.c",line 245
     899              
     900                      .dwfde $C$DW$CIE, _PIE_enablePwmTzInt
     901              $C$DW$78        .dwtag  DW_TAG_formal_parameter, DW_AT_name("pieHandle")
     902                      .dwattr $C$DW$78, DW_AT_TI_symbol_name("_pieHandle")
     903                      .dwattr $C$DW$78, DW_AT_type(*$C$DW$T$62)
     904                      .dwattr $C$DW$78, DW_AT_location[DW_OP_reg12]
     905              $C$DW$79        .dwtag  DW_TAG_formal_parameter, DW_AT_name("pwmNumber")
     906                      .dwattr $C$DW$79, DW_AT_TI_symbol_name("_pwmNumber")
     907                      .dwattr $C$DW$79, DW_AT_type(*$C$DW$T$48)
     908                      .dwattr $C$DW$79, DW_AT_location[DW_OP_reg0]
TMS320C2000 Assembler PC v6.4.4 Wed Jul 08 12:49:34 2015

Tools Copyright (c) 1996-2015 Texas Instruments Incorporated
C:\Users\grant\AppData\Local\Temp\0769610                            PAGE   18

     909              
     910              ;***************************************************************
     911              ;* FNAME: _PIE_enablePwmTzInt           FR SIZE:   0           *
     912              ;*                                                             *
     913              ;* FUNCTION ENVIRONMENT                                        *
     914              ;*                                                             *
     915              ;* FUNCTION PROPERTIES                                         *
     916              ;*                            0 Parameter,  0 Auto,  0 SOE     *
     917              ;***************************************************************
     918              
     919              _PIE_enablePwmTzInt:
     920              ;* AR4   assigned to _pieHandle
     921              $C$DW$80        .dwtag  DW_TAG_variable, DW_AT_name("pieHandle")
     922                      .dwattr $C$DW$80, DW_AT_TI_symbol_name("_pieHandle")
     923                      .dwattr $C$DW$80, DW_AT_type(*$C$DW$T$63)
     924                      .dwattr $C$DW$80, DW_AT_location[DW_OP_reg12]
     925              ;* T     assigned to _pwmNumber
     926              $C$DW$81        .dwtag  DW_TAG_variable, DW_AT_name("pwmNumber")
     927                      .dwattr $C$DW$81, DW_AT_TI_symbol_name("_pwmNumber")
     928                      .dwattr $C$DW$81, DW_AT_type(*$C$DW$T$48)
     929                      .dwattr $C$DW$81, DW_AT_location[DW_OP_reg22]
     930                      .dwcfi  cfa_offset, -2
     931                      .dwcfi  save_reg_to_mem, 26, 0
     932 00000083 2DA9          MOV       T,AL                  ; [CPU_] |245| 
     933                      .dwpsn  file "C:/ti/motorware/motorware_1_01_00_14/sw/drivers/pie/src/32b/f28x/f2806x/pie.c",line 252
     934 00000084 9A01          MOVB      AL,#1                 ; [CPU_] |252| 
     935 00000085 FF66          LSL       AL,T                  ; [CPU_] |252| 
     936 00000086 98E4          OR        *+XAR4[4],AL          ; [CPU_] |252| 
     937              $C$DW$82        .dwtag  DW_TAG_TI_branch
     938                      .dwattr $C$DW$82, DW_AT_low_pc(0x00)
     939                      .dwattr $C$DW$82, DW_AT_TI_return
     940 00000087 0006          LRETR     ; [CPU_] 
     941                      ; return occurs ; [] 
     942                      .dwattr $C$DW$77, DW_AT_TI_end_file("C:/ti/motorware/motorware_1_01_00_14/sw/drivers/pie/src/32b/f28x
     943                      .dwattr $C$DW$77, DW_AT_TI_end_line(0xff)
     944                      .dwattr $C$DW$77, DW_AT_TI_end_column(0x01)
     945                      .dwendentry
     946                      .dwendtag $C$DW$77
     947              
     948 00000088               .sect   ".text"
     949                      .clink
     950                      .global _PIE_enablePwmInt
     951              
     952              $C$DW$83        .dwtag  DW_TAG_subprogram, DW_AT_name("PIE_enablePwmInt")
     953                      .dwattr $C$DW$83, DW_AT_low_pc(_PIE_enablePwmInt)
     954                      .dwattr $C$DW$83, DW_AT_high_pc(0x00)
     955                      .dwattr $C$DW$83, DW_AT_TI_symbol_name("_PIE_enablePwmInt")
     956                      .dwattr $C$DW$83, DW_AT_external
     957                      .dwattr $C$DW$83, DW_AT_TI_begin_file("C:/ti/motorware/motorware_1_01_00_14/sw/drivers/pie/src/32b/f2
     958                      .dwattr $C$DW$83, DW_AT_TI_begin_line(0xe7)
     959                      .dwattr $C$DW$83, DW_AT_TI_begin_column(0x06)
     960                      .dwattr $C$DW$83, DW_AT_TI_max_frame_size(-2)
     961                      .dwpsn  file "C:/ti/motorware/motorware_1_01_00_14/sw/drivers/pie/src/32b/f28x/f2806x/pie.c",line 232
     962              
     963                      .dwfde $C$DW$CIE, _PIE_enablePwmInt
TMS320C2000 Assembler PC v6.4.4 Wed Jul 08 12:49:34 2015

Tools Copyright (c) 1996-2015 Texas Instruments Incorporated
C:\Users\grant\AppData\Local\Temp\0769610                            PAGE   19

     964              $C$DW$84        .dwtag  DW_TAG_formal_parameter, DW_AT_name("pieHandle")
     965                      .dwattr $C$DW$84, DW_AT_TI_symbol_name("_pieHandle")
     966                      .dwattr $C$DW$84, DW_AT_type(*$C$DW$T$62)
     967                      .dwattr $C$DW$84, DW_AT_location[DW_OP_reg12]
     968              $C$DW$85        .dwtag  DW_TAG_formal_parameter, DW_AT_name("pwmNumber")
     969                      .dwattr $C$DW$85, DW_AT_TI_symbol_name("_pwmNumber")
     970                      .dwattr $C$DW$85, DW_AT_type(*$C$DW$T$48)
     971                      .dwattr $C$DW$85, DW_AT_location[DW_OP_reg0]
     972              
     973              ;***************************************************************
     974              ;* FNAME: _PIE_enablePwmInt             FR SIZE:   0           *
     975              ;*                                                             *
     976              ;* FUNCTION ENVIRONMENT                                        *
     977              ;*                                                             *
     978              ;* FUNCTION PROPERTIES                                         *
     979              ;*                            0 Parameter,  0 Auto,  0 SOE     *
     980              ;***************************************************************
     981              
     982              _PIE_enablePwmInt:
     983              ;* AR4   assigned to _pieHandle
     984              $C$DW$86        .dwtag  DW_TAG_variable, DW_AT_name("pieHandle")
     985                      .dwattr $C$DW$86, DW_AT_TI_symbol_name("_pieHandle")
     986                      .dwattr $C$DW$86, DW_AT_type(*$C$DW$T$63)
     987                      .dwattr $C$DW$86, DW_AT_location[DW_OP_reg12]
     988              ;* T     assigned to _pwmNumber
     989              $C$DW$87        .dwtag  DW_TAG_variable, DW_AT_name("pwmNumber")
     990                      .dwattr $C$DW$87, DW_AT_TI_symbol_name("_pwmNumber")
     991                      .dwattr $C$DW$87, DW_AT_type(*$C$DW$T$48)
     992                      .dwattr $C$DW$87, DW_AT_location[DW_OP_reg22]
     993                      .dwcfi  cfa_offset, -2
     994                      .dwcfi  save_reg_to_mem, 26, 0
     995 00000088 2DA9          MOV       T,AL                  ; [CPU_] |232| 
     996                      .dwpsn  file "C:/ti/motorware/motorware_1_01_00_14/sw/drivers/pie/src/32b/f28x/f2806x/pie.c",line 239
     997 00000089 9A01          MOVB      AL,#1                 ; [CPU_] |239| 
     998 0000008a FF66          LSL       AL,T                  ; [CPU_] |239| 
     999 0000008b 98F4          OR        *+XAR4[6],AL          ; [CPU_] |239| 
    1000              $C$DW$88        .dwtag  DW_TAG_TI_branch
    1001                      .dwattr $C$DW$88, DW_AT_low_pc(0x00)
    1002                      .dwattr $C$DW$88, DW_AT_TI_return
    1003 0000008c 0006          LRETR     ; [CPU_] 
    1004                      ; return occurs ; [] 
    1005                      .dwattr $C$DW$83, DW_AT_TI_end_file("C:/ti/motorware/motorware_1_01_00_14/sw/drivers/pie/src/32b/f28x
    1006                      .dwattr $C$DW$83, DW_AT_TI_end_line(0xf2)
    1007                      .dwattr $C$DW$83, DW_AT_TI_end_column(0x01)
    1008                      .dwendentry
    1009                      .dwendtag $C$DW$83
    1010              
    1011 0000008d               .sect   ".text"
    1012                      .clink
    1013                      .global _PIE_enableInt
    1014              
    1015              $C$DW$89        .dwtag  DW_TAG_subprogram, DW_AT_name("PIE_enableInt")
    1016                      .dwattr $C$DW$89, DW_AT_low_pc(_PIE_enableInt)
    1017                      .dwattr $C$DW$89, DW_AT_high_pc(0x00)
    1018                      .dwattr $C$DW$89, DW_AT_TI_symbol_name("_PIE_enableInt")
TMS320C2000 Assembler PC v6.4.4 Wed Jul 08 12:49:34 2015

Tools Copyright (c) 1996-2015 Texas Instruments Incorporated
C:\Users\grant\AppData\Local\Temp\0769610                            PAGE   20

    1019                      .dwattr $C$DW$89, DW_AT_external
    1020                      .dwattr $C$DW$89, DW_AT_TI_begin_file("C:/ti/motorware/motorware_1_01_00_14/sw/drivers/pie/src/32b/f2
    1021                      .dwattr $C$DW$89, DW_AT_TI_begin_line(0xdd)
    1022                      .dwattr $C$DW$89, DW_AT_TI_begin_column(0x06)
    1023                      .dwattr $C$DW$89, DW_AT_TI_max_frame_size(-2)
    1024                      .dwpsn  file "C:/ti/motorware/motorware_1_01_00_14/sw/drivers/pie/src/32b/f28x/f2806x/pie.c",line 222
    1025              
    1026                      .dwfde $C$DW$CIE, _PIE_enableInt
    1027              $C$DW$90        .dwtag  DW_TAG_formal_parameter, DW_AT_name("pieHandle")
    1028                      .dwattr $C$DW$90, DW_AT_TI_symbol_name("_pieHandle")
    1029                      .dwattr $C$DW$90, DW_AT_type(*$C$DW$T$62)
    1030                      .dwattr $C$DW$90, DW_AT_location[DW_OP_reg12]
    1031              $C$DW$91        .dwtag  DW_TAG_formal_parameter, DW_AT_name("group")
    1032                      .dwattr $C$DW$91, DW_AT_TI_symbol_name("_group")
    1033                      .dwattr $C$DW$91, DW_AT_type(*$C$DW$T$39)
    1034                      .dwattr $C$DW$91, DW_AT_location[DW_OP_reg0]
    1035              $C$DW$92        .dwtag  DW_TAG_formal_parameter, DW_AT_name("intSource")
    1036                      .dwattr $C$DW$92, DW_AT_TI_symbol_name("_intSource")
    1037                      .dwattr $C$DW$92, DW_AT_type(*$C$DW$T$42)
    1038                      .dwattr $C$DW$92, DW_AT_location[DW_OP_reg1]
    1039              
    1040              ;***************************************************************
    1041              ;* FNAME: _PIE_enableInt                FR SIZE:   0           *
    1042              ;*                                                             *
    1043              ;* FUNCTION ENVIRONMENT                                        *
    1044              ;*                                                             *
    1045              ;* FUNCTION PROPERTIES                                         *
    1046              ;*                            0 Parameter,  0 Auto,  0 SOE     *
    1047              ;***************************************************************
    1048              
    1049              _PIE_enableInt:
    1050              ;* AR4   assigned to _pieHandle
    1051              $C$DW$93        .dwtag  DW_TAG_variable, DW_AT_name("pieHandle")
    1052                      .dwattr $C$DW$93, DW_AT_TI_symbol_name("_pieHandle")
    1053                      .dwattr $C$DW$93, DW_AT_type(*$C$DW$T$63)
    1054                      .dwattr $C$DW$93, DW_AT_location[DW_OP_reg12]
    1055              ;* AR6   assigned to _intSource
    1056              $C$DW$94        .dwtag  DW_TAG_variable, DW_AT_name("intSource")
    1057                      .dwattr $C$DW$94, DW_AT_TI_symbol_name("_intSource")
    1058                      .dwattr $C$DW$94, DW_AT_type(*$C$DW$T$42)
    1059                      .dwattr $C$DW$94, DW_AT_location[DW_OP_reg16]
    1060                      .dwcfi  cfa_offset, -2
    1061                      .dwcfi  save_reg_to_mem, 26, 0
    1062 0000008d 88A8          MOVZ      AR6,AH                ; [CPU_] |222| 
    1063 0000008e 2901          CLRC      SXM                   ; [CPU_] 
    1064                      .dwpsn  file "C:/ti/motorware/motorware_1_01_00_14/sw/drivers/pie/src/32b/f28x/f2806x/pie.c",line 225
    1065 0000008f 5603          MOV       ACC,AL << 1           ; [CPU_] |225| 
         00000090 01A9 
    1066 00000091 5601          ADDL      XAR4,ACC              ; [CPU_] |225| 
         00000092 00A4 
    1067 00000093 92A6          MOV       AL,AR6                ; [CPU_] |225| 
    1068 00000094 98D4          OR        *+XAR4[2],AL          ; [CPU_] |225| 
    1069              $C$DW$95        .dwtag  DW_TAG_TI_branch
    1070                      .dwattr $C$DW$95, DW_AT_low_pc(0x00)
    1071                      .dwattr $C$DW$95, DW_AT_TI_return
TMS320C2000 Assembler PC v6.4.4 Wed Jul 08 12:49:34 2015

Tools Copyright (c) 1996-2015 Texas Instruments Incorporated
C:\Users\grant\AppData\Local\Temp\0769610                            PAGE   21

    1072 00000095 0006          LRETR     ; [CPU_] 
    1073                      ; return occurs ; [] 
    1074                      .dwattr $C$DW$89, DW_AT_TI_end_file("C:/ti/motorware/motorware_1_01_00_14/sw/drivers/pie/src/32b/f28x
    1075                      .dwattr $C$DW$89, DW_AT_TI_end_line(0xe4)
    1076                      .dwattr $C$DW$89, DW_AT_TI_end_column(0x01)
    1077                      .dwendentry
    1078                      .dwendtag $C$DW$89
    1079              
    1080 00000096               .sect   ".text"
    1081                      .clink
    1082                      .global _PIE_enableExtInt
    1083              
    1084              $C$DW$96        .dwtag  DW_TAG_subprogram, DW_AT_name("PIE_enableExtInt")
    1085                      .dwattr $C$DW$96, DW_AT_low_pc(_PIE_enableExtInt)
    1086                      .dwattr $C$DW$96, DW_AT_high_pc(0x00)
    1087                      .dwattr $C$DW$96, DW_AT_TI_symbol_name("_PIE_enableExtInt")
    1088                      .dwattr $C$DW$96, DW_AT_external
    1089                      .dwattr $C$DW$96, DW_AT_TI_begin_file("C:/ti/motorware/motorware_1_01_00_14/sw/drivers/pie/src/32b/f2
    1090                      .dwattr $C$DW$96, DW_AT_TI_begin_line(0xc0)
    1091                      .dwattr $C$DW$96, DW_AT_TI_begin_column(0x06)
    1092                      .dwattr $C$DW$96, DW_AT_TI_max_frame_size(-2)
    1093                      .dwpsn  file "C:/ti/motorware/motorware_1_01_00_14/sw/drivers/pie/src/32b/f28x/f2806x/pie.c",line 193
    1094              
    1095                      .dwfde $C$DW$CIE, _PIE_enableExtInt
    1096              $C$DW$97        .dwtag  DW_TAG_formal_parameter, DW_AT_name("pieHandle")
    1097                      .dwattr $C$DW$97, DW_AT_TI_symbol_name("_pieHandle")
    1098                      .dwattr $C$DW$97, DW_AT_type(*$C$DW$T$62)
    1099                      .dwattr $C$DW$97, DW_AT_location[DW_OP_reg12]
    1100              $C$DW$98        .dwtag  DW_TAG_formal_parameter, DW_AT_name("intNumber")
    1101                      .dwattr $C$DW$98, DW_AT_TI_symbol_name("_intNumber")
    1102                      .dwattr $C$DW$98, DW_AT_type(*$C$DW$T$36)
    1103                      .dwattr $C$DW$98, DW_AT_location[DW_OP_reg0]
    1104              
    1105              ;***************************************************************
    1106              ;* FNAME: _PIE_enableExtInt             FR SIZE:   0           *
    1107              ;*                                                             *
    1108              ;* FUNCTION ENVIRONMENT                                        *
    1109              ;*                                                             *
    1110              ;* FUNCTION PROPERTIES                                         *
    1111              ;*                            0 Parameter,  0 Auto,  0 SOE     *
    1112              ;***************************************************************
    1113              
    1114              _PIE_enableExtInt:
    1115              ;* AR7   assigned to _setValue
    1116              $C$DW$99        .dwtag  DW_TAG_variable, DW_AT_name("setValue")
    1117                      .dwattr $C$DW$99, DW_AT_TI_symbol_name("_setValue")
    1118                      .dwattr $C$DW$99, DW_AT_type(*$C$DW$T$19)
    1119                      .dwattr $C$DW$99, DW_AT_location[DW_OP_reg18]
    1120              ;* AR6   assigned to _intNumber
    1121              $C$DW$100       .dwtag  DW_TAG_variable, DW_AT_name("intNumber")
    1122                      .dwattr $C$DW$100, DW_AT_TI_symbol_name("_intNumber")
    1123                      .dwattr $C$DW$100, DW_AT_type(*$C$DW$T$36)
    1124                      .dwattr $C$DW$100, DW_AT_location[DW_OP_reg16]
    1125              ;* AR4   assigned to _pieHandle
    1126              $C$DW$101       .dwtag  DW_TAG_variable, DW_AT_name("pieHandle")
TMS320C2000 Assembler PC v6.4.4 Wed Jul 08 12:49:34 2015

Tools Copyright (c) 1996-2015 Texas Instruments Incorporated
C:\Users\grant\AppData\Local\Temp\0769610                            PAGE   22

    1127                      .dwattr $C$DW$101, DW_AT_TI_symbol_name("_pieHandle")
    1128                      .dwattr $C$DW$101, DW_AT_type(*$C$DW$T$63)
    1129                      .dwattr $C$DW$101, DW_AT_location[DW_OP_reg12]
    1130                      .dwcfi  cfa_offset, -2
    1131                      .dwcfi  save_reg_to_mem, 26, 0
    1132                      .dwpsn  file "C:/ti/motorware/motorware_1_01_00_14/sw/drivers/pie/src/32b/f28x/f2806x/pie.c",line 199
    1133 00000096 5202          CMPB      AL,#2                 ; [CPU_] |199| 
    1134                      .dwpsn  file "C:/ti/motorware/motorware_1_01_00_14/sw/drivers/pie/src/32b/f28x/f2806x/pie.c",line 193
    1135 00000097 88A9          MOVZ      AR6,AL                ; [CPU_] |193| 
    1136                      .dwpsn  file "C:/ti/motorware/motorware_1_01_00_14/sw/drivers/pie/src/32b/f28x/f2806x/pie.c",line 199
    1137 00000098 56C8          BF        $C$L4,LO              ; [CPU_] |199| 
         00000099 0005 
    1138                      ; branchcc occurs ; [] |199| 
    1139                      .dwpsn  file "C:/ti/motorware/motorware_1_01_00_14/sw/drivers/pie/src/32b/f28x/f2806x/pie.c",line 206
    1140 0000009a 9A0A          MOVB      AL,#10                ; [CPU_] |206| 
    1141                      .dwpsn  file "C:/ti/motorware/motorware_1_01_00_14/sw/drivers/pie/src/32b/f28x/f2806x/pie.c",line 207
    1142 0000009b B601          MOVB      XAR7,#1               ; [CPU_] |207| 
    1143 0000009c 6F08          B         $C$L5,UNC             ; [CPU_] |207| 
    1144                      ; branch occurs ; [] |207| 
    1145 0000009d       $C$L4:    
    1146                      .dwpsn  file "C:/ti/motorware/motorware_1_01_00_14/sw/drivers/pie/src/32b/f28x/f2806x/pie.c",line 202
    1147 0000009d 28AC          MOV       T,#3                  ; [CPU_] |202| 
         0000009e 0003 
    1148 0000009f 72AC          ADD       T,AL                  ; [CPU_] |202| 
    1149 000000a0 9A01          MOVB      AL,#1                 ; [CPU_] |202| 
    1150 000000a1 FF66          LSL       AL,T                  ; [CPU_] |202| 
    1151 000000a2 80A9          MOVZ      AR7,AL                ; [CPU_] |202| 
    1152                      .dwpsn  file "C:/ti/motorware/motorware_1_01_00_14/sw/drivers/pie/src/32b/f28x/f2806x/pie.c",line 201
    1153 000000a3 9A00          MOVB      AL,#0                 ; [CPU_] |201| 
    1154 000000a4       $C$L5:    
    1155 000000a4 2901          CLRC      SXM                   ; [CPU_] 
    1156                      .dwpsn  file "C:/ti/motorware/motorware_1_01_00_14/sw/drivers/pie/src/32b/f28x/f2806x/pie.c",line 212
    1157 000000a5 5603          MOV       ACC,AL << 1           ; [CPU_] |212| 
         000000a6 01A9 
    1158 000000a7 07A4          ADDL      ACC,XAR4              ; [CPU_] |212| 
    1159 000000a8 83A9          MOVL      XAR5,ACC              ; [CPU_] |212| 
    1160 000000a9 92A7          MOV       AL,AR7                ; [CPU_] |212| 
    1161 000000aa 98D5          OR        *+XAR5[2],AL          ; [CPU_] |212| 
    1162                      .dwpsn  file "C:/ti/motorware/motorware_1_01_00_14/sw/drivers/pie/src/32b/f28x/f2806x/pie.c",line 216
    1163 000000ab A8A9          MOVL      ACC,XAR4              ; [CPU_] |216| 
    1164 000000ac 0DA6          ADDU      ACC,AR6               ; [CPU_] |216| 
    1165 000000ad FF14          ADD       ACC,#1593 << 4        ; [CPU_] |216| 
         000000ae 0639 
    1166 000000af 8AA9          MOVL      XAR4,ACC              ; [CPU_] |216| 
    1167 000000b0 1AC4          OR        *+XAR4[0],#0x0001     ; [CPU_] |216| 
         000000b1 0001 
    1168              $C$DW$102       .dwtag  DW_TAG_TI_branch
    1169                      .dwattr $C$DW$102, DW_AT_low_pc(0x00)
    1170                      .dwattr $C$DW$102, DW_AT_TI_return
    1171 000000b2 0006          LRETR     ; [CPU_] 
    1172                      ; return occurs ; [] 
    1173                      .dwattr $C$DW$96, DW_AT_TI_end_file("C:/ti/motorware/motorware_1_01_00_14/sw/drivers/pie/src/32b/f28x
    1174                      .dwattr $C$DW$96, DW_AT_TI_end_line(0xdb)
    1175                      .dwattr $C$DW$96, DW_AT_TI_end_column(0x01)
    1176                      .dwendentry
TMS320C2000 Assembler PC v6.4.4 Wed Jul 08 12:49:34 2015

Tools Copyright (c) 1996-2015 Texas Instruments Incorporated
C:\Users\grant\AppData\Local\Temp\0769610                            PAGE   23

    1177                      .dwendtag $C$DW$96
    1178              
    1179 000000b3               .sect   ".text"
    1180                      .clink
    1181                      .global _PIE_enableCaptureInt
    1182              
    1183              $C$DW$103       .dwtag  DW_TAG_subprogram, DW_AT_name("PIE_enableCaptureInt")
    1184                      .dwattr $C$DW$103, DW_AT_low_pc(_PIE_enableCaptureInt)
    1185                      .dwattr $C$DW$103, DW_AT_high_pc(0x00)
    1186                      .dwattr $C$DW$103, DW_AT_TI_symbol_name("_PIE_enableCaptureInt")
    1187                      .dwattr $C$DW$103, DW_AT_external
    1188                      .dwattr $C$DW$103, DW_AT_TI_begin_file("C:/ti/motorware/motorware_1_01_00_14/sw/drivers/pie/src/32b/f
    1189                      .dwattr $C$DW$103, DW_AT_TI_begin_line(0xb5)
    1190                      .dwattr $C$DW$103, DW_AT_TI_begin_column(0x06)
    1191                      .dwattr $C$DW$103, DW_AT_TI_max_frame_size(-2)
    1192                      .dwpsn  file "C:/ti/motorware/motorware_1_01_00_14/sw/drivers/pie/src/32b/f28x/f2806x/pie.c",line 182
    1193              
    1194                      .dwfde $C$DW$CIE, _PIE_enableCaptureInt
    1195              $C$DW$104       .dwtag  DW_TAG_formal_parameter, DW_AT_name("pieHandle")
    1196                      .dwattr $C$DW$104, DW_AT_TI_symbol_name("_pieHandle")
    1197                      .dwattr $C$DW$104, DW_AT_type(*$C$DW$T$62)
    1198                      .dwattr $C$DW$104, DW_AT_location[DW_OP_reg12]
    1199              
    1200              ;***************************************************************
    1201              ;* FNAME: _PIE_enableCaptureInt         FR SIZE:   0           *
    1202              ;*                                                             *
    1203              ;* FUNCTION ENVIRONMENT                                        *
    1204              ;*                                                             *
    1205              ;* FUNCTION PROPERTIES                                         *
    1206              ;*                            0 Parameter,  0 Auto,  0 SOE     *
    1207              ;***************************************************************
    1208              
    1209 000000b3       _PIE_enableCaptureInt:
    1210                      .dwcfi  cfa_offset, -2
    1211                      .dwcfi  save_reg_to_mem, 26, 0
    1212                      .dwpsn  file "C:/ti/motorware/motorware_1_01_00_14/sw/drivers/pie/src/32b/f28x/f2806x/pie.c",line 186
    1213 000000b3 DC08          ADDB      XAR4,#8               ; [CPU_] |186| 
    1214 000000b4 1AC4          OR        *+XAR4[0],#0x0001     ; [CPU_] |186| 
         000000b5 0001 
    1215              $C$DW$105       .dwtag  DW_TAG_TI_branch
    1216                      .dwattr $C$DW$105, DW_AT_low_pc(0x00)
    1217                      .dwattr $C$DW$105, DW_AT_TI_return
    1218 000000b6 0006          LRETR     ; [CPU_] 
    1219                      ; return occurs ; [] 
    1220                      .dwattr $C$DW$103, DW_AT_TI_end_file("C:/ti/motorware/motorware_1_01_00_14/sw/drivers/pie/src/32b/f28
    1221                      .dwattr $C$DW$103, DW_AT_TI_end_line(0xbd)
    1222                      .dwattr $C$DW$103, DW_AT_TI_end_column(0x01)
    1223                      .dwendentry
    1224                      .dwendtag $C$DW$103
    1225              
    1226 000000b7               .sect   ".text"
    1227                      .clink
    1228                      .global _PIE_enableAdcInt
    1229              
    1230              $C$DW$106       .dwtag  DW_TAG_subprogram, DW_AT_name("PIE_enableAdcInt")
TMS320C2000 Assembler PC v6.4.4 Wed Jul 08 12:49:34 2015

Tools Copyright (c) 1996-2015 Texas Instruments Incorporated
C:\Users\grant\AppData\Local\Temp\0769610                            PAGE   24

    1231                      .dwattr $C$DW$106, DW_AT_low_pc(_PIE_enableAdcInt)
    1232                      .dwattr $C$DW$106, DW_AT_high_pc(0x00)
    1233                      .dwattr $C$DW$106, DW_AT_TI_symbol_name("_PIE_enableAdcInt")
    1234                      .dwattr $C$DW$106, DW_AT_external
    1235                      .dwattr $C$DW$106, DW_AT_TI_begin_file("C:/ti/motorware/motorware_1_01_00_14/sw/drivers/pie/src/32b/f
    1236                      .dwattr $C$DW$106, DW_AT_TI_begin_line(0x98)
    1237                      .dwattr $C$DW$106, DW_AT_TI_begin_column(0x06)
    1238                      .dwattr $C$DW$106, DW_AT_TI_max_frame_size(-2)
    1239                      .dwpsn  file "C:/ti/motorware/motorware_1_01_00_14/sw/drivers/pie/src/32b/f28x/f2806x/pie.c",line 153
    1240              
    1241                      .dwfde $C$DW$CIE, _PIE_enableAdcInt
    1242              $C$DW$107       .dwtag  DW_TAG_formal_parameter, DW_AT_name("pieHandle")
    1243                      .dwattr $C$DW$107, DW_AT_TI_symbol_name("_pieHandle")
    1244                      .dwattr $C$DW$107, DW_AT_type(*$C$DW$T$62)
    1245                      .dwattr $C$DW$107, DW_AT_location[DW_OP_reg12]
    1246              $C$DW$108       .dwtag  DW_TAG_formal_parameter, DW_AT_name("intNumber")
    1247                      .dwattr $C$DW$108, DW_AT_TI_symbol_name("_intNumber")
    1248                      .dwattr $C$DW$108, DW_AT_type(*$C$DW$T$45)
    1249                      .dwattr $C$DW$108, DW_AT_location[DW_OP_reg0]
    1250              
    1251              ;***************************************************************
    1252              ;* FNAME: _PIE_enableAdcInt             FR SIZE:   0           *
    1253              ;*                                                             *
    1254              ;* FUNCTION ENVIRONMENT                                        *
    1255              ;*                                                             *
    1256              ;* FUNCTION PROPERTIES                                         *
    1257              ;*                            0 Parameter,  0 Auto,  0 SOE     *
    1258              ;***************************************************************
    1259              
    1260              _PIE_enableAdcInt:
    1261              ;* AR6   assigned to _setValue
    1262              $C$DW$109       .dwtag  DW_TAG_variable, DW_AT_name("setValue")
    1263                      .dwattr $C$DW$109, DW_AT_TI_symbol_name("_setValue")
    1264                      .dwattr $C$DW$109, DW_AT_type(*$C$DW$T$19)
    1265                      .dwattr $C$DW$109, DW_AT_location[DW_OP_reg16]
    1266              ;* T     assigned to _intNumber
    1267              $C$DW$110       .dwtag  DW_TAG_variable, DW_AT_name("intNumber")
    1268                      .dwattr $C$DW$110, DW_AT_TI_symbol_name("_intNumber")
    1269                      .dwattr $C$DW$110, DW_AT_type(*$C$DW$T$45)
    1270                      .dwattr $C$DW$110, DW_AT_location[DW_OP_reg22]
    1271              ;* AR4   assigned to _pieHandle
    1272              $C$DW$111       .dwtag  DW_TAG_variable, DW_AT_name("pieHandle")
    1273                      .dwattr $C$DW$111, DW_AT_TI_symbol_name("_pieHandle")
    1274                      .dwattr $C$DW$111, DW_AT_type(*$C$DW$T$63)
    1275                      .dwattr $C$DW$111, DW_AT_location[DW_OP_reg12]
    1276                      .dwcfi  cfa_offset, -2
    1277                      .dwcfi  save_reg_to_mem, 26, 0
    1278                      .dwpsn  file "C:/ti/motorware/motorware_1_01_00_14/sw/drivers/pie/src/32b/f28x/f2806x/pie.c",line 159
    1279 000000b7 5208          CMPB      AL,#8                 ; [CPU_] |159| 
    1280                      .dwpsn  file "C:/ti/motorware/motorware_1_01_00_14/sw/drivers/pie/src/32b/f28x/f2806x/pie.c",line 153
    1281 000000b8 2DA9          MOV       T,AL                  ; [CPU_] |153| 
    1282                      .dwpsn  file "C:/ti/motorware/motorware_1_01_00_14/sw/drivers/pie/src/32b/f28x/f2806x/pie.c",line 159
    1283 000000b9 56C8          BF        $C$L8,LO              ; [CPU_] |159| 
         000000ba 000F 
    1284                      ; branchcc occurs ; [] |159| 
TMS320C2000 Assembler PC v6.4.4 Wed Jul 08 12:49:34 2015

Tools Copyright (c) 1996-2015 Texas Instruments Incorporated
C:\Users\grant\AppData\Local\Temp\0769610                            PAGE   25

    1285                      .dwpsn  file "C:/ti/motorware/motorware_1_01_00_14/sw/drivers/pie/src/32b/f28x/f2806x/pie.c",line 164
    1286 000000bb 5208          CMPB      AL,#8                 ; [CPU_] |164| 
    1287 000000bc EC0A          BF        $C$L7,EQ              ; [CPU_] |164| 
    1288                      ; branchcc occurs ; [] |164| 
    1289                      .dwpsn  file "C:/ti/motorware/motorware_1_01_00_14/sw/drivers/pie/src/32b/f28x/f2806x/pie.c",line 172
    1290 000000bd CCAC          AND       AL,T,#0x0007          ; [CPU_] |172| 
         000000be 0007 
    1291 000000bf 9CFF          ADDB      AL,#-1                ; [CPU_] |172| 
    1292 000000c0 2DA9          MOV       T,AL                  ; [CPU_] |172| 
    1293 000000c1 9A01          MOVB      AL,#1                 ; [CPU_] |172| 
    1294 000000c2 FF66          LSL       AL,T                  ; [CPU_] |172| 
    1295 000000c3 88A9          MOVZ      AR6,AL                ; [CPU_] |172| 
    1296 000000c4       $C$L6:    
    1297                      .dwpsn  file "C:/ti/motorware/motorware_1_01_00_14/sw/drivers/pie/src/32b/f28x/f2806x/pie.c",line 171
    1298 000000c4 9A00          MOVB      AL,#0                 ; [CPU_] |171| 
    1299                      .dwpsn  file "C:/ti/motorware/motorware_1_01_00_14/sw/drivers/pie/src/32b/f28x/f2806x/pie.c",line 172
    1300 000000c5 6F07          B         $C$L9,UNC             ; [CPU_] |172| 
    1301                      ; branch occurs ; [] |172| 
    1302 000000c6       $C$L7:    
    1303                      .dwpsn  file "C:/ti/motorware/motorware_1_01_00_14/sw/drivers/pie/src/32b/f28x/f2806x/pie.c",line 167
    1304 000000c6 BE20          MOVB      XAR6,#32              ; [CPU_] |167| 
    1305                      .dwpsn  file "C:/ti/motorware/motorware_1_01_00_14/sw/drivers/pie/src/32b/f28x/f2806x/pie.c",line 168
    1306 000000c7 6FFD          B         $C$L6,UNC             ; [CPU_] |168| 
    1307                      ; branch occurs ; [] |168| 
    1308 000000c8       $C$L8:    
    1309                      .dwpsn  file "C:/ti/motorware/motorware_1_01_00_14/sw/drivers/pie/src/32b/f28x/f2806x/pie.c",line 162
    1310 000000c8 9A01          MOVB      AL,#1                 ; [CPU_] |162| 
    1311 000000c9 FF66          LSL       AL,T                  ; [CPU_] |162| 
    1312 000000ca 88A9          MOVZ      AR6,AL                ; [CPU_] |162| 
    1313                      .dwpsn  file "C:/ti/motorware/motorware_1_01_00_14/sw/drivers/pie/src/32b/f28x/f2806x/pie.c",line 161
    1314 000000cb 9A09          MOVB      AL,#9                 ; [CPU_] |161| 
    1315 000000cc       $C$L9:    
    1316 000000cc 2901          CLRC      SXM                   ; [CPU_] 
    1317                      .dwpsn  file "C:/ti/motorware/motorware_1_01_00_14/sw/drivers/pie/src/32b/f28x/f2806x/pie.c",line 176
    1318 000000cd 5603          MOV       ACC,AL << 1           ; [CPU_] |176| 
         000000ce 01A9 
    1319 000000cf 5601          ADDL      XAR4,ACC              ; [CPU_] |176| 
         000000d0 00A4 
    1320 000000d1 92A6          MOV       AL,AR6                ; [CPU_] |176| 
    1321 000000d2 98D4          OR        *+XAR4[2],AL          ; [CPU_] |176| 
    1322              $C$DW$112       .dwtag  DW_TAG_TI_branch
    1323                      .dwattr $C$DW$112, DW_AT_low_pc(0x00)
    1324                      .dwattr $C$DW$112, DW_AT_TI_return
    1325 000000d3 0006          LRETR     ; [CPU_] 
    1326                      ; return occurs ; [] 
    1327                      .dwattr $C$DW$106, DW_AT_TI_end_file("C:/ti/motorware/motorware_1_01_00_14/sw/drivers/pie/src/32b/f28
    1328                      .dwattr $C$DW$106, DW_AT_TI_end_line(0xb3)
    1329                      .dwattr $C$DW$106, DW_AT_TI_end_column(0x01)
    1330                      .dwendentry
    1331                      .dwendtag $C$DW$106
    1332              
    1333 000000d4               .sect   ".text"
    1334                      .clink
    1335                      .global _PIE_enable
    1336              
TMS320C2000 Assembler PC v6.4.4 Wed Jul 08 12:49:34 2015

Tools Copyright (c) 1996-2015 Texas Instruments Incorporated
C:\Users\grant\AppData\Local\Temp\0769610                            PAGE   26

    1337              $C$DW$113       .dwtag  DW_TAG_subprogram, DW_AT_name("PIE_enable")
    1338                      .dwattr $C$DW$113, DW_AT_low_pc(_PIE_enable)
    1339                      .dwattr $C$DW$113, DW_AT_high_pc(0x00)
    1340                      .dwattr $C$DW$113, DW_AT_TI_symbol_name("_PIE_enable")
    1341                      .dwattr $C$DW$113, DW_AT_external
    1342                      .dwattr $C$DW$113, DW_AT_TI_begin_file("C:/ti/motorware/motorware_1_01_00_14/sw/drivers/pie/src/32b/f
    1343                      .dwattr $C$DW$113, DW_AT_TI_begin_line(0x8c)
    1344                      .dwattr $C$DW$113, DW_AT_TI_begin_column(0x06)
    1345                      .dwattr $C$DW$113, DW_AT_TI_max_frame_size(-2)
    1346                      .dwpsn  file "C:/ti/motorware/motorware_1_01_00_14/sw/drivers/pie/src/32b/f28x/f2806x/pie.c",line 141
    1347              
    1348                      .dwfde $C$DW$CIE, _PIE_enable
    1349              $C$DW$114       .dwtag  DW_TAG_formal_parameter, DW_AT_name("pieHandle")
    1350                      .dwattr $C$DW$114, DW_AT_TI_symbol_name("_pieHandle")
    1351                      .dwattr $C$DW$114, DW_AT_type(*$C$DW$T$62)
    1352                      .dwattr $C$DW$114, DW_AT_location[DW_OP_reg12]
    1353              
    1354              ;***************************************************************
    1355              ;* FNAME: _PIE_enable                   FR SIZE:   0           *
    1356              ;*                                                             *
    1357              ;* FUNCTION ENVIRONMENT                                        *
    1358              ;*                                                             *
    1359              ;* FUNCTION PROPERTIES                                         *
    1360              ;*                            0 Parameter,  0 Auto,  0 SOE     *
    1361              ;***************************************************************
    1362              
    1363              _PIE_enable:
    1364              ;* AR4   assigned to _pieHandle
    1365              $C$DW$115       .dwtag  DW_TAG_variable, DW_AT_name("pieHandle")
    1366                      .dwattr $C$DW$115, DW_AT_TI_symbol_name("_pieHandle")
    1367                      .dwattr $C$DW$115, DW_AT_type(*$C$DW$T$63)
    1368                      .dwattr $C$DW$115, DW_AT_location[DW_OP_reg12]
    1369                      .dwcfi  cfa_offset, -2
    1370                      .dwcfi  save_reg_to_mem, 26, 0
    1371                      .dwpsn  file "C:/ti/motorware/motorware_1_01_00_14/sw/drivers/pie/src/32b/f28x/f2806x/pie.c",line 146
    1372 000000d4 1AC4          OR        *+XAR4[0],#0x0001     ; [CPU_] |146| 
         000000d5 0001 
    1373              $C$DW$116       .dwtag  DW_TAG_TI_branch
    1374                      .dwattr $C$DW$116, DW_AT_low_pc(0x00)
    1375                      .dwattr $C$DW$116, DW_AT_TI_return
    1376 000000d6 0006          LRETR     ; [CPU_] 
    1377                      ; return occurs ; [] 
    1378                      .dwattr $C$DW$113, DW_AT_TI_end_file("C:/ti/motorware/motorware_1_01_00_14/sw/drivers/pie/src/32b/f28
    1379                      .dwattr $C$DW$113, DW_AT_TI_end_line(0x95)
    1380                      .dwattr $C$DW$113, DW_AT_TI_end_column(0x01)
    1381                      .dwendentry
    1382                      .dwendtag $C$DW$113
    1383              
    1384 000000d7               .sect   ".text"
    1385                      .clink
    1386                      .global _PIE_disableInt
    1387              
    1388              $C$DW$117       .dwtag  DW_TAG_subprogram, DW_AT_name("PIE_disableInt")
    1389                      .dwattr $C$DW$117, DW_AT_low_pc(_PIE_disableInt)
    1390                      .dwattr $C$DW$117, DW_AT_high_pc(0x00)
TMS320C2000 Assembler PC v6.4.4 Wed Jul 08 12:49:34 2015

Tools Copyright (c) 1996-2015 Texas Instruments Incorporated
C:\Users\grant\AppData\Local\Temp\0769610                            PAGE   27

    1391                      .dwattr $C$DW$117, DW_AT_TI_symbol_name("_PIE_disableInt")
    1392                      .dwattr $C$DW$117, DW_AT_external
    1393                      .dwattr $C$DW$117, DW_AT_TI_begin_file("C:/ti/motorware/motorware_1_01_00_14/sw/drivers/pie/src/32b/f
    1394                      .dwattr $C$DW$117, DW_AT_TI_begin_line(0x82)
    1395                      .dwattr $C$DW$117, DW_AT_TI_begin_column(0x06)
    1396                      .dwattr $C$DW$117, DW_AT_TI_max_frame_size(-2)
    1397                      .dwpsn  file "C:/ti/motorware/motorware_1_01_00_14/sw/drivers/pie/src/32b/f28x/f2806x/pie.c",line 131
    1398              
    1399                      .dwfde $C$DW$CIE, _PIE_disableInt
    1400              $C$DW$118       .dwtag  DW_TAG_formal_parameter, DW_AT_name("pieHandle")
    1401                      .dwattr $C$DW$118, DW_AT_TI_symbol_name("_pieHandle")
    1402                      .dwattr $C$DW$118, DW_AT_type(*$C$DW$T$62)
    1403                      .dwattr $C$DW$118, DW_AT_location[DW_OP_reg12]
    1404              $C$DW$119       .dwtag  DW_TAG_formal_parameter, DW_AT_name("group")
    1405                      .dwattr $C$DW$119, DW_AT_TI_symbol_name("_group")
    1406                      .dwattr $C$DW$119, DW_AT_type(*$C$DW$T$39)
    1407                      .dwattr $C$DW$119, DW_AT_location[DW_OP_reg0]
    1408              $C$DW$120       .dwtag  DW_TAG_formal_parameter, DW_AT_name("intSource")
    1409                      .dwattr $C$DW$120, DW_AT_TI_symbol_name("_intSource")
    1410                      .dwattr $C$DW$120, DW_AT_type(*$C$DW$T$42)
    1411                      .dwattr $C$DW$120, DW_AT_location[DW_OP_reg1]
    1412              
    1413              ;***************************************************************
    1414              ;* FNAME: _PIE_disableInt               FR SIZE:   0           *
    1415              ;*                                                             *
    1416              ;* FUNCTION ENVIRONMENT                                        *
    1417              ;*                                                             *
    1418              ;* FUNCTION PROPERTIES                                         *
    1419              ;*                            0 Parameter,  0 Auto,  0 SOE     *
    1420              ;***************************************************************
    1421              
    1422              _PIE_disableInt:
    1423              ;* AR4   assigned to _pieHandle
    1424              $C$DW$121       .dwtag  DW_TAG_variable, DW_AT_name("pieHandle")
    1425                      .dwattr $C$DW$121, DW_AT_TI_symbol_name("_pieHandle")
    1426                      .dwattr $C$DW$121, DW_AT_type(*$C$DW$T$63)
    1427                      .dwattr $C$DW$121, DW_AT_location[DW_OP_reg12]
    1428              ;* AR6   assigned to _intSource
    1429              $C$DW$122       .dwtag  DW_TAG_variable, DW_AT_name("intSource")
    1430                      .dwattr $C$DW$122, DW_AT_TI_symbol_name("_intSource")
    1431                      .dwattr $C$DW$122, DW_AT_type(*$C$DW$T$42)
    1432                      .dwattr $C$DW$122, DW_AT_location[DW_OP_reg16]
    1433                      .dwcfi  cfa_offset, -2
    1434                      .dwcfi  save_reg_to_mem, 26, 0
    1435 000000d7 88A8          MOVZ      AR6,AH                ; [CPU_] |131| 
    1436 000000d8 2901          CLRC      SXM                   ; [CPU_] 
    1437                      .dwpsn  file "C:/ti/motorware/motorware_1_01_00_14/sw/drivers/pie/src/32b/f28x/f2806x/pie.c",line 134
    1438 000000d9 5603          MOV       ACC,AL << 1           ; [CPU_] |134| 
         000000da 01A9 
    1439 000000db 5601          ADDL      XAR4,ACC              ; [CPU_] |134| 
         000000dc 00A4 
    1440 000000dd 92A6          MOV       AL,AR6                ; [CPU_] |134| 
    1441 000000de FF5E          NOT       AL                    ; [CPU_] |134| 
    1442 000000df C0D4          AND       *+XAR4[2],AL          ; [CPU_] |134| 
    1443              $C$DW$123       .dwtag  DW_TAG_TI_branch
TMS320C2000 Assembler PC v6.4.4 Wed Jul 08 12:49:34 2015

Tools Copyright (c) 1996-2015 Texas Instruments Incorporated
C:\Users\grant\AppData\Local\Temp\0769610                            PAGE   28

    1444                      .dwattr $C$DW$123, DW_AT_low_pc(0x00)
    1445                      .dwattr $C$DW$123, DW_AT_TI_return
    1446 000000e0 0006          LRETR     ; [CPU_] 
    1447                      ; return occurs ; [] 
    1448                      .dwattr $C$DW$117, DW_AT_TI_end_file("C:/ti/motorware/motorware_1_01_00_14/sw/drivers/pie/src/32b/f28
    1449                      .dwattr $C$DW$117, DW_AT_TI_end_line(0x89)
    1450                      .dwattr $C$DW$117, DW_AT_TI_end_column(0x01)
    1451                      .dwendentry
    1452                      .dwendtag $C$DW$117
    1453              
    1454 000000e1               .sect   ".text"
    1455                      .clink
    1456                      .global _PIE_disableExtInt
    1457              
    1458              $C$DW$124       .dwtag  DW_TAG_subprogram, DW_AT_name("PIE_disableExtInt")
    1459                      .dwattr $C$DW$124, DW_AT_low_pc(_PIE_disableExtInt)
    1460                      .dwattr $C$DW$124, DW_AT_high_pc(0x00)
    1461                      .dwattr $C$DW$124, DW_AT_TI_symbol_name("_PIE_disableExtInt")
    1462                      .dwattr $C$DW$124, DW_AT_external
    1463                      .dwattr $C$DW$124, DW_AT_TI_begin_file("C:/ti/motorware/motorware_1_01_00_14/sw/drivers/pie/src/32b/f
    1464                      .dwattr $C$DW$124, DW_AT_TI_begin_line(0x68)
    1465                      .dwattr $C$DW$124, DW_AT_TI_begin_column(0x06)
    1466                      .dwattr $C$DW$124, DW_AT_TI_max_frame_size(-2)
    1467                      .dwpsn  file "C:/ti/motorware/motorware_1_01_00_14/sw/drivers/pie/src/32b/f28x/f2806x/pie.c",line 105
    1468              
    1469                      .dwfde $C$DW$CIE, _PIE_disableExtInt
    1470              $C$DW$125       .dwtag  DW_TAG_formal_parameter, DW_AT_name("pieHandle")
    1471                      .dwattr $C$DW$125, DW_AT_TI_symbol_name("_pieHandle")
    1472                      .dwattr $C$DW$125, DW_AT_type(*$C$DW$T$62)
    1473                      .dwattr $C$DW$125, DW_AT_location[DW_OP_reg12]
    1474              $C$DW$126       .dwtag  DW_TAG_formal_parameter, DW_AT_name("intNumber")
    1475                      .dwattr $C$DW$126, DW_AT_TI_symbol_name("_intNumber")
    1476                      .dwattr $C$DW$126, DW_AT_type(*$C$DW$T$36)
    1477                      .dwattr $C$DW$126, DW_AT_location[DW_OP_reg0]
    1478              
    1479              ;***************************************************************
    1480              ;* FNAME: _PIE_disableExtInt            FR SIZE:   0           *
    1481              ;*                                                             *
    1482              ;* FUNCTION ENVIRONMENT                                        *
    1483              ;*                                                             *
    1484              ;* FUNCTION PROPERTIES                                         *
    1485              ;*                            0 Parameter,  0 Auto,  0 SOE     *
    1486              ;***************************************************************
    1487              
    1488              _PIE_disableExtInt:
    1489              ;* AR4   assigned to _pieHandle
    1490              $C$DW$127       .dwtag  DW_TAG_variable, DW_AT_name("pieHandle")
    1491                      .dwattr $C$DW$127, DW_AT_TI_symbol_name("_pieHandle")
    1492                      .dwattr $C$DW$127, DW_AT_type(*$C$DW$T$63)
    1493                      .dwattr $C$DW$127, DW_AT_location[DW_OP_reg12]
    1494              ;* AR6   assigned to _intNumber
    1495              $C$DW$128       .dwtag  DW_TAG_variable, DW_AT_name("intNumber")
    1496                      .dwattr $C$DW$128, DW_AT_TI_symbol_name("_intNumber")
    1497                      .dwattr $C$DW$128, DW_AT_type(*$C$DW$T$36)
    1498                      .dwattr $C$DW$128, DW_AT_location[DW_OP_reg16]
TMS320C2000 Assembler PC v6.4.4 Wed Jul 08 12:49:34 2015

Tools Copyright (c) 1996-2015 Texas Instruments Incorporated
C:\Users\grant\AppData\Local\Temp\0769610                            PAGE   29

    1499                      .dwcfi  cfa_offset, -2
    1500                      .dwcfi  save_reg_to_mem, 26, 0
    1501 000000e1 88A9          MOVZ      AR6,AL                ; [CPU_] |105| 
    1502                      .dwpsn  file "C:/ti/motorware/motorware_1_01_00_14/sw/drivers/pie/src/32b/f28x/f2806x/pie.c",line 110
    1503 000000e2 A8A9          MOVL      ACC,XAR4              ; [CPU_] |110| 
    1504 000000e3 0DA6          ADDU      ACC,AR6               ; [CPU_] |110| 
    1505 000000e4 FF14          ADD       ACC,#1593 << 4        ; [CPU_] |110| 
         000000e5 0639 
    1506 000000e6 8AA9          MOVL      XAR4,ACC              ; [CPU_] |110| 
    1507 000000e7 18C4          AND       *+XAR4[0],#0xfffe     ; [CPU_] |110| 
         000000e8 FFFE 
    1508              $C$DW$129       .dwtag  DW_TAG_TI_branch
    1509                      .dwattr $C$DW$129, DW_AT_low_pc(0x00)
    1510                      .dwattr $C$DW$129, DW_AT_TI_return
    1511 000000e9 0006          LRETR     ; [CPU_] 
    1512                      ; return occurs ; [] 
    1513                      .dwattr $C$DW$124, DW_AT_TI_end_file("C:/ti/motorware/motorware_1_01_00_14/sw/drivers/pie/src/32b/f28
    1514                      .dwattr $C$DW$124, DW_AT_TI_end_line(0x71)
    1515                      .dwattr $C$DW$124, DW_AT_TI_end_column(0x01)
    1516                      .dwendentry
    1517                      .dwendtag $C$DW$124
    1518              
    1519 000000ea               .sect   ".text"
    1520                      .clink
    1521                      .global _PIE_disableCaptureInt
    1522              
    1523              $C$DW$130       .dwtag  DW_TAG_subprogram, DW_AT_name("PIE_disableCaptureInt")
    1524                      .dwattr $C$DW$130, DW_AT_low_pc(_PIE_disableCaptureInt)
    1525                      .dwattr $C$DW$130, DW_AT_high_pc(0x00)
    1526                      .dwattr $C$DW$130, DW_AT_TI_symbol_name("_PIE_disableCaptureInt")
    1527                      .dwattr $C$DW$130, DW_AT_external
    1528                      .dwattr $C$DW$130, DW_AT_TI_begin_file("C:/ti/motorware/motorware_1_01_00_14/sw/drivers/pie/src/32b/f
    1529                      .dwattr $C$DW$130, DW_AT_TI_begin_line(0x5d)
    1530                      .dwattr $C$DW$130, DW_AT_TI_begin_column(0x06)
    1531                      .dwattr $C$DW$130, DW_AT_TI_max_frame_size(-2)
    1532                      .dwpsn  file "C:/ti/motorware/motorware_1_01_00_14/sw/drivers/pie/src/32b/f28x/f2806x/pie.c",line 94,
    1533              
    1534                      .dwfde $C$DW$CIE, _PIE_disableCaptureInt
    1535              $C$DW$131       .dwtag  DW_TAG_formal_parameter, DW_AT_name("pieHandle")
    1536                      .dwattr $C$DW$131, DW_AT_TI_symbol_name("_pieHandle")
    1537                      .dwattr $C$DW$131, DW_AT_type(*$C$DW$T$62)
    1538                      .dwattr $C$DW$131, DW_AT_location[DW_OP_reg12]
    1539              
    1540              ;***************************************************************
    1541              ;* FNAME: _PIE_disableCaptureInt        FR SIZE:   0           *
    1542              ;*                                                             *
    1543              ;* FUNCTION ENVIRONMENT                                        *
    1544              ;*                                                             *
    1545              ;* FUNCTION PROPERTIES                                         *
    1546              ;*                            0 Parameter,  0 Auto,  0 SOE     *
    1547              ;***************************************************************
    1548              
    1549 000000ea       _PIE_disableCaptureInt:
    1550                      .dwcfi  cfa_offset, -2
    1551                      .dwcfi  save_reg_to_mem, 26, 0
TMS320C2000 Assembler PC v6.4.4 Wed Jul 08 12:49:34 2015

Tools Copyright (c) 1996-2015 Texas Instruments Incorporated
C:\Users\grant\AppData\Local\Temp\0769610                            PAGE   30

    1552                      .dwpsn  file "C:/ti/motorware/motorware_1_01_00_14/sw/drivers/pie/src/32b/f28x/f2806x/pie.c",line 98,
    1553 000000ea DC08          ADDB      XAR4,#8               ; [CPU_] |98| 
    1554 000000eb 18C4          AND       *+XAR4[0],#0xfffe     ; [CPU_] |98| 
         000000ec FFFE 
    1555              $C$DW$132       .dwtag  DW_TAG_TI_branch
    1556                      .dwattr $C$DW$132, DW_AT_low_pc(0x00)
    1557                      .dwattr $C$DW$132, DW_AT_TI_return
    1558 000000ed 0006          LRETR     ; [CPU_] 
    1559                      ; return occurs ; [] 
    1560                      .dwattr $C$DW$130, DW_AT_TI_end_file("C:/ti/motorware/motorware_1_01_00_14/sw/drivers/pie/src/32b/f28
    1561                      .dwattr $C$DW$130, DW_AT_TI_end_line(0x65)
    1562                      .dwattr $C$DW$130, DW_AT_TI_end_column(0x01)
    1563                      .dwendentry
    1564                      .dwendtag $C$DW$130
    1565              
    1566 000000ee               .sect   ".text"
    1567                      .clink
    1568                      .global _PIE_disableAllInts
    1569              
    1570              $C$DW$133       .dwtag  DW_TAG_subprogram, DW_AT_name("PIE_disableAllInts")
    1571                      .dwattr $C$DW$133, DW_AT_low_pc(_PIE_disableAllInts)
    1572                      .dwattr $C$DW$133, DW_AT_high_pc(0x00)
    1573                      .dwattr $C$DW$133, DW_AT_TI_symbol_name("_PIE_disableAllInts")
    1574                      .dwattr $C$DW$133, DW_AT_external
    1575                      .dwattr $C$DW$133, DW_AT_TI_begin_file("C:/ti/motorware/motorware_1_01_00_14/sw/drivers/pie/src/32b/f
    1576                      .dwattr $C$DW$133, DW_AT_TI_begin_line(0x74)
    1577                      .dwattr $C$DW$133, DW_AT_TI_begin_column(0x06)
    1578                      .dwattr $C$DW$133, DW_AT_TI_max_frame_size(-2)
    1579                      .dwpsn  file "C:/ti/motorware/motorware_1_01_00_14/sw/drivers/pie/src/32b/f28x/f2806x/pie.c",line 117
    1580              
    1581                      .dwfde $C$DW$CIE, _PIE_disableAllInts
    1582              $C$DW$134       .dwtag  DW_TAG_formal_parameter, DW_AT_name("pieHandle")
    1583                      .dwattr $C$DW$134, DW_AT_TI_symbol_name("_pieHandle")
    1584                      .dwattr $C$DW$134, DW_AT_type(*$C$DW$T$62)
    1585                      .dwattr $C$DW$134, DW_AT_location[DW_OP_reg12]
    1586              
    1587              ;***************************************************************
    1588              ;* FNAME: _PIE_disableAllInts           FR SIZE:   0           *
    1589              ;*                                                             *
    1590              ;* FUNCTION ENVIRONMENT                                        *
    1591              ;*                                                             *
    1592              ;* FUNCTION PROPERTIES                                         *
    1593              ;*                            0 Parameter,  0 Auto,  0 SOE     *
    1594              ;***************************************************************
    1595              
    1596 000000ee       _PIE_disableAllInts:
    1597              ;* AR4   assigned to $O$U7
    1598                      .dwcfi  cfa_offset, -2
    1599                      .dwcfi  save_reg_to_mem, 26, 0
    1600 000000ee DC02          ADDB      XAR4,#2               ; [CPU_] 
    1601 000000ef BE0B          MOVB      XAR6,#11              ; [CPU_] 
    1602 000000f0       $C$L10:    
    1603                      .dwpsn  file "C:/ti/motorware/motorware_1_01_00_14/sw/drivers/pie/src/32b/f28x/f2806x/pie.c",line 124
    1604 000000f0 2BC4          MOV       *+XAR4[0],#0          ; [CPU_] |124| 
    1605                      .dwpsn  file "C:/ti/motorware/motorware_1_01_00_14/sw/drivers/pie/src/32b/f28x/f2806x/pie.c",line 122
TMS320C2000 Assembler PC v6.4.4 Wed Jul 08 12:49:34 2015

Tools Copyright (c) 1996-2015 Texas Instruments Incorporated
C:\Users\grant\AppData\Local\Temp\0769610                            PAGE   31

    1606 000000f1 DC02          ADDB      XAR4,#2               ; [CPU_] |122| 
    1607 000000f2 000E          BANZ      $C$L10,AR6--          ; [CPU_] |122| 
         000000f3 FFFE 
    1608                      ; branchcc occurs ; [] |122| 
    1609              $C$DW$135       .dwtag  DW_TAG_TI_branch
    1610                      .dwattr $C$DW$135, DW_AT_low_pc(0x00)
    1611                      .dwattr $C$DW$135, DW_AT_TI_return
    1612 000000f4 0006          LRETR     ; [CPU_] 
    1613                      ; return occurs ; [] 
    1614                      .dwattr $C$DW$133, DW_AT_TI_end_file("C:/ti/motorware/motorware_1_01_00_14/sw/drivers/pie/src/32b/f28
    1615                      .dwattr $C$DW$133, DW_AT_TI_end_line(0x80)
    1616                      .dwattr $C$DW$133, DW_AT_TI_end_column(0x01)
    1617                      .dwendentry
    1618                      .dwendtag $C$DW$133
    1619              
    1620 000000f5               .sect   ".text"
    1621                      .clink
    1622                      .global _PIE_disable
    1623              
    1624              $C$DW$136       .dwtag  DW_TAG_subprogram, DW_AT_name("PIE_disable")
    1625                      .dwattr $C$DW$136, DW_AT_low_pc(_PIE_disable)
    1626                      .dwattr $C$DW$136, DW_AT_high_pc(0x00)
    1627                      .dwattr $C$DW$136, DW_AT_TI_symbol_name("_PIE_disable")
    1628                      .dwattr $C$DW$136, DW_AT_external
    1629                      .dwattr $C$DW$136, DW_AT_TI_begin_file("C:/ti/motorware/motorware_1_01_00_14/sw/drivers/pie/src/32b/f
    1630                      .dwattr $C$DW$136, DW_AT_TI_begin_line(0x52)
    1631                      .dwattr $C$DW$136, DW_AT_TI_begin_column(0x06)
    1632                      .dwattr $C$DW$136, DW_AT_TI_max_frame_size(-2)
    1633                      .dwpsn  file "C:/ti/motorware/motorware_1_01_00_14/sw/drivers/pie/src/32b/f28x/f2806x/pie.c",line 83,
    1634              
    1635                      .dwfde $C$DW$CIE, _PIE_disable
    1636              $C$DW$137       .dwtag  DW_TAG_formal_parameter, DW_AT_name("pieHandle")
    1637                      .dwattr $C$DW$137, DW_AT_TI_symbol_name("_pieHandle")
    1638                      .dwattr $C$DW$137, DW_AT_type(*$C$DW$T$62)
    1639                      .dwattr $C$DW$137, DW_AT_location[DW_OP_reg12]
    1640              
    1641              ;***************************************************************
    1642              ;* FNAME: _PIE_disable                  FR SIZE:   0           *
    1643              ;*                                                             *
    1644              ;* FUNCTION ENVIRONMENT                                        *
    1645              ;*                                                             *
    1646              ;* FUNCTION PROPERTIES                                         *
    1647              ;*                            0 Parameter,  0 Auto,  0 SOE     *
    1648              ;***************************************************************
    1649              
    1650              _PIE_disable:
    1651              ;* AR4   assigned to _pieHandle
    1652              $C$DW$138       .dwtag  DW_TAG_variable, DW_AT_name("pieHandle")
    1653                      .dwattr $C$DW$138, DW_AT_TI_symbol_name("_pieHandle")
    1654                      .dwattr $C$DW$138, DW_AT_type(*$C$DW$T$63)
    1655                      .dwattr $C$DW$138, DW_AT_location[DW_OP_reg12]
    1656                      .dwcfi  cfa_offset, -2
    1657                      .dwcfi  save_reg_to_mem, 26, 0
    1658                      .dwpsn  file "C:/ti/motorware/motorware_1_01_00_14/sw/drivers/pie/src/32b/f28x/f2806x/pie.c",line 88,
    1659 000000f5 18C4          AND       *+XAR4[0],#0xfffe     ; [CPU_] |88| 
TMS320C2000 Assembler PC v6.4.4 Wed Jul 08 12:49:34 2015

Tools Copyright (c) 1996-2015 Texas Instruments Incorporated
C:\Users\grant\AppData\Local\Temp\0769610                            PAGE   32

         000000f6 FFFE 
    1660              $C$DW$139       .dwtag  DW_TAG_TI_branch
    1661                      .dwattr $C$DW$139, DW_AT_low_pc(0x00)
    1662                      .dwattr $C$DW$139, DW_AT_TI_return
    1663 000000f7 0006          LRETR     ; [CPU_] 
    1664                      ; return occurs ; [] 
    1665                      .dwattr $C$DW$136, DW_AT_TI_end_file("C:/ti/motorware/motorware_1_01_00_14/sw/drivers/pie/src/32b/f28
    1666                      .dwattr $C$DW$136, DW_AT_TI_end_line(0x5b)
    1667                      .dwattr $C$DW$136, DW_AT_TI_end_column(0x01)
    1668                      .dwendentry
    1669                      .dwendtag $C$DW$136
    1670              
    1671 000000f8               .sect   ".text"
    1672                      .clink
    1673                      .global _PIE_clearAllInts
    1674              
    1675              $C$DW$140       .dwtag  DW_TAG_subprogram, DW_AT_name("PIE_clearAllInts")
    1676                      .dwattr $C$DW$140, DW_AT_low_pc(_PIE_clearAllInts)
    1677                      .dwattr $C$DW$140, DW_AT_high_pc(0x00)
    1678                      .dwattr $C$DW$140, DW_AT_TI_symbol_name("_PIE_clearAllInts")
    1679                      .dwattr $C$DW$140, DW_AT_external
    1680                      .dwattr $C$DW$140, DW_AT_TI_begin_file("C:/ti/motorware/motorware_1_01_00_14/sw/drivers/pie/src/32b/f
    1681                      .dwattr $C$DW$140, DW_AT_TI_begin_line(0x46)
    1682                      .dwattr $C$DW$140, DW_AT_TI_begin_column(0x06)
    1683                      .dwattr $C$DW$140, DW_AT_TI_max_frame_size(-2)
    1684                      .dwpsn  file "C:/ti/motorware/motorware_1_01_00_14/sw/drivers/pie/src/32b/f28x/f2806x/pie.c",line 71,
    1685              
    1686                      .dwfde $C$DW$CIE, _PIE_clearAllInts
    1687              $C$DW$141       .dwtag  DW_TAG_formal_parameter, DW_AT_name("pieHandle")
    1688                      .dwattr $C$DW$141, DW_AT_TI_symbol_name("_pieHandle")
    1689                      .dwattr $C$DW$141, DW_AT_type(*$C$DW$T$62)
    1690                      .dwattr $C$DW$141, DW_AT_location[DW_OP_reg12]
    1691              
    1692              ;***************************************************************
    1693              ;* FNAME: _PIE_clearAllInts             FR SIZE:   0           *
    1694              ;*                                                             *
    1695              ;* FUNCTION ENVIRONMENT                                        *
    1696              ;*                                                             *
    1697              ;* FUNCTION PROPERTIES                                         *
    1698              ;*                            0 Parameter,  0 Auto,  0 SOE     *
    1699              ;***************************************************************
    1700              
    1701              _PIE_clearAllInts:
    1702              ;* AR4   assigned to _pieHandle
    1703              $C$DW$142       .dwtag  DW_TAG_variable, DW_AT_name("pieHandle")
    1704                      .dwattr $C$DW$142, DW_AT_TI_symbol_name("_pieHandle")
    1705                      .dwattr $C$DW$142, DW_AT_type(*$C$DW$T$63)
    1706                      .dwattr $C$DW$142, DW_AT_location[DW_OP_reg12]
    1707                      .dwcfi  cfa_offset, -2
    1708                      .dwcfi  save_reg_to_mem, 26, 0
    1709                      .dwpsn  file "C:/ti/motorware/motorware_1_01_00_14/sw/drivers/pie/src/32b/f28x/f2806x/pie.c",line 76,
    1710 000000f8 1ACC          OR        *+XAR4[1],#0xffff     ; [CPU_] |76| 
         000000f9 FFFF 
    1711              $C$DW$143       .dwtag  DW_TAG_TI_branch
    1712                      .dwattr $C$DW$143, DW_AT_low_pc(0x00)
TMS320C2000 Assembler PC v6.4.4 Wed Jul 08 12:49:34 2015

Tools Copyright (c) 1996-2015 Texas Instruments Incorporated
C:\Users\grant\AppData\Local\Temp\0769610                            PAGE   33

    1713                      .dwattr $C$DW$143, DW_AT_TI_return
    1714 000000fa 0006          LRETR     ; [CPU_] 
    1715                      ; return occurs ; [] 
    1716                      .dwattr $C$DW$140, DW_AT_TI_end_file("C:/ti/motorware/motorware_1_01_00_14/sw/drivers/pie/src/32b/f28
    1717                      .dwattr $C$DW$140, DW_AT_TI_end_line(0x4f)
    1718                      .dwattr $C$DW$140, DW_AT_TI_end_column(0x01)
    1719                      .dwendentry
    1720                      .dwendtag $C$DW$140
    1721              
    1722 000000fb               .sect   ".text"
    1723                      .clink
    1724                      .global _PIE_clearAllFlags
    1725              
    1726              $C$DW$144       .dwtag  DW_TAG_subprogram, DW_AT_name("PIE_clearAllFlags")
    1727                      .dwattr $C$DW$144, DW_AT_low_pc(_PIE_clearAllFlags)
    1728                      .dwattr $C$DW$144, DW_AT_high_pc(0x00)
    1729                      .dwattr $C$DW$144, DW_AT_TI_symbol_name("_PIE_clearAllFlags")
    1730                      .dwattr $C$DW$144, DW_AT_external
    1731                      .dwattr $C$DW$144, DW_AT_TI_begin_file("C:/ti/motorware/motorware_1_01_00_14/sw/drivers/pie/src/32b/f
    1732                      .dwattr $C$DW$144, DW_AT_TI_begin_line(0x37)
    1733                      .dwattr $C$DW$144, DW_AT_TI_begin_column(0x06)
    1734                      .dwattr $C$DW$144, DW_AT_TI_max_frame_size(-2)
    1735                      .dwpsn  file "C:/ti/motorware/motorware_1_01_00_14/sw/drivers/pie/src/32b/f28x/f2806x/pie.c",line 56,
    1736              
    1737                      .dwfde $C$DW$CIE, _PIE_clearAllFlags
    1738              $C$DW$145       .dwtag  DW_TAG_formal_parameter, DW_AT_name("pieHandle")
    1739                      .dwattr $C$DW$145, DW_AT_TI_symbol_name("_pieHandle")
    1740                      .dwattr $C$DW$145, DW_AT_type(*$C$DW$T$62)
    1741                      .dwattr $C$DW$145, DW_AT_location[DW_OP_reg12]
    1742              
    1743              ;***************************************************************
    1744              ;* FNAME: _PIE_clearAllFlags            FR SIZE:   0           *
    1745              ;*                                                             *
    1746              ;* FUNCTION ENVIRONMENT                                        *
    1747              ;*                                                             *
    1748              ;* FUNCTION PROPERTIES                                         *
    1749              ;*                            0 Parameter,  0 Auto,  0 SOE     *
    1750              ;***************************************************************
    1751              
    1752 000000fb       _PIE_clearAllFlags:
    1753              ;* AR4   assigned to $O$U7
    1754                      .dwcfi  cfa_offset, -2
    1755                      .dwcfi  save_reg_to_mem, 26, 0
    1756 000000fb DC03          ADDB      XAR4,#3               ; [CPU_] 
    1757 000000fc BE0B          MOVB      XAR6,#11              ; [CPU_] 
    1758 000000fd       $C$L11:    
    1759                      .dwpsn  file "C:/ti/motorware/motorware_1_01_00_14/sw/drivers/pie/src/32b/f28x/f2806x/pie.c",line 63,
    1760 000000fd 2BC4          MOV       *+XAR4[0],#0          ; [CPU_] |63| 
    1761                      .dwpsn  file "C:/ti/motorware/motorware_1_01_00_14/sw/drivers/pie/src/32b/f28x/f2806x/pie.c",line 61,
    1762 000000fe DC02          ADDB      XAR4,#2               ; [CPU_] |61| 
    1763 000000ff 000E          BANZ      $C$L11,AR6--          ; [CPU_] |61| 
         00000100 FFFE 
    1764                      ; branchcc occurs ; [] |61| 
    1765              $C$DW$146       .dwtag  DW_TAG_TI_branch
    1766                      .dwattr $C$DW$146, DW_AT_low_pc(0x00)
TMS320C2000 Assembler PC v6.4.4 Wed Jul 08 12:49:34 2015

Tools Copyright (c) 1996-2015 Texas Instruments Incorporated
C:\Users\grant\AppData\Local\Temp\0769610                            PAGE   34

    1767                      .dwattr $C$DW$146, DW_AT_TI_return
    1768 00000101 0006          LRETR     ; [CPU_] 
    1769                      ; return occurs ; [] 
    1770                      .dwattr $C$DW$144, DW_AT_TI_end_file("C:/ti/motorware/motorware_1_01_00_14/sw/drivers/pie/src/32b/f28
    1771                      .dwattr $C$DW$144, DW_AT_TI_end_line(0x43)
    1772                      .dwattr $C$DW$144, DW_AT_TI_end_column(0x01)
    1773                      .dwendentry
    1774                      .dwendtag $C$DW$144
    1775              
    1776              
    1777              ;***************************************************************
    1778              ;* TYPE INFORMATION                                            *
    1779              ;***************************************************************
    1780              
    1781              $C$DW$T$34      .dwtag  DW_TAG_enumeration_type
    1782                      .dwattr $C$DW$T$34, DW_AT_byte_size(0x01)
    1783              $C$DW$147       .dwtag  DW_TAG_enumerator, DW_AT_name("CPU_ExtIntNumber_1"), DW_AT_const_value(0x00)
    1784              $C$DW$148       .dwtag  DW_TAG_enumerator, DW_AT_name("CPU_ExtIntNumber_2"), DW_AT_const_value(0x01)
    1785              $C$DW$149       .dwtag  DW_TAG_enumerator, DW_AT_name("CPU_ExtIntNumber_3"), DW_AT_const_value(0x02)
    1786                      .dwendtag $C$DW$T$34
    1787              
    1788              $C$DW$T$35      .dwtag  DW_TAG_typedef, DW_AT_name("CPU_ExtIntNumber_e")
    1789                      .dwattr $C$DW$T$35, DW_AT_type(*$C$DW$T$34)
    1790                      .dwattr $C$DW$T$35, DW_AT_language(DW_LANG_C)
    1791              $C$DW$150       .dwtag  DW_TAG_TI_far_type
    1792                      .dwattr $C$DW$150, DW_AT_type(*$C$DW$T$35)
    1793              $C$DW$T$36      .dwtag  DW_TAG_const_type
    1794                      .dwattr $C$DW$T$36, DW_AT_type(*$C$DW$150)
    1795              
    1796              $C$DW$T$37      .dwtag  DW_TAG_enumeration_type
    1797                      .dwattr $C$DW$T$37, DW_AT_byte_size(0x01)
    1798              $C$DW$151       .dwtag  DW_TAG_enumerator, DW_AT_name("PIE_GroupNumber_1"), DW_AT_const_value(0x00)
    1799              $C$DW$152       .dwtag  DW_TAG_enumerator, DW_AT_name("PIE_GroupNumber_2"), DW_AT_const_value(0x01)
    1800              $C$DW$153       .dwtag  DW_TAG_enumerator, DW_AT_name("PIE_GroupNumber_3"), DW_AT_const_value(0x02)
    1801              $C$DW$154       .dwtag  DW_TAG_enumerator, DW_AT_name("PIE_GroupNumber_4"), DW_AT_const_value(0x03)
    1802              $C$DW$155       .dwtag  DW_TAG_enumerator, DW_AT_name("PIE_GroupNumber_5"), DW_AT_const_value(0x04)
    1803              $C$DW$156       .dwtag  DW_TAG_enumerator, DW_AT_name("PIE_GroupNumber_6"), DW_AT_const_value(0x05)
    1804              $C$DW$157       .dwtag  DW_TAG_enumerator, DW_AT_name("PIE_GroupNumber_7"), DW_AT_const_value(0x06)
    1805              $C$DW$158       .dwtag  DW_TAG_enumerator, DW_AT_name("PIE_GroupNumber_8"), DW_AT_const_value(0x07)
    1806              $C$DW$159       .dwtag  DW_TAG_enumerator, DW_AT_name("PIE_GroupNumber_9"), DW_AT_const_value(0x08)
    1807              $C$DW$160       .dwtag  DW_TAG_enumerator, DW_AT_name("PIE_GroupNumber_10"), DW_AT_const_value(0x09)
    1808              $C$DW$161       .dwtag  DW_TAG_enumerator, DW_AT_name("PIE_GroupNumber_11"), DW_AT_const_value(0x0a)
    1809              $C$DW$162       .dwtag  DW_TAG_enumerator, DW_AT_name("PIE_GroupNumber_12"), DW_AT_const_value(0x0b)
    1810                      .dwendtag $C$DW$T$37
    1811              
    1812              $C$DW$T$38      .dwtag  DW_TAG_typedef, DW_AT_name("PIE_GroupNumber_e")
    1813                      .dwattr $C$DW$T$38, DW_AT_type(*$C$DW$T$37)
    1814                      .dwattr $C$DW$T$38, DW_AT_language(DW_LANG_C)
    1815              $C$DW$163       .dwtag  DW_TAG_TI_far_type
    1816                      .dwattr $C$DW$163, DW_AT_type(*$C$DW$T$38)
    1817              $C$DW$T$39      .dwtag  DW_TAG_const_type
    1818                      .dwattr $C$DW$T$39, DW_AT_type(*$C$DW$163)
    1819              
    1820              $C$DW$T$40      .dwtag  DW_TAG_enumeration_type
    1821                      .dwattr $C$DW$T$40, DW_AT_byte_size(0x01)
TMS320C2000 Assembler PC v6.4.4 Wed Jul 08 12:49:34 2015

Tools Copyright (c) 1996-2015 Texas Instruments Incorporated
C:\Users\grant\AppData\Local\Temp\0769610                            PAGE   35

    1822              $C$DW$164       .dwtag  DW_TAG_enumerator, DW_AT_name("PIE_InterruptSource_ADCINT_1_1"), DW_AT_const_value(0x
    1823              $C$DW$165       .dwtag  DW_TAG_enumerator, DW_AT_name("PIE_InterruptSource_ADCINT_1_2"), DW_AT_const_value(0x
    1824              $C$DW$166       .dwtag  DW_TAG_enumerator, DW_AT_name("PIE_InterruptSource_XINT_1"), DW_AT_const_value(0x08)
    1825              $C$DW$167       .dwtag  DW_TAG_enumerator, DW_AT_name("PIE_InterruptSource_XINT_2"), DW_AT_const_value(0x10)
    1826              $C$DW$168       .dwtag  DW_TAG_enumerator, DW_AT_name("PIE_InterruptSource_ADCINT_9"), DW_AT_const_value(0x20
    1827              $C$DW$169       .dwtag  DW_TAG_enumerator, DW_AT_name("PIE_InterruptSource_TIMER_0"), DW_AT_const_value(0x40)
    1828              $C$DW$170       .dwtag  DW_TAG_enumerator, DW_AT_name("PIE_InterruptSource_WAKE"), DW_AT_const_value(0x80)
    1829              $C$DW$171       .dwtag  DW_TAG_enumerator, DW_AT_name("PIE_InterruptSource_TZ1"), DW_AT_const_value(0x01)
    1830              $C$DW$172       .dwtag  DW_TAG_enumerator, DW_AT_name("PIE_InterruptSource_TZ2"), DW_AT_const_value(0x02)
    1831              $C$DW$173       .dwtag  DW_TAG_enumerator, DW_AT_name("PIE_InterruptSource_TZ3"), DW_AT_const_value(0x04)
    1832              $C$DW$174       .dwtag  DW_TAG_enumerator, DW_AT_name("PIE_InterruptSource_TZ4"), DW_AT_const_value(0x08)
    1833              $C$DW$175       .dwtag  DW_TAG_enumerator, DW_AT_name("PIE_InterruptSource_TZ5"), DW_AT_const_value(0x10)
    1834              $C$DW$176       .dwtag  DW_TAG_enumerator, DW_AT_name("PIE_InterruptSource_TZ6"), DW_AT_const_value(0x20)
    1835              $C$DW$177       .dwtag  DW_TAG_enumerator, DW_AT_name("PIE_InterruptSource_TZ7"), DW_AT_const_value(0x40)
    1836              $C$DW$178       .dwtag  DW_TAG_enumerator, DW_AT_name("PIE_InterruptSource_TZ8"), DW_AT_const_value(0x80)
    1837              $C$DW$179       .dwtag  DW_TAG_enumerator, DW_AT_name("PIE_InterruptSource_EPWM1"), DW_AT_const_value(0x01)
    1838              $C$DW$180       .dwtag  DW_TAG_enumerator, DW_AT_name("PIE_InterruptSource_EPWM2"), DW_AT_const_value(0x02)
    1839              $C$DW$181       .dwtag  DW_TAG_enumerator, DW_AT_name("PIE_InterruptSource_EPWM3"), DW_AT_const_value(0x04)
    1840              $C$DW$182       .dwtag  DW_TAG_enumerator, DW_AT_name("PIE_InterruptSource_EPWM4"), DW_AT_const_value(0x08)
    1841              $C$DW$183       .dwtag  DW_TAG_enumerator, DW_AT_name("PIE_InterruptSource_EPWM5"), DW_AT_const_value(0x10)
    1842              $C$DW$184       .dwtag  DW_TAG_enumerator, DW_AT_name("PIE_InterruptSource_EPWM6"), DW_AT_const_value(0x20)
    1843              $C$DW$185       .dwtag  DW_TAG_enumerator, DW_AT_name("PIE_InterruptSource_EPWM7"), DW_AT_const_value(0x40)
    1844              $C$DW$186       .dwtag  DW_TAG_enumerator, DW_AT_name("PIE_InterruptSource_EPWM8"), DW_AT_const_value(0x80)
    1845              $C$DW$187       .dwtag  DW_TAG_enumerator, DW_AT_name("PIE_InterruptSource_ECAP1"), DW_AT_const_value(0x01)
    1846              $C$DW$188       .dwtag  DW_TAG_enumerator, DW_AT_name("PIE_InterruptSource_ECAP2"), DW_AT_const_value(0x02)
    1847              $C$DW$189       .dwtag  DW_TAG_enumerator, DW_AT_name("PIE_InterruptSource_ECAP3"), DW_AT_const_value(0x04)
    1848              $C$DW$190       .dwtag  DW_TAG_enumerator, DW_AT_name("PIE_InterruptSource_HRCAP1"), DW_AT_const_value(0x40)
    1849              $C$DW$191       .dwtag  DW_TAG_enumerator, DW_AT_name("PIE_InterruptSource_HRCAP2"), DW_AT_const_value(0x80)
    1850              $C$DW$192       .dwtag  DW_TAG_enumerator, DW_AT_name("PIE_InterruptSource_EQEP1"), DW_AT_const_value(0x01)
    1851              $C$DW$193       .dwtag  DW_TAG_enumerator, DW_AT_name("PIE_InterruptSource_EQEP2"), DW_AT_const_value(0x02)
    1852              $C$DW$194       .dwtag  DW_TAG_enumerator, DW_AT_name("PIE_InterruptSource_HRCAP3"), DW_AT_const_value(0x08)
    1853              $C$DW$195       .dwtag  DW_TAG_enumerator, DW_AT_name("PIE_InterruptSource_HRCAP4"), DW_AT_const_value(0x10)
    1854              $C$DW$196       .dwtag  DW_TAG_enumerator, DW_AT_name("PIE_InterruptSource_USB0"), DW_AT_const_value(0x80)
    1855              $C$DW$197       .dwtag  DW_TAG_enumerator, DW_AT_name("PIE_InterruptSource_SPIARX"), DW_AT_const_value(0x01)
    1856              $C$DW$198       .dwtag  DW_TAG_enumerator, DW_AT_name("PIE_InterruptSource_SPIATX"), DW_AT_const_value(0x02)
    1857              $C$DW$199       .dwtag  DW_TAG_enumerator, DW_AT_name("PIE_InterruptSource_SPIBRX"), DW_AT_const_value(0x04)
    1858              $C$DW$200       .dwtag  DW_TAG_enumerator, DW_AT_name("PIE_InterruptSource_SPIBTX"), DW_AT_const_value(0x08)
    1859              $C$DW$201       .dwtag  DW_TAG_enumerator, DW_AT_name("PIE_InterruptSource_MCBSPARX"), DW_AT_const_value(0x10
    1860              $C$DW$202       .dwtag  DW_TAG_enumerator, DW_AT_name("PIE_InterruptSource_MCBSPATX"), DW_AT_const_value(0x20
    1861              $C$DW$203       .dwtag  DW_TAG_enumerator, DW_AT_name("PIE_InterruptSource_DMA_CH1"), DW_AT_const_value(0x01)
    1862              $C$DW$204       .dwtag  DW_TAG_enumerator, DW_AT_name("PIE_InterruptSource_DMA_CH2"), DW_AT_const_value(0x02)
    1863              $C$DW$205       .dwtag  DW_TAG_enumerator, DW_AT_name("PIE_InterruptSource_DMA_CH3"), DW_AT_const_value(0x04)
    1864              $C$DW$206       .dwtag  DW_TAG_enumerator, DW_AT_name("PIE_InterruptSource_DMA_CH4"), DW_AT_const_value(0x08)
    1865              $C$DW$207       .dwtag  DW_TAG_enumerator, DW_AT_name("PIE_InterruptSource_DMA_CH5"), DW_AT_const_value(0x10)
    1866              $C$DW$208       .dwtag  DW_TAG_enumerator, DW_AT_name("PIE_InterruptSource_DMA_CH6"), DW_AT_const_value(0x20)
    1867              $C$DW$209       .dwtag  DW_TAG_enumerator, DW_AT_name("PIE_InterruptSource_I2CA1"), DW_AT_const_value(0x01)
    1868              $C$DW$210       .dwtag  DW_TAG_enumerator, DW_AT_name("PIE_InterruptSource_I2CA2"), DW_AT_const_value(0x02)
    1869              $C$DW$211       .dwtag  DW_TAG_enumerator, DW_AT_name("PIE_InterruptSource_SCIARX"), DW_AT_const_value(0x01)
    1870              $C$DW$212       .dwtag  DW_TAG_enumerator, DW_AT_name("PIE_InterruptSource_SCIATX"), DW_AT_const_value(0x02)
    1871              $C$DW$213       .dwtag  DW_TAG_enumerator, DW_AT_name("PIE_InterruptSource_SCIBRX"), DW_AT_const_value(0x04)
    1872              $C$DW$214       .dwtag  DW_TAG_enumerator, DW_AT_name("PIE_InterruptSource_SCIBTX"), DW_AT_const_value(0x08)
    1873              $C$DW$215       .dwtag  DW_TAG_enumerator, DW_AT_name("PIE_InterruptSource_ECANA0"), DW_AT_const_value(0x10)
    1874              $C$DW$216       .dwtag  DW_TAG_enumerator, DW_AT_name("PIE_InterruptSource_ECANA1"), DW_AT_const_value(0x20)
    1875              $C$DW$217       .dwtag  DW_TAG_enumerator, DW_AT_name("PIE_InterruptSource_ADCINT_10_1"), DW_AT_const_value(0
    1876              $C$DW$218       .dwtag  DW_TAG_enumerator, DW_AT_name("PIE_InterruptSource_ADCINT_10_2"), DW_AT_const_value(0
TMS320C2000 Assembler PC v6.4.4 Wed Jul 08 12:49:34 2015

Tools Copyright (c) 1996-2015 Texas Instruments Incorporated
C:\Users\grant\AppData\Local\Temp\0769610                            PAGE   36

    1877              $C$DW$219       .dwtag  DW_TAG_enumerator, DW_AT_name("PIE_InterruptSource_ADCINT_3"), DW_AT_const_value(0x04
    1878              $C$DW$220       .dwtag  DW_TAG_enumerator, DW_AT_name("PIE_InterruptSource_ADCINT_4"), DW_AT_const_value(0x08
    1879              $C$DW$221       .dwtag  DW_TAG_enumerator, DW_AT_name("PIE_InterruptSource_ADCINT_5"), DW_AT_const_value(0x10
    1880              $C$DW$222       .dwtag  DW_TAG_enumerator, DW_AT_name("PIE_InterruptSource_ADCINT_6"), DW_AT_const_value(0x20
    1881              $C$DW$223       .dwtag  DW_TAG_enumerator, DW_AT_name("PIE_InterruptSource_ADCINT_7"), DW_AT_const_value(0x40
    1882              $C$DW$224       .dwtag  DW_TAG_enumerator, DW_AT_name("PIE_InterruptSource_ADCINT_8"), DW_AT_const_value(0x80
    1883              $C$DW$225       .dwtag  DW_TAG_enumerator, DW_AT_name("PIE_InterruptSource_CLAINT_1"), DW_AT_const_value(0x01
    1884              $C$DW$226       .dwtag  DW_TAG_enumerator, DW_AT_name("PIE_InterruptSource_CLAINT_2"), DW_AT_const_value(0x02
    1885              $C$DW$227       .dwtag  DW_TAG_enumerator, DW_AT_name("PIE_InterruptSource_CLAINT_3"), DW_AT_const_value(0x04
    1886              $C$DW$228       .dwtag  DW_TAG_enumerator, DW_AT_name("PIE_InterruptSource_CLAINT_4"), DW_AT_const_value(0x08
    1887              $C$DW$229       .dwtag  DW_TAG_enumerator, DW_AT_name("PIE_InterruptSource_CLAINT_5"), DW_AT_const_value(0x10
    1888              $C$DW$230       .dwtag  DW_TAG_enumerator, DW_AT_name("PIE_InterruptSource_CLAINT_6"), DW_AT_const_value(0x20
    1889              $C$DW$231       .dwtag  DW_TAG_enumerator, DW_AT_name("PIE_InterruptSource_CLAINT_7"), DW_AT_const_value(0x40
    1890              $C$DW$232       .dwtag  DW_TAG_enumerator, DW_AT_name("PIE_InterruptSource_CLAINT_8"), DW_AT_const_value(0x80
    1891              $C$DW$233       .dwtag  DW_TAG_enumerator, DW_AT_name("PIE_InterruptSource_XINT_3"), DW_AT_const_value(0x01)
    1892              $C$DW$234       .dwtag  DW_TAG_enumerator, DW_AT_name("PIE_InterruptSource_CLAINT_LVF"), DW_AT_const_value(0x
    1893              $C$DW$235       .dwtag  DW_TAG_enumerator, DW_AT_name("PIE_InterruptSource_CLAINT_LUF"), DW_AT_const_value(0x
    1894                      .dwendtag $C$DW$T$40
    1895              
    1896              $C$DW$T$41      .dwtag  DW_TAG_typedef, DW_AT_name("PIE_InterruptSource_e")
    1897                      .dwattr $C$DW$T$41, DW_AT_type(*$C$DW$T$40)
    1898                      .dwattr $C$DW$T$41, DW_AT_language(DW_LANG_C)
    1899              $C$DW$236       .dwtag  DW_TAG_TI_far_type
    1900                      .dwattr $C$DW$236, DW_AT_type(*$C$DW$T$41)
    1901              $C$DW$T$42      .dwtag  DW_TAG_const_type
    1902                      .dwattr $C$DW$T$42, DW_AT_type(*$C$DW$236)
    1903              
    1904              $C$DW$T$43      .dwtag  DW_TAG_enumeration_type
    1905                      .dwattr $C$DW$T$43, DW_AT_byte_size(0x01)
    1906              $C$DW$237       .dwtag  DW_TAG_enumerator, DW_AT_name("ADC_IntNumber_1"), DW_AT_const_value(0x00)
    1907              $C$DW$238       .dwtag  DW_TAG_enumerator, DW_AT_name("ADC_IntNumber_2"), DW_AT_const_value(0x01)
    1908              $C$DW$239       .dwtag  DW_TAG_enumerator, DW_AT_name("ADC_IntNumber_3"), DW_AT_const_value(0x02)
    1909              $C$DW$240       .dwtag  DW_TAG_enumerator, DW_AT_name("ADC_IntNumber_4"), DW_AT_const_value(0x03)
    1910              $C$DW$241       .dwtag  DW_TAG_enumerator, DW_AT_name("ADC_IntNumber_5"), DW_AT_const_value(0x04)
    1911              $C$DW$242       .dwtag  DW_TAG_enumerator, DW_AT_name("ADC_IntNumber_6"), DW_AT_const_value(0x05)
    1912              $C$DW$243       .dwtag  DW_TAG_enumerator, DW_AT_name("ADC_IntNumber_7"), DW_AT_const_value(0x06)
    1913              $C$DW$244       .dwtag  DW_TAG_enumerator, DW_AT_name("ADC_IntNumber_8"), DW_AT_const_value(0x07)
    1914              $C$DW$245       .dwtag  DW_TAG_enumerator, DW_AT_name("ADC_IntNumber_9"), DW_AT_const_value(0x08)
    1915              $C$DW$246       .dwtag  DW_TAG_enumerator, DW_AT_name("ADC_IntNumber_1HP"), DW_AT_const_value(0x09)
    1916              $C$DW$247       .dwtag  DW_TAG_enumerator, DW_AT_name("ADC_IntNumber_2HP"), DW_AT_const_value(0x0a)
    1917              $C$DW$248       .dwtag  DW_TAG_enumerator, DW_AT_name("ADC_IntNumber_9HP"), DW_AT_const_value(0x0e)
    1918                      .dwendtag $C$DW$T$43
    1919              
    1920              $C$DW$T$44      .dwtag  DW_TAG_typedef, DW_AT_name("ADC_IntNumber_e")
    1921                      .dwattr $C$DW$T$44, DW_AT_type(*$C$DW$T$43)
    1922                      .dwattr $C$DW$T$44, DW_AT_language(DW_LANG_C)
    1923              $C$DW$249       .dwtag  DW_TAG_TI_far_type
    1924                      .dwattr $C$DW$249, DW_AT_type(*$C$DW$T$44)
    1925              $C$DW$T$45      .dwtag  DW_TAG_const_type
    1926                      .dwattr $C$DW$T$45, DW_AT_type(*$C$DW$249)
    1927              
    1928              $C$DW$T$46      .dwtag  DW_TAG_enumeration_type
    1929                      .dwattr $C$DW$T$46, DW_AT_byte_size(0x01)
    1930              $C$DW$250       .dwtag  DW_TAG_enumerator, DW_AT_name("PWM_Number_1"), DW_AT_const_value(0x00)
    1931              $C$DW$251       .dwtag  DW_TAG_enumerator, DW_AT_name("PWM_Number_2"), DW_AT_const_value(0x01)
TMS320C2000 Assembler PC v6.4.4 Wed Jul 08 12:49:34 2015

Tools Copyright (c) 1996-2015 Texas Instruments Incorporated
C:\Users\grant\AppData\Local\Temp\0769610                            PAGE   37

    1932              $C$DW$252       .dwtag  DW_TAG_enumerator, DW_AT_name("PWM_Number_3"), DW_AT_const_value(0x02)
    1933              $C$DW$253       .dwtag  DW_TAG_enumerator, DW_AT_name("PWM_Number_4"), DW_AT_const_value(0x03)
    1934              $C$DW$254       .dwtag  DW_TAG_enumerator, DW_AT_name("PWM_Number_5"), DW_AT_const_value(0x04)
    1935              $C$DW$255       .dwtag  DW_TAG_enumerator, DW_AT_name("PWM_Number_6"), DW_AT_const_value(0x05)
    1936              $C$DW$256       .dwtag  DW_TAG_enumerator, DW_AT_name("PWM_Number_7"), DW_AT_const_value(0x06)
    1937              $C$DW$257       .dwtag  DW_TAG_enumerator, DW_AT_name("PWM_Number_8"), DW_AT_const_value(0x07)
    1938                      .dwendtag $C$DW$T$46
    1939              
    1940              $C$DW$T$47      .dwtag  DW_TAG_typedef, DW_AT_name("PWM_Number_e")
    1941                      .dwattr $C$DW$T$47, DW_AT_type(*$C$DW$T$46)
    1942                      .dwattr $C$DW$T$47, DW_AT_language(DW_LANG_C)
    1943              $C$DW$258       .dwtag  DW_TAG_TI_far_type
    1944                      .dwattr $C$DW$258, DW_AT_type(*$C$DW$T$47)
    1945              $C$DW$T$48      .dwtag  DW_TAG_const_type
    1946                      .dwattr $C$DW$T$48, DW_AT_type(*$C$DW$258)
    1947              
    1948              $C$DW$T$49      .dwtag  DW_TAG_enumeration_type
    1949                      .dwattr $C$DW$T$49, DW_AT_byte_size(0x01)
    1950              $C$DW$259       .dwtag  DW_TAG_enumerator, DW_AT_name("PIE_SubGroupNumber_1"), DW_AT_const_value(0x00)
    1951              $C$DW$260       .dwtag  DW_TAG_enumerator, DW_AT_name("PIE_SubGroupNumber_2"), DW_AT_const_value(0x01)
    1952              $C$DW$261       .dwtag  DW_TAG_enumerator, DW_AT_name("PIE_SubGroupNumber_3"), DW_AT_const_value(0x02)
    1953              $C$DW$262       .dwtag  DW_TAG_enumerator, DW_AT_name("PIE_SubGroupNumber_4"), DW_AT_const_value(0x03)
    1954              $C$DW$263       .dwtag  DW_TAG_enumerator, DW_AT_name("PIE_SubGroupNumber_5"), DW_AT_const_value(0x04)
    1955              $C$DW$264       .dwtag  DW_TAG_enumerator, DW_AT_name("PIE_SubGroupNumber_6"), DW_AT_const_value(0x05)
    1956              $C$DW$265       .dwtag  DW_TAG_enumerator, DW_AT_name("PIE_SubGroupNumber_7"), DW_AT_const_value(0x06)
    1957              $C$DW$266       .dwtag  DW_TAG_enumerator, DW_AT_name("PIE_SubGroupNumber_8"), DW_AT_const_value(0x07)
    1958                      .dwendtag $C$DW$T$49
    1959              
    1960              $C$DW$T$50      .dwtag  DW_TAG_typedef, DW_AT_name("PIE_SubGroupNumber_e")
    1961                      .dwattr $C$DW$T$50, DW_AT_type(*$C$DW$T$49)
    1962                      .dwattr $C$DW$T$50, DW_AT_language(DW_LANG_C)
    1963              $C$DW$267       .dwtag  DW_TAG_TI_far_type
    1964                      .dwattr $C$DW$267, DW_AT_type(*$C$DW$T$50)
    1965              $C$DW$T$51      .dwtag  DW_TAG_const_type
    1966                      .dwattr $C$DW$T$51, DW_AT_type(*$C$DW$267)
    1967              
    1968              $C$DW$T$52      .dwtag  DW_TAG_enumeration_type
    1969                      .dwattr $C$DW$T$52, DW_AT_byte_size(0x01)
    1970              $C$DW$268       .dwtag  DW_TAG_enumerator, DW_AT_name("PIE_SystemInterrupts_Reset"), DW_AT_const_value(0x00)
    1971              $C$DW$269       .dwtag  DW_TAG_enumerator, DW_AT_name("PIE_SystemInterrupts_INT1"), DW_AT_const_value(0x01)
    1972              $C$DW$270       .dwtag  DW_TAG_enumerator, DW_AT_name("PIE_SystemInterrupts_INT2"), DW_AT_const_value(0x02)
    1973              $C$DW$271       .dwtag  DW_TAG_enumerator, DW_AT_name("PIE_SystemInterrupts_INT3"), DW_AT_const_value(0x03)
    1974              $C$DW$272       .dwtag  DW_TAG_enumerator, DW_AT_name("PIE_SystemInterrupts_INT4"), DW_AT_const_value(0x04)
    1975              $C$DW$273       .dwtag  DW_TAG_enumerator, DW_AT_name("PIE_SystemInterrupts_INT5"), DW_AT_const_value(0x05)
    1976              $C$DW$274       .dwtag  DW_TAG_enumerator, DW_AT_name("PIE_SystemInterrupts_INT6"), DW_AT_const_value(0x06)
    1977              $C$DW$275       .dwtag  DW_TAG_enumerator, DW_AT_name("PIE_SystemInterrupts_INT7"), DW_AT_const_value(0x07)
    1978              $C$DW$276       .dwtag  DW_TAG_enumerator, DW_AT_name("PIE_SystemInterrupts_INT8"), DW_AT_const_value(0x08)
    1979              $C$DW$277       .dwtag  DW_TAG_enumerator, DW_AT_name("PIE_SystemInterrupts_INT9"), DW_AT_const_value(0x09)
    1980              $C$DW$278       .dwtag  DW_TAG_enumerator, DW_AT_name("PIE_SystemInterrupts_INT10"), DW_AT_const_value(0x0a)
    1981              $C$DW$279       .dwtag  DW_TAG_enumerator, DW_AT_name("PIE_SystemInterrupts_INT11"), DW_AT_const_value(0x0b)
    1982              $C$DW$280       .dwtag  DW_TAG_enumerator, DW_AT_name("PIE_SystemInterrupts_INT12"), DW_AT_const_value(0x0c)
    1983              $C$DW$281       .dwtag  DW_TAG_enumerator, DW_AT_name("PIE_SystemInterrupts_TINT1"), DW_AT_const_value(0x0d)
    1984              $C$DW$282       .dwtag  DW_TAG_enumerator, DW_AT_name("PIE_SystemInterrupts_TINT2"), DW_AT_const_value(0x0e)
    1985              $C$DW$283       .dwtag  DW_TAG_enumerator, DW_AT_name("PIE_SystemInterrupts_DATALOG"), DW_AT_const_value(0x0f
    1986              $C$DW$284       .dwtag  DW_TAG_enumerator, DW_AT_name("PIE_SystemInterrupts_RTOSINT"), DW_AT_const_value(0x10
TMS320C2000 Assembler PC v6.4.4 Wed Jul 08 12:49:34 2015

Tools Copyright (c) 1996-2015 Texas Instruments Incorporated
C:\Users\grant\AppData\Local\Temp\0769610                            PAGE   38

    1987              $C$DW$285       .dwtag  DW_TAG_enumerator, DW_AT_name("PIE_SystemInterrupts_EMUINT"), DW_AT_const_value(0x11)
    1988              $C$DW$286       .dwtag  DW_TAG_enumerator, DW_AT_name("PIE_SystemInterrupts_NMI"), DW_AT_const_value(0x12)
    1989              $C$DW$287       .dwtag  DW_TAG_enumerator, DW_AT_name("PIE_SystemInterrupts_ILLEGAL"), DW_AT_const_value(0x13
    1990              $C$DW$288       .dwtag  DW_TAG_enumerator, DW_AT_name("PIE_SystemInterrupts_USER1"), DW_AT_const_value(0x14)
    1991              $C$DW$289       .dwtag  DW_TAG_enumerator, DW_AT_name("PIE_SystemInterrupts_USER2"), DW_AT_const_value(0x15)
    1992              $C$DW$290       .dwtag  DW_TAG_enumerator, DW_AT_name("PIE_SystemInterrupts_USER3"), DW_AT_const_value(0x16)
    1993              $C$DW$291       .dwtag  DW_TAG_enumerator, DW_AT_name("PIE_SystemInterrupts_USER4"), DW_AT_const_value(0x17)
    1994              $C$DW$292       .dwtag  DW_TAG_enumerator, DW_AT_name("PIE_SystemInterrupts_USER5"), DW_AT_const_value(0x18)
    1995              $C$DW$293       .dwtag  DW_TAG_enumerator, DW_AT_name("PIE_SystemInterrupts_USER6"), DW_AT_const_value(0x19)
    1996              $C$DW$294       .dwtag  DW_TAG_enumerator, DW_AT_name("PIE_SystemInterrupts_USER7"), DW_AT_const_value(0x1a)
    1997              $C$DW$295       .dwtag  DW_TAG_enumerator, DW_AT_name("PIE_SystemInterrupts_USER8"), DW_AT_const_value(0x1b)
    1998              $C$DW$296       .dwtag  DW_TAG_enumerator, DW_AT_name("PIE_SystemInterrupts_USER9"), DW_AT_const_value(0x1c)
    1999              $C$DW$297       .dwtag  DW_TAG_enumerator, DW_AT_name("PIE_SystemInterrupts_USER10"), DW_AT_const_value(0x1d)
    2000              $C$DW$298       .dwtag  DW_TAG_enumerator, DW_AT_name("PIE_SystemInterrupts_USER11"), DW_AT_const_value(0x1e)
    2001              $C$DW$299       .dwtag  DW_TAG_enumerator, DW_AT_name("PIE_SystemInterrupts_USER12"), DW_AT_const_value(0x1f)
    2002                      .dwendtag $C$DW$T$52
    2003              
    2004              $C$DW$T$53      .dwtag  DW_TAG_typedef, DW_AT_name("PIE_SystemInterrupts_e")
    2005                      .dwattr $C$DW$T$53, DW_AT_type(*$C$DW$T$52)
    2006                      .dwattr $C$DW$T$53, DW_AT_language(DW_LANG_C)
    2007              $C$DW$300       .dwtag  DW_TAG_TI_far_type
    2008                      .dwattr $C$DW$300, DW_AT_type(*$C$DW$T$53)
    2009              $C$DW$T$54      .dwtag  DW_TAG_const_type
    2010                      .dwattr $C$DW$T$54, DW_AT_type(*$C$DW$300)
    2011              
    2012              $C$DW$T$55      .dwtag  DW_TAG_enumeration_type
    2013                      .dwattr $C$DW$T$55, DW_AT_byte_size(0x01)
    2014              $C$DW$301       .dwtag  DW_TAG_enumerator, DW_AT_name("PIE_ExtIntPolarity_FallingEdge"), DW_AT_const_value(0x
    2015              $C$DW$302       .dwtag  DW_TAG_enumerator, DW_AT_name("PIE_ExtIntPolarity_RisingEdge"), DW_AT_const_value(0x0
    2016              $C$DW$303       .dwtag  DW_TAG_enumerator, DW_AT_name("PIE_ExtIntPolarity_RisingAndFallingEdge"), DW_AT_const
    2017                      .dwendtag $C$DW$T$55
    2018              
    2019              $C$DW$T$56      .dwtag  DW_TAG_typedef, DW_AT_name("PIE_ExtIntPolarity_e")
    2020                      .dwattr $C$DW$T$56, DW_AT_type(*$C$DW$T$55)
    2021                      .dwattr $C$DW$T$56, DW_AT_language(DW_LANG_C)
    2022              $C$DW$304       .dwtag  DW_TAG_TI_far_type
    2023                      .dwattr $C$DW$304, DW_AT_type(*$C$DW$T$56)
    2024              $C$DW$T$57      .dwtag  DW_TAG_const_type
    2025                      .dwattr $C$DW$T$57, DW_AT_type(*$C$DW$304)
    2026              
    2027              $C$DW$T$21      .dwtag  DW_TAG_structure_type
    2028                      .dwattr $C$DW$T$21, DW_AT_name("_PIE_IERIFR_t")
    2029                      .dwattr $C$DW$T$21, DW_AT_byte_size(0x02)
    2030              $C$DW$305       .dwtag  DW_TAG_member
    2031                      .dwattr $C$DW$305, DW_AT_type(*$C$DW$T$20)
    2032                      .dwattr $C$DW$305, DW_AT_name("IER")
    2033                      .dwattr $C$DW$305, DW_AT_TI_symbol_name("_IER")
    2034                      .dwattr $C$DW$305, DW_AT_data_member_location[DW_OP_plus_uconst 0x0]
    2035                      .dwattr $C$DW$305, DW_AT_accessibility(DW_ACCESS_public)
    2036              $C$DW$306       .dwtag  DW_TAG_member
    2037                      .dwattr $C$DW$306, DW_AT_type(*$C$DW$T$20)
    2038                      .dwattr $C$DW$306, DW_AT_name("IFR")
    2039                      .dwattr $C$DW$306, DW_AT_TI_symbol_name("_IFR")
    2040                      .dwattr $C$DW$306, DW_AT_data_member_location[DW_OP_plus_uconst 0x1]
    2041                      .dwattr $C$DW$306, DW_AT_accessibility(DW_ACCESS_public)
TMS320C2000 Assembler PC v6.4.4 Wed Jul 08 12:49:34 2015

Tools Copyright (c) 1996-2015 Texas Instruments Incorporated
C:\Users\grant\AppData\Local\Temp\0769610                            PAGE   39

    2042                      .dwendtag $C$DW$T$21
    2043              
    2044              $C$DW$T$22      .dwtag  DW_TAG_typedef, DW_AT_name("PIE_IERIFR_t")
    2045                      .dwattr $C$DW$T$22, DW_AT_type(*$C$DW$T$21)
    2046                      .dwattr $C$DW$T$22, DW_AT_language(DW_LANG_C)
    2047              $C$DW$307       .dwtag  DW_TAG_TI_far_type
    2048                      .dwattr $C$DW$307, DW_AT_type(*$C$DW$T$22)
    2049              $C$DW$T$23      .dwtag  DW_TAG_volatile_type
    2050                      .dwattr $C$DW$T$23, DW_AT_type(*$C$DW$307)
    2051              
    2052              $C$DW$T$24      .dwtag  DW_TAG_array_type
    2053                      .dwattr $C$DW$T$24, DW_AT_type(*$C$DW$T$23)
    2054                      .dwattr $C$DW$T$24, DW_AT_language(DW_LANG_C)
    2055                      .dwattr $C$DW$T$24, DW_AT_byte_size(0x18)
    2056              $C$DW$308       .dwtag  DW_TAG_subrange_type
    2057                      .dwattr $C$DW$308, DW_AT_upper_bound(0x0b)
    2058                      .dwendtag $C$DW$T$24
    2059              
    2060              
    2061              $C$DW$T$33      .dwtag  DW_TAG_structure_type
    2062                      .dwattr $C$DW$T$33, DW_AT_name("_PIE_Obj_")
    2063                      .dwattr $C$DW$T$33, DW_AT_byte_size(0x639c)
    2064              $C$DW$309       .dwtag  DW_TAG_member
    2065                      .dwattr $C$DW$309, DW_AT_type(*$C$DW$T$20)
    2066                      .dwattr $C$DW$309, DW_AT_name("PIECTRL")
    2067                      .dwattr $C$DW$309, DW_AT_TI_symbol_name("_PIECTRL")
    2068                      .dwattr $C$DW$309, DW_AT_data_member_location[DW_OP_plus_uconst 0x0]
    2069                      .dwattr $C$DW$309, DW_AT_accessibility(DW_ACCESS_public)
    2070              $C$DW$310       .dwtag  DW_TAG_member
    2071                      .dwattr $C$DW$310, DW_AT_type(*$C$DW$T$20)
    2072                      .dwattr $C$DW$310, DW_AT_name("PIEACK")
    2073                      .dwattr $C$DW$310, DW_AT_TI_symbol_name("_PIEACK")
    2074                      .dwattr $C$DW$310, DW_AT_data_member_location[DW_OP_plus_uconst 0x1]
    2075                      .dwattr $C$DW$310, DW_AT_accessibility(DW_ACCESS_public)
    2076              $C$DW$311       .dwtag  DW_TAG_member
    2077                      .dwattr $C$DW$311, DW_AT_type(*$C$DW$T$24)
    2078                      .dwattr $C$DW$311, DW_AT_name("PIEIER_PIEIFR")
    2079                      .dwattr $C$DW$311, DW_AT_TI_symbol_name("_PIEIER_PIEIFR")
    2080                      .dwattr $C$DW$311, DW_AT_data_member_location[DW_OP_plus_uconst 0x2]
    2081                      .dwattr $C$DW$311, DW_AT_accessibility(DW_ACCESS_public)
    2082              $C$DW$312       .dwtag  DW_TAG_member
    2083                      .dwattr $C$DW$312, DW_AT_type(*$C$DW$T$25)
    2084                      .dwattr $C$DW$312, DW_AT_name("rsvd_1")
    2085                      .dwattr $C$DW$312, DW_AT_TI_symbol_name("_rsvd_1")
    2086                      .dwattr $C$DW$312, DW_AT_data_member_location[DW_OP_plus_uconst 0x1a]
    2087                      .dwattr $C$DW$312, DW_AT_accessibility(DW_ACCESS_public)
    2088              $C$DW$313       .dwtag  DW_TAG_member
    2089                      .dwattr $C$DW$313, DW_AT_type(*$C$DW$T$29)
    2090                      .dwattr $C$DW$313, DW_AT_name("Reset")
    2091                      .dwattr $C$DW$313, DW_AT_TI_symbol_name("_Reset")
    2092                      .dwattr $C$DW$313, DW_AT_data_member_location[DW_OP_plus_uconst 0x20]
    2093                      .dwattr $C$DW$313, DW_AT_accessibility(DW_ACCESS_public)
    2094              $C$DW$314       .dwtag  DW_TAG_member
    2095                      .dwattr $C$DW$314, DW_AT_type(*$C$DW$T$29)
    2096                      .dwattr $C$DW$314, DW_AT_name("INT1")
TMS320C2000 Assembler PC v6.4.4 Wed Jul 08 12:49:34 2015

Tools Copyright (c) 1996-2015 Texas Instruments Incorporated
C:\Users\grant\AppData\Local\Temp\0769610                            PAGE   40

    2097                      .dwattr $C$DW$314, DW_AT_TI_symbol_name("_INT1")
    2098                      .dwattr $C$DW$314, DW_AT_data_member_location[DW_OP_plus_uconst 0x22]
    2099                      .dwattr $C$DW$314, DW_AT_accessibility(DW_ACCESS_public)
    2100              $C$DW$315       .dwtag  DW_TAG_member
    2101                      .dwattr $C$DW$315, DW_AT_type(*$C$DW$T$29)
    2102                      .dwattr $C$DW$315, DW_AT_name("INT2")
    2103                      .dwattr $C$DW$315, DW_AT_TI_symbol_name("_INT2")
    2104                      .dwattr $C$DW$315, DW_AT_data_member_location[DW_OP_plus_uconst 0x24]
    2105                      .dwattr $C$DW$315, DW_AT_accessibility(DW_ACCESS_public)
    2106              $C$DW$316       .dwtag  DW_TAG_member
    2107                      .dwattr $C$DW$316, DW_AT_type(*$C$DW$T$29)
    2108                      .dwattr $C$DW$316, DW_AT_name("INT3")
    2109                      .dwattr $C$DW$316, DW_AT_TI_symbol_name("_INT3")
    2110                      .dwattr $C$DW$316, DW_AT_data_member_location[DW_OP_plus_uconst 0x26]
    2111                      .dwattr $C$DW$316, DW_AT_accessibility(DW_ACCESS_public)
    2112              $C$DW$317       .dwtag  DW_TAG_member
    2113                      .dwattr $C$DW$317, DW_AT_type(*$C$DW$T$29)
    2114                      .dwattr $C$DW$317, DW_AT_name("INT4")
    2115                      .dwattr $C$DW$317, DW_AT_TI_symbol_name("_INT4")
    2116                      .dwattr $C$DW$317, DW_AT_data_member_location[DW_OP_plus_uconst 0x28]
    2117                      .dwattr $C$DW$317, DW_AT_accessibility(DW_ACCESS_public)
    2118              $C$DW$318       .dwtag  DW_TAG_member
    2119                      .dwattr $C$DW$318, DW_AT_type(*$C$DW$T$29)
    2120                      .dwattr $C$DW$318, DW_AT_name("INT5")
    2121                      .dwattr $C$DW$318, DW_AT_TI_symbol_name("_INT5")
    2122                      .dwattr $C$DW$318, DW_AT_data_member_location[DW_OP_plus_uconst 0x2a]
    2123                      .dwattr $C$DW$318, DW_AT_accessibility(DW_ACCESS_public)
    2124              $C$DW$319       .dwtag  DW_TAG_member
    2125                      .dwattr $C$DW$319, DW_AT_type(*$C$DW$T$29)
    2126                      .dwattr $C$DW$319, DW_AT_name("INT6")
    2127                      .dwattr $C$DW$319, DW_AT_TI_symbol_name("_INT6")
    2128                      .dwattr $C$DW$319, DW_AT_data_member_location[DW_OP_plus_uconst 0x2c]
    2129                      .dwattr $C$DW$319, DW_AT_accessibility(DW_ACCESS_public)
    2130              $C$DW$320       .dwtag  DW_TAG_member
    2131                      .dwattr $C$DW$320, DW_AT_type(*$C$DW$T$29)
    2132                      .dwattr $C$DW$320, DW_AT_name("INT7")
    2133                      .dwattr $C$DW$320, DW_AT_TI_symbol_name("_INT7")
    2134                      .dwattr $C$DW$320, DW_AT_data_member_location[DW_OP_plus_uconst 0x2e]
    2135                      .dwattr $C$DW$320, DW_AT_accessibility(DW_ACCESS_public)
    2136              $C$DW$321       .dwtag  DW_TAG_member
    2137                      .dwattr $C$DW$321, DW_AT_type(*$C$DW$T$29)
    2138                      .dwattr $C$DW$321, DW_AT_name("INT8")
    2139                      .dwattr $C$DW$321, DW_AT_TI_symbol_name("_INT8")
    2140                      .dwattr $C$DW$321, DW_AT_data_member_location[DW_OP_plus_uconst 0x30]
    2141                      .dwattr $C$DW$321, DW_AT_accessibility(DW_ACCESS_public)
    2142              $C$DW$322       .dwtag  DW_TAG_member
    2143                      .dwattr $C$DW$322, DW_AT_type(*$C$DW$T$29)
    2144                      .dwattr $C$DW$322, DW_AT_name("INT9")
    2145                      .dwattr $C$DW$322, DW_AT_TI_symbol_name("_INT9")
    2146                      .dwattr $C$DW$322, DW_AT_data_member_location[DW_OP_plus_uconst 0x32]
    2147                      .dwattr $C$DW$322, DW_AT_accessibility(DW_ACCESS_public)
    2148              $C$DW$323       .dwtag  DW_TAG_member
    2149                      .dwattr $C$DW$323, DW_AT_type(*$C$DW$T$29)
    2150                      .dwattr $C$DW$323, DW_AT_name("INT10")
    2151                      .dwattr $C$DW$323, DW_AT_TI_symbol_name("_INT10")
TMS320C2000 Assembler PC v6.4.4 Wed Jul 08 12:49:34 2015

Tools Copyright (c) 1996-2015 Texas Instruments Incorporated
C:\Users\grant\AppData\Local\Temp\0769610                            PAGE   41

    2152                      .dwattr $C$DW$323, DW_AT_data_member_location[DW_OP_plus_uconst 0x34]
    2153                      .dwattr $C$DW$323, DW_AT_accessibility(DW_ACCESS_public)
    2154              $C$DW$324       .dwtag  DW_TAG_member
    2155                      .dwattr $C$DW$324, DW_AT_type(*$C$DW$T$29)
    2156                      .dwattr $C$DW$324, DW_AT_name("INT11")
    2157                      .dwattr $C$DW$324, DW_AT_TI_symbol_name("_INT11")
    2158                      .dwattr $C$DW$324, DW_AT_data_member_location[DW_OP_plus_uconst 0x36]
    2159                      .dwattr $C$DW$324, DW_AT_accessibility(DW_ACCESS_public)
    2160              $C$DW$325       .dwtag  DW_TAG_member
    2161                      .dwattr $C$DW$325, DW_AT_type(*$C$DW$T$29)
    2162                      .dwattr $C$DW$325, DW_AT_name("INT12")
    2163                      .dwattr $C$DW$325, DW_AT_TI_symbol_name("_INT12")
    2164                      .dwattr $C$DW$325, DW_AT_data_member_location[DW_OP_plus_uconst 0x38]
    2165                      .dwattr $C$DW$325, DW_AT_accessibility(DW_ACCESS_public)
    2166              $C$DW$326       .dwtag  DW_TAG_member
    2167                      .dwattr $C$DW$326, DW_AT_type(*$C$DW$T$29)
    2168                      .dwattr $C$DW$326, DW_AT_name("TINT1")
    2169                      .dwattr $C$DW$326, DW_AT_TI_symbol_name("_TINT1")
    2170                      .dwattr $C$DW$326, DW_AT_data_member_location[DW_OP_plus_uconst 0x3a]
    2171                      .dwattr $C$DW$326, DW_AT_accessibility(DW_ACCESS_public)
    2172              $C$DW$327       .dwtag  DW_TAG_member
    2173                      .dwattr $C$DW$327, DW_AT_type(*$C$DW$T$29)
    2174                      .dwattr $C$DW$327, DW_AT_name("TINT2")
    2175                      .dwattr $C$DW$327, DW_AT_TI_symbol_name("_TINT2")
    2176                      .dwattr $C$DW$327, DW_AT_data_member_location[DW_OP_plus_uconst 0x3c]
    2177                      .dwattr $C$DW$327, DW_AT_accessibility(DW_ACCESS_public)
    2178              $C$DW$328       .dwtag  DW_TAG_member
    2179                      .dwattr $C$DW$328, DW_AT_type(*$C$DW$T$29)
    2180                      .dwattr $C$DW$328, DW_AT_name("DATALOG")
    2181                      .dwattr $C$DW$328, DW_AT_TI_symbol_name("_DATALOG")
    2182                      .dwattr $C$DW$328, DW_AT_data_member_location[DW_OP_plus_uconst 0x3e]
    2183                      .dwattr $C$DW$328, DW_AT_accessibility(DW_ACCESS_public)
    2184              $C$DW$329       .dwtag  DW_TAG_member
    2185                      .dwattr $C$DW$329, DW_AT_type(*$C$DW$T$29)
    2186                      .dwattr $C$DW$329, DW_AT_name("RTOSINT")
    2187                      .dwattr $C$DW$329, DW_AT_TI_symbol_name("_RTOSINT")
    2188                      .dwattr $C$DW$329, DW_AT_data_member_location[DW_OP_plus_uconst 0x40]
    2189                      .dwattr $C$DW$329, DW_AT_accessibility(DW_ACCESS_public)
    2190              $C$DW$330       .dwtag  DW_TAG_member
    2191                      .dwattr $C$DW$330, DW_AT_type(*$C$DW$T$29)
    2192                      .dwattr $C$DW$330, DW_AT_name("EMUINT")
    2193                      .dwattr $C$DW$330, DW_AT_TI_symbol_name("_EMUINT")
    2194                      .dwattr $C$DW$330, DW_AT_data_member_location[DW_OP_plus_uconst 0x42]
    2195                      .dwattr $C$DW$330, DW_AT_accessibility(DW_ACCESS_public)
    2196              $C$DW$331       .dwtag  DW_TAG_member
    2197                      .dwattr $C$DW$331, DW_AT_type(*$C$DW$T$29)
    2198                      .dwattr $C$DW$331, DW_AT_name("NMI")
    2199                      .dwattr $C$DW$331, DW_AT_TI_symbol_name("_NMI")
    2200                      .dwattr $C$DW$331, DW_AT_data_member_location[DW_OP_plus_uconst 0x44]
    2201                      .dwattr $C$DW$331, DW_AT_accessibility(DW_ACCESS_public)
    2202              $C$DW$332       .dwtag  DW_TAG_member
    2203                      .dwattr $C$DW$332, DW_AT_type(*$C$DW$T$29)
    2204                      .dwattr $C$DW$332, DW_AT_name("ILLEGAL")
    2205                      .dwattr $C$DW$332, DW_AT_TI_symbol_name("_ILLEGAL")
    2206                      .dwattr $C$DW$332, DW_AT_data_member_location[DW_OP_plus_uconst 0x46]
TMS320C2000 Assembler PC v6.4.4 Wed Jul 08 12:49:34 2015

Tools Copyright (c) 1996-2015 Texas Instruments Incorporated
C:\Users\grant\AppData\Local\Temp\0769610                            PAGE   42

    2207                      .dwattr $C$DW$332, DW_AT_accessibility(DW_ACCESS_public)
    2208              $C$DW$333       .dwtag  DW_TAG_member
    2209                      .dwattr $C$DW$333, DW_AT_type(*$C$DW$T$29)
    2210                      .dwattr $C$DW$333, DW_AT_name("USER1")
    2211                      .dwattr $C$DW$333, DW_AT_TI_symbol_name("_USER1")
    2212                      .dwattr $C$DW$333, DW_AT_data_member_location[DW_OP_plus_uconst 0x48]
    2213                      .dwattr $C$DW$333, DW_AT_accessibility(DW_ACCESS_public)
    2214              $C$DW$334       .dwtag  DW_TAG_member
    2215                      .dwattr $C$DW$334, DW_AT_type(*$C$DW$T$29)
    2216                      .dwattr $C$DW$334, DW_AT_name("USER2")
    2217                      .dwattr $C$DW$334, DW_AT_TI_symbol_name("_USER2")
    2218                      .dwattr $C$DW$334, DW_AT_data_member_location[DW_OP_plus_uconst 0x4a]
    2219                      .dwattr $C$DW$334, DW_AT_accessibility(DW_ACCESS_public)
    2220              $C$DW$335       .dwtag  DW_TAG_member
    2221                      .dwattr $C$DW$335, DW_AT_type(*$C$DW$T$29)
    2222                      .dwattr $C$DW$335, DW_AT_name("USER3")
    2223                      .dwattr $C$DW$335, DW_AT_TI_symbol_name("_USER3")
    2224                      .dwattr $C$DW$335, DW_AT_data_member_location[DW_OP_plus_uconst 0x4c]
    2225                      .dwattr $C$DW$335, DW_AT_accessibility(DW_ACCESS_public)
    2226              $C$DW$336       .dwtag  DW_TAG_member
    2227                      .dwattr $C$DW$336, DW_AT_type(*$C$DW$T$29)
    2228                      .dwattr $C$DW$336, DW_AT_name("USER4")
    2229                      .dwattr $C$DW$336, DW_AT_TI_symbol_name("_USER4")
    2230                      .dwattr $C$DW$336, DW_AT_data_member_location[DW_OP_plus_uconst 0x4e]
    2231                      .dwattr $C$DW$336, DW_AT_accessibility(DW_ACCESS_public)
    2232              $C$DW$337       .dwtag  DW_TAG_member
    2233                      .dwattr $C$DW$337, DW_AT_type(*$C$DW$T$29)
    2234                      .dwattr $C$DW$337, DW_AT_name("USER5")
    2235                      .dwattr $C$DW$337, DW_AT_TI_symbol_name("_USER5")
    2236                      .dwattr $C$DW$337, DW_AT_data_member_location[DW_OP_plus_uconst 0x50]
    2237                      .dwattr $C$DW$337, DW_AT_accessibility(DW_ACCESS_public)
    2238              $C$DW$338       .dwtag  DW_TAG_member
    2239                      .dwattr $C$DW$338, DW_AT_type(*$C$DW$T$29)
    2240                      .dwattr $C$DW$338, DW_AT_name("USER6")
    2241                      .dwattr $C$DW$338, DW_AT_TI_symbol_name("_USER6")
    2242                      .dwattr $C$DW$338, DW_AT_data_member_location[DW_OP_plus_uconst 0x52]
    2243                      .dwattr $C$DW$338, DW_AT_accessibility(DW_ACCESS_public)
    2244              $C$DW$339       .dwtag  DW_TAG_member
    2245                      .dwattr $C$DW$339, DW_AT_type(*$C$DW$T$29)
    2246                      .dwattr $C$DW$339, DW_AT_name("USER7")
    2247                      .dwattr $C$DW$339, DW_AT_TI_symbol_name("_USER7")
    2248                      .dwattr $C$DW$339, DW_AT_data_member_location[DW_OP_plus_uconst 0x54]
    2249                      .dwattr $C$DW$339, DW_AT_accessibility(DW_ACCESS_public)
    2250              $C$DW$340       .dwtag  DW_TAG_member
    2251                      .dwattr $C$DW$340, DW_AT_type(*$C$DW$T$29)
    2252                      .dwattr $C$DW$340, DW_AT_name("USER8")
    2253                      .dwattr $C$DW$340, DW_AT_TI_symbol_name("_USER8")
    2254                      .dwattr $C$DW$340, DW_AT_data_member_location[DW_OP_plus_uconst 0x56]
    2255                      .dwattr $C$DW$340, DW_AT_accessibility(DW_ACCESS_public)
    2256              $C$DW$341       .dwtag  DW_TAG_member
    2257                      .dwattr $C$DW$341, DW_AT_type(*$C$DW$T$29)
    2258                      .dwattr $C$DW$341, DW_AT_name("USER9")
    2259                      .dwattr $C$DW$341, DW_AT_TI_symbol_name("_USER9")
    2260                      .dwattr $C$DW$341, DW_AT_data_member_location[DW_OP_plus_uconst 0x58]
    2261                      .dwattr $C$DW$341, DW_AT_accessibility(DW_ACCESS_public)
TMS320C2000 Assembler PC v6.4.4 Wed Jul 08 12:49:34 2015

Tools Copyright (c) 1996-2015 Texas Instruments Incorporated
C:\Users\grant\AppData\Local\Temp\0769610                            PAGE   43

    2262              $C$DW$342       .dwtag  DW_TAG_member
    2263                      .dwattr $C$DW$342, DW_AT_type(*$C$DW$T$29)
    2264                      .dwattr $C$DW$342, DW_AT_name("USER10")
    2265                      .dwattr $C$DW$342, DW_AT_TI_symbol_name("_USER10")
    2266                      .dwattr $C$DW$342, DW_AT_data_member_location[DW_OP_plus_uconst 0x5a]
    2267                      .dwattr $C$DW$342, DW_AT_accessibility(DW_ACCESS_public)
    2268              $C$DW$343       .dwtag  DW_TAG_member
    2269                      .dwattr $C$DW$343, DW_AT_type(*$C$DW$T$29)
    2270                      .dwattr $C$DW$343, DW_AT_name("USER11")
    2271                      .dwattr $C$DW$343, DW_AT_TI_symbol_name("_USER11")
    2272                      .dwattr $C$DW$343, DW_AT_data_member_location[DW_OP_plus_uconst 0x5c]
    2273                      .dwattr $C$DW$343, DW_AT_accessibility(DW_ACCESS_public)
    2274              $C$DW$344       .dwtag  DW_TAG_member
    2275                      .dwattr $C$DW$344, DW_AT_type(*$C$DW$T$29)
    2276                      .dwattr $C$DW$344, DW_AT_name("USER12")
    2277                      .dwattr $C$DW$344, DW_AT_TI_symbol_name("_USER12")
    2278                      .dwattr $C$DW$344, DW_AT_data_member_location[DW_OP_plus_uconst 0x5e]
    2279                      .dwattr $C$DW$344, DW_AT_accessibility(DW_ACCESS_public)
    2280              $C$DW$345       .dwtag  DW_TAG_member
    2281                      .dwattr $C$DW$345, DW_AT_type(*$C$DW$T$29)
    2282                      .dwattr $C$DW$345, DW_AT_name("ADCINT1_HP")
    2283                      .dwattr $C$DW$345, DW_AT_TI_symbol_name("_ADCINT1_HP")
    2284                      .dwattr $C$DW$345, DW_AT_data_member_location[DW_OP_plus_uconst 0x60]
    2285                      .dwattr $C$DW$345, DW_AT_accessibility(DW_ACCESS_public)
    2286              $C$DW$346       .dwtag  DW_TAG_member
    2287                      .dwattr $C$DW$346, DW_AT_type(*$C$DW$T$29)
    2288                      .dwattr $C$DW$346, DW_AT_name("ADCINT2_HP")
    2289                      .dwattr $C$DW$346, DW_AT_TI_symbol_name("_ADCINT2_HP")
    2290                      .dwattr $C$DW$346, DW_AT_data_member_location[DW_OP_plus_uconst 0x62]
    2291                      .dwattr $C$DW$346, DW_AT_accessibility(DW_ACCESS_public)
    2292              $C$DW$347       .dwtag  DW_TAG_member
    2293                      .dwattr $C$DW$347, DW_AT_type(*$C$DW$T$29)
    2294                      .dwattr $C$DW$347, DW_AT_name("rsvd1_3")
    2295                      .dwattr $C$DW$347, DW_AT_TI_symbol_name("_rsvd1_3")
    2296                      .dwattr $C$DW$347, DW_AT_data_member_location[DW_OP_plus_uconst 0x64]
    2297                      .dwattr $C$DW$347, DW_AT_accessibility(DW_ACCESS_public)
    2298              $C$DW$348       .dwtag  DW_TAG_member
    2299                      .dwattr $C$DW$348, DW_AT_type(*$C$DW$T$29)
    2300                      .dwattr $C$DW$348, DW_AT_name("XINT1")
    2301                      .dwattr $C$DW$348, DW_AT_TI_symbol_name("_XINT1")
    2302                      .dwattr $C$DW$348, DW_AT_data_member_location[DW_OP_plus_uconst 0x66]
    2303                      .dwattr $C$DW$348, DW_AT_accessibility(DW_ACCESS_public)
    2304              $C$DW$349       .dwtag  DW_TAG_member
    2305                      .dwattr $C$DW$349, DW_AT_type(*$C$DW$T$29)
    2306                      .dwattr $C$DW$349, DW_AT_name("XINT2")
    2307                      .dwattr $C$DW$349, DW_AT_TI_symbol_name("_XINT2")
    2308                      .dwattr $C$DW$349, DW_AT_data_member_location[DW_OP_plus_uconst 0x68]
    2309                      .dwattr $C$DW$349, DW_AT_accessibility(DW_ACCESS_public)
    2310              $C$DW$350       .dwtag  DW_TAG_member
    2311                      .dwattr $C$DW$350, DW_AT_type(*$C$DW$T$29)
    2312                      .dwattr $C$DW$350, DW_AT_name("ADCINT9")
    2313                      .dwattr $C$DW$350, DW_AT_TI_symbol_name("_ADCINT9")
    2314                      .dwattr $C$DW$350, DW_AT_data_member_location[DW_OP_plus_uconst 0x6a]
    2315                      .dwattr $C$DW$350, DW_AT_accessibility(DW_ACCESS_public)
    2316              $C$DW$351       .dwtag  DW_TAG_member
TMS320C2000 Assembler PC v6.4.4 Wed Jul 08 12:49:34 2015

Tools Copyright (c) 1996-2015 Texas Instruments Incorporated
C:\Users\grant\AppData\Local\Temp\0769610                            PAGE   44

    2317                      .dwattr $C$DW$351, DW_AT_type(*$C$DW$T$29)
    2318                      .dwattr $C$DW$351, DW_AT_name("TINT0")
    2319                      .dwattr $C$DW$351, DW_AT_TI_symbol_name("_TINT0")
    2320                      .dwattr $C$DW$351, DW_AT_data_member_location[DW_OP_plus_uconst 0x6c]
    2321                      .dwattr $C$DW$351, DW_AT_accessibility(DW_ACCESS_public)
    2322              $C$DW$352       .dwtag  DW_TAG_member
    2323                      .dwattr $C$DW$352, DW_AT_type(*$C$DW$T$29)
    2324                      .dwattr $C$DW$352, DW_AT_name("WAKEINT")
    2325                      .dwattr $C$DW$352, DW_AT_TI_symbol_name("_WAKEINT")
    2326                      .dwattr $C$DW$352, DW_AT_data_member_location[DW_OP_plus_uconst 0x6e]
    2327                      .dwattr $C$DW$352, DW_AT_accessibility(DW_ACCESS_public)
    2328              $C$DW$353       .dwtag  DW_TAG_member
    2329                      .dwattr $C$DW$353, DW_AT_type(*$C$DW$T$29)
    2330                      .dwattr $C$DW$353, DW_AT_name("EPWM1_TZINT")
    2331                      .dwattr $C$DW$353, DW_AT_TI_symbol_name("_EPWM1_TZINT")
    2332                      .dwattr $C$DW$353, DW_AT_data_member_location[DW_OP_plus_uconst 0x70]
    2333                      .dwattr $C$DW$353, DW_AT_accessibility(DW_ACCESS_public)
    2334              $C$DW$354       .dwtag  DW_TAG_member
    2335                      .dwattr $C$DW$354, DW_AT_type(*$C$DW$T$29)
    2336                      .dwattr $C$DW$354, DW_AT_name("EPWM2_TZINT")
    2337                      .dwattr $C$DW$354, DW_AT_TI_symbol_name("_EPWM2_TZINT")
    2338                      .dwattr $C$DW$354, DW_AT_data_member_location[DW_OP_plus_uconst 0x72]
    2339                      .dwattr $C$DW$354, DW_AT_accessibility(DW_ACCESS_public)
    2340              $C$DW$355       .dwtag  DW_TAG_member
    2341                      .dwattr $C$DW$355, DW_AT_type(*$C$DW$T$29)
    2342                      .dwattr $C$DW$355, DW_AT_name("EPWM3_TZINT")
    2343                      .dwattr $C$DW$355, DW_AT_TI_symbol_name("_EPWM3_TZINT")
    2344                      .dwattr $C$DW$355, DW_AT_data_member_location[DW_OP_plus_uconst 0x74]
    2345                      .dwattr $C$DW$355, DW_AT_accessibility(DW_ACCESS_public)
    2346              $C$DW$356       .dwtag  DW_TAG_member
    2347                      .dwattr $C$DW$356, DW_AT_type(*$C$DW$T$29)
    2348                      .dwattr $C$DW$356, DW_AT_name("EPWM4_TZINT")
    2349                      .dwattr $C$DW$356, DW_AT_TI_symbol_name("_EPWM4_TZINT")
    2350                      .dwattr $C$DW$356, DW_AT_data_member_location[DW_OP_plus_uconst 0x76]
    2351                      .dwattr $C$DW$356, DW_AT_accessibility(DW_ACCESS_public)
    2352              $C$DW$357       .dwtag  DW_TAG_member
    2353                      .dwattr $C$DW$357, DW_AT_type(*$C$DW$T$29)
    2354                      .dwattr $C$DW$357, DW_AT_name("EPWM5_TZINT")
    2355                      .dwattr $C$DW$357, DW_AT_TI_symbol_name("_EPWM5_TZINT")
    2356                      .dwattr $C$DW$357, DW_AT_data_member_location[DW_OP_plus_uconst 0x78]
    2357                      .dwattr $C$DW$357, DW_AT_accessibility(DW_ACCESS_public)
    2358              $C$DW$358       .dwtag  DW_TAG_member
    2359                      .dwattr $C$DW$358, DW_AT_type(*$C$DW$T$29)
    2360                      .dwattr $C$DW$358, DW_AT_name("EPWM6_TZINT")
    2361                      .dwattr $C$DW$358, DW_AT_TI_symbol_name("_EPWM6_TZINT")
    2362                      .dwattr $C$DW$358, DW_AT_data_member_location[DW_OP_plus_uconst 0x7a]
    2363                      .dwattr $C$DW$358, DW_AT_accessibility(DW_ACCESS_public)
    2364              $C$DW$359       .dwtag  DW_TAG_member
    2365                      .dwattr $C$DW$359, DW_AT_type(*$C$DW$T$29)
    2366                      .dwattr $C$DW$359, DW_AT_name("EPWM7_TZINT")
    2367                      .dwattr $C$DW$359, DW_AT_TI_symbol_name("_EPWM7_TZINT")
    2368                      .dwattr $C$DW$359, DW_AT_data_member_location[DW_OP_plus_uconst 0x7c]
    2369                      .dwattr $C$DW$359, DW_AT_accessibility(DW_ACCESS_public)
    2370              $C$DW$360       .dwtag  DW_TAG_member
    2371                      .dwattr $C$DW$360, DW_AT_type(*$C$DW$T$29)
TMS320C2000 Assembler PC v6.4.4 Wed Jul 08 12:49:34 2015

Tools Copyright (c) 1996-2015 Texas Instruments Incorporated
C:\Users\grant\AppData\Local\Temp\0769610                            PAGE   45

    2372                      .dwattr $C$DW$360, DW_AT_name("EPWM8_TZINT")
    2373                      .dwattr $C$DW$360, DW_AT_TI_symbol_name("_EPWM8_TZINT")
    2374                      .dwattr $C$DW$360, DW_AT_data_member_location[DW_OP_plus_uconst 0x7e]
    2375                      .dwattr $C$DW$360, DW_AT_accessibility(DW_ACCESS_public)
    2376              $C$DW$361       .dwtag  DW_TAG_member
    2377                      .dwattr $C$DW$361, DW_AT_type(*$C$DW$T$29)
    2378                      .dwattr $C$DW$361, DW_AT_name("EPWM1_INT")
    2379                      .dwattr $C$DW$361, DW_AT_TI_symbol_name("_EPWM1_INT")
    2380                      .dwattr $C$DW$361, DW_AT_data_member_location[DW_OP_plus_uconst 0x80]
    2381                      .dwattr $C$DW$361, DW_AT_accessibility(DW_ACCESS_public)
    2382              $C$DW$362       .dwtag  DW_TAG_member
    2383                      .dwattr $C$DW$362, DW_AT_type(*$C$DW$T$29)
    2384                      .dwattr $C$DW$362, DW_AT_name("EPWM2_INT")
    2385                      .dwattr $C$DW$362, DW_AT_TI_symbol_name("_EPWM2_INT")
    2386                      .dwattr $C$DW$362, DW_AT_data_member_location[DW_OP_plus_uconst 0x82]
    2387                      .dwattr $C$DW$362, DW_AT_accessibility(DW_ACCESS_public)
    2388              $C$DW$363       .dwtag  DW_TAG_member
    2389                      .dwattr $C$DW$363, DW_AT_type(*$C$DW$T$29)
    2390                      .dwattr $C$DW$363, DW_AT_name("EPWM3_INT")
    2391                      .dwattr $C$DW$363, DW_AT_TI_symbol_name("_EPWM3_INT")
    2392                      .dwattr $C$DW$363, DW_AT_data_member_location[DW_OP_plus_uconst 0x84]
    2393                      .dwattr $C$DW$363, DW_AT_accessibility(DW_ACCESS_public)
    2394              $C$DW$364       .dwtag  DW_TAG_member
    2395                      .dwattr $C$DW$364, DW_AT_type(*$C$DW$T$29)
    2396                      .dwattr $C$DW$364, DW_AT_name("EPWM4_INT")
    2397                      .dwattr $C$DW$364, DW_AT_TI_symbol_name("_EPWM4_INT")
    2398                      .dwattr $C$DW$364, DW_AT_data_member_location[DW_OP_plus_uconst 0x86]
    2399                      .dwattr $C$DW$364, DW_AT_accessibility(DW_ACCESS_public)
    2400              $C$DW$365       .dwtag  DW_TAG_member
    2401                      .dwattr $C$DW$365, DW_AT_type(*$C$DW$T$29)
    2402                      .dwattr $C$DW$365, DW_AT_name("EPWM5_INT")
    2403                      .dwattr $C$DW$365, DW_AT_TI_symbol_name("_EPWM5_INT")
    2404                      .dwattr $C$DW$365, DW_AT_data_member_location[DW_OP_plus_uconst 0x88]
    2405                      .dwattr $C$DW$365, DW_AT_accessibility(DW_ACCESS_public)
    2406              $C$DW$366       .dwtag  DW_TAG_member
    2407                      .dwattr $C$DW$366, DW_AT_type(*$C$DW$T$29)
    2408                      .dwattr $C$DW$366, DW_AT_name("EPWM6_INT")
    2409                      .dwattr $C$DW$366, DW_AT_TI_symbol_name("_EPWM6_INT")
    2410                      .dwattr $C$DW$366, DW_AT_data_member_location[DW_OP_plus_uconst 0x8a]
    2411                      .dwattr $C$DW$366, DW_AT_accessibility(DW_ACCESS_public)
    2412              $C$DW$367       .dwtag  DW_TAG_member
    2413                      .dwattr $C$DW$367, DW_AT_type(*$C$DW$T$29)
    2414                      .dwattr $C$DW$367, DW_AT_name("EPWM7_INT")
    2415                      .dwattr $C$DW$367, DW_AT_TI_symbol_name("_EPWM7_INT")
    2416                      .dwattr $C$DW$367, DW_AT_data_member_location[DW_OP_plus_uconst 0x8c]
    2417                      .dwattr $C$DW$367, DW_AT_accessibility(DW_ACCESS_public)
    2418              $C$DW$368       .dwtag  DW_TAG_member
    2419                      .dwattr $C$DW$368, DW_AT_type(*$C$DW$T$29)
    2420                      .dwattr $C$DW$368, DW_AT_name("EPWM8_INT")
    2421                      .dwattr $C$DW$368, DW_AT_TI_symbol_name("_EPWM8_INT")
    2422                      .dwattr $C$DW$368, DW_AT_data_member_location[DW_OP_plus_uconst 0x8e]
    2423                      .dwattr $C$DW$368, DW_AT_accessibility(DW_ACCESS_public)
    2424              $C$DW$369       .dwtag  DW_TAG_member
    2425                      .dwattr $C$DW$369, DW_AT_type(*$C$DW$T$29)
    2426                      .dwattr $C$DW$369, DW_AT_name("ECAP1_INT")
TMS320C2000 Assembler PC v6.4.4 Wed Jul 08 12:49:34 2015

Tools Copyright (c) 1996-2015 Texas Instruments Incorporated
C:\Users\grant\AppData\Local\Temp\0769610                            PAGE   46

    2427                      .dwattr $C$DW$369, DW_AT_TI_symbol_name("_ECAP1_INT")
    2428                      .dwattr $C$DW$369, DW_AT_data_member_location[DW_OP_plus_uconst 0x90]
    2429                      .dwattr $C$DW$369, DW_AT_accessibility(DW_ACCESS_public)
    2430              $C$DW$370       .dwtag  DW_TAG_member
    2431                      .dwattr $C$DW$370, DW_AT_type(*$C$DW$T$29)
    2432                      .dwattr $C$DW$370, DW_AT_name("ECAP2_INT")
    2433                      .dwattr $C$DW$370, DW_AT_TI_symbol_name("_ECAP2_INT")
    2434                      .dwattr $C$DW$370, DW_AT_data_member_location[DW_OP_plus_uconst 0x92]
    2435                      .dwattr $C$DW$370, DW_AT_accessibility(DW_ACCESS_public)
    2436              $C$DW$371       .dwtag  DW_TAG_member
    2437                      .dwattr $C$DW$371, DW_AT_type(*$C$DW$T$29)
    2438                      .dwattr $C$DW$371, DW_AT_name("ECAP3_INT")
    2439                      .dwattr $C$DW$371, DW_AT_TI_symbol_name("_ECAP3_INT")
    2440                      .dwattr $C$DW$371, DW_AT_data_member_location[DW_OP_plus_uconst 0x94]
    2441                      .dwattr $C$DW$371, DW_AT_accessibility(DW_ACCESS_public)
    2442              $C$DW$372       .dwtag  DW_TAG_member
    2443                      .dwattr $C$DW$372, DW_AT_type(*$C$DW$T$29)
    2444                      .dwattr $C$DW$372, DW_AT_name("rsvd4_4")
    2445                      .dwattr $C$DW$372, DW_AT_TI_symbol_name("_rsvd4_4")
    2446                      .dwattr $C$DW$372, DW_AT_data_member_location[DW_OP_plus_uconst 0x96]
    2447                      .dwattr $C$DW$372, DW_AT_accessibility(DW_ACCESS_public)
    2448              $C$DW$373       .dwtag  DW_TAG_member
    2449                      .dwattr $C$DW$373, DW_AT_type(*$C$DW$T$29)
    2450                      .dwattr $C$DW$373, DW_AT_name("rsvd4_5")
    2451                      .dwattr $C$DW$373, DW_AT_TI_symbol_name("_rsvd4_5")
    2452                      .dwattr $C$DW$373, DW_AT_data_member_location[DW_OP_plus_uconst 0x98]
    2453                      .dwattr $C$DW$373, DW_AT_accessibility(DW_ACCESS_public)
    2454              $C$DW$374       .dwtag  DW_TAG_member
    2455                      .dwattr $C$DW$374, DW_AT_type(*$C$DW$T$29)
    2456                      .dwattr $C$DW$374, DW_AT_name("rsvd4_6")
    2457                      .dwattr $C$DW$374, DW_AT_TI_symbol_name("_rsvd4_6")
    2458                      .dwattr $C$DW$374, DW_AT_data_member_location[DW_OP_plus_uconst 0x9a]
    2459                      .dwattr $C$DW$374, DW_AT_accessibility(DW_ACCESS_public)
    2460              $C$DW$375       .dwtag  DW_TAG_member
    2461                      .dwattr $C$DW$375, DW_AT_type(*$C$DW$T$29)
    2462                      .dwattr $C$DW$375, DW_AT_name("HRCAP1_INT")
    2463                      .dwattr $C$DW$375, DW_AT_TI_symbol_name("_HRCAP1_INT")
    2464                      .dwattr $C$DW$375, DW_AT_data_member_location[DW_OP_plus_uconst 0x9c]
    2465                      .dwattr $C$DW$375, DW_AT_accessibility(DW_ACCESS_public)
    2466              $C$DW$376       .dwtag  DW_TAG_member
    2467                      .dwattr $C$DW$376, DW_AT_type(*$C$DW$T$29)
    2468                      .dwattr $C$DW$376, DW_AT_name("HRCAP2_INT")
    2469                      .dwattr $C$DW$376, DW_AT_TI_symbol_name("_HRCAP2_INT")
    2470                      .dwattr $C$DW$376, DW_AT_data_member_location[DW_OP_plus_uconst 0x9e]
    2471                      .dwattr $C$DW$376, DW_AT_accessibility(DW_ACCESS_public)
    2472              $C$DW$377       .dwtag  DW_TAG_member
    2473                      .dwattr $C$DW$377, DW_AT_type(*$C$DW$T$29)
    2474                      .dwattr $C$DW$377, DW_AT_name("EQEP1_INT")
    2475                      .dwattr $C$DW$377, DW_AT_TI_symbol_name("_EQEP1_INT")
    2476                      .dwattr $C$DW$377, DW_AT_data_member_location[DW_OP_plus_uconst 0xa0]
    2477                      .dwattr $C$DW$377, DW_AT_accessibility(DW_ACCESS_public)
    2478              $C$DW$378       .dwtag  DW_TAG_member
    2479                      .dwattr $C$DW$378, DW_AT_type(*$C$DW$T$29)
    2480                      .dwattr $C$DW$378, DW_AT_name("EQEP2_INT")
    2481                      .dwattr $C$DW$378, DW_AT_TI_symbol_name("_EQEP2_INT")
TMS320C2000 Assembler PC v6.4.4 Wed Jul 08 12:49:34 2015

Tools Copyright (c) 1996-2015 Texas Instruments Incorporated
C:\Users\grant\AppData\Local\Temp\0769610                            PAGE   47

    2482                      .dwattr $C$DW$378, DW_AT_data_member_location[DW_OP_plus_uconst 0xa2]
    2483                      .dwattr $C$DW$378, DW_AT_accessibility(DW_ACCESS_public)
    2484              $C$DW$379       .dwtag  DW_TAG_member
    2485                      .dwattr $C$DW$379, DW_AT_type(*$C$DW$T$29)
    2486                      .dwattr $C$DW$379, DW_AT_name("rsvd5_3")
    2487                      .dwattr $C$DW$379, DW_AT_TI_symbol_name("_rsvd5_3")
    2488                      .dwattr $C$DW$379, DW_AT_data_member_location[DW_OP_plus_uconst 0xa4]
    2489                      .dwattr $C$DW$379, DW_AT_accessibility(DW_ACCESS_public)
    2490              $C$DW$380       .dwtag  DW_TAG_member
    2491                      .dwattr $C$DW$380, DW_AT_type(*$C$DW$T$29)
    2492                      .dwattr $C$DW$380, DW_AT_name("HRCAP3_INT")
    2493                      .dwattr $C$DW$380, DW_AT_TI_symbol_name("_HRCAP3_INT")
    2494                      .dwattr $C$DW$380, DW_AT_data_member_location[DW_OP_plus_uconst 0xa6]
    2495                      .dwattr $C$DW$380, DW_AT_accessibility(DW_ACCESS_public)
    2496              $C$DW$381       .dwtag  DW_TAG_member
    2497                      .dwattr $C$DW$381, DW_AT_type(*$C$DW$T$29)
    2498                      .dwattr $C$DW$381, DW_AT_name("HRCAP4_INT")
    2499                      .dwattr $C$DW$381, DW_AT_TI_symbol_name("_HRCAP4_INT")
    2500                      .dwattr $C$DW$381, DW_AT_data_member_location[DW_OP_plus_uconst 0xa8]
    2501                      .dwattr $C$DW$381, DW_AT_accessibility(DW_ACCESS_public)
    2502              $C$DW$382       .dwtag  DW_TAG_member
    2503                      .dwattr $C$DW$382, DW_AT_type(*$C$DW$T$29)
    2504                      .dwattr $C$DW$382, DW_AT_name("rsvd5_6")
    2505                      .dwattr $C$DW$382, DW_AT_TI_symbol_name("_rsvd5_6")
    2506                      .dwattr $C$DW$382, DW_AT_data_member_location[DW_OP_plus_uconst 0xaa]
    2507                      .dwattr $C$DW$382, DW_AT_accessibility(DW_ACCESS_public)
    2508              $C$DW$383       .dwtag  DW_TAG_member
    2509                      .dwattr $C$DW$383, DW_AT_type(*$C$DW$T$29)
    2510                      .dwattr $C$DW$383, DW_AT_name("rsvd5_7")
    2511                      .dwattr $C$DW$383, DW_AT_TI_symbol_name("_rsvd5_7")
    2512                      .dwattr $C$DW$383, DW_AT_data_member_location[DW_OP_plus_uconst 0xac]
    2513                      .dwattr $C$DW$383, DW_AT_accessibility(DW_ACCESS_public)
    2514              $C$DW$384       .dwtag  DW_TAG_member
    2515                      .dwattr $C$DW$384, DW_AT_type(*$C$DW$T$29)
    2516                      .dwattr $C$DW$384, DW_AT_name("USB0_INT")
    2517                      .dwattr $C$DW$384, DW_AT_TI_symbol_name("_USB0_INT")
    2518                      .dwattr $C$DW$384, DW_AT_data_member_location[DW_OP_plus_uconst 0xae]
    2519                      .dwattr $C$DW$384, DW_AT_accessibility(DW_ACCESS_public)
    2520              $C$DW$385       .dwtag  DW_TAG_member
    2521                      .dwattr $C$DW$385, DW_AT_type(*$C$DW$T$29)
    2522                      .dwattr $C$DW$385, DW_AT_name("SPIRXINTA")
    2523                      .dwattr $C$DW$385, DW_AT_TI_symbol_name("_SPIRXINTA")
    2524                      .dwattr $C$DW$385, DW_AT_data_member_location[DW_OP_plus_uconst 0xb0]
    2525                      .dwattr $C$DW$385, DW_AT_accessibility(DW_ACCESS_public)
    2526              $C$DW$386       .dwtag  DW_TAG_member
    2527                      .dwattr $C$DW$386, DW_AT_type(*$C$DW$T$29)
    2528                      .dwattr $C$DW$386, DW_AT_name("SPITXINTA")
    2529                      .dwattr $C$DW$386, DW_AT_TI_symbol_name("_SPITXINTA")
    2530                      .dwattr $C$DW$386, DW_AT_data_member_location[DW_OP_plus_uconst 0xb2]
    2531                      .dwattr $C$DW$386, DW_AT_accessibility(DW_ACCESS_public)
    2532              $C$DW$387       .dwtag  DW_TAG_member
    2533                      .dwattr $C$DW$387, DW_AT_type(*$C$DW$T$29)
    2534                      .dwattr $C$DW$387, DW_AT_name("SPIRXINTB")
    2535                      .dwattr $C$DW$387, DW_AT_TI_symbol_name("_SPIRXINTB")
    2536                      .dwattr $C$DW$387, DW_AT_data_member_location[DW_OP_plus_uconst 0xb4]
TMS320C2000 Assembler PC v6.4.4 Wed Jul 08 12:49:34 2015

Tools Copyright (c) 1996-2015 Texas Instruments Incorporated
C:\Users\grant\AppData\Local\Temp\0769610                            PAGE   48

    2537                      .dwattr $C$DW$387, DW_AT_accessibility(DW_ACCESS_public)
    2538              $C$DW$388       .dwtag  DW_TAG_member
    2539                      .dwattr $C$DW$388, DW_AT_type(*$C$DW$T$29)
    2540                      .dwattr $C$DW$388, DW_AT_name("SPITXINTB")
    2541                      .dwattr $C$DW$388, DW_AT_TI_symbol_name("_SPITXINTB")
    2542                      .dwattr $C$DW$388, DW_AT_data_member_location[DW_OP_plus_uconst 0xb6]
    2543                      .dwattr $C$DW$388, DW_AT_accessibility(DW_ACCESS_public)
    2544              $C$DW$389       .dwtag  DW_TAG_member
    2545                      .dwattr $C$DW$389, DW_AT_type(*$C$DW$T$29)
    2546                      .dwattr $C$DW$389, DW_AT_name("MCBSPARX")
    2547                      .dwattr $C$DW$389, DW_AT_TI_symbol_name("_MCBSPARX")
    2548                      .dwattr $C$DW$389, DW_AT_data_member_location[DW_OP_plus_uconst 0xb8]
    2549                      .dwattr $C$DW$389, DW_AT_accessibility(DW_ACCESS_public)
    2550              $C$DW$390       .dwtag  DW_TAG_member
    2551                      .dwattr $C$DW$390, DW_AT_type(*$C$DW$T$29)
    2552                      .dwattr $C$DW$390, DW_AT_name("MCBSPATX")
    2553                      .dwattr $C$DW$390, DW_AT_TI_symbol_name("_MCBSPATX")
    2554                      .dwattr $C$DW$390, DW_AT_data_member_location[DW_OP_plus_uconst 0xba]
    2555                      .dwattr $C$DW$390, DW_AT_accessibility(DW_ACCESS_public)
    2556              $C$DW$391       .dwtag  DW_TAG_member
    2557                      .dwattr $C$DW$391, DW_AT_type(*$C$DW$T$29)
    2558                      .dwattr $C$DW$391, DW_AT_name("rsvd6_7")
    2559                      .dwattr $C$DW$391, DW_AT_TI_symbol_name("_rsvd6_7")
    2560                      .dwattr $C$DW$391, DW_AT_data_member_location[DW_OP_plus_uconst 0xbc]
    2561                      .dwattr $C$DW$391, DW_AT_accessibility(DW_ACCESS_public)
    2562              $C$DW$392       .dwtag  DW_TAG_member
    2563                      .dwattr $C$DW$392, DW_AT_type(*$C$DW$T$29)
    2564                      .dwattr $C$DW$392, DW_AT_name("rsvd6_8")
    2565                      .dwattr $C$DW$392, DW_AT_TI_symbol_name("_rsvd6_8")
    2566                      .dwattr $C$DW$392, DW_AT_data_member_location[DW_OP_plus_uconst 0xbe]
    2567                      .dwattr $C$DW$392, DW_AT_accessibility(DW_ACCESS_public)
    2568              $C$DW$393       .dwtag  DW_TAG_member
    2569                      .dwattr $C$DW$393, DW_AT_type(*$C$DW$T$29)
    2570                      .dwattr $C$DW$393, DW_AT_name("DMACH1_INT")
    2571                      .dwattr $C$DW$393, DW_AT_TI_symbol_name("_DMACH1_INT")
    2572                      .dwattr $C$DW$393, DW_AT_data_member_location[DW_OP_plus_uconst 0xc0]
    2573                      .dwattr $C$DW$393, DW_AT_accessibility(DW_ACCESS_public)
    2574              $C$DW$394       .dwtag  DW_TAG_member
    2575                      .dwattr $C$DW$394, DW_AT_type(*$C$DW$T$29)
    2576                      .dwattr $C$DW$394, DW_AT_name("DMACH2_INT")
    2577                      .dwattr $C$DW$394, DW_AT_TI_symbol_name("_DMACH2_INT")
    2578                      .dwattr $C$DW$394, DW_AT_data_member_location[DW_OP_plus_uconst 0xc2]
    2579                      .dwattr $C$DW$394, DW_AT_accessibility(DW_ACCESS_public)
    2580              $C$DW$395       .dwtag  DW_TAG_member
    2581                      .dwattr $C$DW$395, DW_AT_type(*$C$DW$T$29)
    2582                      .dwattr $C$DW$395, DW_AT_name("DMACH3_INT")
    2583                      .dwattr $C$DW$395, DW_AT_TI_symbol_name("_DMACH3_INT")
    2584                      .dwattr $C$DW$395, DW_AT_data_member_location[DW_OP_plus_uconst 0xc4]
    2585                      .dwattr $C$DW$395, DW_AT_accessibility(DW_ACCESS_public)
    2586              $C$DW$396       .dwtag  DW_TAG_member
    2587                      .dwattr $C$DW$396, DW_AT_type(*$C$DW$T$29)
    2588                      .dwattr $C$DW$396, DW_AT_name("DMACH4_INT")
    2589                      .dwattr $C$DW$396, DW_AT_TI_symbol_name("_DMACH4_INT")
    2590                      .dwattr $C$DW$396, DW_AT_data_member_location[DW_OP_plus_uconst 0xc6]
    2591                      .dwattr $C$DW$396, DW_AT_accessibility(DW_ACCESS_public)
TMS320C2000 Assembler PC v6.4.4 Wed Jul 08 12:49:34 2015

Tools Copyright (c) 1996-2015 Texas Instruments Incorporated
C:\Users\grant\AppData\Local\Temp\0769610                            PAGE   49

    2592              $C$DW$397       .dwtag  DW_TAG_member
    2593                      .dwattr $C$DW$397, DW_AT_type(*$C$DW$T$29)
    2594                      .dwattr $C$DW$397, DW_AT_name("DMACH5_INT")
    2595                      .dwattr $C$DW$397, DW_AT_TI_symbol_name("_DMACH5_INT")
    2596                      .dwattr $C$DW$397, DW_AT_data_member_location[DW_OP_plus_uconst 0xc8]
    2597                      .dwattr $C$DW$397, DW_AT_accessibility(DW_ACCESS_public)
    2598              $C$DW$398       .dwtag  DW_TAG_member
    2599                      .dwattr $C$DW$398, DW_AT_type(*$C$DW$T$29)
    2600                      .dwattr $C$DW$398, DW_AT_name("DMACH6_INT")
    2601                      .dwattr $C$DW$398, DW_AT_TI_symbol_name("_DMACH6_INT")
    2602                      .dwattr $C$DW$398, DW_AT_data_member_location[DW_OP_plus_uconst 0xca]
    2603                      .dwattr $C$DW$398, DW_AT_accessibility(DW_ACCESS_public)
    2604              $C$DW$399       .dwtag  DW_TAG_member
    2605                      .dwattr $C$DW$399, DW_AT_type(*$C$DW$T$29)
    2606                      .dwattr $C$DW$399, DW_AT_name("rsvd7_7")
    2607                      .dwattr $C$DW$399, DW_AT_TI_symbol_name("_rsvd7_7")
    2608                      .dwattr $C$DW$399, DW_AT_data_member_location[DW_OP_plus_uconst 0xcc]
    2609                      .dwattr $C$DW$399, DW_AT_accessibility(DW_ACCESS_public)
    2610              $C$DW$400       .dwtag  DW_TAG_member
    2611                      .dwattr $C$DW$400, DW_AT_type(*$C$DW$T$29)
    2612                      .dwattr $C$DW$400, DW_AT_name("rsvd7_8")
    2613                      .dwattr $C$DW$400, DW_AT_TI_symbol_name("_rsvd7_8")
    2614                      .dwattr $C$DW$400, DW_AT_data_member_location[DW_OP_plus_uconst 0xce]
    2615                      .dwattr $C$DW$400, DW_AT_accessibility(DW_ACCESS_public)
    2616              $C$DW$401       .dwtag  DW_TAG_member
    2617                      .dwattr $C$DW$401, DW_AT_type(*$C$DW$T$29)
    2618                      .dwattr $C$DW$401, DW_AT_name("I2CINT1A")
    2619                      .dwattr $C$DW$401, DW_AT_TI_symbol_name("_I2CINT1A")
    2620                      .dwattr $C$DW$401, DW_AT_data_member_location[DW_OP_plus_uconst 0xd0]
    2621                      .dwattr $C$DW$401, DW_AT_accessibility(DW_ACCESS_public)
    2622              $C$DW$402       .dwtag  DW_TAG_member
    2623                      .dwattr $C$DW$402, DW_AT_type(*$C$DW$T$29)
    2624                      .dwattr $C$DW$402, DW_AT_name("I2CINT2A")
    2625                      .dwattr $C$DW$402, DW_AT_TI_symbol_name("_I2CINT2A")
    2626                      .dwattr $C$DW$402, DW_AT_data_member_location[DW_OP_plus_uconst 0xd2]
    2627                      .dwattr $C$DW$402, DW_AT_accessibility(DW_ACCESS_public)
    2628              $C$DW$403       .dwtag  DW_TAG_member
    2629                      .dwattr $C$DW$403, DW_AT_type(*$C$DW$T$29)
    2630                      .dwattr $C$DW$403, DW_AT_name("rsvd8_3")
    2631                      .dwattr $C$DW$403, DW_AT_TI_symbol_name("_rsvd8_3")
    2632                      .dwattr $C$DW$403, DW_AT_data_member_location[DW_OP_plus_uconst 0xd4]
    2633                      .dwattr $C$DW$403, DW_AT_accessibility(DW_ACCESS_public)
    2634              $C$DW$404       .dwtag  DW_TAG_member
    2635                      .dwattr $C$DW$404, DW_AT_type(*$C$DW$T$29)
    2636                      .dwattr $C$DW$404, DW_AT_name("rsvd8_4")
    2637                      .dwattr $C$DW$404, DW_AT_TI_symbol_name("_rsvd8_4")
    2638                      .dwattr $C$DW$404, DW_AT_data_member_location[DW_OP_plus_uconst 0xd6]
    2639                      .dwattr $C$DW$404, DW_AT_accessibility(DW_ACCESS_public)
    2640              $C$DW$405       .dwtag  DW_TAG_member
    2641                      .dwattr $C$DW$405, DW_AT_type(*$C$DW$T$29)
    2642                      .dwattr $C$DW$405, DW_AT_name("rsvd8_5")
    2643                      .dwattr $C$DW$405, DW_AT_TI_symbol_name("_rsvd8_5")
    2644                      .dwattr $C$DW$405, DW_AT_data_member_location[DW_OP_plus_uconst 0xd8]
    2645                      .dwattr $C$DW$405, DW_AT_accessibility(DW_ACCESS_public)
    2646              $C$DW$406       .dwtag  DW_TAG_member
TMS320C2000 Assembler PC v6.4.4 Wed Jul 08 12:49:34 2015

Tools Copyright (c) 1996-2015 Texas Instruments Incorporated
C:\Users\grant\AppData\Local\Temp\0769610                            PAGE   50

    2647                      .dwattr $C$DW$406, DW_AT_type(*$C$DW$T$29)
    2648                      .dwattr $C$DW$406, DW_AT_name("rsvd8_6")
    2649                      .dwattr $C$DW$406, DW_AT_TI_symbol_name("_rsvd8_6")
    2650                      .dwattr $C$DW$406, DW_AT_data_member_location[DW_OP_plus_uconst 0xda]
    2651                      .dwattr $C$DW$406, DW_AT_accessibility(DW_ACCESS_public)
    2652              $C$DW$407       .dwtag  DW_TAG_member
    2653                      .dwattr $C$DW$407, DW_AT_type(*$C$DW$T$29)
    2654                      .dwattr $C$DW$407, DW_AT_name("rsvd8_7")
    2655                      .dwattr $C$DW$407, DW_AT_TI_symbol_name("_rsvd8_7")
    2656                      .dwattr $C$DW$407, DW_AT_data_member_location[DW_OP_plus_uconst 0xdc]
    2657                      .dwattr $C$DW$407, DW_AT_accessibility(DW_ACCESS_public)
    2658              $C$DW$408       .dwtag  DW_TAG_member
    2659                      .dwattr $C$DW$408, DW_AT_type(*$C$DW$T$29)
    2660                      .dwattr $C$DW$408, DW_AT_name("rsvd8_8")
    2661                      .dwattr $C$DW$408, DW_AT_TI_symbol_name("_rsvd8_8")
    2662                      .dwattr $C$DW$408, DW_AT_data_member_location[DW_OP_plus_uconst 0xde]
    2663                      .dwattr $C$DW$408, DW_AT_accessibility(DW_ACCESS_public)
    2664              $C$DW$409       .dwtag  DW_TAG_member
    2665                      .dwattr $C$DW$409, DW_AT_type(*$C$DW$T$29)
    2666                      .dwattr $C$DW$409, DW_AT_name("SCIRXINTA")
    2667                      .dwattr $C$DW$409, DW_AT_TI_symbol_name("_SCIRXINTA")
    2668                      .dwattr $C$DW$409, DW_AT_data_member_location[DW_OP_plus_uconst 0xe0]
    2669                      .dwattr $C$DW$409, DW_AT_accessibility(DW_ACCESS_public)
    2670              $C$DW$410       .dwtag  DW_TAG_member
    2671                      .dwattr $C$DW$410, DW_AT_type(*$C$DW$T$29)
    2672                      .dwattr $C$DW$410, DW_AT_name("SCITXINTA")
    2673                      .dwattr $C$DW$410, DW_AT_TI_symbol_name("_SCITXINTA")
    2674                      .dwattr $C$DW$410, DW_AT_data_member_location[DW_OP_plus_uconst 0xe2]
    2675                      .dwattr $C$DW$410, DW_AT_accessibility(DW_ACCESS_public)
    2676              $C$DW$411       .dwtag  DW_TAG_member
    2677                      .dwattr $C$DW$411, DW_AT_type(*$C$DW$T$29)
    2678                      .dwattr $C$DW$411, DW_AT_name("SCIRXINTB")
    2679                      .dwattr $C$DW$411, DW_AT_TI_symbol_name("_SCIRXINTB")
    2680                      .dwattr $C$DW$411, DW_AT_data_member_location[DW_OP_plus_uconst 0xe4]
    2681                      .dwattr $C$DW$411, DW_AT_accessibility(DW_ACCESS_public)
    2682              $C$DW$412       .dwtag  DW_TAG_member
    2683                      .dwattr $C$DW$412, DW_AT_type(*$C$DW$T$29)
    2684                      .dwattr $C$DW$412, DW_AT_name("SCITXINTB")
    2685                      .dwattr $C$DW$412, DW_AT_TI_symbol_name("_SCITXINTB")
    2686                      .dwattr $C$DW$412, DW_AT_data_member_location[DW_OP_plus_uconst 0xe6]
    2687                      .dwattr $C$DW$412, DW_AT_accessibility(DW_ACCESS_public)
    2688              $C$DW$413       .dwtag  DW_TAG_member
    2689                      .dwattr $C$DW$413, DW_AT_type(*$C$DW$T$29)
    2690                      .dwattr $C$DW$413, DW_AT_name("ECAN0INT")
    2691                      .dwattr $C$DW$413, DW_AT_TI_symbol_name("_ECAN0INT")
    2692                      .dwattr $C$DW$413, DW_AT_data_member_location[DW_OP_plus_uconst 0xe8]
    2693                      .dwattr $C$DW$413, DW_AT_accessibility(DW_ACCESS_public)
    2694              $C$DW$414       .dwtag  DW_TAG_member
    2695                      .dwattr $C$DW$414, DW_AT_type(*$C$DW$T$29)
    2696                      .dwattr $C$DW$414, DW_AT_name("ECAN1INT")
    2697                      .dwattr $C$DW$414, DW_AT_TI_symbol_name("_ECAN1INT")
    2698                      .dwattr $C$DW$414, DW_AT_data_member_location[DW_OP_plus_uconst 0xea]
    2699                      .dwattr $C$DW$414, DW_AT_accessibility(DW_ACCESS_public)
    2700              $C$DW$415       .dwtag  DW_TAG_member
    2701                      .dwattr $C$DW$415, DW_AT_type(*$C$DW$T$29)
TMS320C2000 Assembler PC v6.4.4 Wed Jul 08 12:49:34 2015

Tools Copyright (c) 1996-2015 Texas Instruments Incorporated
C:\Users\grant\AppData\Local\Temp\0769610                            PAGE   51

    2702                      .dwattr $C$DW$415, DW_AT_name("rsvd9_7")
    2703                      .dwattr $C$DW$415, DW_AT_TI_symbol_name("_rsvd9_7")
    2704                      .dwattr $C$DW$415, DW_AT_data_member_location[DW_OP_plus_uconst 0xec]
    2705                      .dwattr $C$DW$415, DW_AT_accessibility(DW_ACCESS_public)
    2706              $C$DW$416       .dwtag  DW_TAG_member
    2707                      .dwattr $C$DW$416, DW_AT_type(*$C$DW$T$29)
    2708                      .dwattr $C$DW$416, DW_AT_name("rsvd9_8")
    2709                      .dwattr $C$DW$416, DW_AT_TI_symbol_name("_rsvd9_8")
    2710                      .dwattr $C$DW$416, DW_AT_data_member_location[DW_OP_plus_uconst 0xee]
    2711                      .dwattr $C$DW$416, DW_AT_accessibility(DW_ACCESS_public)
    2712              $C$DW$417       .dwtag  DW_TAG_member
    2713                      .dwattr $C$DW$417, DW_AT_type(*$C$DW$T$29)
    2714                      .dwattr $C$DW$417, DW_AT_name("ADCINT1")
    2715                      .dwattr $C$DW$417, DW_AT_TI_symbol_name("_ADCINT1")
    2716                      .dwattr $C$DW$417, DW_AT_data_member_location[DW_OP_plus_uconst 0xf0]
    2717                      .dwattr $C$DW$417, DW_AT_accessibility(DW_ACCESS_public)
    2718              $C$DW$418       .dwtag  DW_TAG_member
    2719                      .dwattr $C$DW$418, DW_AT_type(*$C$DW$T$29)
    2720                      .dwattr $C$DW$418, DW_AT_name("ADCINT2")
    2721                      .dwattr $C$DW$418, DW_AT_TI_symbol_name("_ADCINT2")
    2722                      .dwattr $C$DW$418, DW_AT_data_member_location[DW_OP_plus_uconst 0xf2]
    2723                      .dwattr $C$DW$418, DW_AT_accessibility(DW_ACCESS_public)
    2724              $C$DW$419       .dwtag  DW_TAG_member
    2725                      .dwattr $C$DW$419, DW_AT_type(*$C$DW$T$29)
    2726                      .dwattr $C$DW$419, DW_AT_name("ADCINT3")
    2727                      .dwattr $C$DW$419, DW_AT_TI_symbol_name("_ADCINT3")
    2728                      .dwattr $C$DW$419, DW_AT_data_member_location[DW_OP_plus_uconst 0xf4]
    2729                      .dwattr $C$DW$419, DW_AT_accessibility(DW_ACCESS_public)
    2730              $C$DW$420       .dwtag  DW_TAG_member
    2731                      .dwattr $C$DW$420, DW_AT_type(*$C$DW$T$29)
    2732                      .dwattr $C$DW$420, DW_AT_name("ADCINT4")
    2733                      .dwattr $C$DW$420, DW_AT_TI_symbol_name("_ADCINT4")
    2734                      .dwattr $C$DW$420, DW_AT_data_member_location[DW_OP_plus_uconst 0xf6]
    2735                      .dwattr $C$DW$420, DW_AT_accessibility(DW_ACCESS_public)
    2736              $C$DW$421       .dwtag  DW_TAG_member
    2737                      .dwattr $C$DW$421, DW_AT_type(*$C$DW$T$29)
    2738                      .dwattr $C$DW$421, DW_AT_name("ADCINT5")
    2739                      .dwattr $C$DW$421, DW_AT_TI_symbol_name("_ADCINT5")
    2740                      .dwattr $C$DW$421, DW_AT_data_member_location[DW_OP_plus_uconst 0xf8]
    2741                      .dwattr $C$DW$421, DW_AT_accessibility(DW_ACCESS_public)
    2742              $C$DW$422       .dwtag  DW_TAG_member
    2743                      .dwattr $C$DW$422, DW_AT_type(*$C$DW$T$29)
    2744                      .dwattr $C$DW$422, DW_AT_name("ADCINT6")
    2745                      .dwattr $C$DW$422, DW_AT_TI_symbol_name("_ADCINT6")
    2746                      .dwattr $C$DW$422, DW_AT_data_member_location[DW_OP_plus_uconst 0xfa]
    2747                      .dwattr $C$DW$422, DW_AT_accessibility(DW_ACCESS_public)
    2748              $C$DW$423       .dwtag  DW_TAG_member
    2749                      .dwattr $C$DW$423, DW_AT_type(*$C$DW$T$29)
    2750                      .dwattr $C$DW$423, DW_AT_name("ADCINT7")
    2751                      .dwattr $C$DW$423, DW_AT_TI_symbol_name("_ADCINT7")
    2752                      .dwattr $C$DW$423, DW_AT_data_member_location[DW_OP_plus_uconst 0xfc]
    2753                      .dwattr $C$DW$423, DW_AT_accessibility(DW_ACCESS_public)
    2754              $C$DW$424       .dwtag  DW_TAG_member
    2755                      .dwattr $C$DW$424, DW_AT_type(*$C$DW$T$29)
    2756                      .dwattr $C$DW$424, DW_AT_name("ADCINT8")
TMS320C2000 Assembler PC v6.4.4 Wed Jul 08 12:49:34 2015

Tools Copyright (c) 1996-2015 Texas Instruments Incorporated
C:\Users\grant\AppData\Local\Temp\0769610                            PAGE   52

    2757                      .dwattr $C$DW$424, DW_AT_TI_symbol_name("_ADCINT8")
    2758                      .dwattr $C$DW$424, DW_AT_data_member_location[DW_OP_plus_uconst 0xfe]
    2759                      .dwattr $C$DW$424, DW_AT_accessibility(DW_ACCESS_public)
    2760              $C$DW$425       .dwtag  DW_TAG_member
    2761                      .dwattr $C$DW$425, DW_AT_type(*$C$DW$T$29)
    2762                      .dwattr $C$DW$425, DW_AT_name("CLAINT1")
    2763                      .dwattr $C$DW$425, DW_AT_TI_symbol_name("_CLAINT1")
    2764                      .dwattr $C$DW$425, DW_AT_data_member_location[DW_OP_plus_uconst 0x100]
    2765                      .dwattr $C$DW$425, DW_AT_accessibility(DW_ACCESS_public)
    2766              $C$DW$426       .dwtag  DW_TAG_member
    2767                      .dwattr $C$DW$426, DW_AT_type(*$C$DW$T$29)
    2768                      .dwattr $C$DW$426, DW_AT_name("CLAINT2")
    2769                      .dwattr $C$DW$426, DW_AT_TI_symbol_name("_CLAINT2")
    2770                      .dwattr $C$DW$426, DW_AT_data_member_location[DW_OP_plus_uconst 0x102]
    2771                      .dwattr $C$DW$426, DW_AT_accessibility(DW_ACCESS_public)
    2772              $C$DW$427       .dwtag  DW_TAG_member
    2773                      .dwattr $C$DW$427, DW_AT_type(*$C$DW$T$29)
    2774                      .dwattr $C$DW$427, DW_AT_name("CLAINT3")
    2775                      .dwattr $C$DW$427, DW_AT_TI_symbol_name("_CLAINT3")
    2776                      .dwattr $C$DW$427, DW_AT_data_member_location[DW_OP_plus_uconst 0x104]
    2777                      .dwattr $C$DW$427, DW_AT_accessibility(DW_ACCESS_public)
    2778              $C$DW$428       .dwtag  DW_TAG_member
    2779                      .dwattr $C$DW$428, DW_AT_type(*$C$DW$T$29)
    2780                      .dwattr $C$DW$428, DW_AT_name("CLAINT4")
    2781                      .dwattr $C$DW$428, DW_AT_TI_symbol_name("_CLAINT4")
    2782                      .dwattr $C$DW$428, DW_AT_data_member_location[DW_OP_plus_uconst 0x106]
    2783                      .dwattr $C$DW$428, DW_AT_accessibility(DW_ACCESS_public)
    2784              $C$DW$429       .dwtag  DW_TAG_member
    2785                      .dwattr $C$DW$429, DW_AT_type(*$C$DW$T$29)
    2786                      .dwattr $C$DW$429, DW_AT_name("CLAINT5")
    2787                      .dwattr $C$DW$429, DW_AT_TI_symbol_name("_CLAINT5")
    2788                      .dwattr $C$DW$429, DW_AT_data_member_location[DW_OP_plus_uconst 0x108]
    2789                      .dwattr $C$DW$429, DW_AT_accessibility(DW_ACCESS_public)
    2790              $C$DW$430       .dwtag  DW_TAG_member
    2791                      .dwattr $C$DW$430, DW_AT_type(*$C$DW$T$29)
    2792                      .dwattr $C$DW$430, DW_AT_name("CLAINT6")
    2793                      .dwattr $C$DW$430, DW_AT_TI_symbol_name("_CLAINT6")
    2794                      .dwattr $C$DW$430, DW_AT_data_member_location[DW_OP_plus_uconst 0x10a]
    2795                      .dwattr $C$DW$430, DW_AT_accessibility(DW_ACCESS_public)
    2796              $C$DW$431       .dwtag  DW_TAG_member
    2797                      .dwattr $C$DW$431, DW_AT_type(*$C$DW$T$29)
    2798                      .dwattr $C$DW$431, DW_AT_name("CLAINT7")
    2799                      .dwattr $C$DW$431, DW_AT_TI_symbol_name("_CLAINT7")
    2800                      .dwattr $C$DW$431, DW_AT_data_member_location[DW_OP_plus_uconst 0x10c]
    2801                      .dwattr $C$DW$431, DW_AT_accessibility(DW_ACCESS_public)
    2802              $C$DW$432       .dwtag  DW_TAG_member
    2803                      .dwattr $C$DW$432, DW_AT_type(*$C$DW$T$29)
    2804                      .dwattr $C$DW$432, DW_AT_name("CLAINT8")
    2805                      .dwattr $C$DW$432, DW_AT_TI_symbol_name("_CLAINT8")
    2806                      .dwattr $C$DW$432, DW_AT_data_member_location[DW_OP_plus_uconst 0x10e]
    2807                      .dwattr $C$DW$432, DW_AT_accessibility(DW_ACCESS_public)
    2808              $C$DW$433       .dwtag  DW_TAG_member
    2809                      .dwattr $C$DW$433, DW_AT_type(*$C$DW$T$29)
    2810                      .dwattr $C$DW$433, DW_AT_name("XINT3")
    2811                      .dwattr $C$DW$433, DW_AT_TI_symbol_name("_XINT3")
TMS320C2000 Assembler PC v6.4.4 Wed Jul 08 12:49:34 2015

Tools Copyright (c) 1996-2015 Texas Instruments Incorporated
C:\Users\grant\AppData\Local\Temp\0769610                            PAGE   53

    2812                      .dwattr $C$DW$433, DW_AT_data_member_location[DW_OP_plus_uconst 0x110]
    2813                      .dwattr $C$DW$433, DW_AT_accessibility(DW_ACCESS_public)
    2814              $C$DW$434       .dwtag  DW_TAG_member
    2815                      .dwattr $C$DW$434, DW_AT_type(*$C$DW$T$29)
    2816                      .dwattr $C$DW$434, DW_AT_name("rsvd12_2")
    2817                      .dwattr $C$DW$434, DW_AT_TI_symbol_name("_rsvd12_2")
    2818                      .dwattr $C$DW$434, DW_AT_data_member_location[DW_OP_plus_uconst 0x112]
    2819                      .dwattr $C$DW$434, DW_AT_accessibility(DW_ACCESS_public)
    2820              $C$DW$435       .dwtag  DW_TAG_member
    2821                      .dwattr $C$DW$435, DW_AT_type(*$C$DW$T$29)
    2822                      .dwattr $C$DW$435, DW_AT_name("rsvd12_3")
    2823                      .dwattr $C$DW$435, DW_AT_TI_symbol_name("_rsvd12_3")
    2824                      .dwattr $C$DW$435, DW_AT_data_member_location[DW_OP_plus_uconst 0x114]
    2825                      .dwattr $C$DW$435, DW_AT_accessibility(DW_ACCESS_public)
    2826              $C$DW$436       .dwtag  DW_TAG_member
    2827                      .dwattr $C$DW$436, DW_AT_type(*$C$DW$T$29)
    2828                      .dwattr $C$DW$436, DW_AT_name("rsvd12_4")
    2829                      .dwattr $C$DW$436, DW_AT_TI_symbol_name("_rsvd12_4")
    2830                      .dwattr $C$DW$436, DW_AT_data_member_location[DW_OP_plus_uconst 0x116]
    2831                      .dwattr $C$DW$436, DW_AT_accessibility(DW_ACCESS_public)
    2832              $C$DW$437       .dwtag  DW_TAG_member
    2833                      .dwattr $C$DW$437, DW_AT_type(*$C$DW$T$29)
    2834                      .dwattr $C$DW$437, DW_AT_name("rsvd12_5")
    2835                      .dwattr $C$DW$437, DW_AT_TI_symbol_name("_rsvd12_5")
    2836                      .dwattr $C$DW$437, DW_AT_data_member_location[DW_OP_plus_uconst 0x118]
    2837                      .dwattr $C$DW$437, DW_AT_accessibility(DW_ACCESS_public)
    2838              $C$DW$438       .dwtag  DW_TAG_member
    2839                      .dwattr $C$DW$438, DW_AT_type(*$C$DW$T$29)
    2840                      .dwattr $C$DW$438, DW_AT_name("rsvd12_6")
    2841                      .dwattr $C$DW$438, DW_AT_TI_symbol_name("_rsvd12_6")
    2842                      .dwattr $C$DW$438, DW_AT_data_member_location[DW_OP_plus_uconst 0x11a]
    2843                      .dwattr $C$DW$438, DW_AT_accessibility(DW_ACCESS_public)
    2844              $C$DW$439       .dwtag  DW_TAG_member
    2845                      .dwattr $C$DW$439, DW_AT_type(*$C$DW$T$29)
    2846                      .dwattr $C$DW$439, DW_AT_name("CLAINT_LVF")
    2847                      .dwattr $C$DW$439, DW_AT_TI_symbol_name("_CLAINT_LVF")
    2848                      .dwattr $C$DW$439, DW_AT_data_member_location[DW_OP_plus_uconst 0x11c]
    2849                      .dwattr $C$DW$439, DW_AT_accessibility(DW_ACCESS_public)
    2850              $C$DW$440       .dwtag  DW_TAG_member
    2851                      .dwattr $C$DW$440, DW_AT_type(*$C$DW$T$29)
    2852                      .dwattr $C$DW$440, DW_AT_name("CLAINT_LUF")
    2853                      .dwattr $C$DW$440, DW_AT_TI_symbol_name("_CLAINT_LUF")
    2854                      .dwattr $C$DW$440, DW_AT_data_member_location[DW_OP_plus_uconst 0x11e]
    2855                      .dwattr $C$DW$440, DW_AT_accessibility(DW_ACCESS_public)
    2856              $C$DW$441       .dwtag  DW_TAG_member
    2857                      .dwattr $C$DW$441, DW_AT_type(*$C$DW$T$30)
    2858                      .dwattr $C$DW$441, DW_AT_name("rsvd13")
    2859                      .dwattr $C$DW$441, DW_AT_TI_symbol_name("_rsvd13")
    2860                      .dwattr $C$DW$441, DW_AT_data_member_location[DW_OP_plus_uconst 0x120]
    2861                      .dwattr $C$DW$441, DW_AT_accessibility(DW_ACCESS_public)
    2862              $C$DW$442       .dwtag  DW_TAG_member
    2863                      .dwattr $C$DW$442, DW_AT_type(*$C$DW$T$31)
    2864                      .dwattr $C$DW$442, DW_AT_name("XINTnCR")
    2865                      .dwattr $C$DW$442, DW_AT_TI_symbol_name("_XINTnCR")
    2866                      .dwattr $C$DW$442, DW_AT_data_member_location[DW_OP_plus_uconst 0x6390]
TMS320C2000 Assembler PC v6.4.4 Wed Jul 08 12:49:34 2015

Tools Copyright (c) 1996-2015 Texas Instruments Incorporated
C:\Users\grant\AppData\Local\Temp\0769610                            PAGE   54

    2867                      .dwattr $C$DW$442, DW_AT_accessibility(DW_ACCESS_public)
    2868              $C$DW$443       .dwtag  DW_TAG_member
    2869                      .dwattr $C$DW$443, DW_AT_type(*$C$DW$T$32)
    2870                      .dwattr $C$DW$443, DW_AT_name("rsvd14")
    2871                      .dwattr $C$DW$443, DW_AT_TI_symbol_name("_rsvd14")
    2872                      .dwattr $C$DW$443, DW_AT_data_member_location[DW_OP_plus_uconst 0x6393]
    2873                      .dwattr $C$DW$443, DW_AT_accessibility(DW_ACCESS_public)
    2874              $C$DW$444       .dwtag  DW_TAG_member
    2875                      .dwattr $C$DW$444, DW_AT_type(*$C$DW$T$31)
    2876                      .dwattr $C$DW$444, DW_AT_name("XINTnCTR")
    2877                      .dwattr $C$DW$444, DW_AT_TI_symbol_name("_XINTnCTR")
    2878                      .dwattr $C$DW$444, DW_AT_data_member_location[DW_OP_plus_uconst 0x6398]
    2879                      .dwattr $C$DW$444, DW_AT_accessibility(DW_ACCESS_public)
    2880                      .dwendtag $C$DW$T$33
    2881              
    2882              $C$DW$T$60      .dwtag  DW_TAG_typedef, DW_AT_name("PIE_Obj")
    2883                      .dwattr $C$DW$T$60, DW_AT_type(*$C$DW$T$33)
    2884                      .dwattr $C$DW$T$60, DW_AT_language(DW_LANG_C)
    2885              $C$DW$T$61      .dwtag  DW_TAG_pointer_type
    2886                      .dwattr $C$DW$T$61, DW_AT_type(*$C$DW$T$33)
    2887                      .dwattr $C$DW$T$61, DW_AT_address_class(0x20)
    2888              $C$DW$T$62      .dwtag  DW_TAG_typedef, DW_AT_name("PIE_Handle")
    2889                      .dwattr $C$DW$T$62, DW_AT_type(*$C$DW$T$61)
    2890                      .dwattr $C$DW$T$62, DW_AT_language(DW_LANG_C)
    2891              $C$DW$445       .dwtag  DW_TAG_TI_far_type
    2892                      .dwattr $C$DW$445, DW_AT_type(*$C$DW$T$62)
    2893              $C$DW$T$63      .dwtag  DW_TAG_const_type
    2894                      .dwattr $C$DW$T$63, DW_AT_type(*$C$DW$445)
    2895              $C$DW$T$2       .dwtag  DW_TAG_unspecified_type
    2896                      .dwattr $C$DW$T$2, DW_AT_name("void")
    2897              $C$DW$T$3       .dwtag  DW_TAG_pointer_type
    2898                      .dwattr $C$DW$T$3, DW_AT_type(*$C$DW$T$2)
    2899                      .dwattr $C$DW$T$3, DW_AT_address_class(0x20)
    2900              
    2901              $C$DW$T$26      .dwtag  DW_TAG_subroutine_type
    2902                      .dwattr $C$DW$T$26, DW_AT_language(DW_LANG_C)
    2903              $C$DW$T$27      .dwtag  DW_TAG_pointer_type
    2904                      .dwattr $C$DW$T$27, DW_AT_type(*$C$DW$T$26)
    2905                      .dwattr $C$DW$T$27, DW_AT_address_class(0x20)
    2906              $C$DW$T$28      .dwtag  DW_TAG_typedef, DW_AT_name("PIE_IntVec_t")
    2907                      .dwattr $C$DW$T$28, DW_AT_type(*$C$DW$T$27)
    2908                      .dwattr $C$DW$T$28, DW_AT_language(DW_LANG_C)
    2909              $C$DW$446       .dwtag  DW_TAG_TI_far_type
    2910                      .dwattr $C$DW$446, DW_AT_type(*$C$DW$T$28)
    2911              $C$DW$T$29      .dwtag  DW_TAG_volatile_type
    2912                      .dwattr $C$DW$T$29, DW_AT_type(*$C$DW$446)
    2913              $C$DW$447       .dwtag  DW_TAG_TI_far_type
    2914                      .dwattr $C$DW$447, DW_AT_type(*$C$DW$T$28)
    2915              $C$DW$T$70      .dwtag  DW_TAG_const_type
    2916                      .dwattr $C$DW$T$70, DW_AT_type(*$C$DW$447)
    2917              $C$DW$T$71      .dwtag  DW_TAG_pointer_type
    2918                      .dwattr $C$DW$T$71, DW_AT_type(*$C$DW$T$28)
    2919                      .dwattr $C$DW$T$71, DW_AT_address_class(0x20)
    2920              $C$DW$T$4       .dwtag  DW_TAG_base_type
    2921                      .dwattr $C$DW$T$4, DW_AT_encoding(DW_ATE_boolean)
TMS320C2000 Assembler PC v6.4.4 Wed Jul 08 12:49:34 2015

Tools Copyright (c) 1996-2015 Texas Instruments Incorporated
C:\Users\grant\AppData\Local\Temp\0769610                            PAGE   55

    2922                      .dwattr $C$DW$T$4, DW_AT_name("bool")
    2923                      .dwattr $C$DW$T$4, DW_AT_byte_size(0x01)
    2924              $C$DW$T$5       .dwtag  DW_TAG_base_type
    2925                      .dwattr $C$DW$T$5, DW_AT_encoding(DW_ATE_signed_char)
    2926                      .dwattr $C$DW$T$5, DW_AT_name("signed char")
    2927                      .dwattr $C$DW$T$5, DW_AT_byte_size(0x01)
    2928              $C$DW$T$6       .dwtag  DW_TAG_base_type
    2929                      .dwattr $C$DW$T$6, DW_AT_encoding(DW_ATE_unsigned_char)
    2930                      .dwattr $C$DW$T$6, DW_AT_name("unsigned char")
    2931                      .dwattr $C$DW$T$6, DW_AT_byte_size(0x01)
    2932              $C$DW$T$7       .dwtag  DW_TAG_base_type
    2933                      .dwattr $C$DW$T$7, DW_AT_encoding(DW_ATE_signed_char)
    2934                      .dwattr $C$DW$T$7, DW_AT_name("wchar_t")
    2935                      .dwattr $C$DW$T$7, DW_AT_byte_size(0x01)
    2936              $C$DW$T$8       .dwtag  DW_TAG_base_type
    2937                      .dwattr $C$DW$T$8, DW_AT_encoding(DW_ATE_signed)
    2938                      .dwattr $C$DW$T$8, DW_AT_name("short")
    2939                      .dwattr $C$DW$T$8, DW_AT_byte_size(0x01)
    2940              $C$DW$T$9       .dwtag  DW_TAG_base_type
    2941                      .dwattr $C$DW$T$9, DW_AT_encoding(DW_ATE_unsigned)
    2942                      .dwattr $C$DW$T$9, DW_AT_name("unsigned short")
    2943                      .dwattr $C$DW$T$9, DW_AT_byte_size(0x01)
    2944              $C$DW$T$10      .dwtag  DW_TAG_base_type
    2945                      .dwattr $C$DW$T$10, DW_AT_encoding(DW_ATE_signed)
    2946                      .dwattr $C$DW$T$10, DW_AT_name("int")
    2947                      .dwattr $C$DW$T$10, DW_AT_byte_size(0x01)
    2948              $C$DW$T$11      .dwtag  DW_TAG_base_type
    2949                      .dwattr $C$DW$T$11, DW_AT_encoding(DW_ATE_unsigned)
    2950                      .dwattr $C$DW$T$11, DW_AT_name("unsigned int")
    2951                      .dwattr $C$DW$T$11, DW_AT_byte_size(0x01)
    2952              $C$DW$T$19      .dwtag  DW_TAG_typedef, DW_AT_name("uint16_t")
    2953                      .dwattr $C$DW$T$19, DW_AT_type(*$C$DW$T$11)
    2954                      .dwattr $C$DW$T$19, DW_AT_language(DW_LANG_C)
    2955              $C$DW$448       .dwtag  DW_TAG_TI_far_type
    2956                      .dwattr $C$DW$448, DW_AT_type(*$C$DW$T$19)
    2957              $C$DW$T$20      .dwtag  DW_TAG_volatile_type
    2958                      .dwattr $C$DW$T$20, DW_AT_type(*$C$DW$448)
    2959              
    2960              $C$DW$T$25      .dwtag  DW_TAG_array_type
    2961                      .dwattr $C$DW$T$25, DW_AT_type(*$C$DW$T$20)
    2962                      .dwattr $C$DW$T$25, DW_AT_language(DW_LANG_C)
    2963                      .dwattr $C$DW$T$25, DW_AT_byte_size(0x06)
    2964              $C$DW$449       .dwtag  DW_TAG_subrange_type
    2965                      .dwattr $C$DW$449, DW_AT_upper_bound(0x05)
    2966                      .dwendtag $C$DW$T$25
    2967              
    2968              
    2969              $C$DW$T$30      .dwtag  DW_TAG_array_type
    2970                      .dwattr $C$DW$T$30, DW_AT_type(*$C$DW$T$20)
    2971                      .dwattr $C$DW$T$30, DW_AT_language(DW_LANG_C)
    2972                      .dwattr $C$DW$T$30, DW_AT_byte_size(0x6270)
    2973              $C$DW$450       .dwtag  DW_TAG_subrange_type
    2974                      .dwattr $C$DW$450, DW_AT_upper_bound(0x626f)
    2975                      .dwendtag $C$DW$T$30
    2976              
TMS320C2000 Assembler PC v6.4.4 Wed Jul 08 12:49:34 2015

Tools Copyright (c) 1996-2015 Texas Instruments Incorporated
C:\Users\grant\AppData\Local\Temp\0769610                            PAGE   56

    2977              
    2978              $C$DW$T$31      .dwtag  DW_TAG_array_type
    2979                      .dwattr $C$DW$T$31, DW_AT_type(*$C$DW$T$20)
    2980                      .dwattr $C$DW$T$31, DW_AT_language(DW_LANG_C)
    2981                      .dwattr $C$DW$T$31, DW_AT_byte_size(0x03)
    2982              $C$DW$451       .dwtag  DW_TAG_subrange_type
    2983                      .dwattr $C$DW$451, DW_AT_upper_bound(0x02)
    2984                      .dwendtag $C$DW$T$31
    2985              
    2986              
    2987              $C$DW$T$32      .dwtag  DW_TAG_array_type
    2988                      .dwattr $C$DW$T$32, DW_AT_type(*$C$DW$T$20)
    2989                      .dwattr $C$DW$T$32, DW_AT_language(DW_LANG_C)
    2990                      .dwattr $C$DW$T$32, DW_AT_byte_size(0x05)
    2991              $C$DW$452       .dwtag  DW_TAG_subrange_type
    2992                      .dwattr $C$DW$452, DW_AT_upper_bound(0x04)
    2993                      .dwendtag $C$DW$T$32
    2994              
    2995              $C$DW$T$94      .dwtag  DW_TAG_typedef, DW_AT_name("uint_least8_t")
    2996                      .dwattr $C$DW$T$94, DW_AT_type(*$C$DW$T$19)
    2997                      .dwattr $C$DW$T$94, DW_AT_language(DW_LANG_C)
    2998              $C$DW$T$12      .dwtag  DW_TAG_base_type
    2999                      .dwattr $C$DW$T$12, DW_AT_encoding(DW_ATE_signed)
    3000                      .dwattr $C$DW$T$12, DW_AT_name("long")
    3001                      .dwattr $C$DW$T$12, DW_AT_byte_size(0x02)
    3002              $C$DW$T$13      .dwtag  DW_TAG_base_type
    3003                      .dwattr $C$DW$T$13, DW_AT_encoding(DW_ATE_unsigned)
    3004                      .dwattr $C$DW$T$13, DW_AT_name("unsigned long")
    3005                      .dwattr $C$DW$T$13, DW_AT_byte_size(0x02)
    3006              $C$DW$T$64      .dwtag  DW_TAG_typedef, DW_AT_name("size_t")
    3007                      .dwattr $C$DW$T$64, DW_AT_type(*$C$DW$T$13)
    3008                      .dwattr $C$DW$T$64, DW_AT_language(DW_LANG_C)
    3009              $C$DW$453       .dwtag  DW_TAG_TI_far_type
    3010                      .dwattr $C$DW$453, DW_AT_type(*$C$DW$T$64)
    3011              $C$DW$T$65      .dwtag  DW_TAG_const_type
    3012                      .dwattr $C$DW$T$65, DW_AT_type(*$C$DW$453)
    3013              $C$DW$T$14      .dwtag  DW_TAG_base_type
    3014                      .dwattr $C$DW$T$14, DW_AT_encoding(DW_ATE_signed)
    3015                      .dwattr $C$DW$T$14, DW_AT_name("long long")
    3016                      .dwattr $C$DW$T$14, DW_AT_byte_size(0x04)
    3017              $C$DW$T$15      .dwtag  DW_TAG_base_type
    3018                      .dwattr $C$DW$T$15, DW_AT_encoding(DW_ATE_unsigned)
    3019                      .dwattr $C$DW$T$15, DW_AT_name("unsigned long long")
    3020                      .dwattr $C$DW$T$15, DW_AT_byte_size(0x04)
    3021              $C$DW$T$16      .dwtag  DW_TAG_base_type
    3022                      .dwattr $C$DW$T$16, DW_AT_encoding(DW_ATE_float)
    3023                      .dwattr $C$DW$T$16, DW_AT_name("float")
    3024                      .dwattr $C$DW$T$16, DW_AT_byte_size(0x02)
    3025              $C$DW$T$17      .dwtag  DW_TAG_base_type
    3026                      .dwattr $C$DW$T$17, DW_AT_encoding(DW_ATE_float)
    3027                      .dwattr $C$DW$T$17, DW_AT_name("double")
    3028                      .dwattr $C$DW$T$17, DW_AT_byte_size(0x02)
    3029              $C$DW$T$18      .dwtag  DW_TAG_base_type
    3030                      .dwattr $C$DW$T$18, DW_AT_encoding(DW_ATE_float)
    3031                      .dwattr $C$DW$T$18, DW_AT_name("long double")
TMS320C2000 Assembler PC v6.4.4 Wed Jul 08 12:49:34 2015

Tools Copyright (c) 1996-2015 Texas Instruments Incorporated
C:\Users\grant\AppData\Local\Temp\0769610                            PAGE   57

    3032                      .dwattr $C$DW$T$18, DW_AT_byte_size(0x04)
    3033                      .dwattr $C$DW$CU, DW_AT_language(DW_LANG_C)
    3034              
    3035              ;***************************************************************
    3036              ;* DWARF CIE ENTRIES                                           *
    3037              ;***************************************************************
    3038              
    3039              $C$DW$CIE       .dwcie 26
    3040                      .dwcfi  cfa_register, 20
    3041                      .dwcfi  cfa_offset, 0
    3042                      .dwcfi  undefined, 0
    3043                      .dwcfi  undefined, 1
    3044                      .dwcfi  undefined, 2
    3045                      .dwcfi  undefined, 3
    3046                      .dwcfi  undefined, 20
