TMS320C2000 Assembler PC v6.4.4 Wed Jul 08 10:37:11 2015

Tools Copyright (c) 1996-2015 Texas Instruments Incorporated
C:\Users\grant\AppData\Local\Temp\0209210                            PAGE    1

       1              ;***************************************************************
       2              ;* TMS320C2000 C/C++ Codegen                         PC v6.4.4 *
       3              ;* Date/Time created: Wed Jul 08 10:37:11 2015                 *
       4              ;***************************************************************
       5                      .compiler_opts --float_support=softlib --hll_source=on --mem_model:code=flat --mem_model:data=large -
       6        0002  FP      .set    XAR2
       7              
       8              $C$DW$CU        .dwtag  DW_TAG_compile_unit
       9                      .dwattr $C$DW$CU, DW_AT_name("C:/ti/motorware/motorware_1_01_00_14/sw/modules/user/src/32b/user.c")
      10                      .dwattr $C$DW$CU, DW_AT_producer("TI TMS320C2000 C/C++ Codegen PC v6.4.4 Copyright (c) 1996-2015 Texa
      11                      .dwattr $C$DW$CU, DW_AT_TI_version(0x01)
      12                      .dwattr $C$DW$CU, DW_AT_comp_dir("C:\work\ws_ccs_motorware\foc_proj_lab21\Release")
      13              
      14              $C$DW$1 .dwtag  DW_TAG_subprogram, DW_AT_name("EST_setLs_d_pu")
      15                      .dwattr $C$DW$1, DW_AT_TI_symbol_name("_EST_setLs_d_pu")
      16                      .dwattr $C$DW$1, DW_AT_declaration
      17                      .dwattr $C$DW$1, DW_AT_external
      18              $C$DW$2 .dwtag  DW_TAG_formal_parameter
      19                      .dwattr $C$DW$2, DW_AT_type(*$C$DW$T$33)
      20              $C$DW$3 .dwtag  DW_TAG_formal_parameter
      21                      .dwattr $C$DW$3, DW_AT_type(*$C$DW$T$93)
      22                      .dwendtag $C$DW$1
      23              
      24              
      25              $C$DW$4 .dwtag  DW_TAG_subprogram, DW_AT_name("CTRL_setGains")
      26                      .dwattr $C$DW$4, DW_AT_TI_symbol_name("_CTRL_setGains")
      27                      .dwattr $C$DW$4, DW_AT_declaration
      28                      .dwattr $C$DW$4, DW_AT_external
      29              $C$DW$5 .dwtag  DW_TAG_formal_parameter
      30                      .dwattr $C$DW$5, DW_AT_type(*$C$DW$T$87)
      31              $C$DW$6 .dwtag  DW_TAG_formal_parameter
      32                      .dwattr $C$DW$6, DW_AT_type(*$C$DW$T$84)
      33              $C$DW$7 .dwtag  DW_TAG_formal_parameter
      34                      .dwattr $C$DW$7, DW_AT_type(*$C$DW$T$93)
      35              $C$DW$8 .dwtag  DW_TAG_formal_parameter
      36                      .dwattr $C$DW$8, DW_AT_type(*$C$DW$T$93)
      37              $C$DW$9 .dwtag  DW_TAG_formal_parameter
      38                      .dwattr $C$DW$9, DW_AT_type(*$C$DW$T$93)
      39                      .dwendtag $C$DW$4
      40              
      41              
      42              $C$DW$10        .dwtag  DW_TAG_subprogram, DW_AT_name("EST_setLs_q_pu")
      43                      .dwattr $C$DW$10, DW_AT_TI_symbol_name("_EST_setLs_q_pu")
      44                      .dwattr $C$DW$10, DW_AT_declaration
      45                      .dwattr $C$DW$10, DW_AT_external
      46              $C$DW$11        .dwtag  DW_TAG_formal_parameter
      47                      .dwattr $C$DW$11, DW_AT_type(*$C$DW$T$33)
      48              $C$DW$12        .dwtag  DW_TAG_formal_parameter
      49                      .dwattr $C$DW$12, DW_AT_type(*$C$DW$T$93)
      50                      .dwendtag $C$DW$10
      51              
      52              
      53              $C$DW$13        .dwtag  DW_TAG_subprogram, DW_AT_name("EST_setLs_qFmt")
      54                      .dwattr $C$DW$13, DW_AT_TI_symbol_name("_EST_setLs_qFmt")
      55                      .dwattr $C$DW$13, DW_AT_declaration
TMS320C2000 Assembler PC v6.4.4 Wed Jul 08 10:37:11 2015

Tools Copyright (c) 1996-2015 Texas Instruments Incorporated
C:\Users\grant\AppData\Local\Temp\0209210                            PAGE    2

      56                      .dwattr $C$DW$13, DW_AT_external
      57              $C$DW$14        .dwtag  DW_TAG_formal_parameter
      58                      .dwattr $C$DW$14, DW_AT_type(*$C$DW$T$33)
      59              $C$DW$15        .dwtag  DW_TAG_formal_parameter
      60                      .dwattr $C$DW$15, DW_AT_type(*$C$DW$T$96)
      61                      .dwendtag $C$DW$13
      62              
      63              
      64              $C$DW$16        .dwtag  DW_TAG_subprogram, DW_AT_name("pow")
      65                      .dwattr $C$DW$16, DW_AT_TI_symbol_name("_pow")
      66                      .dwattr $C$DW$16, DW_AT_type(*$C$DW$T$17)
      67                      .dwattr $C$DW$16, DW_AT_declaration
      68                      .dwattr $C$DW$16, DW_AT_external
      69              $C$DW$17        .dwtag  DW_TAG_formal_parameter
      70                      .dwattr $C$DW$17, DW_AT_type(*$C$DW$T$17)
      71              $C$DW$18        .dwtag  DW_TAG_formal_parameter
      72                      .dwattr $C$DW$18, DW_AT_type(*$C$DW$T$17)
      73                      .dwendtag $C$DW$16
      74              
      75              
      76              $C$DW$19        .dwtag  DW_TAG_subprogram, DW_AT_name("log")
      77                      .dwattr $C$DW$19, DW_AT_TI_symbol_name("_log")
      78                      .dwattr $C$DW$19, DW_AT_type(*$C$DW$T$17)
      79                      .dwattr $C$DW$19, DW_AT_declaration
      80                      .dwattr $C$DW$19, DW_AT_external
      81              $C$DW$20        .dwtag  DW_TAG_formal_parameter
      82                      .dwattr $C$DW$20, DW_AT_type(*$C$DW$T$17)
      83                      .dwendtag $C$DW$19
      84              
      85              
      86              $C$DW$21        .dwtag  DW_TAG_subprogram, DW_AT_name("EST_getFlux_pu")
      87                      .dwattr $C$DW$21, DW_AT_TI_symbol_name("_EST_getFlux_pu")
      88                      .dwattr $C$DW$21, DW_AT_type(*$C$DW$T$20)
      89                      .dwattr $C$DW$21, DW_AT_declaration
      90                      .dwattr $C$DW$21, DW_AT_external
      91              $C$DW$22        .dwtag  DW_TAG_formal_parameter
      92                      .dwattr $C$DW$22, DW_AT_type(*$C$DW$T$33)
      93                      .dwendtag $C$DW$21
      94              
      95              
      96              $C$DW$23        .dwtag  DW_TAG_subprogram, DW_AT_name("modf")
      97                      .dwattr $C$DW$23, DW_AT_TI_symbol_name("_modf")
      98                      .dwattr $C$DW$23, DW_AT_type(*$C$DW$T$17)
      99                      .dwattr $C$DW$23, DW_AT_declaration
     100                      .dwattr $C$DW$23, DW_AT_external
     101              $C$DW$24        .dwtag  DW_TAG_formal_parameter
     102                      .dwattr $C$DW$24, DW_AT_type(*$C$DW$T$17)
     103              $C$DW$25        .dwtag  DW_TAG_formal_parameter
     104                      .dwattr $C$DW$25, DW_AT_type(*$C$DW$T$125)
     105                      .dwendtag $C$DW$23
     106              
     107              
     108              $C$DW$26        .dwtag  DW_TAG_subprogram, DW_AT_name("__IQmpy")
     109                      .dwattr $C$DW$26, DW_AT_TI_symbol_name("___IQmpy")
     110                      .dwattr $C$DW$26, DW_AT_type(*$C$DW$T$12)
TMS320C2000 Assembler PC v6.4.4 Wed Jul 08 10:37:11 2015

Tools Copyright (c) 1996-2015 Texas Instruments Incorporated
C:\Users\grant\AppData\Local\Temp\0209210                            PAGE    3

     111                      .dwattr $C$DW$26, DW_AT_declaration
     112                      .dwattr $C$DW$26, DW_AT_external
     113              $C$DW$27        .dwtag  DW_TAG_formal_parameter
     114                      .dwattr $C$DW$27, DW_AT_type(*$C$DW$T$12)
     115              $C$DW$28        .dwtag  DW_TAG_formal_parameter
     116                      .dwattr $C$DW$28, DW_AT_type(*$C$DW$T$12)
     117              $C$DW$29        .dwtag  DW_TAG_formal_parameter
     118                      .dwattr $C$DW$29, DW_AT_type(*$C$DW$T$10)
     119                      .dwendtag $C$DW$26
     120              
     121              
     122              $C$DW$30        .dwtag  DW_TAG_subprogram, DW_AT_name("_IQ30toF")
     123                      .dwattr $C$DW$30, DW_AT_TI_symbol_name("__IQ30toF")
     124                      .dwattr $C$DW$30, DW_AT_type(*$C$DW$T$16)
     125                      .dwattr $C$DW$30, DW_AT_declaration
     126                      .dwattr $C$DW$30, DW_AT_external
     127              $C$DW$31        .dwtag  DW_TAG_formal_parameter
     128                      .dwattr $C$DW$31, DW_AT_type(*$C$DW$T$12)
     129                      .dwendtag $C$DW$30
     130              
     131              
     132              $C$DW$32        .dwtag  DW_TAG_subprogram, DW_AT_name("EST_getLs_coarse_max_pu")
     133                      .dwattr $C$DW$32, DW_AT_TI_symbol_name("_EST_getLs_coarse_max_pu")
     134                      .dwattr $C$DW$32, DW_AT_type(*$C$DW$T$20)
     135                      .dwattr $C$DW$32, DW_AT_declaration
     136                      .dwattr $C$DW$32, DW_AT_external
     137              $C$DW$33        .dwtag  DW_TAG_formal_parameter
     138                      .dwattr $C$DW$33, DW_AT_type(*$C$DW$T$33)
     139                      .dwendtag $C$DW$32
     140              
     141              
     142              $C$DW$34        .dwtag  DW_TAG_subprogram, DW_AT_name("EST_getLs_q_pu")
     143                      .dwattr $C$DW$34, DW_AT_TI_symbol_name("_EST_getLs_q_pu")
     144                      .dwattr $C$DW$34, DW_AT_type(*$C$DW$T$20)
     145                      .dwattr $C$DW$34, DW_AT_declaration
     146                      .dwattr $C$DW$34, DW_AT_external
     147              $C$DW$35        .dwtag  DW_TAG_formal_parameter
     148                      .dwattr $C$DW$35, DW_AT_type(*$C$DW$T$33)
     149                      .dwendtag $C$DW$34
     150              
     151              
     152              $C$DW$36        .dwtag  DW_TAG_subprogram, DW_AT_name("EST_getLs_d_pu")
     153                      .dwattr $C$DW$36, DW_AT_TI_symbol_name("_EST_getLs_d_pu")
     154                      .dwattr $C$DW$36, DW_AT_type(*$C$DW$T$20)
     155                      .dwattr $C$DW$36, DW_AT_declaration
     156                      .dwattr $C$DW$36, DW_AT_external
     157              $C$DW$37        .dwtag  DW_TAG_formal_parameter
     158                      .dwattr $C$DW$37, DW_AT_type(*$C$DW$T$33)
     159                      .dwendtag $C$DW$36
     160              
     161              
     162              $C$DW$38        .dwtag  DW_TAG_subprogram, DW_AT_name("EST_getLs_d_H")
     163                      .dwattr $C$DW$38, DW_AT_TI_symbol_name("_EST_getLs_d_H")
     164                      .dwattr $C$DW$38, DW_AT_type(*$C$DW$T$54)
     165                      .dwattr $C$DW$38, DW_AT_declaration
TMS320C2000 Assembler PC v6.4.4 Wed Jul 08 10:37:11 2015

Tools Copyright (c) 1996-2015 Texas Instruments Incorporated
C:\Users\grant\AppData\Local\Temp\0209210                            PAGE    4

     166                      .dwattr $C$DW$38, DW_AT_external
     167              $C$DW$39        .dwtag  DW_TAG_formal_parameter
     168                      .dwattr $C$DW$39, DW_AT_type(*$C$DW$T$33)
     169                      .dwendtag $C$DW$38
     170              
     171              
     172              $C$DW$40        .dwtag  DW_TAG_subprogram, DW_AT_name("EST_getRs_Ohm")
     173                      .dwattr $C$DW$40, DW_AT_TI_symbol_name("_EST_getRs_Ohm")
     174                      .dwattr $C$DW$40, DW_AT_type(*$C$DW$T$54)
     175                      .dwattr $C$DW$40, DW_AT_declaration
     176                      .dwattr $C$DW$40, DW_AT_external
     177              $C$DW$41        .dwtag  DW_TAG_formal_parameter
     178                      .dwattr $C$DW$41, DW_AT_type(*$C$DW$T$33)
     179                      .dwendtag $C$DW$40
     180              
     181              
     182              $C$DW$42        .dwtag  DW_TAG_subprogram, DW_AT_name("EST_getLs_q_H")
     183                      .dwattr $C$DW$42, DW_AT_TI_symbol_name("_EST_getLs_q_H")
     184                      .dwattr $C$DW$42, DW_AT_type(*$C$DW$T$54)
     185                      .dwattr $C$DW$42, DW_AT_declaration
     186                      .dwattr $C$DW$42, DW_AT_external
     187              $C$DW$43        .dwtag  DW_TAG_formal_parameter
     188                      .dwattr $C$DW$43, DW_AT_type(*$C$DW$T$33)
     189                      .dwendtag $C$DW$42
     190              
     191              ;       C:\ti\ccsv6\tools\compiler\ti-cgt-c2000_6.4.4\bin\opt2000.exe C:\\Users\\grant\\AppData\\Local\\Temp\
     192              ;       C:\ti\ccsv6\tools\compiler\ti-cgt-c2000_6.4.4\bin\ac2000.exe -@C:\\Users\\grant\\AppData\\Local\\Temp
     193 00000000               .sect   ".text"
     194                      .clink
     195                      .global _USER_softwareUpdate1p6
     196              
     197              $C$DW$44        .dwtag  DW_TAG_subprogram, DW_AT_name("USER_softwareUpdate1p6")
     198                      .dwattr $C$DW$44, DW_AT_low_pc(_USER_softwareUpdate1p6)
     199                      .dwattr $C$DW$44, DW_AT_high_pc(0x00)
     200                      .dwattr $C$DW$44, DW_AT_TI_symbol_name("_USER_softwareUpdate1p6")
     201                      .dwattr $C$DW$44, DW_AT_external
     202                      .dwattr $C$DW$44, DW_AT_TI_begin_file("C:/ti/motorware/motorware_1_01_00_14/sw/modules/user/src/32b/u
     203                      .dwattr $C$DW$44, DW_AT_TI_begin_line(0x33a)
     204                      .dwattr $C$DW$44, DW_AT_TI_begin_column(0x06)
     205                      .dwattr $C$DW$44, DW_AT_TI_max_frame_size(-22)
     206                      .dwpsn  file "C:/ti/motorware/motorware_1_01_00_14/sw/modules/user/src/32b/user.c",line 827,column 1,
     207              
     208                      .dwfde $C$DW$CIE, _USER_softwareUpdate1p6
     209              $C$DW$45        .dwtag  DW_TAG_formal_parameter, DW_AT_name("handle")
     210                      .dwattr $C$DW$45, DW_AT_TI_symbol_name("_handle")
     211                      .dwattr $C$DW$45, DW_AT_type(*$C$DW$T$87)
     212                      .dwattr $C$DW$45, DW_AT_location[DW_OP_reg12]
     213              
     214              ;***************************************************************
     215              ;* FNAME: _USER_softwareUpdate1p6       FR SIZE:  20           *
     216              ;*                                                             *
     217              ;* FUNCTION ENVIRONMENT                                        *
     218              ;*                                                             *
     219              ;* FUNCTION PROPERTIES                                         *
     220              ;*                            2 Parameter, 11 Auto,  6 SOE     *
TMS320C2000 Assembler PC v6.4.4 Wed Jul 08 10:37:11 2015

Tools Copyright (c) 1996-2015 Texas Instruments Incorporated
C:\Users\grant\AppData\Local\Temp\0209210                            PAGE    5

     221              ;***************************************************************
     222              
     223              _USER_softwareUpdate1p6:
     224              ;* AL    assigned to _ceil_result
     225              $C$DW$46        .dwtag  DW_TAG_variable, DW_AT_name("ceil_result")
     226                      .dwattr $C$DW$46, DW_AT_TI_symbol_name("_ceil_result")
     227                      .dwattr $C$DW$46, DW_AT_type(*$C$DW$T$17)
     228                      .dwattr $C$DW$46, DW_AT_location[DW_OP_reg0]
     229              $C$DW$47        .dwtag  DW_TAG_variable, DW_AT_name("ceil_y")
     230                      .dwattr $C$DW$47, DW_AT_TI_symbol_name("_ceil_y")
     231                      .dwattr $C$DW$47, DW_AT_type(*$C$DW$T$17)
     232                      .dwattr $C$DW$47, DW_AT_location[DW_OP_breg20 -4]
     233              ;* AR2   assigned to _Ls_q_pu
     234              $C$DW$48        .dwtag  DW_TAG_variable, DW_AT_name("Ls_q_pu")
     235                      .dwattr $C$DW$48, DW_AT_TI_symbol_name("_Ls_q_pu")
     236                      .dwattr $C$DW$48, DW_AT_type(*$C$DW$T$20)
     237                      .dwattr $C$DW$48, DW_AT_location[DW_OP_reg8]
     238              ;* AR1   assigned to _L_max
     239              $C$DW$49        .dwtag  DW_TAG_variable, DW_AT_name("L_max")
     240                      .dwattr $C$DW$49, DW_AT_TI_symbol_name("_L_max")
     241                      .dwattr $C$DW$49, DW_AT_type(*$C$DW$T$54)
     242                      .dwattr $C$DW$49, DW_AT_location[DW_OP_reg6]
     243              ;* AR6   assigned to _Ls_coarse_max
     244              $C$DW$50        .dwtag  DW_TAG_variable, DW_AT_name("Ls_coarse_max")
     245                      .dwattr $C$DW$50, DW_AT_TI_symbol_name("_Ls_coarse_max")
     246                      .dwattr $C$DW$50, DW_AT_type(*$C$DW$T$54)
     247                      .dwattr $C$DW$50, DW_AT_location[DW_OP_reg16]
     248              ;* AR3   assigned to _handle
     249              $C$DW$51        .dwtag  DW_TAG_variable, DW_AT_name("handle")
     250                      .dwattr $C$DW$51, DW_AT_TI_symbol_name("_handle")
     251                      .dwattr $C$DW$51, DW_AT_type(*$C$DW$T$88)
     252                      .dwattr $C$DW$51, DW_AT_location[DW_OP_reg10]
     253                      .dwcfi  cfa_offset, -2
     254                      .dwcfi  save_reg_to_mem, 26, 0
     255 00000000 B2BD          MOVL      *SP++,XAR1            ; [CPU_] 
     256                      .dwcfi  save_reg_to_mem, 7, 2
     257                      .dwcfi  cfa_offset, -4
     258 00000001 AABD          MOVL      *SP++,XAR2            ; [CPU_] 
     259                      .dwcfi  save_reg_to_mem, 9, 4
     260                      .dwcfi  cfa_offset, -6
     261 00000002 A2BD          MOVL      *SP++,XAR3            ; [CPU_] 
     262                      .dwcfi  save_reg_to_mem, 11, 6
     263                      .dwcfi  cfa_offset, -8
     264 00000003 FE0E          ADDB      SP,#14                ; [CPU_U] 
     265                      .dwcfi  cfa_offset, -22
     266 00000004 82A4          MOVL      XAR3,XAR4             ; [CPU_] |827| 
     267                      .dwpsn  file "C:/ti/motorware/motorware_1_01_00_14/sw/modules/user/src/32b/user.c",line 830,column 25
     268 00000005 D018          MOVB      XAR0,#24              ; [CPU_] |830| 
     269 00000006 8A93          MOVL      XAR4,*+XAR3[AR0]      ; [CPU_] |830| 
     270              $C$DW$52        .dwtag  DW_TAG_TI_branch
     271                      .dwattr $C$DW$52, DW_AT_low_pc(0x00)
     272                      .dwattr $C$DW$52, DW_AT_name("_EST_getLs_coarse_max_pu")
     273                      .dwattr $C$DW$52, DW_AT_TI_call
     274 00000007 7640!         LCR       #_EST_getLs_coarse_max_pu ; [CPU_] |830| 
         00000008 0000 
TMS320C2000 Assembler PC v6.4.4 Wed Jul 08 10:37:11 2015

Tools Copyright (c) 1996-2015 Texas Instruments Incorporated
C:\Users\grant\AppData\Local\Temp\0209210                            PAGE    6

     275                      ; call occurs [#_EST_getLs_coarse_max_pu] ; [] |830| 
     276              $C$DW$53        .dwtag  DW_TAG_TI_branch
     277                      .dwattr $C$DW$53, DW_AT_low_pc(0x00)
     278                      .dwattr $C$DW$53, DW_AT_name("__IQ30toF")
     279                      .dwattr $C$DW$53, DW_AT_TI_call
     280 00000009 7640!         LCR       #__IQ30toF            ; [CPU_] |830| 
         0000000a 0000 
     281                      ; call occurs [#__IQ30toF] ; [] |830| 
     282 0000000b 1EA6          MOVL      XAR6,ACC              ; [CPU_] |830| 
     283                      .dwpsn  file "C:/ti/motorware/motorware_1_01_00_14/sw/modules/user/src/32b/user.c",line 831,column 23
     284 0000000c 28A9          MOV       AL,#18757             ; [CPU_] |831| 
         0000000d 4945 
     285 0000000e 28A8          MOV       AH,#14857             ; [CPU_] |831| 
         0000000f 3A09 
     286 00000010 1E42          MOVL      *-SP[2],ACC           ; [CPU_] |831| 
     287 00000011 06A6          MOVL      ACC,XAR6              ; [CPU_] |831| 
     288              $C$DW$54        .dwtag  DW_TAG_TI_branch
     289                      .dwattr $C$DW$54, DW_AT_low_pc(0x00)
     290                      .dwattr $C$DW$54, DW_AT_name("FS$$MPY")
     291                      .dwattr $C$DW$54, DW_AT_TI_call
     292 00000012 7640!         LCR       #FS$$MPY              ; [CPU_] |831| 
         00000013 0000 
     293                      ; call occurs [#FS$$MPY] ; [] |831| 
     294 00000014 D088          MOVB      XAR0,#136             ; [CPU_] |831| 
     295 00000015 1E42          MOVL      *-SP[2],ACC           ; [CPU_] |831| 
     296 00000016 0693          MOVL      ACC,*+XAR3[AR0]       ; [CPU_] |831| 
     297              $C$DW$55        .dwtag  DW_TAG_TI_branch
     298                      .dwattr $C$DW$55, DW_AT_low_pc(0x00)
     299                      .dwattr $C$DW$55, DW_AT_name("FS$$DIV")
     300                      .dwattr $C$DW$55, DW_AT_TI_call
     301 00000017 7640!         LCR       #FS$$DIV              ; [CPU_] |831| 
         00000018 0000 
     302                      ; call occurs [#FS$$DIV] ; [] |831| 
     303              $C$DW$56        .dwtag  DW_TAG_TI_branch
     304                      .dwattr $C$DW$56, DW_AT_low_pc(0x00)
     305                      .dwattr $C$DW$56, DW_AT_name("_log")
     306                      .dwattr $C$DW$56, DW_AT_TI_call
     307 00000019 7640!         LCR       #_log                 ; [CPU_] |831| 
         0000001a 0000 
     308                      ; call occurs [#_log] ; [] |831| 
     309 0000001b 8BA9          MOVL      XAR1,ACC              ; [CPU_] |831| 
     310 0000001c 9A00          MOV       AL,#0                 ; [CPU_] |831| 
     311 0000001d 28A8          MOV       AH,#16384             ; [CPU_] |831| 
         0000001e 4000 
     312              $C$DW$57        .dwtag  DW_TAG_TI_branch
     313                      .dwattr $C$DW$57, DW_AT_low_pc(0x00)
     314                      .dwattr $C$DW$57, DW_AT_name("_log")
     315                      .dwattr $C$DW$57, DW_AT_TI_call
     316 0000001f 7640!         LCR       #_log                 ; [CPU_] |831| 
         00000020 0000 
     317                      ; call occurs [#_log] ; [] |831| 
     318 00000021 1E42          MOVL      *-SP[2],ACC           ; [CPU_] |831| 
     319 00000022 B2A9          MOVL      ACC,XAR1              ; [CPU_] |831| 
     320              $C$DW$58        .dwtag  DW_TAG_TI_branch
     321                      .dwattr $C$DW$58, DW_AT_low_pc(0x00)
TMS320C2000 Assembler PC v6.4.4 Wed Jul 08 10:37:11 2015

Tools Copyright (c) 1996-2015 Texas Instruments Incorporated
C:\Users\grant\AppData\Local\Temp\0209210                            PAGE    7

     322                      .dwattr $C$DW$58, DW_AT_name("FS$$DIV")
     323                      .dwattr $C$DW$58, DW_AT_TI_call
     324 00000023 7640!         LCR       #FS$$DIV              ; [CPU_] |831| 
         00000024 0000 
     325                      ; call occurs [#FS$$DIV] ; [] |831| 
     326                      .dwpsn  file "C:/ti/ccsv6/tools/compiler/ti-cgt-c2000_6.4.4/include/math.h",line 143,column 14,is_stm
     327 00000025 5CAD          MOVZ      AR4,SP                ; [CPU_] |143| 
     328 00000026 DC84          SUBB      XAR4,#4               ; [CPU_U] |143| 
     329 00000027 5CA4          MOVZ      AR4,AR4               ; [CPU_] |143| 
     330              $C$DW$59        .dwtag  DW_TAG_TI_branch
     331                      .dwattr $C$DW$59, DW_AT_low_pc(0x00)
     332                      .dwattr $C$DW$59, DW_AT_name("_modf")
     333                      .dwattr $C$DW$59, DW_AT_TI_call
     334 00000028 7640!         LCR       #_modf                ; [CPU_] |143| 
         00000029 0000 
     335                      ; call occurs [#_modf] ; [] |143| 
     336 0000002a 1EA6          MOVL      XAR6,ACC              ; [CPU_] |143| 
     337 0000002b 9A00          MOV       AL,#0                 ; [CPU_] |143| 
     338 0000002c 9B00          MOV       AH,#0                 ; [CPU_] |143| 
     339 0000002d 1E42          MOVL      *-SP[2],ACC           ; [CPU_] |143| 
     340 0000002e 06A6          MOVL      ACC,XAR6              ; [CPU_] |143| 
     341              $C$DW$60        .dwtag  DW_TAG_TI_branch
     342                      .dwattr $C$DW$60, DW_AT_low_pc(0x00)
     343                      .dwattr $C$DW$60, DW_AT_name("FS$$CMP")
     344                      .dwattr $C$DW$60, DW_AT_TI_call
     345 0000002f 7640!         LCR       #FS$$CMP              ; [CPU_] |143| 
         00000030 0000 
     346                      ; call occurs [#FS$$CMP] ; [] |143| 
     347 00000031 5200          CMPB      AL,#0                 ; [CPU_] |143| 
     348 00000032 56C2          BF        $C$L1,GT              ; [CPU_] |143| 
         00000033 0004 
     349                      ; branchcc occurs ; [] |143| 
     350                      .dwpsn  file "C:/ti/ccsv6/tools/compiler/ti-cgt-c2000_6.4.4/include/math.h",line 150,column 18,is_stm
     351 00000034 0644          MOVL      ACC,*-SP[4]           ; [CPU_] |150| 
     352 00000035 6F07          B         $C$L2,UNC             ; [CPU_] |150| 
     353                      ; branch occurs ; [] |150| 
     354 00000036       $C$L1:    
     355                      .dwpsn  file "C:/ti/ccsv6/tools/compiler/ti-cgt-c2000_6.4.4/include/math.h",line 146,column 18,is_stm
     356 00000036 FF2F          MOV       ACC,#32512 << 15      ; [CPU_] |146| 
         00000037 7F00 
     357 00000038 1E42          MOVL      *-SP[2],ACC           ; [CPU_] |146| 
     358 00000039 0644          MOVL      ACC,*-SP[4]           ; [CPU_] |146| 
     359              $C$DW$61        .dwtag  DW_TAG_TI_branch
     360                      .dwattr $C$DW$61, DW_AT_low_pc(0x00)
     361                      .dwattr $C$DW$61, DW_AT_name("FS$$ADD")
     362                      .dwattr $C$DW$61, DW_AT_TI_call
     363 0000003a 7640!         LCR       #FS$$ADD              ; [CPU_] |146| 
         0000003b 0000 
     364                      ; call occurs [#FS$$ADD] ; [] |146| 
     365 0000003c       $C$L2:    
     366                      .dwpsn  file "C:/ti/motorware/motorware_1_01_00_14/sw/modules/user/src/32b/user.c",line 833,column 17
     367              $C$DW$62        .dwtag  DW_TAG_TI_branch
     368                      .dwattr $C$DW$62, DW_AT_low_pc(0x00)
     369                      .dwattr $C$DW$62, DW_AT_name("FS$$TOI")
     370                      .dwattr $C$DW$62, DW_AT_TI_call
TMS320C2000 Assembler PC v6.4.4 Wed Jul 08 10:37:11 2015

Tools Copyright (c) 1996-2015 Texas Instruments Incorporated
C:\Users\grant\AppData\Local\Temp\0209210                            PAGE    8

     371 0000003c 7640!         LCR       #FS$$TOI              ; [CPU_] |833| 
         0000003d 0000 
     372                      ; call occurs [#FS$$TOI] ; [] |833| 
     373 0000003e 964D          MOV       *-SP[13],AL           ; [CPU_] |833| 
     374              $C$DW$63        .dwtag  DW_TAG_TI_branch
     375                      .dwattr $C$DW$63, DW_AT_low_pc(0x00)
     376                      .dwattr $C$DW$63, DW_AT_name("I$$TOFS")
     377                      .dwattr $C$DW$63, DW_AT_TI_call
     378 0000003f 7640!         LCR       #I$$TOFS              ; [CPU_] |833| 
         00000040 0000 
     379                      ; call occurs [#I$$TOFS] ; [] |833| 
     380 00000041 1E42          MOVL      *-SP[2],ACC           ; [CPU_] |833| 
     381 00000042 9A00          MOV       AL,#0                 ; [CPU_] |833| 
     382 00000043 28A8          MOV       AH,#16384             ; [CPU_] |833| 
         00000044 4000 
     383              $C$DW$64        .dwtag  DW_TAG_TI_branch
     384                      .dwattr $C$DW$64, DW_AT_low_pc(0x00)
     385                      .dwattr $C$DW$64, DW_AT_name("_pow")
     386                      .dwattr $C$DW$64, DW_AT_TI_call
     387 00000045 7640!         LCR       #_pow                 ; [CPU_] |833| 
         00000046 0000 
     388                      ; call occurs [#_pow] ; [] |833| 
     389 00000047 1EA6          MOVL      XAR6,ACC              ; [CPU_] |833| 
     390 00000048 28A9          MOV       AL,#18757             ; [CPU_] |833| 
         00000049 4945 
     391 0000004a 28A8          MOV       AH,#14857             ; [CPU_] |833| 
         0000004b 3A09 
     392 0000004c 1E42          MOVL      *-SP[2],ACC           ; [CPU_] |833| 
     393 0000004d 06A6          MOVL      ACC,XAR6              ; [CPU_] |833| 
     394              $C$DW$65        .dwtag  DW_TAG_TI_branch
     395                      .dwattr $C$DW$65, DW_AT_low_pc(0x00)
     396                      .dwattr $C$DW$65, DW_AT_name("FS$$MPY")
     397                      .dwattr $C$DW$65, DW_AT_TI_call
     398 0000004e 7640!         LCR       #FS$$MPY              ; [CPU_] |833| 
         0000004f 0000 
     399                      ; call occurs [#FS$$MPY] ; [] |833| 
     400                      .dwpsn  file "C:/ti/motorware/motorware_1_01_00_14/sw/modules/user/src/32b/user.c",line 835,column 15
     401 00000050 D08A          MOVB      XAR0,#138             ; [CPU_] |835| 
     402                      .dwpsn  file "C:/ti/motorware/motorware_1_01_00_14/sw/modules/user/src/32b/user.c",line 833,column 17
     403 00000051 8BA9          MOVL      XAR1,ACC              ; [CPU_] |833| 
     404                      .dwpsn  file "C:/ti/motorware/motorware_1_01_00_14/sw/modules/user/src/32b/user.c",line 835,column 15
     405 00000052 1E42          MOVL      *-SP[2],ACC           ; [CPU_] |835| 
     406 00000053 0693          MOVL      ACC,*+XAR3[AR0]       ; [CPU_] |835| 
     407              $C$DW$66        .dwtag  DW_TAG_TI_branch
     408                      .dwattr $C$DW$66, DW_AT_low_pc(0x00)
     409                      .dwattr $C$DW$66, DW_AT_name("FS$$DIV")
     410                      .dwattr $C$DW$66, DW_AT_TI_call
     411 00000054 7640!         LCR       #FS$$DIV              ; [CPU_] |835| 
         00000055 0000 
     412                      ; call occurs [#FS$$DIV] ; [] |835| 
     413 00000056 5CAD          MOVZ      AR4,SP                ; [CPU_] |835| 
     414 00000057 DC8C          SUBB      XAR4,#12              ; [CPU_U] |835| 
     415 00000058 88A4          MOVZ      AR6,AR4               ; [CPU_] |835| 
     416              $C$DW$67        .dwtag  DW_TAG_TI_branch
     417                      .dwattr $C$DW$67, DW_AT_low_pc(0x00)
TMS320C2000 Assembler PC v6.4.4 Wed Jul 08 10:37:11 2015

Tools Copyright (c) 1996-2015 Texas Instruments Incorporated
C:\Users\grant\AppData\Local\Temp\0209210                            PAGE    9

     418                      .dwattr $C$DW$67, DW_AT_name("FS$$TOFD")
     419                      .dwattr $C$DW$67, DW_AT_TI_call
     420 00000059 7640!         LCR       #FS$$TOFD             ; [CPU_] |835| 
         0000005a 0000 
     421                      ; call occurs [#FS$$TOFD] ; [] |835| 
     422 0000005b 5DAD          MOVZ      AR5,SP                ; [CPU_] |835| 
     423 0000005c 5CAD          MOVZ      AR4,SP                ; [CPU_] |835| 
     424 0000005d DD88          SUBB      XAR5,#8               ; [CPU_U] |835| 
     425 0000005e DC8C          SUBB      XAR4,#12              ; [CPU_U] |835| 
     426 0000005f 88A5          MOVZ      AR6,AR5               ; [CPU_] |835| 
     427 00000060 5CA4          MOVZ      AR4,AR4               ; [CPU_] |835| 
     428 00000061 8F40+         MOVL      XAR5,#$C$FL1          ; [CPU_U] |835| 
         00000062 0000 
     429              $C$DW$68        .dwtag  DW_TAG_TI_branch
     430                      .dwattr $C$DW$68, DW_AT_low_pc(0x00)
     431                      .dwattr $C$DW$68, DW_AT_name("FD$$MPY")
     432                      .dwattr $C$DW$68, DW_AT_TI_call
     433 00000063 7640!         LCR       #FD$$MPY              ; [CPU_] |835| 
         00000064 0000 
     434                      ; call occurs [#FD$$MPY] ; [] |835| 
     435 00000065 5CAD          MOVZ      AR4,SP                ; [CPU_] |835| 
     436 00000066 DC88          SUBB      XAR4,#8               ; [CPU_U] |835| 
     437 00000067 5CA4          MOVZ      AR4,AR4               ; [CPU_] |835| 
     438              $C$DW$69        .dwtag  DW_TAG_TI_branch
     439                      .dwattr $C$DW$69, DW_AT_low_pc(0x00)
     440                      .dwattr $C$DW$69, DW_AT_name("FD$$TOL")
     441                      .dwattr $C$DW$69, DW_AT_TI_call
     442 00000068 7640!         LCR       #FD$$TOL              ; [CPU_] |835| 
         00000069 0000 
     443                      ; call occurs [#FD$$TOL] ; [] |835| 
     444                      .dwpsn  file "C:/ti/motorware/motorware_1_01_00_14/sw/modules/user/src/32b/user.c",line 839,column 3,
     445 0000006a D088          MOVB      XAR0,#136             ; [CPU_] |839| 
     446                      .dwpsn  file "C:/ti/motorware/motorware_1_01_00_14/sw/modules/user/src/32b/user.c",line 835,column 15
     447 0000006b 86A9          MOVL      XAR2,ACC              ; [CPU_] |835| 
     448                      .dwpsn  file "C:/ti/motorware/motorware_1_01_00_14/sw/modules/user/src/32b/user.c",line 839,column 3,
     449 0000006c B242          MOVL      *-SP[2],XAR1          ; [CPU_] |839| 
     450 0000006d 0693          MOVL      ACC,*+XAR3[AR0]       ; [CPU_] |839| 
     451              $C$DW$70        .dwtag  DW_TAG_TI_branch
     452                      .dwattr $C$DW$70, DW_AT_low_pc(0x00)
     453                      .dwattr $C$DW$70, DW_AT_name("FS$$DIV")
     454                      .dwattr $C$DW$70, DW_AT_TI_call
     455 0000006e 7640!         LCR       #FS$$DIV              ; [CPU_] |839| 
         0000006f 0000 
     456                      ; call occurs [#FS$$DIV] ; [] |839| 
     457 00000070 5CAD          MOVZ      AR4,SP                ; [CPU_] |839| 
     458 00000071 DC8C          SUBB      XAR4,#12              ; [CPU_U] |839| 
     459 00000072 88A4          MOVZ      AR6,AR4               ; [CPU_] |839| 
     460              $C$DW$71        .dwtag  DW_TAG_TI_branch
     461                      .dwattr $C$DW$71, DW_AT_low_pc(0x00)
     462                      .dwattr $C$DW$71, DW_AT_name("FS$$TOFD")
     463                      .dwattr $C$DW$71, DW_AT_TI_call
     464 00000073 7640!         LCR       #FS$$TOFD             ; [CPU_] |839| 
         00000074 0000 
     465                      ; call occurs [#FS$$TOFD] ; [] |839| 
     466 00000075 5DAD          MOVZ      AR5,SP                ; [CPU_] |839| 
TMS320C2000 Assembler PC v6.4.4 Wed Jul 08 10:37:11 2015

Tools Copyright (c) 1996-2015 Texas Instruments Incorporated
C:\Users\grant\AppData\Local\Temp\0209210                            PAGE   10

     467 00000076 5CAD          MOVZ      AR4,SP                ; [CPU_] |839| 
     468 00000077 DD88          SUBB      XAR5,#8               ; [CPU_U] |839| 
     469 00000078 DC8C          SUBB      XAR4,#12              ; [CPU_U] |839| 
     470 00000079 88A5          MOVZ      AR6,AR5               ; [CPU_] |839| 
     471 0000007a 5CA4          MOVZ      AR4,AR4               ; [CPU_] |839| 
     472 0000007b 8F40+         MOVL      XAR5,#$C$FL1          ; [CPU_U] |839| 
         0000007c 0000 
     473              $C$DW$72        .dwtag  DW_TAG_TI_branch
     474                      .dwattr $C$DW$72, DW_AT_low_pc(0x00)
     475                      .dwattr $C$DW$72, DW_AT_name("FD$$MPY")
     476                      .dwattr $C$DW$72, DW_AT_TI_call
     477 0000007d 7640!         LCR       #FD$$MPY              ; [CPU_] |839| 
         0000007e 0000 
     478                      ; call occurs [#FD$$MPY] ; [] |839| 
     479 0000007f 5CAD          MOVZ      AR4,SP                ; [CPU_] |839| 
     480 00000080 DC88          SUBB      XAR4,#8               ; [CPU_U] |839| 
     481 00000081 5CA4          MOVZ      AR4,AR4               ; [CPU_] |839| 
     482              $C$DW$73        .dwtag  DW_TAG_TI_branch
     483                      .dwattr $C$DW$73, DW_AT_low_pc(0x00)
     484                      .dwattr $C$DW$73, DW_AT_name("FD$$TOL")
     485                      .dwattr $C$DW$73, DW_AT_TI_call
     486 00000082 7640!         LCR       #FD$$TOL              ; [CPU_] |839| 
         00000083 0000 
     487                      ; call occurs [#FD$$TOL] ; [] |839| 
     488 00000084 D018          MOVB      XAR0,#24              ; [CPU_] |839| 
     489 00000085 8A93          MOVL      XAR4,*+XAR3[AR0]      ; [CPU_] |839| 
     490              $C$DW$74        .dwtag  DW_TAG_TI_branch
     491                      .dwattr $C$DW$74, DW_AT_low_pc(0x00)
     492                      .dwattr $C$DW$74, DW_AT_name("_EST_setLs_d_pu")
     493                      .dwattr $C$DW$74, DW_AT_TI_call
     494 00000086 7640!         LCR       #_EST_setLs_d_pu      ; [CPU_] |839| 
         00000087 0000 
     495                      ; call occurs [#_EST_setLs_d_pu] ; [] |839| 
     496                      .dwpsn  file "C:/ti/motorware/motorware_1_01_00_14/sw/modules/user/src/32b/user.c",line 840,column 3,
     497 00000088 D018          MOVB      XAR0,#24              ; [CPU_] |840| 
     498 00000089 AAA9          MOVL      ACC,XAR2              ; [CPU_] |840| 
     499 0000008a 8A93          MOVL      XAR4,*+XAR3[AR0]      ; [CPU_] |840| 
     500              $C$DW$75        .dwtag  DW_TAG_TI_branch
     501                      .dwattr $C$DW$75, DW_AT_low_pc(0x00)
     502                      .dwattr $C$DW$75, DW_AT_name("_EST_setLs_q_pu")
     503                      .dwattr $C$DW$75, DW_AT_TI_call
     504 0000008b 7640!         LCR       #_EST_setLs_q_pu      ; [CPU_] |840| 
         0000008c 0000 
     505                      ; call occurs [#_EST_setLs_q_pu] ; [] |840| 
     506                      .dwpsn  file "C:/ti/motorware/motorware_1_01_00_14/sw/modules/user/src/32b/user.c",line 841,column 3,
     507 0000008d 9A1E          MOVB      AL,#30                ; [CPU_] |841| 
     508 0000008e 9E4D          SUB       AL,*-SP[13]           ; [CPU_] |841| 
     509 0000008f D018          MOVB      XAR0,#24              ; [CPU_] |841| 
     510 00000090 8A93          MOVL      XAR4,*+XAR3[AR0]      ; [CPU_] |841| 
     511              $C$DW$76        .dwtag  DW_TAG_TI_branch
     512                      .dwattr $C$DW$76, DW_AT_low_pc(0x00)
     513                      .dwattr $C$DW$76, DW_AT_name("_EST_setLs_qFmt")
     514                      .dwattr $C$DW$76, DW_AT_TI_call
     515 00000091 7640!         LCR       #_EST_setLs_qFmt      ; [CPU_] |841| 
         00000092 0000 
TMS320C2000 Assembler PC v6.4.4 Wed Jul 08 10:37:11 2015

Tools Copyright (c) 1996-2015 Texas Instruments Incorporated
C:\Users\grant\AppData\Local\Temp\0209210                            PAGE   11

     516                      ; call occurs [#_EST_setLs_qFmt] ; [] |841| 
     517 00000093 FE8E          SUBB      SP,#14                ; [CPU_U] 
     518                      .dwcfi  cfa_offset, -8
     519 00000094 82BE          MOVL      XAR3,*--SP            ; [CPU_] 
     520                      .dwcfi  cfa_offset, -6
     521                      .dwcfi  restore_reg, 11
     522 00000095 86BE          MOVL      XAR2,*--SP            ; [CPU_] 
     523                      .dwcfi  cfa_offset, -4
     524                      .dwcfi  restore_reg, 9
     525 00000096 8BBE          MOVL      XAR1,*--SP            ; [CPU_] 
     526                      .dwcfi  cfa_offset, -2
     527                      .dwcfi  restore_reg, 7
     528              $C$DW$77        .dwtag  DW_TAG_TI_branch
     529                      .dwattr $C$DW$77, DW_AT_low_pc(0x00)
     530                      .dwattr $C$DW$77, DW_AT_TI_return
     531 00000097 0006          LRETR     ; [CPU_] 
     532                      ; return occurs ; [] 
     533                      .dwattr $C$DW$44, DW_AT_TI_end_file("C:/ti/motorware/motorware_1_01_00_14/sw/modules/user/src/32b/use
     534                      .dwattr $C$DW$44, DW_AT_TI_end_line(0x34c)
     535                      .dwattr $C$DW$44, DW_AT_TI_end_column(0x01)
     536                      .dwendentry
     537                      .dwendtag $C$DW$44
     538              
     539 00000098               .sect   ".text"
     540                      .clink
     541                      .global _USER_setParams
     542              
     543              $C$DW$78        .dwtag  DW_TAG_subprogram, DW_AT_name("USER_setParams")
     544                      .dwattr $C$DW$78, DW_AT_low_pc(_USER_setParams)
     545                      .dwattr $C$DW$78, DW_AT_high_pc(0x00)
     546                      .dwattr $C$DW$78, DW_AT_TI_symbol_name("_USER_setParams")
     547                      .dwattr $C$DW$78, DW_AT_external
     548                      .dwattr $C$DW$78, DW_AT_TI_begin_file("C:/ti/motorware/motorware_1_01_00_14/sw/modules/user/src/32b/u
     549                      .dwattr $C$DW$78, DW_AT_TI_begin_line(0x3a)
     550                      .dwattr $C$DW$78, DW_AT_TI_begin_column(0x06)
     551                      .dwattr $C$DW$78, DW_AT_TI_max_frame_size(-2)
     552                      .dwpsn  file "C:/ti/motorware/motorware_1_01_00_14/sw/modules/user/src/32b/user.c",line 59,column 1,i
     553              
     554                      .dwfde $C$DW$CIE, _USER_setParams
     555              $C$DW$79        .dwtag  DW_TAG_formal_parameter, DW_AT_name("pUserParams")
     556                      .dwattr $C$DW$79, DW_AT_TI_symbol_name("_pUserParams")
     557                      .dwattr $C$DW$79, DW_AT_type(*$C$DW$T$79)
     558                      .dwattr $C$DW$79, DW_AT_location[DW_OP_reg12]
     559              
     560              ;***************************************************************
     561              ;* FNAME: _USER_setParams               FR SIZE:   0           *
     562              ;*                                                             *
     563              ;* FUNCTION ENVIRONMENT                                        *
     564              ;*                                                             *
     565              ;* FUNCTION PROPERTIES                                         *
     566              ;*                            0 Parameter,  0 Auto,  0 SOE     *
     567              ;***************************************************************
     568              
     569              _USER_setParams:
     570              ;* AR4   assigned to _pUserParams
TMS320C2000 Assembler PC v6.4.4 Wed Jul 08 10:37:11 2015

Tools Copyright (c) 1996-2015 Texas Instruments Incorporated
C:\Users\grant\AppData\Local\Temp\0209210                            PAGE   12

     571              $C$DW$80        .dwtag  DW_TAG_variable, DW_AT_name("pUserParams")
     572                      .dwattr $C$DW$80, DW_AT_TI_symbol_name("_pUserParams")
     573                      .dwattr $C$DW$80, DW_AT_type(*$C$DW$T$90)
     574                      .dwattr $C$DW$80, DW_AT_location[DW_OP_reg12]
     575                      .dwcfi  cfa_offset, -2
     576                      .dwcfi  save_reg_to_mem, 26, 0
     577                      .dwpsn  file "C:/ti/motorware/motorware_1_01_00_14/sw/modules/user/src/32b/user.c",line 60,column 3,i
     578 00000098 9A00          MOV       AL,#0                 ; [CPU_] |60| 
     579 00000099 28A8          MOV       AH,#16800             ; [CPU_] |60| 
         0000009a 41A0 
     580 0000009b 1EC4          MOVL      *+XAR4[0],ACC         ; [CPU_] |60| 
     581                      .dwpsn  file "C:/ti/motorware/motorware_1_01_00_14/sw/modules/user/src/32b/user.c",line 67,column 3,i
     582 0000009c D008          MOVB      XAR0,#8               ; [CPU_] |67| 
     583                      .dwpsn  file "C:/ti/motorware/motorware_1_01_00_14/sw/modules/user/src/32b/user.c",line 61,column 3,i
     584 0000009d 28A8          MOV       AH,#16832             ; [CPU_] |61| 
         0000009e 41C0 
     585 0000009f 1ED4          MOVL      *+XAR4[2],ACC         ; [CPU_] |61| 
     586                      .dwpsn  file "C:/ti/motorware/motorware_1_01_00_14/sw/modules/user/src/32b/user.c",line 63,column 3,i
     587 000000a0 28A8          MOV       AH,#17480             ; [CPU_] |63| 
         000000a1 4448 
     588 000000a2 1EE4          MOVL      *+XAR4[4],ACC         ; [CPU_] |63| 
     589                      .dwpsn  file "C:/ti/motorware/motorware_1_01_00_14/sw/modules/user/src/32b/user.c",line 65,column 3,i
     590 000000a3 56BF          MOVB      *+XAR4[6],#1,UNC      ; [CPU_] |65| 
         000000a4 01F4 
     591                      .dwpsn  file "C:/ti/motorware/motorware_1_01_00_14/sw/modules/user/src/32b/user.c",line 66,column 3,i
     592 000000a5 56BF          MOVB      *+XAR4[7],#1,UNC      ; [CPU_] |66| 
         000000a6 01FC 
     593                      .dwpsn  file "C:/ti/motorware/motorware_1_01_00_14/sw/modules/user/src/32b/user.c",line 74,column 3,i
     594 000000a7 28A8          MOV       AH,#16800             ; [CPU_] |74| 
         000000a8 41A0 
     595                      .dwpsn  file "C:/ti/motorware/motorware_1_01_00_14/sw/modules/user/src/32b/user.c",line 67,column 3,i
     596 000000a9 56BF          MOVB      *+XAR4[AR0],#1,UNC    ; [CPU_] |67| 
         000000aa 0194 
     597                      .dwpsn  file "C:/ti/motorware/motorware_1_01_00_14/sw/modules/user/src/32b/user.c",line 68,column 3,i
     598 000000ab D009          MOVB      XAR0,#9               ; [CPU_] |68| 
     599 000000ac 56BF          MOVB      *+XAR4[AR0],#15,UNC   ; [CPU_] |68| 
         000000ad 0F94 
     600                      .dwpsn  file "C:/ti/motorware/motorware_1_01_00_14/sw/modules/user/src/32b/user.c",line 69,column 3,i
     601 000000ae D00A          MOVB      XAR0,#10              ; [CPU_] |69| 
     602 000000af 56BF          MOVB      *+XAR4[AR0],#15,UNC   ; [CPU_] |69| 
         000000b0 0F94 
     603                      .dwpsn  file "C:/ti/motorware/motorware_1_01_00_14/sw/modules/user/src/32b/user.c",line 71,column 3,i
     604 000000b1 D00B          MOVB      XAR0,#11              ; [CPU_] |71| 
     605 000000b2 56BF          MOVB      *+XAR4[AR0],#3,UNC    ; [CPU_] |71| 
         000000b3 0394 
     606                      .dwpsn  file "C:/ti/motorware/motorware_1_01_00_14/sw/modules/user/src/32b/user.c",line 72,column 3,i
     607 000000b4 D00C          MOVB      XAR0,#12              ; [CPU_] |72| 
     608                      .dwpsn  file "C:/ti/motorware/motorware_1_01_00_14/sw/modules/user/src/32b/user.c",line 135,column 3,
     609 000000b5 8F41          MOVL      XAR5,#75000           ; [CPU_U] |135| 
         000000b6 24F8 
     610                      .dwpsn  file "C:/ti/motorware/motorware_1_01_00_14/sw/modules/user/src/32b/user.c",line 72,column 3,i
     611 000000b7 56BF          MOVB      *+XAR4[AR0],#3,UNC    ; [CPU_] |72| 
         000000b8 0394 
     612                      .dwpsn  file "C:/ti/motorware/motorware_1_01_00_14/sw/modules/user/src/32b/user.c",line 74,column 3,i
     613 000000b9 D00E          MOVB      XAR0,#14              ; [CPU_] |74| 
TMS320C2000 Assembler PC v6.4.4 Wed Jul 08 10:37:11 2015

Tools Copyright (c) 1996-2015 Texas Instruments Incorporated
C:\Users\grant\AppData\Local\Temp\0209210                            PAGE   13

     614 000000ba 1E94          MOVL      *+XAR4[AR0],ACC       ; [CPU_] |74| 
     615                      .dwpsn  file "C:/ti/motorware/motorware_1_01_00_14/sw/modules/user/src/32b/user.c",line 75,column 3,i
     616 000000bb D010          MOVB      XAR0,#16              ; [CPU_] |75| 
     617 000000bc 28A8          MOV       AH,#17096             ; [CPU_] |75| 
         000000bd 42C8 
     618 000000be 1E94          MOVL      *+XAR4[AR0],ACC       ; [CPU_] |75| 
     619                      .dwpsn  file "C:/ti/motorware/motorware_1_01_00_14/sw/modules/user/src/32b/user.c",line 77,column 3,i
     620 000000bf D012          MOVB      XAR0,#18              ; [CPU_] |77| 
     621 000000c0 28A8          MOV       AH,#15011             ; [CPU_] |77| 
         000000c1 3AA3 
     622 000000c2 28A9          MOV       AL,#55050             ; [CPU_] |77| 
         000000c3 D70A 
     623 000000c4 3B01          SETC      SXM                   ; [CPU_] 
     624 000000c5 1E94          MOVL      *+XAR4[AR0],ACC       ; [CPU_] |77| 
     625                      .dwpsn  file "C:/ti/motorware/motorware_1_01_00_14/sw/modules/user/src/32b/user.c",line 79,column 3,i
     626 000000c6 D014          MOVB      XAR0,#20              ; [CPU_] |79| 
     627 000000c7 9A00          MOV       AL,#0                 ; [CPU_] |79| 
     628 000000c8 28A8          MOV       AH,#16384             ; [CPU_] |79| 
         000000c9 4000 
     629 000000ca 1E94          MOVL      *+XAR4[AR0],ACC       ; [CPU_] |79| 
     630                      .dwpsn  file "C:/ti/motorware/motorware_1_01_00_14/sw/modules/user/src/32b/user.c",line 81,column 3,i
     631 000000cb D016          MOVB      XAR0,#22              ; [CPU_] |81| 
     632 000000cc 28A8          MOV       AH,#16800             ; [CPU_] |81| 
         000000cd 41A0 
     633 000000ce 1E94          MOVL      *+XAR4[AR0],ACC       ; [CPU_] |81| 
     634                      .dwpsn  file "C:/ti/motorware/motorware_1_01_00_14/sw/modules/user/src/32b/user.c",line 83,column 3,i
     635 000000cf D018          MOVB      XAR0,#24              ; [CPU_] |83| 
     636 000000d0 28A8          MOV       AH,#16544             ; [CPU_] |83| 
         000000d1 40A0 
     637 000000d2 1E94          MOVL      *+XAR4[AR0],ACC       ; [CPU_] |83| 
     638                      .dwpsn  file "C:/ti/motorware/motorware_1_01_00_14/sw/modules/user/src/32b/user.c",line 85,column 3,i
     639 000000d3 D01A          MOVB      XAR0,#26              ; [CPU_] |85| 
     640 000000d4 28A8          MOV       AH,#16576             ; [CPU_] |85| 
         000000d5 40C0 
     641 000000d6 1E94          MOVL      *+XAR4[AR0],ACC       ; [CPU_] |85| 
     642                      .dwpsn  file "C:/ti/motorware/motorware_1_01_00_14/sw/modules/user/src/32b/user.c",line 87,column 3,i
     643 000000d7 D01C          MOVB      XAR0,#28              ; [CPU_] |87| 
     644 000000d8 28A8          MOV       AH,#17096             ; [CPU_] |87| 
         000000d9 42C8 
     645 000000da 1E94          MOVL      *+XAR4[AR0],ACC       ; [CPU_] |87| 
     646                      .dwpsn  file "C:/ti/motorware/motorware_1_01_00_14/sw/modules/user/src/32b/user.c",line 89,column 3,i
     647 000000db D01E          MOVB      XAR0,#30              ; [CPU_] |89| 
     648 000000dc 1E94          MOVL      *+XAR4[AR0],ACC       ; [CPU_] |89| 
     649                      .dwpsn  file "C:/ti/motorware/motorware_1_01_00_14/sw/modules/user/src/32b/user.c",line 91,column 3,i
     650 000000dd D020          MOVB      XAR0,#32              ; [CPU_] |91| 
     651 000000de FF2F          MOV       ACC,#32512 << 15      ; [CPU_] |91| 
         000000df 7F00 
     652 000000e0 1E94          MOVL      *+XAR4[AR0],ACC       ; [CPU_] |91| 
     653                      .dwpsn  file "C:/ti/motorware/motorware_1_01_00_14/sw/modules/user/src/32b/user.c",line 93,column 3,i
     654 000000e1 D022          MOVB      XAR0,#34              ; [CPU_] |93| 
     655 000000e2 1E94          MOVL      *+XAR4[AR0],ACC       ; [CPU_] |93| 
     656                      .dwpsn  file "C:/ti/motorware/motorware_1_01_00_14/sw/modules/user/src/32b/user.c",line 95,column 3,i
     657 000000e3 D024          MOVB      XAR0,#36              ; [CPU_] |95| 
     658 000000e4 1E94          MOVL      *+XAR4[AR0],ACC       ; [CPU_] |95| 
     659                      .dwpsn  file "C:/ti/motorware/motorware_1_01_00_14/sw/modules/user/src/32b/user.c",line 97,column 3,i
TMS320C2000 Assembler PC v6.4.4 Wed Jul 08 10:37:11 2015

Tools Copyright (c) 1996-2015 Texas Instruments Incorporated
C:\Users\grant\AppData\Local\Temp\0209210                            PAGE   14

     660 000000e5 D026          MOVB      XAR0,#38              ; [CPU_] |97| 
     661                      .dwpsn  file "C:/ti/motorware/motorware_1_01_00_14/sw/modules/user/src/32b/user.c",line 99,column 3,i
     662 000000e6 28A9          MOV       AL,#50972             ; [CPU_] |99| 
         000000e7 C71C 
     663 000000e8 28A8          MOV       AH,#16817             ; [CPU_] |99| 
         000000e9 41B1 
     664                      .dwpsn  file "C:/ti/motorware/motorware_1_01_00_14/sw/modules/user/src/32b/user.c",line 97,column 3,i
     665 000000ea 56BF          MOVB      *+XAR4[AR0],#90,UNC   ; [CPU_] |97| 
         000000eb 5A94 
     666                      .dwpsn  file "C:/ti/motorware/motorware_1_01_00_14/sw/modules/user/src/32b/user.c",line 99,column 3,i
     667 000000ec D028          MOVB      XAR0,#40              ; [CPU_] |99| 
     668 000000ed 1E94          MOVL      *+XAR4[AR0],ACC       ; [CPU_] |99| 
     669                      .dwpsn  file "C:/ti/motorware/motorware_1_01_00_14/sw/modules/user/src/32b/user.c",line 101,column 3,
     670 000000ee D02A          MOVB      XAR0,#42              ; [CPU_] |101| 
     671 000000ef 28A9          MOV       AL,#22369             ; [CPU_] |101| 
         000000f0 5761 
     672 000000f1 28A8          MOV       AH,#16268             ; [CPU_] |101| 
         000000f2 3F8C 
     673 000000f3 1E94          MOVL      *+XAR4[AR0],ACC       ; [CPU_] |101| 
     674                      .dwpsn  file "C:/ti/motorware/motorware_1_01_00_14/sw/modules/user/src/32b/user.c",line 103,column 3,
     675 000000f4 D02C          MOVB      XAR0,#44              ; [CPU_] |103| 
     676 000000f5 28A9          MOV       AL,#13107             ; [CPU_] |103| 
         000000f6 3333 
     677 000000f7 28A8          MOV       AH,#16339             ; [CPU_] |103| 
         000000f8 3FD3 
     678 000000f9 1E94          MOVL      *+XAR4[AR0],ACC       ; [CPU_] |103| 
     679                      .dwpsn  file "C:/ti/motorware/motorware_1_01_00_14/sw/modules/user/src/32b/user.c",line 105,column 3,
     680 000000fa D02E          MOVB      XAR0,#46              ; [CPU_] |105| 
     681 000000fb 28A9          MOV       AL,#13782             ; [CPU_] |105| 
         000000fc 35D6 
     682 000000fd 28A8          MOV       AH,#17679             ; [CPU_] |105| 
         000000fe 450F 
     683 000000ff 1E94          MOVL      *+XAR4[AR0],ACC       ; [CPU_] |105| 
     684                      .dwpsn  file "C:/ti/motorware/motorware_1_01_00_14/sw/modules/user/src/32b/user.c",line 107,column 3,
     685 00000100 D030          MOVB      XAR0,#48              ; [CPU_] |107| 
     686 00000101 FF2F          MOV       ACC,#32512 << 15      ; [CPU_] |107| 
         00000102 7F00 
     687 00000103 1E94          MOVL      *+XAR4[AR0],ACC       ; [CPU_] |107| 
     688                      .dwpsn  file "C:/ti/motorware/motorware_1_01_00_14/sw/modules/user/src/32b/user.c",line 109,column 3,
     689 00000104 D032          MOVB      XAR0,#50              ; [CPU_] |109| 
     690 00000105 FF2F          MOV       ACC,#32640 << 15      ; [CPU_] |109| 
         00000106 7F80 
     691 00000107 1E94          MOVL      *+XAR4[AR0],ACC       ; [CPU_] |109| 
     692                      .dwpsn  file "C:/ti/motorware/motorware_1_01_00_14/sw/modules/user/src/32b/user.c",line 111,column 3,
     693 00000108 D034          MOVB      XAR0,#52              ; [CPU_] |111| 
     694                      .dwpsn  file "C:/ti/motorware/motorware_1_01_00_14/sw/modules/user/src/32b/user.c",line 113,column 3,
     695 00000109 28A9          MOV       AL,#2002              ; [CPU_] |113| 
         0000010a 07D2 
     696 0000010b 28A8          MOV       AH,#15650             ; [CPU_] |113| 
         0000010c 3D22 
     697                      .dwpsn  file "C:/ti/motorware/motorware_1_01_00_14/sw/modules/user/src/32b/user.c",line 111,column 3,
     698 0000010d 56BF          MOVB      *+XAR4[AR0],#1,UNC    ; [CPU_] |111| 
         0000010e 0194 
     699                      .dwpsn  file "C:/ti/motorware/motorware_1_01_00_14/sw/modules/user/src/32b/user.c",line 112,column 3,
     700 0000010f D035          MOVB      XAR0,#53              ; [CPU_] |112| 
TMS320C2000 Assembler PC v6.4.4 Wed Jul 08 10:37:11 2015

Tools Copyright (c) 1996-2015 Texas Instruments Incorporated
C:\Users\grant\AppData\Local\Temp\0209210                            PAGE   15

     701 00000110 56BF          MOVB      *+XAR4[AR0],#4,UNC    ; [CPU_] |112| 
         00000111 0494 
     702                      .dwpsn  file "C:/ti/motorware/motorware_1_01_00_14/sw/modules/user/src/32b/user.c",line 113,column 3,
     703 00000112 D036          MOVB      XAR0,#54              ; [CPU_] |113| 
     704 00000113 1E94          MOVL      *+XAR4[AR0],ACC       ; [CPU_] |113| 
     705                      .dwpsn  file "C:/ti/motorware/motorware_1_01_00_14/sw/modules/user/src/32b/user.c",line 114,column 3,
     706 00000114 D038          MOVB      XAR0,#56              ; [CPU_] |114| 
     707 00000115 9A00          MOV       AL,#0                 ; [CPU_] |114| 
     708 00000116 9B00          MOV       AH,#0                 ; [CPU_] |114| 
     709 00000117 1E94          MOVL      *+XAR4[AR0],ACC       ; [CPU_] |114| 
     710                      .dwpsn  file "C:/ti/motorware/motorware_1_01_00_14/sw/modules/user/src/32b/user.c",line 115,column 3,
     711 00000118 D03A          MOVB      XAR0,#58              ; [CPU_] |115| 
     712 00000119 28A9          MOV       AL,#40272             ; [CPU_] |115| 
         0000011a 9D50 
     713 0000011b 28A8          MOV       AH,#16072             ; [CPU_] |115| 
         0000011c 3EC8 
     714 0000011d 1E94          MOVL      *+XAR4[AR0],ACC       ; [CPU_] |115| 
     715                      .dwpsn  file "C:/ti/motorware/motorware_1_01_00_14/sw/modules/user/src/32b/user.c",line 116,column 3,
     716 0000011e D03C          MOVB      XAR0,#60              ; [CPU_] |116| 
     717 0000011f 28A9          MOV       AL,#23785             ; [CPU_] |116| 
         00000120 5CE9 
     718 00000121 28A8          MOV       AH,#14710             ; [CPU_] |116| 
         00000122 3976 
     719 00000123 1E94          MOVL      *+XAR4[AR0],ACC       ; [CPU_] |116| 
     720                      .dwpsn  file "C:/ti/motorware/motorware_1_01_00_14/sw/modules/user/src/32b/user.c",line 117,column 3,
     721 00000124 D03E          MOVB      XAR0,#62              ; [CPU_] |117| 
     722 00000125 1E94          MOVL      *+XAR4[AR0],ACC       ; [CPU_] |117| 
     723                      .dwpsn  file "C:/ti/motorware/motorware_1_01_00_14/sw/modules/user/src/32b/user.c",line 119,column 3,
     724 00000126 D042          MOVB      XAR0,#66              ; [CPU_] |119| 
     725 00000127 FF2F          MOV       ACC,#32512 << 15      ; [CPU_] |119| 
         00000128 7F00 
     726 00000129 1E94          MOVL      *+XAR4[AR0],ACC       ; [CPU_] |119| 
     727                      .dwpsn  file "C:/ti/motorware/motorware_1_01_00_14/sw/modules/user/src/32b/user.c",line 120,column 3,
     728 0000012a D044          MOVB      XAR0,#68              ; [CPU_] |120| 
     729 0000012b 9A00          MOV       AL,#0                 ; [CPU_] |120| 
     730 0000012c 28A8          MOV       AH,#48896             ; [CPU_] |120| 
         0000012d BF00 
     731 0000012e 1E94          MOVL      *+XAR4[AR0],ACC       ; [CPU_] |120| 
     732                      .dwpsn  file "C:/ti/motorware/motorware_1_01_00_14/sw/modules/user/src/32b/user.c",line 121,column 3,
     733 0000012f D040          MOVB      XAR0,#64              ; [CPU_] |121| 
     734 00000130 28A8          MOV       AH,#16608             ; [CPU_] |121| 
         00000131 40E0 
     735 00000132 1E94          MOVL      *+XAR4[AR0],ACC       ; [CPU_] |121| 
     736                      .dwpsn  file "C:/ti/motorware/motorware_1_01_00_14/sw/modules/user/src/32b/user.c",line 123,column 3,
     737 00000133 D046          MOVB      XAR0,#70              ; [CPU_] |123| 
     738 00000134 28A8          MOV       AH,#14417             ; [CPU_] |123| 
         00000135 3851 
     739 00000136 28A9          MOV       AL,#46872             ; [CPU_] |123| 
         00000137 B718 
     740 00000138 1E94          MOVL      *+XAR4[AR0],ACC       ; [CPU_] |123| 
     741                      .dwpsn  file "C:/ti/motorware/motorware_1_01_00_14/sw/modules/user/src/32b/user.c",line 124,column 3,
     742 00000139 D048          MOVB      XAR0,#72              ; [CPU_] |124| 
     743 0000013a 28A9          MOV       AL,#43139             ; [CPU_] |124| 
         0000013b A883 
     744 0000013c 28A8          MOV       AH,#14203             ; [CPU_] |124| 
TMS320C2000 Assembler PC v6.4.4 Wed Jul 08 10:37:11 2015

Tools Copyright (c) 1996-2015 Texas Instruments Incorporated
C:\Users\grant\AppData\Local\Temp\0209210                            PAGE   16

         0000013d 377B 
     745 0000013e 1E94          MOVL      *+XAR4[AR0],ACC       ; [CPU_] |124| 
     746                      .dwpsn  file "C:/ti/motorware/motorware_1_01_00_14/sw/modules/user/src/32b/user.c",line 126,column 3,
     747 0000013f D04A          MOVB      XAR0,#74              ; [CPU_] |126| 
     748 00000140 9A00          MOV       AL,#0                 ; [CPU_] |126| 
     749 00000141 9B00          MOV       AH,#0                 ; [CPU_] |126| 
     750 00000142 1E94          MOVL      *+XAR4[AR0],ACC       ; [CPU_] |126| 
     751                      .dwpsn  file "C:/ti/motorware/motorware_1_01_00_14/sw/modules/user/src/32b/user.c",line 127,column 3,
     752 00000143 D04E          MOVB      XAR0,#78              ; [CPU_] |127| 
     753 00000144 FF2F          MOV       ACC,#32512 << 15      ; [CPU_] |127| 
         00000145 7F00 
     754 00000146 1E94          MOVL      *+XAR4[AR0],ACC       ; [CPU_] |127| 
     755                      .dwpsn  file "C:/ti/motorware/motorware_1_01_00_14/sw/modules/user/src/32b/user.c",line 128,column 3,
     756 00000147 D04C          MOVB      XAR0,#76              ; [CPU_] |128| 
     757 00000148 1E94          MOVL      *+XAR4[AR0],ACC       ; [CPU_] |128| 
     758                      .dwpsn  file "C:/ti/motorware/motorware_1_01_00_14/sw/modules/user/src/32b/user.c",line 129,column 3,
     759 00000149 D050          MOVB      XAR0,#80              ; [CPU_] |129| 
     760 0000014a 28A9          MOV       AL,#50604             ; [CPU_] |129| 
         0000014b C5AC 
     761 0000014c 28A8          MOV       AH,#14247             ; [CPU_] |129| 
         0000014d 37A7 
     762 0000014e 1E94          MOVL      *+XAR4[AR0],ACC       ; [CPU_] |129| 
     763                      .dwpsn  file "C:/ti/motorware/motorware_1_01_00_14/sw/modules/user/src/32b/user.c",line 131,column 3,
     764 0000014f D052          MOVB      XAR0,#82              ; [CPU_] |131| 
     765 00000150 9A00          MOV       AL,#0                 ; [CPU_] |131| 
     766 00000151 28A8          MOV       AH,#16800             ; [CPU_] |131| 
         00000152 41A0 
     767 00000153 1E94          MOVL      *+XAR4[AR0],ACC       ; [CPU_] |131| 
     768                      .dwpsn  file "C:/ti/motorware/motorware_1_01_00_14/sw/modules/user/src/32b/user.c",line 133,column 3,
     769 00000154 D054          MOVB      XAR0,#84              ; [CPU_] |133| 
     770 00000155 0200          MOVB      ACC,#0                ; [CPU_] |133| 
     771 00000156 1E94          MOVL      *+XAR4[AR0],ACC       ; [CPU_] |133| 
     772                      .dwpsn  file "C:/ti/motorware/motorware_1_01_00_14/sw/modules/user/src/32b/user.c",line 134,column 3,
     773 00000157 D056          MOVB      XAR0,#86              ; [CPU_] |134| 
     774 00000158 1E94          MOVL      *+XAR4[AR0],ACC       ; [CPU_] |134| 
     775                      .dwpsn  file "C:/ti/motorware/motorware_1_01_00_14/sw/modules/user/src/32b/user.c",line 135,column 3,
     776 00000159 D058          MOVB      XAR0,#88              ; [CPU_] |135| 
     777 0000015a A094          MOVL      *+XAR4[AR0],XAR5      ; [CPU_] |135| 
     778                      .dwpsn  file "C:/ti/motorware/motorware_1_01_00_14/sw/modules/user/src/32b/user.c",line 136,column 3,
     779 0000015b D05A          MOVB      XAR0,#90              ; [CPU_] |136| 
     780                      .dwpsn  file "C:/ti/motorware/motorware_1_01_00_14/sw/modules/user/src/32b/user.c",line 140,column 3,
     781 0000015c 8F41          MOVL      XAR5,#120000          ; [CPU_U] |140| 
         0000015d D4C0 
     782                      .dwpsn  file "C:/ti/motorware/motorware_1_01_00_14/sw/modules/user/src/32b/user.c",line 136,column 3,
     783 0000015e 1E94          MOVL      *+XAR4[AR0],ACC       ; [CPU_] |136| 
     784                      .dwpsn  file "C:/ti/motorware/motorware_1_01_00_14/sw/modules/user/src/32b/user.c",line 138,column 3,
     785 0000015f D05C          MOVB      XAR0,#92              ; [CPU_] |138| 
     786 00000160 1E94          MOVL      *+XAR4[AR0],ACC       ; [CPU_] |138| 
     787                      .dwpsn  file "C:/ti/motorware/motorware_1_01_00_14/sw/modules/user/src/32b/user.c",line 139,column 3,
     788 00000161 D05E          MOVB      XAR0,#94              ; [CPU_] |139| 
     789 00000162 1E94          MOVL      *+XAR4[AR0],ACC       ; [CPU_] |139| 
     790                      .dwpsn  file "C:/ti/motorware/motorware_1_01_00_14/sw/modules/user/src/32b/user.c",line 140,column 3,
     791 00000163 D060          MOVB      XAR0,#96              ; [CPU_] |140| 
     792 00000164 A094          MOVL      *+XAR4[AR0],XAR5      ; [CPU_] |140| 
     793                      .dwpsn  file "C:/ti/motorware/motorware_1_01_00_14/sw/modules/user/src/32b/user.c",line 141,column 3,
TMS320C2000 Assembler PC v6.4.4 Wed Jul 08 10:37:11 2015

Tools Copyright (c) 1996-2015 Texas Instruments Incorporated
C:\Users\grant\AppData\Local\Temp\0209210                            PAGE   17

     794 00000165 D062          MOVB      XAR0,#98              ; [CPU_] |141| 
     795                      .dwpsn  file "C:/ti/motorware/motorware_1_01_00_14/sw/modules/user/src/32b/user.c",line 142,column 3,
     796 00000166 8F42          MOVL      XAR5,#135000          ; [CPU_U] |142| 
         00000167 0F58 
     797                      .dwpsn  file "C:/ti/motorware/motorware_1_01_00_14/sw/modules/user/src/32b/user.c",line 141,column 3,
     798 00000168 1E94          MOVL      *+XAR4[AR0],ACC       ; [CPU_] |141| 
     799                      .dwpsn  file "C:/ti/motorware/motorware_1_01_00_14/sw/modules/user/src/32b/user.c",line 142,column 3,
     800 00000169 D064          MOVB      XAR0,#100             ; [CPU_] |142| 
     801 0000016a A094          MOVL      *+XAR4[AR0],XAR5      ; [CPU_] |142| 
     802                      .dwpsn  file "C:/ti/motorware/motorware_1_01_00_14/sw/modules/user/src/32b/user.c",line 143,column 3,
     803 0000016b D066          MOVB      XAR0,#102             ; [CPU_] |143| 
     804 0000016c 8F46          MOVL      XAR5,#450000          ; [CPU_U] |143| 
         0000016d DDD0 
     805 0000016e A094          MOVL      *+XAR4[AR0],XAR5      ; [CPU_] |143| 
     806                      .dwpsn  file "C:/ti/motorware/motorware_1_01_00_14/sw/modules/user/src/32b/user.c",line 144,column 3,
     807 0000016f D068          MOVB      XAR0,#104             ; [CPU_] |144| 
     808 00000170 8F40          MOVL      XAR5,#3000            ; [CPU_U] |144| 
         00000171 0BB8 
     809 00000172 A094          MOVL      *+XAR4[AR0],XAR5      ; [CPU_] |144| 
     810                      .dwpsn  file "C:/ti/motorware/motorware_1_01_00_14/sw/modules/user/src/32b/user.c",line 145,column 3,
     811 00000173 D06A          MOVB      XAR0,#106             ; [CPU_] |145| 
     812                      .dwpsn  file "C:/ti/motorware/motorware_1_01_00_14/sw/modules/user/src/32b/user.c",line 146,column 3,
     813 00000174 8F40          MOVL      XAR5,#30000           ; [CPU_U] |146| 
         00000175 7530 
     814                      .dwpsn  file "C:/ti/motorware/motorware_1_01_00_14/sw/modules/user/src/32b/user.c",line 145,column 3,
     815 00000176 1E94          MOVL      *+XAR4[AR0],ACC       ; [CPU_] |145| 
     816                      .dwpsn  file "C:/ti/motorware/motorware_1_01_00_14/sw/modules/user/src/32b/user.c",line 146,column 3,
     817 00000177 D06C          MOVB      XAR0,#108             ; [CPU_] |146| 
     818 00000178 A094          MOVL      *+XAR4[AR0],XAR5      ; [CPU_] |146| 
     819                      .dwpsn  file "C:/ti/motorware/motorware_1_01_00_14/sw/modules/user/src/32b/user.c",line 147,column 3,
     820 00000179 D06E          MOVB      XAR0,#110             ; [CPU_] |147| 
     821                      .dwpsn  file "C:/ti/motorware/motorware_1_01_00_14/sw/modules/user/src/32b/user.c",line 149,column 3,
     822 0000017a 8F44          MOVL      XAR5,#300000          ; [CPU_U] |149| 
         0000017b 93E0 
     823                      .dwpsn  file "C:/ti/motorware/motorware_1_01_00_14/sw/modules/user/src/32b/user.c",line 147,column 3,
     824 0000017c 1E94          MOVL      *+XAR4[AR0],ACC       ; [CPU_] |147| 
     825                      .dwpsn  file "C:/ti/motorware/motorware_1_01_00_14/sw/modules/user/src/32b/user.c",line 148,column 3,
     826 0000017d D070          MOVB      XAR0,#112             ; [CPU_] |148| 
     827 0000017e 1E94          MOVL      *+XAR4[AR0],ACC       ; [CPU_] |148| 
     828                      .dwpsn  file "C:/ti/motorware/motorware_1_01_00_14/sw/modules/user/src/32b/user.c",line 149,column 3,
     829 0000017f D072          MOVB      XAR0,#114             ; [CPU_] |149| 
     830 00000180 A094          MOVL      *+XAR4[AR0],XAR5      ; [CPU_] |149| 
     831                      .dwpsn  file "C:/ti/motorware/motorware_1_01_00_14/sw/modules/user/src/32b/user.c",line 150,column 3,
     832 00000181 D074          MOVB      XAR0,#116             ; [CPU_] |150| 
     833                      .dwpsn  file "C:/ti/motorware/motorware_1_01_00_14/sw/modules/user/src/32b/user.c",line 155,column 3,
     834 00000182 8F42          MOVL      XAR5,#150000          ; [CPU_U] |155| 
         00000183 49F0 
     835                      .dwpsn  file "C:/ti/motorware/motorware_1_01_00_14/sw/modules/user/src/32b/user.c",line 150,column 3,
     836 00000184 1E94          MOVL      *+XAR4[AR0],ACC       ; [CPU_] |150| 
     837                      .dwpsn  file "C:/ti/motorware/motorware_1_01_00_14/sw/modules/user/src/32b/user.c",line 151,column 3,
     838 00000185 D076          MOVB      XAR0,#118             ; [CPU_] |151| 
     839 00000186 1E94          MOVL      *+XAR4[AR0],ACC       ; [CPU_] |151| 
     840                      .dwpsn  file "C:/ti/motorware/motorware_1_01_00_14/sw/modules/user/src/32b/user.c",line 153,column 3,
     841 00000187 D078          MOVB      XAR0,#120             ; [CPU_] |153| 
     842 00000188 1E94          MOVL      *+XAR4[AR0],ACC       ; [CPU_] |153| 
TMS320C2000 Assembler PC v6.4.4 Wed Jul 08 10:37:11 2015

Tools Copyright (c) 1996-2015 Texas Instruments Incorporated
C:\Users\grant\AppData\Local\Temp\0209210                            PAGE   18

     843                      .dwpsn  file "C:/ti/motorware/motorware_1_01_00_14/sw/modules/user/src/32b/user.c",line 154,column 3,
     844 00000189 D07A          MOVB      XAR0,#122             ; [CPU_] |154| 
     845 0000018a 1E94          MOVL      *+XAR4[AR0],ACC       ; [CPU_] |154| 
     846                      .dwpsn  file "C:/ti/motorware/motorware_1_01_00_14/sw/modules/user/src/32b/user.c",line 155,column 3,
     847 0000018b D07C          MOVB      XAR0,#124             ; [CPU_] |155| 
     848 0000018c A094          MOVL      *+XAR4[AR0],XAR5      ; [CPU_] |155| 
     849                      .dwpsn  file "C:/ti/motorware/motorware_1_01_00_14/sw/modules/user/src/32b/user.c",line 156,column 3,
     850 0000018d D07E          MOVB      XAR0,#126             ; [CPU_] |156| 
     851 0000018e 8F40          MOVL      XAR5,#3000            ; [CPU_U] |156| 
         0000018f 0BB8 
     852 00000190 A094          MOVL      *+XAR4[AR0],XAR5      ; [CPU_] |156| 
     853                      .dwpsn  file "C:/ti/motorware/motorware_1_01_00_14/sw/modules/user/src/32b/user.c",line 157,column 3,
     854 00000191 D080          MOVB      XAR0,#128             ; [CPU_] |157| 
     855 00000192 8F40          MOVL      XAR5,#60000           ; [CPU_U] |157| 
         00000193 EA60 
     856 00000194 A094          MOVL      *+XAR4[AR0],XAR5      ; [CPU_] |157| 
     857                      .dwpsn  file "C:/ti/motorware/motorware_1_01_00_14/sw/modules/user/src/32b/user.c",line 158,column 3,
     858 00000195 D082          MOVB      XAR0,#130             ; [CPU_] |158| 
     859                      .dwpsn  file "C:/ti/motorware/motorware_1_01_00_14/sw/modules/user/src/32b/user.c",line 162,column 3,
     860 00000196 8F40          MOVL      XAR5,#45000           ; [CPU_U] |162| 
         00000197 AFC8 
     861                      .dwpsn  file "C:/ti/motorware/motorware_1_01_00_14/sw/modules/user/src/32b/user.c",line 158,column 3,
     862 00000198 1E94          MOVL      *+XAR4[AR0],ACC       ; [CPU_] |158| 
     863                      .dwpsn  file "C:/ti/motorware/motorware_1_01_00_14/sw/modules/user/src/32b/user.c",line 160,column 3,
     864 00000199 D084          MOVB      XAR0,#132             ; [CPU_] |160| 
     865 0000019a 1E94          MOVL      *+XAR4[AR0],ACC       ; [CPU_] |160| 
     866                      .dwpsn  file "C:/ti/motorware/motorware_1_01_00_14/sw/modules/user/src/32b/user.c",line 161,column 3,
     867 0000019b D086          MOVB      XAR0,#134             ; [CPU_] |161| 
     868 0000019c 1E94          MOVL      *+XAR4[AR0],ACC       ; [CPU_] |161| 
     869                      .dwpsn  file "C:/ti/motorware/motorware_1_01_00_14/sw/modules/user/src/32b/user.c",line 162,column 3,
     870 0000019d D088          MOVB      XAR0,#136             ; [CPU_] |162| 
     871 0000019e A094          MOVL      *+XAR4[AR0],XAR5      ; [CPU_] |162| 
     872                      .dwpsn  file "C:/ti/motorware/motorware_1_01_00_14/sw/modules/user/src/32b/user.c",line 163,column 3,
     873 0000019f D08A          MOVB      XAR0,#138             ; [CPU_] |163| 
     874 000001a0 A094          MOVL      *+XAR4[AR0],XAR5      ; [CPU_] |163| 
     875                      .dwpsn  file "C:/ti/motorware/motorware_1_01_00_14/sw/modules/user/src/32b/user.c",line 164,column 3,
     876 000001a1 D08C          MOVB      XAR0,#140             ; [CPU_] |164| 
     877 000001a2 8F40          MOVL      XAR5,#3000            ; [CPU_U] |164| 
         000001a3 0BB8 
     878 000001a4 A094          MOVL      *+XAR4[AR0],XAR5      ; [CPU_] |164| 
     879                      .dwpsn  file "C:/ti/motorware/motorware_1_01_00_14/sw/modules/user/src/32b/user.c",line 165,column 3,
     880 000001a5 D08E          MOVB      XAR0,#142             ; [CPU_] |165| 
     881 000001a6 8F46          MOVL      XAR5,#450000          ; [CPU_U] |165| 
         000001a7 DDD0 
     882 000001a8 A094          MOVL      *+XAR4[AR0],XAR5      ; [CPU_] |165| 
     883                      .dwpsn  file "C:/ti/motorware/motorware_1_01_00_14/sw/modules/user/src/32b/user.c",line 166,column 3,
     884 000001a9 D090          MOVB      XAR0,#144             ; [CPU_] |166| 
     885                      .dwpsn  file "C:/ti/motorware/motorware_1_01_00_14/sw/modules/user/src/32b/user.c",line 170,column 3,
     886 000001aa 8F40          MOVL      XAR5,#15000           ; [CPU_U] |170| 
         000001ab 3A98 
     887                      .dwpsn  file "C:/ti/motorware/motorware_1_01_00_14/sw/modules/user/src/32b/user.c",line 166,column 3,
     888 000001ac 1E94          MOVL      *+XAR4[AR0],ACC       ; [CPU_] |166| 
     889                      .dwpsn  file "C:/ti/motorware/motorware_1_01_00_14/sw/modules/user/src/32b/user.c",line 168,column 3,
     890 000001ad D092          MOVB      XAR0,#146             ; [CPU_] |168| 
     891 000001ae 1E94          MOVL      *+XAR4[AR0],ACC       ; [CPU_] |168| 
TMS320C2000 Assembler PC v6.4.4 Wed Jul 08 10:37:11 2015

Tools Copyright (c) 1996-2015 Texas Instruments Incorporated
C:\Users\grant\AppData\Local\Temp\0209210                            PAGE   19

     892                      .dwpsn  file "C:/ti/motorware/motorware_1_01_00_14/sw/modules/user/src/32b/user.c",line 169,column 3,
     893 000001af D094          MOVB      XAR0,#148             ; [CPU_] |169| 
     894 000001b0 1E94          MOVL      *+XAR4[AR0],ACC       ; [CPU_] |169| 
     895                      .dwpsn  file "C:/ti/motorware/motorware_1_01_00_14/sw/modules/user/src/32b/user.c",line 170,column 3,
     896 000001b1 D096          MOVB      XAR0,#150             ; [CPU_] |170| 
     897 000001b2 A094          MOVL      *+XAR4[AR0],XAR5      ; [CPU_] |170| 
     898                      .dwpsn  file "C:/ti/motorware/motorware_1_01_00_14/sw/modules/user/src/32b/user.c",line 171,column 3,
     899 000001b3 D098          MOVB      XAR0,#152             ; [CPU_] |171| 
     900 000001b4 8F40          MOVL      XAR5,#30000           ; [CPU_U] |171| 
         000001b5 7530 
     901 000001b6 A094          MOVL      *+XAR4[AR0],XAR5      ; [CPU_] |171| 
     902                      .dwpsn  file "C:/ti/motorware/motorware_1_01_00_14/sw/modules/user/src/32b/user.c",line 172,column 3,
     903 000001b7 D09A          MOVB      XAR0,#154             ; [CPU_] |172| 
     904 000001b8 8F41          MOVL      XAR5,#105000          ; [CPU_U] |172| 
         000001b9 9A28 
     905 000001ba A094          MOVL      *+XAR4[AR0],XAR5      ; [CPU_] |172| 
     906                      .dwpsn  file "C:/ti/motorware/motorware_1_01_00_14/sw/modules/user/src/32b/user.c",line 173,column 3,
     907 000001bb D09C          MOVB      XAR0,#156             ; [CPU_] |173| 
     908                      .dwpsn  file "C:/ti/motorware/motorware_1_01_00_14/sw/modules/user/src/32b/user.c",line 175,column 3,
     909 000001bc 8F40          MOVL      XAR5,#15000           ; [CPU_U] |175| 
         000001bd 3A98 
     910                      .dwpsn  file "C:/ti/motorware/motorware_1_01_00_14/sw/modules/user/src/32b/user.c",line 173,column 3,
     911 000001be 1E94          MOVL      *+XAR4[AR0],ACC       ; [CPU_] |173| 
     912                      .dwpsn  file "C:/ti/motorware/motorware_1_01_00_14/sw/modules/user/src/32b/user.c",line 175,column 3,
     913 000001bf D09E          MOVB      XAR0,#158             ; [CPU_] |175| 
     914                      .dwpsn  file "C:/ti/motorware/motorware_1_01_00_14/sw/modules/user/src/32b/user.c",line 183,column 3,
     915 000001c0 28A9          MOV       AL,#53093             ; [CPU_] |183| 
         000001c1 CF65 
     916 000001c2 28A8          MOV       AH,#14475             ; [CPU_] |183| 
         000001c3 388B 
     917                      .dwpsn  file "C:/ti/motorware/motorware_1_01_00_14/sw/modules/user/src/32b/user.c",line 175,column 3,
     918 000001c4 A094          MOVL      *+XAR4[AR0],XAR5      ; [CPU_] |175| 
     919                      .dwpsn  file "C:/ti/motorware/motorware_1_01_00_14/sw/modules/user/src/32b/user.c",line 177,column 3,
     920 000001c5 D0A0          MOVB      XAR0,#160             ; [CPU_] |177| 
     921 000001c6 A094          MOVL      *+XAR4[AR0],XAR5      ; [CPU_] |177| 
     922                      .dwpsn  file "C:/ti/motorware/motorware_1_01_00_14/sw/modules/user/src/32b/user.c",line 179,column 3,
     923 000001c7 D0A2          MOVB      XAR0,#162             ; [CPU_] |179| 
     924 000001c8 8F40          MOVL      XAR5,#300             ; [CPU_U] |179| 
         000001c9 012C 
     925 000001ca A094          MOVL      *+XAR4[AR0],XAR5      ; [CPU_] |179| 
     926                      .dwpsn  file "C:/ti/motorware/motorware_1_01_00_14/sw/modules/user/src/32b/user.c",line 181,column 3,
     927 000001cb D0A4          MOVB      XAR0,#164             ; [CPU_] |181| 
     928 000001cc 8F40          MOVL      XAR5,#1000            ; [CPU_U] |181| 
         000001cd 03E8 
     929 000001ce A094          MOVL      *+XAR4[AR0],XAR5      ; [CPU_] |181| 
     930                      .dwpsn  file "C:/ti/motorware/motorware_1_01_00_14/sw/modules/user/src/32b/user.c",line 183,column 3,
     931 000001cf D0A6          MOVB      XAR0,#166             ; [CPU_] |183| 
     932 000001d0 1E94          MOVL      *+XAR4[AR0],ACC       ; [CPU_] |183| 
     933                      .dwpsn  file "C:/ti/motorware/motorware_1_01_00_14/sw/modules/user/src/32b/user.c",line 185,column 3,
     934 000001d1 FF2F          MOV       ACC,#-32576 << 15     ; [CPU_] |185| 
         000001d2 80C0 
     935 000001d3 D0A8          MOVB      XAR0,#168             ; [CPU_] |185| 
     936 000001d4 1E94          MOVL      *+XAR4[AR0],ACC       ; [CPU_] |185| 
     937              $C$DW$81        .dwtag  DW_TAG_TI_branch
     938                      .dwattr $C$DW$81, DW_AT_low_pc(0x00)
TMS320C2000 Assembler PC v6.4.4 Wed Jul 08 10:37:11 2015

Tools Copyright (c) 1996-2015 Texas Instruments Incorporated
C:\Users\grant\AppData\Local\Temp\0209210                            PAGE   20

     939                      .dwattr $C$DW$81, DW_AT_TI_return
     940 000001d5 0006          LRETR     ; [CPU_] 
     941                      ; return occurs ; [] 
     942                      .dwattr $C$DW$78, DW_AT_TI_end_file("C:/ti/motorware/motorware_1_01_00_14/sw/modules/user/src/32b/use
     943                      .dwattr $C$DW$78, DW_AT_TI_end_line(0xbc)
     944                      .dwattr $C$DW$78, DW_AT_TI_end_column(0x01)
     945                      .dwendentry
     946                      .dwendtag $C$DW$78
     947              
     948 000001d6               .sect   ".text"
     949                      .clink
     950                      .global _USER_setErrorCode
     951              
     952              $C$DW$82        .dwtag  DW_TAG_subprogram, DW_AT_name("USER_setErrorCode")
     953                      .dwattr $C$DW$82, DW_AT_low_pc(_USER_setErrorCode)
     954                      .dwattr $C$DW$82, DW_AT_high_pc(0x00)
     955                      .dwattr $C$DW$82, DW_AT_TI_symbol_name("_USER_setErrorCode")
     956                      .dwattr $C$DW$82, DW_AT_external
     957                      .dwattr $C$DW$82, DW_AT_TI_begin_file("C:/ti/motorware/motorware_1_01_00_14/sw/modules/user/src/32b/u
     958                      .dwattr $C$DW$82, DW_AT_TI_begin_line(0x332)
     959                      .dwattr $C$DW$82, DW_AT_TI_begin_column(0x06)
     960                      .dwattr $C$DW$82, DW_AT_TI_max_frame_size(-2)
     961                      .dwpsn  file "C:/ti/motorware/motorware_1_01_00_14/sw/modules/user/src/32b/user.c",line 819,column 1,
     962              
     963                      .dwfde $C$DW$CIE, _USER_setErrorCode
     964              $C$DW$83        .dwtag  DW_TAG_formal_parameter, DW_AT_name("pUserParams")
     965                      .dwattr $C$DW$83, DW_AT_TI_symbol_name("_pUserParams")
     966                      .dwattr $C$DW$83, DW_AT_type(*$C$DW$T$79)
     967                      .dwattr $C$DW$83, DW_AT_location[DW_OP_reg12]
     968              $C$DW$84        .dwtag  DW_TAG_formal_parameter, DW_AT_name("errorCode")
     969                      .dwattr $C$DW$84, DW_AT_TI_symbol_name("_errorCode")
     970                      .dwattr $C$DW$84, DW_AT_type(*$C$DW$T$77)
     971                      .dwattr $C$DW$84, DW_AT_location[DW_OP_reg0]
     972              
     973              ;***************************************************************
     974              ;* FNAME: _USER_setErrorCode            FR SIZE:   0           *
     975              ;*                                                             *
     976              ;* FUNCTION ENVIRONMENT                                        *
     977              ;*                                                             *
     978              ;* FUNCTION PROPERTIES                                         *
     979              ;*                            0 Parameter,  0 Auto,  0 SOE     *
     980              ;***************************************************************
     981              
     982              _USER_setErrorCode:
     983              ;* AR4   assigned to _pUserParams
     984              $C$DW$85        .dwtag  DW_TAG_variable, DW_AT_name("pUserParams")
     985                      .dwattr $C$DW$85, DW_AT_TI_symbol_name("_pUserParams")
     986                      .dwattr $C$DW$85, DW_AT_type(*$C$DW$T$90)
     987                      .dwattr $C$DW$85, DW_AT_location[DW_OP_reg12]
     988              ;* AL    assigned to _errorCode
     989              $C$DW$86        .dwtag  DW_TAG_variable, DW_AT_name("errorCode")
     990                      .dwattr $C$DW$86, DW_AT_TI_symbol_name("_errorCode")
     991                      .dwattr $C$DW$86, DW_AT_type(*$C$DW$T$77)
     992                      .dwattr $C$DW$86, DW_AT_location[DW_OP_reg0]
     993                      .dwcfi  cfa_offset, -2
TMS320C2000 Assembler PC v6.4.4 Wed Jul 08 10:37:11 2015

Tools Copyright (c) 1996-2015 Texas Instruments Incorporated
C:\Users\grant\AppData\Local\Temp\0209210                            PAGE   21

     994                      .dwcfi  save_reg_to_mem, 26, 0
     995                      .dwpsn  file "C:/ti/motorware/motorware_1_01_00_14/sw/modules/user/src/32b/user.c",line 820,column 3,
     996 000001d6 D0AA          MOVB      XAR0,#170             ; [CPU_] |820| 
     997 000001d7 9694          MOV       *+XAR4[AR0],AL        ; [CPU_] |820| 
     998              $C$DW$87        .dwtag  DW_TAG_TI_branch
     999                      .dwattr $C$DW$87, DW_AT_low_pc(0x00)
    1000                      .dwattr $C$DW$87, DW_AT_TI_return
    1001 000001d8 0006          LRETR     ; [CPU_] 
    1002                      ; return occurs ; [] 
    1003                      .dwattr $C$DW$82, DW_AT_TI_end_file("C:/ti/motorware/motorware_1_01_00_14/sw/modules/user/src/32b/use
    1004                      .dwattr $C$DW$82, DW_AT_TI_end_line(0x337)
    1005                      .dwattr $C$DW$82, DW_AT_TI_end_column(0x01)
    1006                      .dwendentry
    1007                      .dwendtag $C$DW$82
    1008              
    1009 000001d9               .sect   ".text"
    1010                      .clink
    1011                      .global _USER_getErrorCode
    1012              
    1013              $C$DW$88        .dwtag  DW_TAG_subprogram, DW_AT_name("USER_getErrorCode")
    1014                      .dwattr $C$DW$88, DW_AT_low_pc(_USER_getErrorCode)
    1015                      .dwattr $C$DW$88, DW_AT_high_pc(0x00)
    1016                      .dwattr $C$DW$88, DW_AT_TI_symbol_name("_USER_getErrorCode")
    1017                      .dwattr $C$DW$88, DW_AT_external
    1018                      .dwattr $C$DW$88, DW_AT_type(*$C$DW$T$75)
    1019                      .dwattr $C$DW$88, DW_AT_TI_begin_file("C:/ti/motorware/motorware_1_01_00_14/sw/modules/user/src/32b/u
    1020                      .dwattr $C$DW$88, DW_AT_TI_begin_line(0x32c)
    1021                      .dwattr $C$DW$88, DW_AT_TI_begin_column(0x12)
    1022                      .dwattr $C$DW$88, DW_AT_TI_max_frame_size(-2)
    1023                      .dwpsn  file "C:/ti/motorware/motorware_1_01_00_14/sw/modules/user/src/32b/user.c",line 813,column 1,
    1024              
    1025                      .dwfde $C$DW$CIE, _USER_getErrorCode
    1026              $C$DW$89        .dwtag  DW_TAG_formal_parameter, DW_AT_name("pUserParams")
    1027                      .dwattr $C$DW$89, DW_AT_TI_symbol_name("_pUserParams")
    1028                      .dwattr $C$DW$89, DW_AT_type(*$C$DW$T$79)
    1029                      .dwattr $C$DW$89, DW_AT_location[DW_OP_reg12]
    1030              
    1031              ;***************************************************************
    1032              ;* FNAME: _USER_getErrorCode            FR SIZE:   0           *
    1033              ;*                                                             *
    1034              ;* FUNCTION ENVIRONMENT                                        *
    1035              ;*                                                             *
    1036              ;* FUNCTION PROPERTIES                                         *
    1037              ;*                            0 Parameter,  0 Auto,  0 SOE     *
    1038              ;***************************************************************
    1039              
    1040              _USER_getErrorCode:
    1041              ;* AR4   assigned to _pUserParams
    1042              $C$DW$90        .dwtag  DW_TAG_variable, DW_AT_name("pUserParams")
    1043                      .dwattr $C$DW$90, DW_AT_TI_symbol_name("_pUserParams")
    1044                      .dwattr $C$DW$90, DW_AT_type(*$C$DW$T$90)
    1045                      .dwattr $C$DW$90, DW_AT_location[DW_OP_reg12]
    1046                      .dwcfi  cfa_offset, -2
    1047                      .dwcfi  save_reg_to_mem, 26, 0
    1048                      .dwpsn  file "C:/ti/motorware/motorware_1_01_00_14/sw/modules/user/src/32b/user.c",line 814,column 3,
TMS320C2000 Assembler PC v6.4.4 Wed Jul 08 10:37:11 2015

Tools Copyright (c) 1996-2015 Texas Instruments Incorporated
C:\Users\grant\AppData\Local\Temp\0209210                            PAGE   22

    1049 000001d9 D0AA          MOVB      XAR0,#170             ; [CPU_] |814| 
    1050 000001da 9294          MOV       AL,*+XAR4[AR0]        ; [CPU_] |814| 
    1051              $C$DW$91        .dwtag  DW_TAG_TI_branch
    1052                      .dwattr $C$DW$91, DW_AT_low_pc(0x00)
    1053                      .dwattr $C$DW$91, DW_AT_TI_return
    1054 000001db 0006          LRETR     ; [CPU_] 
    1055                      ; return occurs ; [] 
    1056                      .dwattr $C$DW$88, DW_AT_TI_end_file("C:/ti/motorware/motorware_1_01_00_14/sw/modules/user/src/32b/use
    1057                      .dwattr $C$DW$88, DW_AT_TI_end_line(0x32f)
    1058                      .dwattr $C$DW$88, DW_AT_TI_end_column(0x01)
    1059                      .dwendentry
    1060                      .dwendtag $C$DW$88
    1061              
    1062 000001dc               .sect   ".text"
    1063                      .clink
    1064                      .global _USER_computeTorque_lbin
    1065              
    1066              $C$DW$92        .dwtag  DW_TAG_subprogram, DW_AT_name("USER_computeTorque_lbin")
    1067                      .dwattr $C$DW$92, DW_AT_low_pc(_USER_computeTorque_lbin)
    1068                      .dwattr $C$DW$92, DW_AT_high_pc(0x00)
    1069                      .dwattr $C$DW$92, DW_AT_TI_symbol_name("_USER_computeTorque_lbin")
    1070                      .dwattr $C$DW$92, DW_AT_external
    1071                      .dwattr $C$DW$92, DW_AT_type(*$C$DW$T$20)
    1072                      .dwattr $C$DW$92, DW_AT_TI_begin_file("C:/ti/motorware/motorware_1_01_00_14/sw/modules/user/src/32b/u
    1073                      .dwattr $C$DW$92, DW_AT_TI_begin_line(0x3da)
    1074                      .dwattr $C$DW$92, DW_AT_TI_begin_column(0x05)
    1075                      .dwattr $C$DW$92, DW_AT_TI_max_frame_size(-16)
    1076                      .dwpsn  file "C:/ti/motorware/motorware_1_01_00_14/sw/modules/user/src/32b/user.c",line 987,column 1,
    1077              
    1078                      .dwfde $C$DW$CIE, _USER_computeTorque_lbin
    1079              $C$DW$93        .dwtag  DW_TAG_formal_parameter, DW_AT_name("handle")
    1080                      .dwattr $C$DW$93, DW_AT_TI_symbol_name("_handle")
    1081                      .dwattr $C$DW$93, DW_AT_type(*$C$DW$T$87)
    1082                      .dwattr $C$DW$93, DW_AT_location[DW_OP_reg12]
    1083              $C$DW$94        .dwtag  DW_TAG_formal_parameter, DW_AT_name("torque_Flux_sf")
    1084                      .dwattr $C$DW$94, DW_AT_TI_symbol_name("_torque_Flux_sf")
    1085                      .dwattr $C$DW$94, DW_AT_type(*$C$DW$T$93)
    1086                      .dwattr $C$DW$94, DW_AT_location[DW_OP_reg0]
    1087              $C$DW$95        .dwtag  DW_TAG_formal_parameter, DW_AT_name("torque_Ls_sf")
    1088                      .dwattr $C$DW$95, DW_AT_TI_symbol_name("_torque_Ls_sf")
    1089                      .dwattr $C$DW$95, DW_AT_type(*$C$DW$T$93)
    1090                      .dwattr $C$DW$95, DW_AT_location[DW_OP_breg20 -18]
    1091              
    1092              ;***************************************************************
    1093              ;* FNAME: _USER_computeTorque_lbin      FR SIZE:  14           *
    1094              ;*                                                             *
    1095              ;* FUNCTION ENVIRONMENT                                        *
    1096              ;*                                                             *
    1097              ;* FUNCTION PROPERTIES                                         *
    1098              ;*                            0 Parameter,  8 Auto,  6 SOE     *
    1099              ;***************************************************************
    1100              
    1101              _USER_computeTorque_lbin:
    1102              ;* AR1   assigned to _handle
    1103              $C$DW$96        .dwtag  DW_TAG_variable, DW_AT_name("handle")
TMS320C2000 Assembler PC v6.4.4 Wed Jul 08 10:37:11 2015

Tools Copyright (c) 1996-2015 Texas Instruments Incorporated
C:\Users\grant\AppData\Local\Temp\0209210                            PAGE   23

    1104                      .dwattr $C$DW$96, DW_AT_TI_symbol_name("_handle")
    1105                      .dwattr $C$DW$96, DW_AT_type(*$C$DW$T$88)
    1106                      .dwattr $C$DW$96, DW_AT_location[DW_OP_reg6]
    1107              $C$DW$97        .dwtag  DW_TAG_variable, DW_AT_name("torque_Flux_sf")
    1108                      .dwattr $C$DW$97, DW_AT_TI_symbol_name("_torque_Flux_sf")
    1109                      .dwattr $C$DW$97, DW_AT_type(*$C$DW$T$93)
    1110                      .dwattr $C$DW$97, DW_AT_location[DW_OP_breg20 -2]
    1111              $C$DW$98        .dwtag  DW_TAG_variable, DW_AT_name("torque_Ls_sf")
    1112                      .dwattr $C$DW$98, DW_AT_TI_symbol_name("_torque_Ls_sf")
    1113                      .dwattr $C$DW$98, DW_AT_type(*$C$DW$T$93)
    1114                      .dwattr $C$DW$98, DW_AT_location[DW_OP_breg20 -4]
    1115              $C$DW$99        .dwtag  DW_TAG_variable, DW_AT_name("Flux_pu")
    1116                      .dwattr $C$DW$99, DW_AT_TI_symbol_name("_Flux_pu")
    1117                      .dwattr $C$DW$99, DW_AT_type(*$C$DW$T$20)
    1118                      .dwattr $C$DW$99, DW_AT_location[DW_OP_breg20 -6]
    1119              ;* AR3   assigned to _Id_pu
    1120              $C$DW$100       .dwtag  DW_TAG_variable, DW_AT_name("Id_pu")
    1121                      .dwattr $C$DW$100, DW_AT_TI_symbol_name("_Id_pu")
    1122                      .dwattr $C$DW$100, DW_AT_type(*$C$DW$T$20)
    1123                      .dwattr $C$DW$100, DW_AT_location[DW_OP_reg10]
    1124              ;* AR2   assigned to _Iq_pu
    1125              $C$DW$101       .dwtag  DW_TAG_variable, DW_AT_name("Iq_pu")
    1126                      .dwattr $C$DW$101, DW_AT_TI_symbol_name("_Iq_pu")
    1127                      .dwattr $C$DW$101, DW_AT_type(*$C$DW$T$20)
    1128                      .dwattr $C$DW$101, DW_AT_location[DW_OP_reg8]
    1129              ;* AR7   assigned to _Ld_minus_Lq_pu
    1130              $C$DW$102       .dwtag  DW_TAG_variable, DW_AT_name("Ld_minus_Lq_pu")
    1131                      .dwattr $C$DW$102, DW_AT_TI_symbol_name("_Ld_minus_Lq_pu")
    1132                      .dwattr $C$DW$102, DW_AT_type(*$C$DW$T$20)
    1133                      .dwattr $C$DW$102, DW_AT_location[DW_OP_reg18]
    1134                      .dwcfi  cfa_offset, -2
    1135                      .dwcfi  save_reg_to_mem, 26, 0
    1136 000001dc B2BD          MOVL      *SP++,XAR1            ; [CPU_] 
    1137                      .dwcfi  save_reg_to_mem, 7, 2
    1138                      .dwcfi  cfa_offset, -4
    1139 000001dd AABD          MOVL      *SP++,XAR2            ; [CPU_] 
    1140                      .dwcfi  save_reg_to_mem, 9, 4
    1141                      .dwcfi  cfa_offset, -6
    1142 000001de A2BD          MOVL      *SP++,XAR3            ; [CPU_] 
    1143                      .dwcfi  save_reg_to_mem, 11, 6
    1144                      .dwcfi  cfa_offset, -8
    1145 000001df FE08          ADDB      SP,#8                 ; [CPU_U] 
    1146                      .dwcfi  cfa_offset, -16
    1147                      .dwpsn  file "C:/ti/motorware/motorware_1_01_00_14/sw/modules/user/src/32b/user.c",line 990,column 15
    1148 000001e0 D018          MOVB      XAR0,#24              ; [CPU_] |990| 
    1149                      .dwpsn  file "C:/ti/motorware/motorware_1_01_00_14/sw/modules/user/src/32b/user.c",line 987,column 1,
    1150 000001e1 8BA4          MOVL      XAR1,XAR4             ; [CPU_] |987| 
    1151 000001e2 1E42          MOVL      *-SP[2],ACC           ; [CPU_] |987| 
    1152 000001e3 0652          MOVL      ACC,*-SP[18]          ; [CPU_] |987| 
    1153 000001e4 1E44          MOVL      *-SP[4],ACC           ; [CPU_] |987| 
    1154                      .dwpsn  file "C:/ti/motorware/motorware_1_01_00_14/sw/modules/user/src/32b/user.c",line 990,column 15
    1155 000001e5 8A91          MOVL      XAR4,*+XAR1[AR0]      ; [CPU_] |990| 
    1156              $C$DW$103       .dwtag  DW_TAG_TI_branch
    1157                      .dwattr $C$DW$103, DW_AT_low_pc(0x00)
    1158                      .dwattr $C$DW$103, DW_AT_name("_EST_getFlux_pu")
TMS320C2000 Assembler PC v6.4.4 Wed Jul 08 10:37:11 2015

Tools Copyright (c) 1996-2015 Texas Instruments Incorporated
C:\Users\grant\AppData\Local\Temp\0209210                            PAGE   24

    1159                      .dwattr $C$DW$103, DW_AT_TI_call
    1160 000001e6 7640!         LCR       #_EST_getFlux_pu      ; [CPU_] |990| 
         000001e7 0000 
    1161                      ; call occurs [#_EST_getFlux_pu] ; [] |990| 
    1162                      .dwpsn  file "C:/ti/motorware/motorware_1_01_00_14/sw/modules/pid/src/32b/pid.h",line 106,column 3,is
    1163 000001e8 D020          MOVB      XAR0,#32              ; [CPU_] |106| 
    1164                      .dwpsn  file "C:/ti/motorware/motorware_1_01_00_14/sw/modules/user/src/32b/user.c",line 990,column 15
    1165 000001e9 1E46          MOVL      *-SP[6],ACC           ; [CPU_] |990| 
    1166                      .dwpsn  file "C:/ti/motorware/motorware_1_01_00_14/sw/modules/pid/src/32b/pid.h",line 106,column 3,is
    1167 000001ea 020A          MOVB      ACC,#10               ; [CPU_] |106| 
    1168 000001eb 0791          ADDL      ACC,*+XAR1[AR0]       ; [CPU_] |106| 
    1169 000001ec 8AA9          MOVL      XAR4,ACC              ; [CPU_] |106| 
    1170 000001ed D032          MOVB      XAR0,#50              ; [CPU_] |106| 
    1171 000001ee 020A          MOVB      ACC,#10               ; [CPU_] |106| 
    1172 000001ef 82C4          MOVL      XAR3,*+XAR4[0]        ; [CPU_] |106| 
    1173 000001f0 0791          ADDL      ACC,*+XAR1[AR0]       ; [CPU_] |106| 
    1174 000001f1 8AA9          MOVL      XAR4,ACC              ; [CPU_] |106| 
    1175                      .dwpsn  file "C:/ti/motorware/motorware_1_01_00_14/sw/modules/user/src/32b/user.c",line 993,column 22
    1176 000001f2 D018          MOVB      XAR0,#24              ; [CPU_] |993| 
    1177                      .dwpsn  file "C:/ti/motorware/motorware_1_01_00_14/sw/modules/pid/src/32b/pid.h",line 106,column 3,is
    1178 000001f3 86C4          MOVL      XAR2,*+XAR4[0]        ; [CPU_] |106| 
    1179                      .dwpsn  file "C:/ti/motorware/motorware_1_01_00_14/sw/modules/user/src/32b/user.c",line 993,column 22
    1180 000001f4 8A91          MOVL      XAR4,*+XAR1[AR0]      ; [CPU_] |993| 
    1181              $C$DW$104       .dwtag  DW_TAG_TI_branch
    1182                      .dwattr $C$DW$104, DW_AT_low_pc(0x00)
    1183                      .dwattr $C$DW$104, DW_AT_name("_EST_getLs_q_pu")
    1184                      .dwattr $C$DW$104, DW_AT_TI_call
    1185 000001f5 7640!         LCR       #_EST_getLs_q_pu      ; [CPU_] |993| 
         000001f6 0000 
    1186                      ; call occurs [#_EST_getLs_q_pu] ; [] |993| 
    1187 000001f7 D018          MOVB      XAR0,#24              ; [CPU_] |993| 
    1188 000001f8 1E48          MOVL      *-SP[8],ACC           ; [CPU_] |993| 
    1189 000001f9 8A91          MOVL      XAR4,*+XAR1[AR0]      ; [CPU_] |993| 
    1190              $C$DW$105       .dwtag  DW_TAG_TI_branch
    1191                      .dwattr $C$DW$105, DW_AT_low_pc(0x00)
    1192                      .dwattr $C$DW$105, DW_AT_name("_EST_getLs_d_pu")
    1193                      .dwattr $C$DW$105, DW_AT_TI_call
    1194 000001fa 7640!         LCR       #_EST_getLs_d_pu      ; [CPU_] |993| 
         000001fb 0000 
    1195                      ; call occurs [#_EST_getLs_d_pu] ; [] |993| 
    1196 000001fc C448          MOVL      XAR6,*-SP[8]          ; [CPU_] |993| 
    1197 000001fd 3B01          SETC      SXM                   ; [CPU_] 
    1198 000001fe 8746          MOVL      XT,*-SP[6]            ; [CPU_] |993| 
    1199 000001ff 03A6          SUBL      ACC,XAR6              ; [CPU_] |993| 
    1200                      .dwpsn  file "C:/ti/motorware/motorware_1_01_00_14/sw/modules/user/src/32b/user.c",line 998,column 3,
    1201 00000200 5605          IMPYL     P,XT,XAR2             ; [CPU_] |998| 
         00000201 00A2 
    1202                      .dwpsn  file "C:/ti/motorware/motorware_1_01_00_14/sw/modules/user/src/32b/user.c",line 993,column 22
    1203 00000202 FF45          SFR       ACC,6                 ; [CPU_] |993| 
    1204                      .dwpsn  file "C:/ti/motorware/motorware_1_01_00_14/sw/modules/user/src/32b/user.c",line 998,column 3,
    1205 00000203 C442          MOVL      XAR6,*-SP[2]          ; [CPU_] |998| 
    1206                      .dwpsn  file "C:/ti/motorware/motorware_1_01_00_14/sw/modules/user/src/32b/user.c",line 993,column 22
    1207 00000204 1EA7          MOVL      XAR7,ACC              ; [CPU_] |993| 
    1208                      .dwpsn  file "C:/ti/motorware/motorware_1_01_00_14/sw/modules/user/src/32b/user.c",line 998,column 3,
    1209 00000205 5663          QMPYL     ACC,XT,XAR2           ; [CPU_] |998| 
TMS320C2000 Assembler PC v6.4.4 Wed Jul 08 10:37:11 2015

Tools Copyright (c) 1996-2015 Texas Instruments Incorporated
C:\Users\grant\AppData\Local\Temp\0209210                            PAGE   25

         00000206 00A2 
    1210 00000207 56A7          LSL64     ACC:P,#8              ; [CPU_] |998| 
    1211 00000208 1EAC          MOVL      XT,ACC                ; [CPU_] |998| 
    1212 00000209 0642          MOVL      ACC,*-SP[2]           ; [CPU_] |998| 
    1213 0000020a 5605          IMPYL     P,XT,XAR6             ; [CPU_] |998| 
         0000020b 00A6 
    1214 0000020c 5663          QMPYL     ACC,XT,ACC            ; [CPU_] |998| 
         0000020d 00A9 
    1215 0000020e 56A7          LSL64     ACC:P,#8              ; [CPU_] |998| 
    1216 0000020f 87A7          MOVL      XT,XAR7               ; [CPU_] |998| 
    1217 00000210 1EA6          MOVL      XAR6,ACC              ; [CPU_] |998| 
    1218 00000211 C544          MOVL      XAR7,*-SP[4]          ; [CPU_] |998| 
    1219 00000212 5605          IMPYL     P,XT,XAR3             ; [CPU_] |998| 
         00000213 00A3 
    1220 00000214 5663          QMPYL     ACC,XT,XAR3           ; [CPU_] |998| 
         00000215 00A3 
    1221 00000216 56A7          LSL64     ACC:P,#8              ; [CPU_] |998| 
    1222 00000217 1EAC          MOVL      XT,ACC                ; [CPU_] |998| 
    1223 00000218 5605          IMPYL     P,XT,XAR2             ; [CPU_] |998| 
         00000219 00A2 
    1224 0000021a 5663          QMPYL     ACC,XT,XAR2           ; [CPU_] |998| 
         0000021b 00A2 
    1225 0000021c 56A7          LSL64     ACC:P,#8              ; [CPU_] |998| 
    1226 0000021d 1EAC          MOVL      XT,ACC                ; [CPU_] |998| 
    1227 0000021e 0644          MOVL      ACC,*-SP[4]           ; [CPU_] |998| 
    1228 0000021f 5605          IMPYL     P,XT,XAR7             ; [CPU_] |998| 
         00000220 00A7 
    1229 00000221 5663          QMPYL     ACC,XT,ACC            ; [CPU_] |998| 
         00000222 00A9 
    1230 00000223 56A7          LSL64     ACC:P,#8              ; [CPU_] |998| 
    1231 00000224 07A6          ADDL      ACC,XAR6              ; [CPU_] |998| 
    1232 00000225 FE88          SUBB      SP,#8                 ; [CPU_U] 
    1233                      .dwcfi  cfa_offset, -8
    1234 00000226 1EAC          MOVL      XT,ACC                ; [CPU_] |998| 
    1235 00000227 28A9          MOV       AL,#51840             ; [CPU_] |998| 
         00000228 CA80 
    1236 00000229 28A8          MOV       AH,#2265              ; [CPU_] |998| 
         0000022a 08D9 
    1237 0000022b 5605          IMPYL     P,XT,ACC              ; [CPU_] |998| 
         0000022c 00A9 
    1238 0000022d 82BE          MOVL      XAR3,*--SP            ; [CPU_] 
    1239                      .dwcfi  cfa_offset, -6
    1240                      .dwcfi  restore_reg, 11
    1241 0000022e 5663          QMPYL     ACC,XT,ACC            ; [CPU_] |998| 
         0000022f 00A9 
    1242 00000230 56A7          LSL64     ACC:P,#8              ; [CPU_] |998| 
    1243 00000231 86BE          MOVL      XAR2,*--SP            ; [CPU_] 
    1244                      .dwcfi  cfa_offset, -4
    1245                      .dwcfi  restore_reg, 9
    1246 00000232 8BBE          MOVL      XAR1,*--SP            ; [CPU_] 
    1247                      .dwcfi  cfa_offset, -2
    1248                      .dwcfi  restore_reg, 7
    1249              $C$DW$106       .dwtag  DW_TAG_TI_branch
    1250                      .dwattr $C$DW$106, DW_AT_low_pc(0x00)
    1251                      .dwattr $C$DW$106, DW_AT_TI_return
TMS320C2000 Assembler PC v6.4.4 Wed Jul 08 10:37:11 2015

Tools Copyright (c) 1996-2015 Texas Instruments Incorporated
C:\Users\grant\AppData\Local\Temp\0209210                            PAGE   26

    1252 00000233 0006          LRETR     ; [CPU_] 
    1253                      ; return occurs ; [] 
    1254                      .dwattr $C$DW$92, DW_AT_TI_end_file("C:/ti/motorware/motorware_1_01_00_14/sw/modules/user/src/32b/use
    1255                      .dwattr $C$DW$92, DW_AT_TI_end_line(0x3e7)
    1256                      .dwattr $C$DW$92, DW_AT_TI_end_column(0x01)
    1257                      .dwendentry
    1258                      .dwendtag $C$DW$92
    1259              
    1260 00000234               .sect   ".text"
    1261                      .clink
    1262                      .global _USER_computeTorque_Nm
    1263              
    1264              $C$DW$107       .dwtag  DW_TAG_subprogram, DW_AT_name("USER_computeTorque_Nm")
    1265                      .dwattr $C$DW$107, DW_AT_low_pc(_USER_computeTorque_Nm)
    1266                      .dwattr $C$DW$107, DW_AT_high_pc(0x00)
    1267                      .dwattr $C$DW$107, DW_AT_TI_symbol_name("_USER_computeTorque_Nm")
    1268                      .dwattr $C$DW$107, DW_AT_external
    1269                      .dwattr $C$DW$107, DW_AT_type(*$C$DW$T$20)
    1270                      .dwattr $C$DW$107, DW_AT_TI_begin_file("C:/ti/motorware/motorware_1_01_00_14/sw/modules/user/src/32b/
    1271                      .dwattr $C$DW$107, DW_AT_TI_begin_line(0x3c8)
    1272                      .dwattr $C$DW$107, DW_AT_TI_begin_column(0x05)
    1273                      .dwattr $C$DW$107, DW_AT_TI_max_frame_size(-16)
    1274                      .dwpsn  file "C:/ti/motorware/motorware_1_01_00_14/sw/modules/user/src/32b/user.c",line 969,column 1,
    1275              
    1276                      .dwfde $C$DW$CIE, _USER_computeTorque_Nm
    1277              $C$DW$108       .dwtag  DW_TAG_formal_parameter, DW_AT_name("handle")
    1278                      .dwattr $C$DW$108, DW_AT_TI_symbol_name("_handle")
    1279                      .dwattr $C$DW$108, DW_AT_type(*$C$DW$T$87)
    1280                      .dwattr $C$DW$108, DW_AT_location[DW_OP_reg12]
    1281              $C$DW$109       .dwtag  DW_TAG_formal_parameter, DW_AT_name("torque_Flux_sf")
    1282                      .dwattr $C$DW$109, DW_AT_TI_symbol_name("_torque_Flux_sf")
    1283                      .dwattr $C$DW$109, DW_AT_type(*$C$DW$T$93)
    1284                      .dwattr $C$DW$109, DW_AT_location[DW_OP_reg0]
    1285              $C$DW$110       .dwtag  DW_TAG_formal_parameter, DW_AT_name("torque_Ls_sf")
    1286                      .dwattr $C$DW$110, DW_AT_TI_symbol_name("_torque_Ls_sf")
    1287                      .dwattr $C$DW$110, DW_AT_type(*$C$DW$T$93)
    1288                      .dwattr $C$DW$110, DW_AT_location[DW_OP_breg20 -18]
    1289              
    1290              ;***************************************************************
    1291              ;* FNAME: _USER_computeTorque_Nm        FR SIZE:  14           *
    1292              ;*                                                             *
    1293              ;* FUNCTION ENVIRONMENT                                        *
    1294              ;*                                                             *
    1295              ;* FUNCTION PROPERTIES                                         *
    1296              ;*                            0 Parameter,  8 Auto,  6 SOE     *
    1297              ;***************************************************************
    1298              
    1299              _USER_computeTorque_Nm:
    1300              ;* AR1   assigned to _handle
    1301              $C$DW$111       .dwtag  DW_TAG_variable, DW_AT_name("handle")
    1302                      .dwattr $C$DW$111, DW_AT_TI_symbol_name("_handle")
    1303                      .dwattr $C$DW$111, DW_AT_type(*$C$DW$T$88)
    1304                      .dwattr $C$DW$111, DW_AT_location[DW_OP_reg6]
    1305              $C$DW$112       .dwtag  DW_TAG_variable, DW_AT_name("torque_Flux_sf")
    1306                      .dwattr $C$DW$112, DW_AT_TI_symbol_name("_torque_Flux_sf")
TMS320C2000 Assembler PC v6.4.4 Wed Jul 08 10:37:11 2015

Tools Copyright (c) 1996-2015 Texas Instruments Incorporated
C:\Users\grant\AppData\Local\Temp\0209210                            PAGE   27

    1307                      .dwattr $C$DW$112, DW_AT_type(*$C$DW$T$93)
    1308                      .dwattr $C$DW$112, DW_AT_location[DW_OP_breg20 -2]
    1309              $C$DW$113       .dwtag  DW_TAG_variable, DW_AT_name("torque_Ls_sf")
    1310                      .dwattr $C$DW$113, DW_AT_TI_symbol_name("_torque_Ls_sf")
    1311                      .dwattr $C$DW$113, DW_AT_type(*$C$DW$T$93)
    1312                      .dwattr $C$DW$113, DW_AT_location[DW_OP_breg20 -4]
    1313              $C$DW$114       .dwtag  DW_TAG_variable, DW_AT_name("Flux_pu")
    1314                      .dwattr $C$DW$114, DW_AT_TI_symbol_name("_Flux_pu")
    1315                      .dwattr $C$DW$114, DW_AT_type(*$C$DW$T$20)
    1316                      .dwattr $C$DW$114, DW_AT_location[DW_OP_breg20 -6]
    1317              ;* AR3   assigned to _Id_pu
    1318              $C$DW$115       .dwtag  DW_TAG_variable, DW_AT_name("Id_pu")
    1319                      .dwattr $C$DW$115, DW_AT_TI_symbol_name("_Id_pu")
    1320                      .dwattr $C$DW$115, DW_AT_type(*$C$DW$T$20)
    1321                      .dwattr $C$DW$115, DW_AT_location[DW_OP_reg10]
    1322              ;* AR2   assigned to _Iq_pu
    1323              $C$DW$116       .dwtag  DW_TAG_variable, DW_AT_name("Iq_pu")
    1324                      .dwattr $C$DW$116, DW_AT_TI_symbol_name("_Iq_pu")
    1325                      .dwattr $C$DW$116, DW_AT_type(*$C$DW$T$20)
    1326                      .dwattr $C$DW$116, DW_AT_location[DW_OP_reg8]
    1327              ;* AR7   assigned to _Ld_minus_Lq_pu
    1328              $C$DW$117       .dwtag  DW_TAG_variable, DW_AT_name("Ld_minus_Lq_pu")
    1329                      .dwattr $C$DW$117, DW_AT_TI_symbol_name("_Ld_minus_Lq_pu")
    1330                      .dwattr $C$DW$117, DW_AT_type(*$C$DW$T$20)
    1331                      .dwattr $C$DW$117, DW_AT_location[DW_OP_reg18]
    1332                      .dwcfi  cfa_offset, -2
    1333                      .dwcfi  save_reg_to_mem, 26, 0
    1334 00000234 B2BD          MOVL      *SP++,XAR1            ; [CPU_] 
    1335                      .dwcfi  save_reg_to_mem, 7, 2
    1336                      .dwcfi  cfa_offset, -4
    1337 00000235 AABD          MOVL      *SP++,XAR2            ; [CPU_] 
    1338                      .dwcfi  save_reg_to_mem, 9, 4
    1339                      .dwcfi  cfa_offset, -6
    1340 00000236 A2BD          MOVL      *SP++,XAR3            ; [CPU_] 
    1341                      .dwcfi  save_reg_to_mem, 11, 6
    1342                      .dwcfi  cfa_offset, -8
    1343 00000237 FE08          ADDB      SP,#8                 ; [CPU_U] 
    1344                      .dwcfi  cfa_offset, -16
    1345                      .dwpsn  file "C:/ti/motorware/motorware_1_01_00_14/sw/modules/user/src/32b/user.c",line 972,column 15
    1346 00000238 D018          MOVB      XAR0,#24              ; [CPU_] |972| 
    1347                      .dwpsn  file "C:/ti/motorware/motorware_1_01_00_14/sw/modules/user/src/32b/user.c",line 969,column 1,
    1348 00000239 8BA4          MOVL      XAR1,XAR4             ; [CPU_] |969| 
    1349 0000023a 1E42          MOVL      *-SP[2],ACC           ; [CPU_] |969| 
    1350 0000023b 0652          MOVL      ACC,*-SP[18]          ; [CPU_] |969| 
    1351 0000023c 1E44          MOVL      *-SP[4],ACC           ; [CPU_] |969| 
    1352                      .dwpsn  file "C:/ti/motorware/motorware_1_01_00_14/sw/modules/user/src/32b/user.c",line 972,column 15
    1353 0000023d 8A91          MOVL      XAR4,*+XAR1[AR0]      ; [CPU_] |972| 
    1354              $C$DW$118       .dwtag  DW_TAG_TI_branch
    1355                      .dwattr $C$DW$118, DW_AT_low_pc(0x00)
    1356                      .dwattr $C$DW$118, DW_AT_name("_EST_getFlux_pu")
    1357                      .dwattr $C$DW$118, DW_AT_TI_call
    1358 0000023e 7640!         LCR       #_EST_getFlux_pu      ; [CPU_] |972| 
         0000023f 0000 
    1359                      ; call occurs [#_EST_getFlux_pu] ; [] |972| 
    1360                      .dwpsn  file "C:/ti/motorware/motorware_1_01_00_14/sw/modules/pid/src/32b/pid.h",line 106,column 3,is
TMS320C2000 Assembler PC v6.4.4 Wed Jul 08 10:37:11 2015

Tools Copyright (c) 1996-2015 Texas Instruments Incorporated
C:\Users\grant\AppData\Local\Temp\0209210                            PAGE   28

    1361 00000240 D020          MOVB      XAR0,#32              ; [CPU_] |106| 
    1362                      .dwpsn  file "C:/ti/motorware/motorware_1_01_00_14/sw/modules/user/src/32b/user.c",line 972,column 15
    1363 00000241 1E46          MOVL      *-SP[6],ACC           ; [CPU_] |972| 
    1364                      .dwpsn  file "C:/ti/motorware/motorware_1_01_00_14/sw/modules/pid/src/32b/pid.h",line 106,column 3,is
    1365 00000242 020A          MOVB      ACC,#10               ; [CPU_] |106| 
    1366 00000243 0791          ADDL      ACC,*+XAR1[AR0]       ; [CPU_] |106| 
    1367 00000244 8AA9          MOVL      XAR4,ACC              ; [CPU_] |106| 
    1368 00000245 D032          MOVB      XAR0,#50              ; [CPU_] |106| 
    1369 00000246 020A          MOVB      ACC,#10               ; [CPU_] |106| 
    1370 00000247 82C4          MOVL      XAR3,*+XAR4[0]        ; [CPU_] |106| 
    1371 00000248 0791          ADDL      ACC,*+XAR1[AR0]       ; [CPU_] |106| 
    1372 00000249 8AA9          MOVL      XAR4,ACC              ; [CPU_] |106| 
    1373                      .dwpsn  file "C:/ti/motorware/motorware_1_01_00_14/sw/modules/user/src/32b/user.c",line 975,column 22
    1374 0000024a D018          MOVB      XAR0,#24              ; [CPU_] |975| 
    1375                      .dwpsn  file "C:/ti/motorware/motorware_1_01_00_14/sw/modules/pid/src/32b/pid.h",line 106,column 3,is
    1376 0000024b 86C4          MOVL      XAR2,*+XAR4[0]        ; [CPU_] |106| 
    1377                      .dwpsn  file "C:/ti/motorware/motorware_1_01_00_14/sw/modules/user/src/32b/user.c",line 975,column 22
    1378 0000024c 8A91          MOVL      XAR4,*+XAR1[AR0]      ; [CPU_] |975| 
    1379              $C$DW$119       .dwtag  DW_TAG_TI_branch
    1380                      .dwattr $C$DW$119, DW_AT_low_pc(0x00)
    1381                      .dwattr $C$DW$119, DW_AT_name("_EST_getLs_q_pu")
    1382                      .dwattr $C$DW$119, DW_AT_TI_call
    1383 0000024d 7640!         LCR       #_EST_getLs_q_pu      ; [CPU_] |975| 
         0000024e 0000 
    1384                      ; call occurs [#_EST_getLs_q_pu] ; [] |975| 
    1385 0000024f D018          MOVB      XAR0,#24              ; [CPU_] |975| 
    1386 00000250 1E48          MOVL      *-SP[8],ACC           ; [CPU_] |975| 
    1387 00000251 8A91          MOVL      XAR4,*+XAR1[AR0]      ; [CPU_] |975| 
    1388              $C$DW$120       .dwtag  DW_TAG_TI_branch
    1389                      .dwattr $C$DW$120, DW_AT_low_pc(0x00)
    1390                      .dwattr $C$DW$120, DW_AT_name("_EST_getLs_d_pu")
    1391                      .dwattr $C$DW$120, DW_AT_TI_call
    1392 00000252 7640!         LCR       #_EST_getLs_d_pu      ; [CPU_] |975| 
         00000253 0000 
    1393                      ; call occurs [#_EST_getLs_d_pu] ; [] |975| 
    1394 00000254 C448          MOVL      XAR6,*-SP[8]          ; [CPU_] |975| 
    1395 00000255 3B01          SETC      SXM                   ; [CPU_] 
    1396 00000256 8746          MOVL      XT,*-SP[6]            ; [CPU_] |975| 
    1397 00000257 03A6          SUBL      ACC,XAR6              ; [CPU_] |975| 
    1398                      .dwpsn  file "C:/ti/motorware/motorware_1_01_00_14/sw/modules/user/src/32b/user.c",line 980,column 3,
    1399 00000258 5605          IMPYL     P,XT,XAR2             ; [CPU_] |980| 
         00000259 00A2 
    1400                      .dwpsn  file "C:/ti/motorware/motorware_1_01_00_14/sw/modules/user/src/32b/user.c",line 975,column 22
    1401 0000025a FF45          SFR       ACC,6                 ; [CPU_] |975| 
    1402                      .dwpsn  file "C:/ti/motorware/motorware_1_01_00_14/sw/modules/user/src/32b/user.c",line 980,column 3,
    1403 0000025b C442          MOVL      XAR6,*-SP[2]          ; [CPU_] |980| 
    1404                      .dwpsn  file "C:/ti/motorware/motorware_1_01_00_14/sw/modules/user/src/32b/user.c",line 975,column 22
    1405 0000025c 1EA7          MOVL      XAR7,ACC              ; [CPU_] |975| 
    1406                      .dwpsn  file "C:/ti/motorware/motorware_1_01_00_14/sw/modules/user/src/32b/user.c",line 980,column 3,
    1407 0000025d 5663          QMPYL     ACC,XT,XAR2           ; [CPU_] |980| 
         0000025e 00A2 
    1408 0000025f 56A7          LSL64     ACC:P,#8              ; [CPU_] |980| 
    1409 00000260 1EAC          MOVL      XT,ACC                ; [CPU_] |980| 
    1410 00000261 0642          MOVL      ACC,*-SP[2]           ; [CPU_] |980| 
    1411 00000262 5605          IMPYL     P,XT,XAR6             ; [CPU_] |980| 
TMS320C2000 Assembler PC v6.4.4 Wed Jul 08 10:37:11 2015

Tools Copyright (c) 1996-2015 Texas Instruments Incorporated
C:\Users\grant\AppData\Local\Temp\0209210                            PAGE   29

         00000263 00A6 
    1412 00000264 5663          QMPYL     ACC,XT,ACC            ; [CPU_] |980| 
         00000265 00A9 
    1413 00000266 56A7          LSL64     ACC:P,#8              ; [CPU_] |980| 
    1414 00000267 87A7          MOVL      XT,XAR7               ; [CPU_] |980| 
    1415 00000268 1EA6          MOVL      XAR6,ACC              ; [CPU_] |980| 
    1416 00000269 C544          MOVL      XAR7,*-SP[4]          ; [CPU_] |980| 
    1417 0000026a 5605          IMPYL     P,XT,XAR3             ; [CPU_] |980| 
         0000026b 00A3 
    1418 0000026c 5663          QMPYL     ACC,XT,XAR3           ; [CPU_] |980| 
         0000026d 00A3 
    1419 0000026e 56A7          LSL64     ACC:P,#8              ; [CPU_] |980| 
    1420 0000026f FE88          SUBB      SP,#8                 ; [CPU_U] 
    1421                      .dwcfi  cfa_offset, -8
    1422 00000270 1EAC          MOVL      XT,ACC                ; [CPU_] |980| 
    1423 00000271 5605          IMPYL     P,XT,XAR2             ; [CPU_] |980| 
         00000272 00A2 
    1424 00000273 5663          QMPYL     ACC,XT,XAR2           ; [CPU_] |980| 
         00000274 00A2 
    1425 00000275 82BE          MOVL      XAR3,*--SP            ; [CPU_] 
    1426                      .dwcfi  cfa_offset, -6
    1427                      .dwcfi  restore_reg, 11
    1428 00000276 56A7          LSL64     ACC:P,#8              ; [CPU_] |980| 
    1429 00000277 1EAC          MOVL      XT,ACC                ; [CPU_] |980| 
    1430 00000278 86BE          MOVL      XAR2,*--SP            ; [CPU_] 
    1431                      .dwcfi  cfa_offset, -4
    1432                      .dwcfi  restore_reg, 9
    1433 00000279 5605          IMPYL     P,XT,XAR7             ; [CPU_] |980| 
         0000027a 00A7 
    1434 0000027b 5663          QMPYL     ACC,XT,XAR7           ; [CPU_] |980| 
         0000027c 00A7 
    1435 0000027d 56A7          LSL64     ACC:P,#8              ; [CPU_] |980| 
    1436 0000027e 8BBE          MOVL      XAR1,*--SP            ; [CPU_] 
    1437                      .dwcfi  cfa_offset, -2
    1438                      .dwcfi  restore_reg, 7
    1439 0000027f 07A6          ADDL      ACC,XAR6              ; [CPU_] |980| 
    1440              $C$DW$121       .dwtag  DW_TAG_TI_branch
    1441                      .dwattr $C$DW$121, DW_AT_low_pc(0x00)
    1442                      .dwattr $C$DW$121, DW_AT_TI_return
    1443 00000280 0006          LRETR     ; [CPU_] 
    1444                      ; return occurs ; [] 
    1445                      .dwattr $C$DW$107, DW_AT_TI_end_file("C:/ti/motorware/motorware_1_01_00_14/sw/modules/user/src/32b/us
    1446                      .dwattr $C$DW$107, DW_AT_TI_end_line(0x3d5)
    1447                      .dwattr $C$DW$107, DW_AT_TI_end_column(0x01)
    1448                      .dwendentry
    1449                      .dwendtag $C$DW$107
    1450              
    1451 00000281               .sect   ".text"
    1452                      .clink
    1453                      .global _USER_computeTorque_Ls_Id_Iq_pu_to_Nm_sf
    1454              
    1455              $C$DW$122       .dwtag  DW_TAG_subprogram, DW_AT_name("USER_computeTorque_Ls_Id_Iq_pu_to_Nm_sf")
    1456                      .dwattr $C$DW$122, DW_AT_low_pc(_USER_computeTorque_Ls_Id_Iq_pu_to_Nm_sf)
    1457                      .dwattr $C$DW$122, DW_AT_high_pc(0x00)
    1458                      .dwattr $C$DW$122, DW_AT_TI_symbol_name("_USER_computeTorque_Ls_Id_Iq_pu_to_Nm_sf")
TMS320C2000 Assembler PC v6.4.4 Wed Jul 08 10:37:11 2015

Tools Copyright (c) 1996-2015 Texas Instruments Incorporated
C:\Users\grant\AppData\Local\Temp\0209210                            PAGE   30

    1459                      .dwattr $C$DW$122, DW_AT_external
    1460                      .dwattr $C$DW$122, DW_AT_type(*$C$DW$T$20)
    1461                      .dwattr $C$DW$122, DW_AT_TI_begin_file("C:/ti/motorware/motorware_1_01_00_14/sw/modules/user/src/32b/
    1462                      .dwattr $C$DW$122, DW_AT_TI_begin_line(0x38d)
    1463                      .dwattr $C$DW$122, DW_AT_TI_begin_column(0x05)
    1464                      .dwattr $C$DW$122, DW_AT_TI_max_frame_size(-16)
    1465                      .dwpsn  file "C:/ti/motorware/motorware_1_01_00_14/sw/modules/user/src/32b/user.c",line 910,column 1,
    1466              
    1467                      .dwfde $C$DW$CIE, _USER_computeTorque_Ls_Id_Iq_pu_to_Nm_sf
    1468              
    1469              ;***************************************************************
    1470              ;* FNAME: _USER_computeTorque_Ls_Id_Iq_pu_to_Nm_sf FR SIZE:  14           *
    1471              ;*                                                             *
    1472              ;* FUNCTION ENVIRONMENT                                        *
    1473              ;*                                                             *
    1474              ;* FUNCTION PROPERTIES                                         *
    1475              ;*                            2 Parameter, 10 Auto,  2 SOE     *
    1476              ;***************************************************************
    1477              
    1478              _USER_computeTorque_Ls_Id_Iq_pu_to_Nm_sf:
    1479              ;* AL    assigned to _ceil_result
    1480              $C$DW$123       .dwtag  DW_TAG_variable, DW_AT_name("ceil_result")
    1481                      .dwattr $C$DW$123, DW_AT_TI_symbol_name("_ceil_result")
    1482                      .dwattr $C$DW$123, DW_AT_type(*$C$DW$T$17)
    1483                      .dwattr $C$DW$123, DW_AT_location[DW_OP_reg0]
    1484              $C$DW$124       .dwtag  DW_TAG_variable, DW_AT_name("ceil_y")
    1485                      .dwattr $C$DW$124, DW_AT_TI_symbol_name("_ceil_y")
    1486                      .dwattr $C$DW$124, DW_AT_type(*$C$DW$T$17)
    1487                      .dwattr $C$DW$124, DW_AT_location[DW_OP_breg20 -4]
    1488                      .dwcfi  cfa_offset, -2
    1489                      .dwcfi  save_reg_to_mem, 26, 0
    1490 00000281 B2BD          MOVL      *SP++,XAR1            ; [CPU_] 
    1491                      .dwcfi  save_reg_to_mem, 7, 2
    1492                      .dwcfi  cfa_offset, -4
    1493 00000282 FE0C          ADDB      SP,#12                ; [CPU_U] 
    1494                      .dwcfi  cfa_offset, -16
    1495                      .dwpsn  file "C:/ti/motorware/motorware_1_01_00_14/sw/modules/user/src/32b/user.c",line 913,column 18
    1496 00000283 28A9          MOV       AL,#4618              ; [CPU_] |913| 
         00000284 120A 
    1497 00000285 28A8          MOV       AH,#16164             ; [CPU_] |913| 
         00000286 3F24 
    1498              $C$DW$125       .dwtag  DW_TAG_TI_branch
    1499                      .dwattr $C$DW$125, DW_AT_low_pc(0x00)
    1500                      .dwattr $C$DW$125, DW_AT_name("_log")
    1501                      .dwattr $C$DW$125, DW_AT_TI_call
    1502 00000287 7640!         LCR       #_log                 ; [CPU_] |913| 
         00000288 0000 
    1503                      ; call occurs [#_log] ; [] |913| 
    1504 00000289 8BA9          MOVL      XAR1,ACC              ; [CPU_] |913| 
    1505 0000028a 9A00          MOV       AL,#0                 ; [CPU_] |913| 
    1506 0000028b 28A8          MOV       AH,#16384             ; [CPU_] |913| 
         0000028c 4000 
    1507              $C$DW$126       .dwtag  DW_TAG_TI_branch
    1508                      .dwattr $C$DW$126, DW_AT_low_pc(0x00)
    1509                      .dwattr $C$DW$126, DW_AT_name("_log")
TMS320C2000 Assembler PC v6.4.4 Wed Jul 08 10:37:11 2015

Tools Copyright (c) 1996-2015 Texas Instruments Incorporated
C:\Users\grant\AppData\Local\Temp\0209210                            PAGE   31

    1510                      .dwattr $C$DW$126, DW_AT_TI_call
    1511 0000028d 7640!         LCR       #_log                 ; [CPU_] |913| 
         0000028e 0000 
    1512                      ; call occurs [#_log] ; [] |913| 
    1513 0000028f 1E42          MOVL      *-SP[2],ACC           ; [CPU_] |913| 
    1514 00000290 B2A9          MOVL      ACC,XAR1              ; [CPU_] |913| 
    1515              $C$DW$127       .dwtag  DW_TAG_TI_branch
    1516                      .dwattr $C$DW$127, DW_AT_low_pc(0x00)
    1517                      .dwattr $C$DW$127, DW_AT_name("FS$$DIV")
    1518                      .dwattr $C$DW$127, DW_AT_TI_call
    1519 00000291 7640!         LCR       #FS$$DIV              ; [CPU_] |913| 
         00000292 0000 
    1520                      ; call occurs [#FS$$DIV] ; [] |913| 
    1521                      .dwpsn  file "C:/ti/ccsv6/tools/compiler/ti-cgt-c2000_6.4.4/include/math.h",line 143,column 14,is_stm
    1522 00000293 5CAD          MOVZ      AR4,SP                ; [CPU_] |143| 
    1523 00000294 DC84          SUBB      XAR4,#4               ; [CPU_U] |143| 
    1524 00000295 5CA4          MOVZ      AR4,AR4               ; [CPU_] |143| 
    1525              $C$DW$128       .dwtag  DW_TAG_TI_branch
    1526                      .dwattr $C$DW$128, DW_AT_low_pc(0x00)
    1527                      .dwattr $C$DW$128, DW_AT_name("_modf")
    1528                      .dwattr $C$DW$128, DW_AT_TI_call
    1529 00000296 7640!         LCR       #_modf                ; [CPU_] |143| 
         00000297 0000 
    1530                      ; call occurs [#_modf] ; [] |143| 
    1531 00000298 1EA6          MOVL      XAR6,ACC              ; [CPU_] |143| 
    1532 00000299 9A00          MOV       AL,#0                 ; [CPU_] |143| 
    1533 0000029a 9B00          MOV       AH,#0                 ; [CPU_] |143| 
    1534 0000029b 1E42          MOVL      *-SP[2],ACC           ; [CPU_] |143| 
    1535 0000029c 06A6          MOVL      ACC,XAR6              ; [CPU_] |143| 
    1536              $C$DW$129       .dwtag  DW_TAG_TI_branch
    1537                      .dwattr $C$DW$129, DW_AT_low_pc(0x00)
    1538                      .dwattr $C$DW$129, DW_AT_name("FS$$CMP")
    1539                      .dwattr $C$DW$129, DW_AT_TI_call
    1540 0000029d 7640!         LCR       #FS$$CMP              ; [CPU_] |143| 
         0000029e 0000 
    1541                      ; call occurs [#FS$$CMP] ; [] |143| 
    1542 0000029f 5200          CMPB      AL,#0                 ; [CPU_] |143| 
    1543 000002a0 56C2          BF        $C$L3,GT              ; [CPU_] |143| 
         000002a1 0004 
    1544                      ; branchcc occurs ; [] |143| 
    1545                      .dwpsn  file "C:/ti/ccsv6/tools/compiler/ti-cgt-c2000_6.4.4/include/math.h",line 150,column 18,is_stm
    1546 000002a2 0644          MOVL      ACC,*-SP[4]           ; [CPU_] |150| 
    1547 000002a3 6F07          B         $C$L4,UNC             ; [CPU_] |150| 
    1548                      ; branch occurs ; [] |150| 
    1549 000002a4       $C$L3:    
    1550                      .dwpsn  file "C:/ti/ccsv6/tools/compiler/ti-cgt-c2000_6.4.4/include/math.h",line 146,column 18,is_stm
    1551 000002a4 FF2F          MOV       ACC,#32512 << 15      ; [CPU_] |146| 
         000002a5 7F00 
    1552 000002a6 1E42          MOVL      *-SP[2],ACC           ; [CPU_] |146| 
    1553 000002a7 0644          MOVL      ACC,*-SP[4]           ; [CPU_] |146| 
    1554              $C$DW$130       .dwtag  DW_TAG_TI_branch
    1555                      .dwattr $C$DW$130, DW_AT_low_pc(0x00)
    1556                      .dwattr $C$DW$130, DW_AT_name("FS$$ADD")
    1557                      .dwattr $C$DW$130, DW_AT_TI_call
    1558 000002a8 7640!         LCR       #FS$$ADD              ; [CPU_] |146| 
TMS320C2000 Assembler PC v6.4.4 Wed Jul 08 10:37:11 2015

Tools Copyright (c) 1996-2015 Texas Instruments Incorporated
C:\Users\grant\AppData\Local\Temp\0209210                            PAGE   32

         000002a9 0000 
    1559                      ; call occurs [#FS$$ADD] ; [] |146| 
    1560 000002aa       $C$L4:    
    1561                      .dwpsn  file "C:/ti/motorware/motorware_1_01_00_14/sw/modules/user/src/32b/user.c",line 915,column 3,
    1562 000002aa 1E42          MOVL      *-SP[2],ACC           ; [CPU_] |915| 
    1563 000002ab 9A00          MOV       AL,#0                 ; [CPU_] |915| 
    1564 000002ac 28A8          MOV       AH,#16384             ; [CPU_] |915| 
         000002ad 4000 
    1565              $C$DW$131       .dwtag  DW_TAG_TI_branch
    1566                      .dwattr $C$DW$131, DW_AT_low_pc(0x00)
    1567                      .dwattr $C$DW$131, DW_AT_name("_pow")
    1568                      .dwattr $C$DW$131, DW_AT_TI_call
    1569 000002ae 7640!         LCR       #_pow                 ; [CPU_] |915| 
         000002af 0000 
    1570                      ; call occurs [#_pow] ; [] |915| 
    1571 000002b0 1EA6          MOVL      XAR6,ACC              ; [CPU_] |915| 
    1572 000002b1 28A9          MOV       AL,#57821             ; [CPU_] |915| 
         000002b2 E1DD 
    1573 000002b3 28A8          MOV       AH,#16288             ; [CPU_] |915| 
         000002b4 3FA0 
    1574 000002b5 1E42          MOVL      *-SP[2],ACC           ; [CPU_] |915| 
    1575 000002b6 06A6          MOVL      ACC,XAR6              ; [CPU_] |915| 
    1576              $C$DW$132       .dwtag  DW_TAG_TI_branch
    1577                      .dwattr $C$DW$132, DW_AT_low_pc(0x00)
    1578                      .dwattr $C$DW$132, DW_AT_name("FS$$MPY")
    1579                      .dwattr $C$DW$132, DW_AT_TI_call
    1580 000002b7 7640!         LCR       #FS$$MPY              ; [CPU_] |915| 
         000002b8 0000 
    1581                      ; call occurs [#FS$$MPY] ; [] |915| 
    1582 000002b9 5CAD          MOVZ      AR4,SP                ; [CPU_] |915| 
    1583 000002ba DC8C          SUBB      XAR4,#12              ; [CPU_U] |915| 
    1584 000002bb 88A4          MOVZ      AR6,AR4               ; [CPU_] |915| 
    1585              $C$DW$133       .dwtag  DW_TAG_TI_branch
    1586                      .dwattr $C$DW$133, DW_AT_low_pc(0x00)
    1587                      .dwattr $C$DW$133, DW_AT_name("FS$$TOFD")
    1588                      .dwattr $C$DW$133, DW_AT_TI_call
    1589 000002bc 7640!         LCR       #FS$$TOFD             ; [CPU_] |915| 
         000002bd 0000 
    1590                      ; call occurs [#FS$$TOFD] ; [] |915| 
    1591 000002be 5DAD          MOVZ      AR5,SP                ; [CPU_] |915| 
    1592 000002bf 5CAD          MOVZ      AR4,SP                ; [CPU_] |915| 
    1593 000002c0 DD88          SUBB      XAR5,#8               ; [CPU_U] |915| 
    1594 000002c1 DC8C          SUBB      XAR4,#12              ; [CPU_U] |915| 
    1595 000002c2 88A5          MOVZ      AR6,AR5               ; [CPU_] |915| 
    1596 000002c3 5CA4          MOVZ      AR4,AR4               ; [CPU_] |915| 
    1597 000002c4 8F40+         MOVL      XAR5,#$C$FL2          ; [CPU_U] |915| 
         000002c5 0004 
    1598              $C$DW$134       .dwtag  DW_TAG_TI_branch
    1599                      .dwattr $C$DW$134, DW_AT_low_pc(0x00)
    1600                      .dwattr $C$DW$134, DW_AT_name("FD$$MPY")
    1601                      .dwattr $C$DW$134, DW_AT_TI_call
    1602 000002c6 7640!         LCR       #FD$$MPY              ; [CPU_] |915| 
         000002c7 0000 
    1603                      ; call occurs [#FD$$MPY] ; [] |915| 
    1604 000002c8 5CAD          MOVZ      AR4,SP                ; [CPU_] |915| 
TMS320C2000 Assembler PC v6.4.4 Wed Jul 08 10:37:11 2015

Tools Copyright (c) 1996-2015 Texas Instruments Incorporated
C:\Users\grant\AppData\Local\Temp\0209210                            PAGE   33

    1605 000002c9 DC88          SUBB      XAR4,#8               ; [CPU_U] |915| 
    1606 000002ca 5CA4          MOVZ      AR4,AR4               ; [CPU_] |915| 
    1607              $C$DW$135       .dwtag  DW_TAG_TI_branch
    1608                      .dwattr $C$DW$135, DW_AT_low_pc(0x00)
    1609                      .dwattr $C$DW$135, DW_AT_name("FD$$TOL")
    1610                      .dwattr $C$DW$135, DW_AT_TI_call
    1611 000002cb 7640!         LCR       #FD$$TOL              ; [CPU_] |915| 
         000002cc 0000 
    1612                      ; call occurs [#FD$$TOL] ; [] |915| 
    1613 000002cd FE8C          SUBB      SP,#12                ; [CPU_U] 
    1614                      .dwcfi  cfa_offset, -4
    1615 000002ce 8BBE          MOVL      XAR1,*--SP            ; [CPU_] 
    1616                      .dwcfi  cfa_offset, -2
    1617                      .dwcfi  restore_reg, 7
    1618              $C$DW$136       .dwtag  DW_TAG_TI_branch
    1619                      .dwattr $C$DW$136, DW_AT_low_pc(0x00)
    1620                      .dwattr $C$DW$136, DW_AT_TI_return
    1621 000002cf 0006          LRETR     ; [CPU_] 
    1622                      ; return occurs ; [] 
    1623                      .dwattr $C$DW$122, DW_AT_TI_end_file("C:/ti/motorware/motorware_1_01_00_14/sw/modules/user/src/32b/us
    1624                      .dwattr $C$DW$122, DW_AT_TI_end_line(0x394)
    1625                      .dwattr $C$DW$122, DW_AT_TI_end_column(0x01)
    1626                      .dwendentry
    1627                      .dwendtag $C$DW$122
    1628              
    1629 000002d0               .sect   ".text"
    1630                      .clink
    1631                      .global _USER_computeTorque_Flux_Iq_pu_to_Nm_sf
    1632              
    1633              $C$DW$137       .dwtag  DW_TAG_subprogram, DW_AT_name("USER_computeTorque_Flux_Iq_pu_to_Nm_sf")
    1634                      .dwattr $C$DW$137, DW_AT_low_pc(_USER_computeTorque_Flux_Iq_pu_to_Nm_sf)
    1635                      .dwattr $C$DW$137, DW_AT_high_pc(0x00)
    1636                      .dwattr $C$DW$137, DW_AT_TI_symbol_name("_USER_computeTorque_Flux_Iq_pu_to_Nm_sf")
    1637                      .dwattr $C$DW$137, DW_AT_external
    1638                      .dwattr $C$DW$137, DW_AT_type(*$C$DW$T$20)
    1639                      .dwattr $C$DW$137, DW_AT_TI_begin_file("C:/ti/motorware/motorware_1_01_00_14/sw/modules/user/src/32b/
    1640                      .dwattr $C$DW$137, DW_AT_TI_begin_line(0x399)
    1641                      .dwattr $C$DW$137, DW_AT_TI_begin_column(0x05)
    1642                      .dwattr $C$DW$137, DW_AT_TI_max_frame_size(-16)
    1643                      .dwpsn  file "C:/ti/motorware/motorware_1_01_00_14/sw/modules/user/src/32b/user.c",line 922,column 1,
    1644              
    1645                      .dwfde $C$DW$CIE, _USER_computeTorque_Flux_Iq_pu_to_Nm_sf
    1646              
    1647              ;***************************************************************
    1648              ;* FNAME: _USER_computeTorque_Flux_Iq_pu_to_Nm_sf FR SIZE:  14           *
    1649              ;*                                                             *
    1650              ;* FUNCTION ENVIRONMENT                                        *
    1651              ;*                                                             *
    1652              ;* FUNCTION PROPERTIES                                         *
    1653              ;*                            2 Parameter, 10 Auto,  2 SOE     *
    1654              ;***************************************************************
    1655              
    1656              _USER_computeTorque_Flux_Iq_pu_to_Nm_sf:
    1657              ;* AL    assigned to _ceil_result
    1658              $C$DW$138       .dwtag  DW_TAG_variable, DW_AT_name("ceil_result")
TMS320C2000 Assembler PC v6.4.4 Wed Jul 08 10:37:11 2015

Tools Copyright (c) 1996-2015 Texas Instruments Incorporated
C:\Users\grant\AppData\Local\Temp\0209210                            PAGE   34

    1659                      .dwattr $C$DW$138, DW_AT_TI_symbol_name("_ceil_result")
    1660                      .dwattr $C$DW$138, DW_AT_type(*$C$DW$T$17)
    1661                      .dwattr $C$DW$138, DW_AT_location[DW_OP_reg0]
    1662              $C$DW$139       .dwtag  DW_TAG_variable, DW_AT_name("ceil_y")
    1663                      .dwattr $C$DW$139, DW_AT_TI_symbol_name("_ceil_y")
    1664                      .dwattr $C$DW$139, DW_AT_type(*$C$DW$T$17)
    1665                      .dwattr $C$DW$139, DW_AT_location[DW_OP_breg20 -4]
    1666                      .dwcfi  cfa_offset, -2
    1667                      .dwcfi  save_reg_to_mem, 26, 0
    1668 000002d0 B2BD          MOVL      *SP++,XAR1            ; [CPU_] 
    1669                      .dwcfi  save_reg_to_mem, 7, 2
    1670                      .dwcfi  cfa_offset, -4
    1671 000002d1 FE0C          ADDB      SP,#12                ; [CPU_U] 
    1672                      .dwcfi  cfa_offset, -16
    1673                      .dwpsn  file "C:/ti/motorware/motorware_1_01_00_14/sw/modules/user/src/32b/user.c",line 926,column 18
    1674 000002d2 28A9          MOV       AL,#43971             ; [CPU_] |926| 
         000002d3 ABC3 
    1675 000002d4 28A8          MOV       AH,#15724             ; [CPU_] |926| 
         000002d5 3D6C 
    1676              $C$DW$140       .dwtag  DW_TAG_TI_branch
    1677                      .dwattr $C$DW$140, DW_AT_low_pc(0x00)
    1678                      .dwattr $C$DW$140, DW_AT_name("_log")
    1679                      .dwattr $C$DW$140, DW_AT_TI_call
    1680 000002d6 7640!         LCR       #_log                 ; [CPU_] |926| 
         000002d7 0000 
    1681                      ; call occurs [#_log] ; [] |926| 
    1682 000002d8 8BA9          MOVL      XAR1,ACC              ; [CPU_] |926| 
    1683 000002d9 9A00          MOV       AL,#0                 ; [CPU_] |926| 
    1684 000002da 28A8          MOV       AH,#16384             ; [CPU_] |926| 
         000002db 4000 
    1685              $C$DW$141       .dwtag  DW_TAG_TI_branch
    1686                      .dwattr $C$DW$141, DW_AT_low_pc(0x00)
    1687                      .dwattr $C$DW$141, DW_AT_name("_log")
    1688                      .dwattr $C$DW$141, DW_AT_TI_call
    1689 000002dc 7640!         LCR       #_log                 ; [CPU_] |926| 
         000002dd 0000 
    1690                      ; call occurs [#_log] ; [] |926| 
    1691 000002de 1E42          MOVL      *-SP[2],ACC           ; [CPU_] |926| 
    1692 000002df B2A9          MOVL      ACC,XAR1              ; [CPU_] |926| 
    1693              $C$DW$142       .dwtag  DW_TAG_TI_branch
    1694                      .dwattr $C$DW$142, DW_AT_low_pc(0x00)
    1695                      .dwattr $C$DW$142, DW_AT_name("FS$$DIV")
    1696                      .dwattr $C$DW$142, DW_AT_TI_call
    1697 000002e0 7640!         LCR       #FS$$DIV              ; [CPU_] |926| 
         000002e1 0000 
    1698                      ; call occurs [#FS$$DIV] ; [] |926| 
    1699                      .dwpsn  file "C:/ti/ccsv6/tools/compiler/ti-cgt-c2000_6.4.4/include/math.h",line 143,column 14,is_stm
    1700 000002e2 5CAD          MOVZ      AR4,SP                ; [CPU_] |143| 
    1701 000002e3 DC84          SUBB      XAR4,#4               ; [CPU_U] |143| 
    1702 000002e4 5CA4          MOVZ      AR4,AR4               ; [CPU_] |143| 
    1703              $C$DW$143       .dwtag  DW_TAG_TI_branch
    1704                      .dwattr $C$DW$143, DW_AT_low_pc(0x00)
    1705                      .dwattr $C$DW$143, DW_AT_name("_modf")
    1706                      .dwattr $C$DW$143, DW_AT_TI_call
    1707 000002e5 7640!         LCR       #_modf                ; [CPU_] |143| 
TMS320C2000 Assembler PC v6.4.4 Wed Jul 08 10:37:11 2015

Tools Copyright (c) 1996-2015 Texas Instruments Incorporated
C:\Users\grant\AppData\Local\Temp\0209210                            PAGE   35

         000002e6 0000 
    1708                      ; call occurs [#_modf] ; [] |143| 
    1709 000002e7 1EA6          MOVL      XAR6,ACC              ; [CPU_] |143| 
    1710 000002e8 9A00          MOV       AL,#0                 ; [CPU_] |143| 
    1711 000002e9 9B00          MOV       AH,#0                 ; [CPU_] |143| 
    1712 000002ea 1E42          MOVL      *-SP[2],ACC           ; [CPU_] |143| 
    1713 000002eb 06A6          MOVL      ACC,XAR6              ; [CPU_] |143| 
    1714              $C$DW$144       .dwtag  DW_TAG_TI_branch
    1715                      .dwattr $C$DW$144, DW_AT_low_pc(0x00)
    1716                      .dwattr $C$DW$144, DW_AT_name("FS$$CMP")
    1717                      .dwattr $C$DW$144, DW_AT_TI_call
    1718 000002ec 7640!         LCR       #FS$$CMP              ; [CPU_] |143| 
         000002ed 0000 
    1719                      ; call occurs [#FS$$CMP] ; [] |143| 
    1720 000002ee 5200          CMPB      AL,#0                 ; [CPU_] |143| 
    1721 000002ef 56C2          BF        $C$L5,GT              ; [CPU_] |143| 
         000002f0 0004 
    1722                      ; branchcc occurs ; [] |143| 
    1723                      .dwpsn  file "C:/ti/ccsv6/tools/compiler/ti-cgt-c2000_6.4.4/include/math.h",line 150,column 18,is_stm
    1724 000002f1 0644          MOVL      ACC,*-SP[4]           ; [CPU_] |150| 
    1725 000002f2 6F07          B         $C$L6,UNC             ; [CPU_] |150| 
    1726                      ; branch occurs ; [] |150| 
    1727 000002f3       $C$L5:    
    1728                      .dwpsn  file "C:/ti/ccsv6/tools/compiler/ti-cgt-c2000_6.4.4/include/math.h",line 146,column 18,is_stm
    1729 000002f3 FF2F          MOV       ACC,#32512 << 15      ; [CPU_] |146| 
         000002f4 7F00 
    1730 000002f5 1E42          MOVL      *-SP[2],ACC           ; [CPU_] |146| 
    1731 000002f6 0644          MOVL      ACC,*-SP[4]           ; [CPU_] |146| 
    1732              $C$DW$145       .dwtag  DW_TAG_TI_branch
    1733                      .dwattr $C$DW$145, DW_AT_low_pc(0x00)
    1734                      .dwattr $C$DW$145, DW_AT_name("FS$$ADD")
    1735                      .dwattr $C$DW$145, DW_AT_TI_call
    1736 000002f7 7640!         LCR       #FS$$ADD              ; [CPU_] |146| 
         000002f8 0000 
    1737                      ; call occurs [#FS$$ADD] ; [] |146| 
    1738 000002f9       $C$L6:    
    1739                      .dwpsn  file "C:/ti/motorware/motorware_1_01_00_14/sw/modules/user/src/32b/user.c",line 928,column 3,
    1740              $C$DW$146       .dwtag  DW_TAG_TI_branch
    1741                      .dwattr $C$DW$146, DW_AT_low_pc(0x00)
    1742                      .dwattr $C$DW$146, DW_AT_name("FS$$NEG")
    1743                      .dwattr $C$DW$146, DW_AT_TI_call
    1744 000002f9 7640!         LCR       #FS$$NEG              ; [CPU_] |928| 
         000002fa 0000 
    1745                      ; call occurs [#FS$$NEG] ; [] |928| 
    1746 000002fb 1E42          MOVL      *-SP[2],ACC           ; [CPU_] |928| 
    1747 000002fc 9A00          MOV       AL,#0                 ; [CPU_] |928| 
    1748 000002fd 28A8          MOV       AH,#16384             ; [CPU_] |928| 
         000002fe 4000 
    1749              $C$DW$147       .dwtag  DW_TAG_TI_branch
    1750                      .dwattr $C$DW$147, DW_AT_low_pc(0x00)
    1751                      .dwattr $C$DW$147, DW_AT_name("_pow")
    1752                      .dwattr $C$DW$147, DW_AT_TI_call
    1753 000002ff 7640!         LCR       #_pow                 ; [CPU_] |928| 
         00000300 0000 
    1754                      ; call occurs [#_pow] ; [] |928| 
TMS320C2000 Assembler PC v6.4.4 Wed Jul 08 10:37:11 2015

Tools Copyright (c) 1996-2015 Texas Instruments Incorporated
C:\Users\grant\AppData\Local\Temp\0209210                            PAGE   36

    1755 00000301 1EA6          MOVL      XAR6,ACC              ; [CPU_] |928| 
    1756 00000302 28A9          MOV       AL,#21566             ; [CPU_] |928| 
         00000303 543E 
    1757 00000304 28A8          MOV       AH,#15610             ; [CPU_] |928| 
         00000305 3CFA 
    1758 00000306 1E42          MOVL      *-SP[2],ACC           ; [CPU_] |928| 
    1759 00000307 06A6          MOVL      ACC,XAR6              ; [CPU_] |928| 
    1760              $C$DW$148       .dwtag  DW_TAG_TI_branch
    1761                      .dwattr $C$DW$148, DW_AT_low_pc(0x00)
    1762                      .dwattr $C$DW$148, DW_AT_name("FS$$MPY")
    1763                      .dwattr $C$DW$148, DW_AT_TI_call
    1764 00000308 7640!         LCR       #FS$$MPY              ; [CPU_] |928| 
         00000309 0000 
    1765                      ; call occurs [#FS$$MPY] ; [] |928| 
    1766 0000030a 5CAD          MOVZ      AR4,SP                ; [CPU_] |928| 
    1767 0000030b DC8C          SUBB      XAR4,#12              ; [CPU_U] |928| 
    1768 0000030c 88A4          MOVZ      AR6,AR4               ; [CPU_] |928| 
    1769              $C$DW$149       .dwtag  DW_TAG_TI_branch
    1770                      .dwattr $C$DW$149, DW_AT_low_pc(0x00)
    1771                      .dwattr $C$DW$149, DW_AT_name("FS$$TOFD")
    1772                      .dwattr $C$DW$149, DW_AT_TI_call
    1773 0000030d 7640!         LCR       #FS$$TOFD             ; [CPU_] |928| 
         0000030e 0000 
    1774                      ; call occurs [#FS$$TOFD] ; [] |928| 
    1775 0000030f 5DAD          MOVZ      AR5,SP                ; [CPU_] |928| 
    1776 00000310 5CAD          MOVZ      AR4,SP                ; [CPU_] |928| 
    1777 00000311 DD88          SUBB      XAR5,#8               ; [CPU_U] |928| 
    1778 00000312 DC8C          SUBB      XAR4,#12              ; [CPU_U] |928| 
    1779 00000313 88A5          MOVZ      AR6,AR5               ; [CPU_] |928| 
    1780 00000314 5CA4          MOVZ      AR4,AR4               ; [CPU_] |928| 
    1781 00000315 8F40+         MOVL      XAR5,#$C$FL2          ; [CPU_U] |928| 
         00000316 0004 
    1782              $C$DW$150       .dwtag  DW_TAG_TI_branch
    1783                      .dwattr $C$DW$150, DW_AT_low_pc(0x00)
    1784                      .dwattr $C$DW$150, DW_AT_name("FD$$MPY")
    1785                      .dwattr $C$DW$150, DW_AT_TI_call
    1786 00000317 7640!         LCR       #FD$$MPY              ; [CPU_] |928| 
         00000318 0000 
    1787                      ; call occurs [#FD$$MPY] ; [] |928| 
    1788 00000319 5CAD          MOVZ      AR4,SP                ; [CPU_] |928| 
    1789 0000031a DC88          SUBB      XAR4,#8               ; [CPU_U] |928| 
    1790 0000031b 5CA4          MOVZ      AR4,AR4               ; [CPU_] |928| 
    1791              $C$DW$151       .dwtag  DW_TAG_TI_branch
    1792                      .dwattr $C$DW$151, DW_AT_low_pc(0x00)
    1793                      .dwattr $C$DW$151, DW_AT_name("FD$$TOL")
    1794                      .dwattr $C$DW$151, DW_AT_TI_call
    1795 0000031c 7640!         LCR       #FD$$TOL              ; [CPU_] |928| 
         0000031d 0000 
    1796                      ; call occurs [#FD$$TOL] ; [] |928| 
    1797 0000031e FE8C          SUBB      SP,#12                ; [CPU_U] 
    1798                      .dwcfi  cfa_offset, -4
    1799 0000031f 8BBE          MOVL      XAR1,*--SP            ; [CPU_] 
    1800                      .dwcfi  cfa_offset, -2
    1801                      .dwcfi  restore_reg, 7
    1802              $C$DW$152       .dwtag  DW_TAG_TI_branch
TMS320C2000 Assembler PC v6.4.4 Wed Jul 08 10:37:11 2015

Tools Copyright (c) 1996-2015 Texas Instruments Incorporated
C:\Users\grant\AppData\Local\Temp\0209210                            PAGE   37

    1803                      .dwattr $C$DW$152, DW_AT_low_pc(0x00)
    1804                      .dwattr $C$DW$152, DW_AT_TI_return
    1805 00000320 0006          LRETR     ; [CPU_] 
    1806                      ; return occurs ; [] 
    1807                      .dwattr $C$DW$137, DW_AT_TI_end_file("C:/ti/motorware/motorware_1_01_00_14/sw/modules/user/src/32b/us
    1808                      .dwattr $C$DW$137, DW_AT_TI_end_line(0x3a1)
    1809                      .dwattr $C$DW$137, DW_AT_TI_end_column(0x01)
    1810                      .dwendentry
    1811                      .dwendtag $C$DW$137
    1812              
    1813 00000321               .sect   ".text"
    1814                      .clink
    1815                      .global _USER_computeFlux_pu_to_Wb_sf
    1816              
    1817              $C$DW$153       .dwtag  DW_TAG_subprogram, DW_AT_name("USER_computeFlux_pu_to_Wb_sf")
    1818                      .dwattr $C$DW$153, DW_AT_low_pc(_USER_computeFlux_pu_to_Wb_sf)
    1819                      .dwattr $C$DW$153, DW_AT_high_pc(0x00)
    1820                      .dwattr $C$DW$153, DW_AT_TI_symbol_name("_USER_computeFlux_pu_to_Wb_sf")
    1821                      .dwattr $C$DW$153, DW_AT_external
    1822                      .dwattr $C$DW$153, DW_AT_type(*$C$DW$T$20)
    1823                      .dwattr $C$DW$153, DW_AT_TI_begin_file("C:/ti/motorware/motorware_1_01_00_14/sw/modules/user/src/32b/
    1824                      .dwattr $C$DW$153, DW_AT_TI_begin_line(0x3a6)
    1825                      .dwattr $C$DW$153, DW_AT_TI_begin_column(0x05)
    1826                      .dwattr $C$DW$153, DW_AT_TI_max_frame_size(-16)
    1827                      .dwpsn  file "C:/ti/motorware/motorware_1_01_00_14/sw/modules/user/src/32b/user.c",line 935,column 1,
    1828              
    1829                      .dwfde $C$DW$CIE, _USER_computeFlux_pu_to_Wb_sf
    1830              
    1831              ;***************************************************************
    1832              ;* FNAME: _USER_computeFlux_pu_to_Wb_sf FR SIZE:  14           *
    1833              ;*                                                             *
    1834              ;* FUNCTION ENVIRONMENT                                        *
    1835              ;*                                                             *
    1836              ;* FUNCTION PROPERTIES                                         *
    1837              ;*                            2 Parameter, 10 Auto,  2 SOE     *
    1838              ;***************************************************************
    1839              
    1840              _USER_computeFlux_pu_to_Wb_sf:
    1841              ;* AL    assigned to _ceil_result
    1842              $C$DW$154       .dwtag  DW_TAG_variable, DW_AT_name("ceil_result")
    1843                      .dwattr $C$DW$154, DW_AT_TI_symbol_name("_ceil_result")
    1844                      .dwattr $C$DW$154, DW_AT_type(*$C$DW$T$17)
    1845                      .dwattr $C$DW$154, DW_AT_location[DW_OP_reg0]
    1846              $C$DW$155       .dwtag  DW_TAG_variable, DW_AT_name("ceil_y")
    1847                      .dwattr $C$DW$155, DW_AT_TI_symbol_name("_ceil_y")
    1848                      .dwattr $C$DW$155, DW_AT_type(*$C$DW$T$17)
    1849                      .dwattr $C$DW$155, DW_AT_location[DW_OP_breg20 -4]
    1850                      .dwcfi  cfa_offset, -2
    1851                      .dwcfi  save_reg_to_mem, 26, 0
    1852 00000321 B2BD          MOVL      *SP++,XAR1            ; [CPU_] 
    1853                      .dwcfi  save_reg_to_mem, 7, 2
    1854                      .dwcfi  cfa_offset, -4
    1855 00000322 FE0C          ADDB      SP,#12                ; [CPU_U] 
    1856                      .dwcfi  cfa_offset, -16
    1857                      .dwpsn  file "C:/ti/motorware/motorware_1_01_00_14/sw/modules/user/src/32b/user.c",line 938,column 18
TMS320C2000 Assembler PC v6.4.4 Wed Jul 08 10:37:11 2015

Tools Copyright (c) 1996-2015 Texas Instruments Incorporated
C:\Users\grant\AppData\Local\Temp\0209210                            PAGE   38

    1858 00000323 28A9          MOV       AL,#43971             ; [CPU_] |938| 
         00000324 ABC3 
    1859 00000325 28A8          MOV       AH,#15724             ; [CPU_] |938| 
         00000326 3D6C 
    1860              $C$DW$156       .dwtag  DW_TAG_TI_branch
    1861                      .dwattr $C$DW$156, DW_AT_low_pc(0x00)
    1862                      .dwattr $C$DW$156, DW_AT_name("_log")
    1863                      .dwattr $C$DW$156, DW_AT_TI_call
    1864 00000327 7640!         LCR       #_log                 ; [CPU_] |938| 
         00000328 0000 
    1865                      ; call occurs [#_log] ; [] |938| 
    1866 00000329 8BA9          MOVL      XAR1,ACC              ; [CPU_] |938| 
    1867 0000032a 9A00          MOV       AL,#0                 ; [CPU_] |938| 
    1868 0000032b 28A8          MOV       AH,#16384             ; [CPU_] |938| 
         0000032c 4000 
    1869              $C$DW$157       .dwtag  DW_TAG_TI_branch
    1870                      .dwattr $C$DW$157, DW_AT_low_pc(0x00)
    1871                      .dwattr $C$DW$157, DW_AT_name("_log")
    1872                      .dwattr $C$DW$157, DW_AT_TI_call
    1873 0000032d 7640!         LCR       #_log                 ; [CPU_] |938| 
         0000032e 0000 
    1874                      ; call occurs [#_log] ; [] |938| 
    1875 0000032f 1E42          MOVL      *-SP[2],ACC           ; [CPU_] |938| 
    1876 00000330 B2A9          MOVL      ACC,XAR1              ; [CPU_] |938| 
    1877              $C$DW$158       .dwtag  DW_TAG_TI_branch
    1878                      .dwattr $C$DW$158, DW_AT_low_pc(0x00)
    1879                      .dwattr $C$DW$158, DW_AT_name("FS$$DIV")
    1880                      .dwattr $C$DW$158, DW_AT_TI_call
    1881 00000331 7640!         LCR       #FS$$DIV              ; [CPU_] |938| 
         00000332 0000 
    1882                      ; call occurs [#FS$$DIV] ; [] |938| 
    1883                      .dwpsn  file "C:/ti/ccsv6/tools/compiler/ti-cgt-c2000_6.4.4/include/math.h",line 143,column 14,is_stm
    1884 00000333 5CAD          MOVZ      AR4,SP                ; [CPU_] |143| 
    1885 00000334 DC84          SUBB      XAR4,#4               ; [CPU_U] |143| 
    1886 00000335 5CA4          MOVZ      AR4,AR4               ; [CPU_] |143| 
    1887              $C$DW$159       .dwtag  DW_TAG_TI_branch
    1888                      .dwattr $C$DW$159, DW_AT_low_pc(0x00)
    1889                      .dwattr $C$DW$159, DW_AT_name("_modf")
    1890                      .dwattr $C$DW$159, DW_AT_TI_call
    1891 00000336 7640!         LCR       #_modf                ; [CPU_] |143| 
         00000337 0000 
    1892                      ; call occurs [#_modf] ; [] |143| 
    1893 00000338 1EA6          MOVL      XAR6,ACC              ; [CPU_] |143| 
    1894 00000339 9A00          MOV       AL,#0                 ; [CPU_] |143| 
    1895 0000033a 9B00          MOV       AH,#0                 ; [CPU_] |143| 
    1896 0000033b 1E42          MOVL      *-SP[2],ACC           ; [CPU_] |143| 
    1897 0000033c 06A6          MOVL      ACC,XAR6              ; [CPU_] |143| 
    1898              $C$DW$160       .dwtag  DW_TAG_TI_branch
    1899                      .dwattr $C$DW$160, DW_AT_low_pc(0x00)
    1900                      .dwattr $C$DW$160, DW_AT_name("FS$$CMP")
    1901                      .dwattr $C$DW$160, DW_AT_TI_call
    1902 0000033d 7640!         LCR       #FS$$CMP              ; [CPU_] |143| 
         0000033e 0000 
    1903                      ; call occurs [#FS$$CMP] ; [] |143| 
    1904 0000033f 5200          CMPB      AL,#0                 ; [CPU_] |143| 
TMS320C2000 Assembler PC v6.4.4 Wed Jul 08 10:37:11 2015

Tools Copyright (c) 1996-2015 Texas Instruments Incorporated
C:\Users\grant\AppData\Local\Temp\0209210                            PAGE   39

    1905 00000340 56C2          BF        $C$L7,GT              ; [CPU_] |143| 
         00000341 0004 
    1906                      ; branchcc occurs ; [] |143| 
    1907                      .dwpsn  file "C:/ti/ccsv6/tools/compiler/ti-cgt-c2000_6.4.4/include/math.h",line 150,column 18,is_stm
    1908 00000342 0644          MOVL      ACC,*-SP[4]           ; [CPU_] |150| 
    1909 00000343 6F07          B         $C$L8,UNC             ; [CPU_] |150| 
    1910                      ; branch occurs ; [] |150| 
    1911 00000344       $C$L7:    
    1912                      .dwpsn  file "C:/ti/ccsv6/tools/compiler/ti-cgt-c2000_6.4.4/include/math.h",line 146,column 18,is_stm
    1913 00000344 FF2F          MOV       ACC,#32512 << 15      ; [CPU_] |146| 
         00000345 7F00 
    1914 00000346 1E42          MOVL      *-SP[2],ACC           ; [CPU_] |146| 
    1915 00000347 0644          MOVL      ACC,*-SP[4]           ; [CPU_] |146| 
    1916              $C$DW$161       .dwtag  DW_TAG_TI_branch
    1917                      .dwattr $C$DW$161, DW_AT_low_pc(0x00)
    1918                      .dwattr $C$DW$161, DW_AT_name("FS$$ADD")
    1919                      .dwattr $C$DW$161, DW_AT_TI_call
    1920 00000348 7640!         LCR       #FS$$ADD              ; [CPU_] |146| 
         00000349 0000 
    1921                      ; call occurs [#FS$$ADD] ; [] |146| 
    1922 0000034a       $C$L8:    
    1923                      .dwpsn  file "C:/ti/motorware/motorware_1_01_00_14/sw/modules/user/src/32b/user.c",line 940,column 3,
    1924              $C$DW$162       .dwtag  DW_TAG_TI_branch
    1925                      .dwattr $C$DW$162, DW_AT_low_pc(0x00)
    1926                      .dwattr $C$DW$162, DW_AT_name("FS$$NEG")
    1927                      .dwattr $C$DW$162, DW_AT_TI_call
    1928 0000034a 7640!         LCR       #FS$$NEG              ; [CPU_] |940| 
         0000034b 0000 
    1929                      ; call occurs [#FS$$NEG] ; [] |940| 
    1930 0000034c 1E42          MOVL      *-SP[2],ACC           ; [CPU_] |940| 
    1931 0000034d 9A00          MOV       AL,#0                 ; [CPU_] |940| 
    1932 0000034e 28A8          MOV       AH,#16384             ; [CPU_] |940| 
         0000034f 4000 
    1933              $C$DW$163       .dwtag  DW_TAG_TI_branch
    1934                      .dwattr $C$DW$163, DW_AT_low_pc(0x00)
    1935                      .dwattr $C$DW$163, DW_AT_name("_pow")
    1936                      .dwattr $C$DW$163, DW_AT_TI_call
    1937 00000350 7640!         LCR       #_pow                 ; [CPU_] |940| 
         00000351 0000 
    1938                      ; call occurs [#_pow] ; [] |940| 
    1939 00000352 1EA6          MOVL      XAR6,ACC              ; [CPU_] |940| 
    1940 00000353 28A9          MOV       AL,#33347             ; [CPU_] |940| 
         00000354 8243 
    1941 00000355 28A8          MOV       AH,#14725             ; [CPU_] |940| 
         00000356 3985 
    1942 00000357 1E42          MOVL      *-SP[2],ACC           ; [CPU_] |940| 
    1943 00000358 06A6          MOVL      ACC,XAR6              ; [CPU_] |940| 
    1944              $C$DW$164       .dwtag  DW_TAG_TI_branch
    1945                      .dwattr $C$DW$164, DW_AT_low_pc(0x00)
    1946                      .dwattr $C$DW$164, DW_AT_name("FS$$MPY")
    1947                      .dwattr $C$DW$164, DW_AT_TI_call
    1948 00000359 7640!         LCR       #FS$$MPY              ; [CPU_] |940| 
         0000035a 0000 
    1949                      ; call occurs [#FS$$MPY] ; [] |940| 
    1950 0000035b 5CAD          MOVZ      AR4,SP                ; [CPU_] |940| 
TMS320C2000 Assembler PC v6.4.4 Wed Jul 08 10:37:11 2015

Tools Copyright (c) 1996-2015 Texas Instruments Incorporated
C:\Users\grant\AppData\Local\Temp\0209210                            PAGE   40

    1951 0000035c DC8C          SUBB      XAR4,#12              ; [CPU_U] |940| 
    1952 0000035d 88A4          MOVZ      AR6,AR4               ; [CPU_] |940| 
    1953              $C$DW$165       .dwtag  DW_TAG_TI_branch
    1954                      .dwattr $C$DW$165, DW_AT_low_pc(0x00)
    1955                      .dwattr $C$DW$165, DW_AT_name("FS$$TOFD")
    1956                      .dwattr $C$DW$165, DW_AT_TI_call
    1957 0000035e 7640!         LCR       #FS$$TOFD             ; [CPU_] |940| 
         0000035f 0000 
    1958                      ; call occurs [#FS$$TOFD] ; [] |940| 
    1959 00000360 5DAD          MOVZ      AR5,SP                ; [CPU_] |940| 
    1960 00000361 5CAD          MOVZ      AR4,SP                ; [CPU_] |940| 
    1961 00000362 DD88          SUBB      XAR5,#8               ; [CPU_U] |940| 
    1962 00000363 DC8C          SUBB      XAR4,#12              ; [CPU_U] |940| 
    1963 00000364 88A5          MOVZ      AR6,AR5               ; [CPU_] |940| 
    1964 00000365 5CA4          MOVZ      AR4,AR4               ; [CPU_] |940| 
    1965 00000366 8F40+         MOVL      XAR5,#$C$FL2          ; [CPU_U] |940| 
         00000367 0004 
    1966              $C$DW$166       .dwtag  DW_TAG_TI_branch
    1967                      .dwattr $C$DW$166, DW_AT_low_pc(0x00)
    1968                      .dwattr $C$DW$166, DW_AT_name("FD$$MPY")
    1969                      .dwattr $C$DW$166, DW_AT_TI_call
    1970 00000368 7640!         LCR       #FD$$MPY              ; [CPU_] |940| 
         00000369 0000 
    1971                      ; call occurs [#FD$$MPY] ; [] |940| 
    1972 0000036a 5CAD          MOVZ      AR4,SP                ; [CPU_] |940| 
    1973 0000036b DC88          SUBB      XAR4,#8               ; [CPU_U] |940| 
    1974 0000036c 5CA4          MOVZ      AR4,AR4               ; [CPU_] |940| 
    1975              $C$DW$167       .dwtag  DW_TAG_TI_branch
    1976                      .dwattr $C$DW$167, DW_AT_low_pc(0x00)
    1977                      .dwattr $C$DW$167, DW_AT_name("FD$$TOL")
    1978                      .dwattr $C$DW$167, DW_AT_TI_call
    1979 0000036d 7640!         LCR       #FD$$TOL              ; [CPU_] |940| 
         0000036e 0000 
    1980                      ; call occurs [#FD$$TOL] ; [] |940| 
    1981 0000036f FE8C          SUBB      SP,#12                ; [CPU_U] 
    1982                      .dwcfi  cfa_offset, -4
    1983 00000370 8BBE          MOVL      XAR1,*--SP            ; [CPU_] 
    1984                      .dwcfi  cfa_offset, -2
    1985                      .dwcfi  restore_reg, 7
    1986              $C$DW$168       .dwtag  DW_TAG_TI_branch
    1987                      .dwattr $C$DW$168, DW_AT_low_pc(0x00)
    1988                      .dwattr $C$DW$168, DW_AT_TI_return
    1989 00000371 0006          LRETR     ; [CPU_] 
    1990                      ; return occurs ; [] 
    1991                      .dwattr $C$DW$153, DW_AT_TI_end_file("C:/ti/motorware/motorware_1_01_00_14/sw/modules/user/src/32b/us
    1992                      .dwattr $C$DW$153, DW_AT_TI_end_line(0x3ad)
    1993                      .dwattr $C$DW$153, DW_AT_TI_end_column(0x01)
    1994                      .dwendentry
    1995                      .dwendtag $C$DW$153
    1996              
    1997 00000372               .sect   ".text"
    1998                      .clink
    1999                      .global _USER_computeFlux_pu_to_VpHz_sf
    2000              
    2001              $C$DW$169       .dwtag  DW_TAG_subprogram, DW_AT_name("USER_computeFlux_pu_to_VpHz_sf")
TMS320C2000 Assembler PC v6.4.4 Wed Jul 08 10:37:11 2015

Tools Copyright (c) 1996-2015 Texas Instruments Incorporated
C:\Users\grant\AppData\Local\Temp\0209210                            PAGE   41

    2002                      .dwattr $C$DW$169, DW_AT_low_pc(_USER_computeFlux_pu_to_VpHz_sf)
    2003                      .dwattr $C$DW$169, DW_AT_high_pc(0x00)
    2004                      .dwattr $C$DW$169, DW_AT_TI_symbol_name("_USER_computeFlux_pu_to_VpHz_sf")
    2005                      .dwattr $C$DW$169, DW_AT_external
    2006                      .dwattr $C$DW$169, DW_AT_type(*$C$DW$T$20)
    2007                      .dwattr $C$DW$169, DW_AT_TI_begin_file("C:/ti/motorware/motorware_1_01_00_14/sw/modules/user/src/32b/
    2008                      .dwattr $C$DW$169, DW_AT_TI_begin_line(0x3b2)
    2009                      .dwattr $C$DW$169, DW_AT_TI_begin_column(0x05)
    2010                      .dwattr $C$DW$169, DW_AT_TI_max_frame_size(-16)
    2011                      .dwpsn  file "C:/ti/motorware/motorware_1_01_00_14/sw/modules/user/src/32b/user.c",line 947,column 1,
    2012              
    2013                      .dwfde $C$DW$CIE, _USER_computeFlux_pu_to_VpHz_sf
    2014              
    2015              ;***************************************************************
    2016              ;* FNAME: _USER_computeFlux_pu_to_VpHz_sf FR SIZE:  14           *
    2017              ;*                                                             *
    2018              ;* FUNCTION ENVIRONMENT                                        *
    2019              ;*                                                             *
    2020              ;* FUNCTION PROPERTIES                                         *
    2021              ;*                            2 Parameter, 10 Auto,  2 SOE     *
    2022              ;***************************************************************
    2023              
    2024              _USER_computeFlux_pu_to_VpHz_sf:
    2025              ;* AL    assigned to _ceil_result
    2026              $C$DW$170       .dwtag  DW_TAG_variable, DW_AT_name("ceil_result")
    2027                      .dwattr $C$DW$170, DW_AT_TI_symbol_name("_ceil_result")
    2028                      .dwattr $C$DW$170, DW_AT_type(*$C$DW$T$17)
    2029                      .dwattr $C$DW$170, DW_AT_location[DW_OP_reg0]
    2030              $C$DW$171       .dwtag  DW_TAG_variable, DW_AT_name("ceil_y")
    2031                      .dwattr $C$DW$171, DW_AT_TI_symbol_name("_ceil_y")
    2032                      .dwattr $C$DW$171, DW_AT_type(*$C$DW$T$17)
    2033                      .dwattr $C$DW$171, DW_AT_location[DW_OP_breg20 -4]
    2034                      .dwcfi  cfa_offset, -2
    2035                      .dwcfi  save_reg_to_mem, 26, 0
    2036 00000372 B2BD          MOVL      *SP++,XAR1            ; [CPU_] 
    2037                      .dwcfi  save_reg_to_mem, 7, 2
    2038                      .dwcfi  cfa_offset, -4
    2039 00000373 FE0C          ADDB      SP,#12                ; [CPU_U] 
    2040                      .dwcfi  cfa_offset, -16
    2041                      .dwpsn  file "C:/ti/motorware/motorware_1_01_00_14/sw/modules/user/src/32b/user.c",line 950,column 18
    2042 00000374 28A9          MOV       AL,#43971             ; [CPU_] |950| 
         00000375 ABC3 
    2043 00000376 28A8          MOV       AH,#15724             ; [CPU_] |950| 
         00000377 3D6C 
    2044              $C$DW$172       .dwtag  DW_TAG_TI_branch
    2045                      .dwattr $C$DW$172, DW_AT_low_pc(0x00)
    2046                      .dwattr $C$DW$172, DW_AT_name("_log")
    2047                      .dwattr $C$DW$172, DW_AT_TI_call
    2048 00000378 7640!         LCR       #_log                 ; [CPU_] |950| 
         00000379 0000 
    2049                      ; call occurs [#_log] ; [] |950| 
    2050 0000037a 8BA9          MOVL      XAR1,ACC              ; [CPU_] |950| 
    2051 0000037b 9A00          MOV       AL,#0                 ; [CPU_] |950| 
    2052 0000037c 28A8          MOV       AH,#16384             ; [CPU_] |950| 
         0000037d 4000 
TMS320C2000 Assembler PC v6.4.4 Wed Jul 08 10:37:11 2015

Tools Copyright (c) 1996-2015 Texas Instruments Incorporated
C:\Users\grant\AppData\Local\Temp\0209210                            PAGE   42

    2053              $C$DW$173       .dwtag  DW_TAG_TI_branch
    2054                      .dwattr $C$DW$173, DW_AT_low_pc(0x00)
    2055                      .dwattr $C$DW$173, DW_AT_name("_log")
    2056                      .dwattr $C$DW$173, DW_AT_TI_call
    2057 0000037e 7640!         LCR       #_log                 ; [CPU_] |950| 
         0000037f 0000 
    2058                      ; call occurs [#_log] ; [] |950| 
    2059 00000380 1E42          MOVL      *-SP[2],ACC           ; [CPU_] |950| 
    2060 00000381 B2A9          MOVL      ACC,XAR1              ; [CPU_] |950| 
    2061              $C$DW$174       .dwtag  DW_TAG_TI_branch
    2062                      .dwattr $C$DW$174, DW_AT_low_pc(0x00)
    2063                      .dwattr $C$DW$174, DW_AT_name("FS$$DIV")
    2064                      .dwattr $C$DW$174, DW_AT_TI_call
    2065 00000382 7640!         LCR       #FS$$DIV              ; [CPU_] |950| 
         00000383 0000 
    2066                      ; call occurs [#FS$$DIV] ; [] |950| 
    2067                      .dwpsn  file "C:/ti/ccsv6/tools/compiler/ti-cgt-c2000_6.4.4/include/math.h",line 143,column 14,is_stm
    2068 00000384 5CAD          MOVZ      AR4,SP                ; [CPU_] |143| 
    2069 00000385 DC84          SUBB      XAR4,#4               ; [CPU_U] |143| 
    2070 00000386 5CA4          MOVZ      AR4,AR4               ; [CPU_] |143| 
    2071              $C$DW$175       .dwtag  DW_TAG_TI_branch
    2072                      .dwattr $C$DW$175, DW_AT_low_pc(0x00)
    2073                      .dwattr $C$DW$175, DW_AT_name("_modf")
    2074                      .dwattr $C$DW$175, DW_AT_TI_call
    2075 00000387 7640!         LCR       #_modf                ; [CPU_] |143| 
         00000388 0000 
    2076                      ; call occurs [#_modf] ; [] |143| 
    2077 00000389 1EA6          MOVL      XAR6,ACC              ; [CPU_] |143| 
    2078 0000038a 9A00          MOV       AL,#0                 ; [CPU_] |143| 
    2079 0000038b 9B00          MOV       AH,#0                 ; [CPU_] |143| 
    2080 0000038c 1E42          MOVL      *-SP[2],ACC           ; [CPU_] |143| 
    2081 0000038d 06A6          MOVL      ACC,XAR6              ; [CPU_] |143| 
    2082              $C$DW$176       .dwtag  DW_TAG_TI_branch
    2083                      .dwattr $C$DW$176, DW_AT_low_pc(0x00)
    2084                      .dwattr $C$DW$176, DW_AT_name("FS$$CMP")
    2085                      .dwattr $C$DW$176, DW_AT_TI_call
    2086 0000038e 7640!         LCR       #FS$$CMP              ; [CPU_] |143| 
         0000038f 0000 
    2087                      ; call occurs [#FS$$CMP] ; [] |143| 
    2088 00000390 5200          CMPB      AL,#0                 ; [CPU_] |143| 
    2089 00000391 56C2          BF        $C$L9,GT              ; [CPU_] |143| 
         00000392 0004 
    2090                      ; branchcc occurs ; [] |143| 
    2091                      .dwpsn  file "C:/ti/ccsv6/tools/compiler/ti-cgt-c2000_6.4.4/include/math.h",line 150,column 18,is_stm
    2092 00000393 0644          MOVL      ACC,*-SP[4]           ; [CPU_] |150| 
    2093 00000394 6F07          B         $C$L10,UNC            ; [CPU_] |150| 
    2094                      ; branch occurs ; [] |150| 
    2095 00000395       $C$L9:    
    2096                      .dwpsn  file "C:/ti/ccsv6/tools/compiler/ti-cgt-c2000_6.4.4/include/math.h",line 146,column 18,is_stm
    2097 00000395 FF2F          MOV       ACC,#32512 << 15      ; [CPU_] |146| 
         00000396 7F00 
    2098 00000397 1E42          MOVL      *-SP[2],ACC           ; [CPU_] |146| 
    2099 00000398 0644          MOVL      ACC,*-SP[4]           ; [CPU_] |146| 
    2100              $C$DW$177       .dwtag  DW_TAG_TI_branch
    2101                      .dwattr $C$DW$177, DW_AT_low_pc(0x00)
TMS320C2000 Assembler PC v6.4.4 Wed Jul 08 10:37:11 2015

Tools Copyright (c) 1996-2015 Texas Instruments Incorporated
C:\Users\grant\AppData\Local\Temp\0209210                            PAGE   43

    2102                      .dwattr $C$DW$177, DW_AT_name("FS$$ADD")
    2103                      .dwattr $C$DW$177, DW_AT_TI_call
    2104 00000399 7640!         LCR       #FS$$ADD              ; [CPU_] |146| 
         0000039a 0000 
    2105                      ; call occurs [#FS$$ADD] ; [] |146| 
    2106 0000039b       $C$L10:    
    2107                      .dwpsn  file "C:/ti/motorware/motorware_1_01_00_14/sw/modules/user/src/32b/user.c",line 952,column 3,
    2108              $C$DW$178       .dwtag  DW_TAG_TI_branch
    2109                      .dwattr $C$DW$178, DW_AT_low_pc(0x00)
    2110                      .dwattr $C$DW$178, DW_AT_name("FS$$NEG")
    2111                      .dwattr $C$DW$178, DW_AT_TI_call
    2112 0000039b 7640!         LCR       #FS$$NEG              ; [CPU_] |952| 
         0000039c 0000 
    2113                      ; call occurs [#FS$$NEG] ; [] |952| 
    2114 0000039d 1E42          MOVL      *-SP[2],ACC           ; [CPU_] |952| 
    2115 0000039e 9A00          MOV       AL,#0                 ; [CPU_] |952| 
    2116 0000039f 28A8          MOV       AH,#16384             ; [CPU_] |952| 
         000003a0 4000 
    2117              $C$DW$179       .dwtag  DW_TAG_TI_branch
    2118                      .dwattr $C$DW$179, DW_AT_low_pc(0x00)
    2119                      .dwattr $C$DW$179, DW_AT_name("_pow")
    2120                      .dwattr $C$DW$179, DW_AT_TI_call
    2121 000003a1 7640!         LCR       #_pow                 ; [CPU_] |952| 
         000003a2 0000 
    2122                      ; call occurs [#_pow] ; [] |952| 
    2123 000003a3 1EA6          MOVL      XAR6,ACC              ; [CPU_] |952| 
    2124 000003a4 28A9          MOV       AL,#46871             ; [CPU_] |952| 
         000003a5 B717 
    2125 000003a6 28A8          MOV       AH,#15057             ; [CPU_] |952| 
         000003a7 3AD1 
    2126 000003a8 1E42          MOVL      *-SP[2],ACC           ; [CPU_] |952| 
    2127 000003a9 06A6          MOVL      ACC,XAR6              ; [CPU_] |952| 
    2128              $C$DW$180       .dwtag  DW_TAG_TI_branch
    2129                      .dwattr $C$DW$180, DW_AT_low_pc(0x00)
    2130                      .dwattr $C$DW$180, DW_AT_name("FS$$MPY")
    2131                      .dwattr $C$DW$180, DW_AT_TI_call
    2132 000003aa 7640!         LCR       #FS$$MPY              ; [CPU_] |952| 
         000003ab 0000 
    2133                      ; call occurs [#FS$$MPY] ; [] |952| 
    2134 000003ac 5CAD          MOVZ      AR4,SP                ; [CPU_] |952| 
    2135 000003ad DC8C          SUBB      XAR4,#12              ; [CPU_U] |952| 
    2136 000003ae 88A4          MOVZ      AR6,AR4               ; [CPU_] |952| 
    2137              $C$DW$181       .dwtag  DW_TAG_TI_branch
    2138                      .dwattr $C$DW$181, DW_AT_low_pc(0x00)
    2139                      .dwattr $C$DW$181, DW_AT_name("FS$$TOFD")
    2140                      .dwattr $C$DW$181, DW_AT_TI_call
    2141 000003af 7640!         LCR       #FS$$TOFD             ; [CPU_] |952| 
         000003b0 0000 
    2142                      ; call occurs [#FS$$TOFD] ; [] |952| 
    2143 000003b1 5DAD          MOVZ      AR5,SP                ; [CPU_] |952| 
    2144 000003b2 5CAD          MOVZ      AR4,SP                ; [CPU_] |952| 
    2145 000003b3 DD88          SUBB      XAR5,#8               ; [CPU_U] |952| 
    2146 000003b4 DC8C          SUBB      XAR4,#12              ; [CPU_U] |952| 
    2147 000003b5 88A5          MOVZ      AR6,AR5               ; [CPU_] |952| 
    2148 000003b6 5CA4          MOVZ      AR4,AR4               ; [CPU_] |952| 
TMS320C2000 Assembler PC v6.4.4 Wed Jul 08 10:37:11 2015

Tools Copyright (c) 1996-2015 Texas Instruments Incorporated
C:\Users\grant\AppData\Local\Temp\0209210                            PAGE   44

    2149 000003b7 8F40+         MOVL      XAR5,#$C$FL2          ; [CPU_U] |952| 
         000003b8 0004 
    2150              $C$DW$182       .dwtag  DW_TAG_TI_branch
    2151                      .dwattr $C$DW$182, DW_AT_low_pc(0x00)
    2152                      .dwattr $C$DW$182, DW_AT_name("FD$$MPY")
    2153                      .dwattr $C$DW$182, DW_AT_TI_call
    2154 000003b9 7640!         LCR       #FD$$MPY              ; [CPU_] |952| 
         000003ba 0000 
    2155                      ; call occurs [#FD$$MPY] ; [] |952| 
    2156 000003bb 5CAD          MOVZ      AR4,SP                ; [CPU_] |952| 
    2157 000003bc DC88          SUBB      XAR4,#8               ; [CPU_U] |952| 
    2158 000003bd 5CA4          MOVZ      AR4,AR4               ; [CPU_] |952| 
    2159              $C$DW$183       .dwtag  DW_TAG_TI_branch
    2160                      .dwattr $C$DW$183, DW_AT_low_pc(0x00)
    2161                      .dwattr $C$DW$183, DW_AT_name("FD$$TOL")
    2162                      .dwattr $C$DW$183, DW_AT_TI_call
    2163 000003be 7640!         LCR       #FD$$TOL              ; [CPU_] |952| 
         000003bf 0000 
    2164                      ; call occurs [#FD$$TOL] ; [] |952| 
    2165 000003c0 FE8C          SUBB      SP,#12                ; [CPU_U] 
    2166                      .dwcfi  cfa_offset, -4
    2167 000003c1 8BBE          MOVL      XAR1,*--SP            ; [CPU_] 
    2168                      .dwcfi  cfa_offset, -2
    2169                      .dwcfi  restore_reg, 7
    2170              $C$DW$184       .dwtag  DW_TAG_TI_branch
    2171                      .dwattr $C$DW$184, DW_AT_low_pc(0x00)
    2172                      .dwattr $C$DW$184, DW_AT_TI_return
    2173 000003c2 0006          LRETR     ; [CPU_] 
    2174                      ; return occurs ; [] 
    2175                      .dwattr $C$DW$169, DW_AT_TI_end_file("C:/ti/motorware/motorware_1_01_00_14/sw/modules/user/src/32b/us
    2176                      .dwattr $C$DW$169, DW_AT_TI_end_line(0x3b9)
    2177                      .dwattr $C$DW$169, DW_AT_TI_end_column(0x01)
    2178                      .dwendentry
    2179                      .dwendtag $C$DW$169
    2180              
    2181 000003c3               .sect   ".text"
    2182                      .clink
    2183                      .global _USER_computeFlux
    2184              
    2185              $C$DW$185       .dwtag  DW_TAG_subprogram, DW_AT_name("USER_computeFlux")
    2186                      .dwattr $C$DW$185, DW_AT_low_pc(_USER_computeFlux)
    2187                      .dwattr $C$DW$185, DW_AT_high_pc(0x00)
    2188                      .dwattr $C$DW$185, DW_AT_TI_symbol_name("_USER_computeFlux")
    2189                      .dwattr $C$DW$185, DW_AT_external
    2190                      .dwattr $C$DW$185, DW_AT_type(*$C$DW$T$20)
    2191                      .dwattr $C$DW$185, DW_AT_TI_begin_file("C:/ti/motorware/motorware_1_01_00_14/sw/modules/user/src/32b/
    2192                      .dwattr $C$DW$185, DW_AT_TI_begin_line(0x3be)
    2193                      .dwattr $C$DW$185, DW_AT_TI_begin_column(0x05)
    2194                      .dwattr $C$DW$185, DW_AT_TI_max_frame_size(-4)
    2195                      .dwpsn  file "C:/ti/motorware/motorware_1_01_00_14/sw/modules/user/src/32b/user.c",line 959,column 1,
    2196              
    2197                      .dwfde $C$DW$CIE, _USER_computeFlux
    2198              $C$DW$186       .dwtag  DW_TAG_formal_parameter, DW_AT_name("handle")
    2199                      .dwattr $C$DW$186, DW_AT_TI_symbol_name("_handle")
    2200                      .dwattr $C$DW$186, DW_AT_type(*$C$DW$T$87)
TMS320C2000 Assembler PC v6.4.4 Wed Jul 08 10:37:11 2015

Tools Copyright (c) 1996-2015 Texas Instruments Incorporated
C:\Users\grant\AppData\Local\Temp\0209210                            PAGE   45

    2201                      .dwattr $C$DW$186, DW_AT_location[DW_OP_reg12]
    2202              $C$DW$187       .dwtag  DW_TAG_formal_parameter, DW_AT_name("sf")
    2203                      .dwattr $C$DW$187, DW_AT_TI_symbol_name("_sf")
    2204                      .dwattr $C$DW$187, DW_AT_type(*$C$DW$T$93)
    2205                      .dwattr $C$DW$187, DW_AT_location[DW_OP_reg0]
    2206              
    2207              ;***************************************************************
    2208              ;* FNAME: _USER_computeFlux             FR SIZE:   2           *
    2209              ;*                                                             *
    2210              ;* FUNCTION ENVIRONMENT                                        *
    2211              ;*                                                             *
    2212              ;* FUNCTION PROPERTIES                                         *
    2213              ;*                            0 Parameter,  0 Auto,  2 SOE     *
    2214              ;***************************************************************
    2215              
    2216              _USER_computeFlux:
    2217              ;* AR4   assigned to _handle
    2218              $C$DW$188       .dwtag  DW_TAG_variable, DW_AT_name("handle")
    2219                      .dwattr $C$DW$188, DW_AT_TI_symbol_name("_handle")
    2220                      .dwattr $C$DW$188, DW_AT_type(*$C$DW$T$88)
    2221                      .dwattr $C$DW$188, DW_AT_location[DW_OP_reg12]
    2222              ;* AR1   assigned to _sf
    2223              $C$DW$189       .dwtag  DW_TAG_variable, DW_AT_name("sf")
    2224                      .dwattr $C$DW$189, DW_AT_TI_symbol_name("_sf")
    2225                      .dwattr $C$DW$189, DW_AT_type(*$C$DW$T$93)
    2226                      .dwattr $C$DW$189, DW_AT_location[DW_OP_reg6]
    2227                      .dwcfi  cfa_offset, -2
    2228                      .dwcfi  save_reg_to_mem, 26, 0
    2229 000003c3 B2BD          MOVL      *SP++,XAR1            ; [CPU_] 
    2230                      .dwcfi  save_reg_to_mem, 7, 2
    2231                      .dwcfi  cfa_offset, -4
    2232                      .dwpsn  file "C:/ti/motorware/motorware_1_01_00_14/sw/modules/user/src/32b/user.c",line 962,column 3,
    2233 000003c4 D018          MOVB      XAR0,#24              ; [CPU_] |962| 
    2234                      .dwpsn  file "C:/ti/motorware/motorware_1_01_00_14/sw/modules/user/src/32b/user.c",line 959,column 1,
    2235 000003c5 8BA9          MOVL      XAR1,ACC              ; [CPU_] |959| 
    2236                      .dwpsn  file "C:/ti/motorware/motorware_1_01_00_14/sw/modules/user/src/32b/user.c",line 962,column 3,
    2237 000003c6 8A94          MOVL      XAR4,*+XAR4[AR0]      ; [CPU_] |962| 
    2238              $C$DW$190       .dwtag  DW_TAG_TI_branch
    2239                      .dwattr $C$DW$190, DW_AT_low_pc(0x00)
    2240                      .dwattr $C$DW$190, DW_AT_name("_EST_getFlux_pu")
    2241                      .dwattr $C$DW$190, DW_AT_TI_call
    2242 000003c7 7640!         LCR       #_EST_getFlux_pu      ; [CPU_] |962| 
         000003c8 0000 
    2243                      ; call occurs [#_EST_getFlux_pu] ; [] |962| 
    2244 000003c9 1EAC          MOVL      XT,ACC                ; [CPU_] |962| 
    2245 000003ca 5605          IMPYL     P,XT,XAR1             ; [CPU_] |962| 
         000003cb 00A1 
    2246 000003cc 5663          QMPYL     ACC,XT,XAR1           ; [CPU_] |962| 
         000003cd 00A1 
    2247 000003ce 56A7          LSL64     ACC:P,#8              ; [CPU_] |962| 
    2248 000003cf 8BBE          MOVL      XAR1,*--SP            ; [CPU_] 
    2249                      .dwcfi  cfa_offset, -2
    2250                      .dwcfi  restore_reg, 7
    2251              $C$DW$191       .dwtag  DW_TAG_TI_branch
    2252                      .dwattr $C$DW$191, DW_AT_low_pc(0x00)
TMS320C2000 Assembler PC v6.4.4 Wed Jul 08 10:37:11 2015

Tools Copyright (c) 1996-2015 Texas Instruments Incorporated
C:\Users\grant\AppData\Local\Temp\0209210                            PAGE   46

    2253                      .dwattr $C$DW$191, DW_AT_TI_return
    2254 000003d0 0006          LRETR     ; [CPU_] 
    2255                      ; return occurs ; [] 
    2256                      .dwattr $C$DW$185, DW_AT_TI_end_file("C:/ti/motorware/motorware_1_01_00_14/sw/modules/user/src/32b/us
    2257                      .dwattr $C$DW$185, DW_AT_TI_end_line(0x3c3)
    2258                      .dwattr $C$DW$185, DW_AT_TI_end_column(0x01)
    2259                      .dwendentry
    2260                      .dwendtag $C$DW$185
    2261              
    2262 000003d1               .sect   ".text"
    2263                      .clink
    2264                      .global _USER_checkForErrors
    2265              
    2266              $C$DW$192       .dwtag  DW_TAG_subprogram, DW_AT_name("USER_checkForErrors")
    2267                      .dwattr $C$DW$192, DW_AT_low_pc(_USER_checkForErrors)
    2268                      .dwattr $C$DW$192, DW_AT_high_pc(0x00)
    2269                      .dwattr $C$DW$192, DW_AT_TI_symbol_name("_USER_checkForErrors")
    2270                      .dwattr $C$DW$192, DW_AT_external
    2271                      .dwattr $C$DW$192, DW_AT_TI_begin_file("C:/ti/motorware/motorware_1_01_00_14/sw/modules/user/src/32b/
    2272                      .dwattr $C$DW$192, DW_AT_TI_begin_line(0xbf)
    2273                      .dwattr $C$DW$192, DW_AT_TI_begin_column(0x06)
    2274                      .dwattr $C$DW$192, DW_AT_TI_max_frame_size(-2)
    2275                      .dwpsn  file "C:/ti/motorware/motorware_1_01_00_14/sw/modules/user/src/32b/user.c",line 192,column 1,
    2276              
    2277                      .dwfde $C$DW$CIE, _USER_checkForErrors
    2278              $C$DW$193       .dwtag  DW_TAG_formal_parameter, DW_AT_name("pUserParams")
    2279                      .dwattr $C$DW$193, DW_AT_TI_symbol_name("_pUserParams")
    2280                      .dwattr $C$DW$193, DW_AT_type(*$C$DW$T$79)
    2281                      .dwattr $C$DW$193, DW_AT_location[DW_OP_reg12]
    2282              
    2283              ;***************************************************************
    2284              ;* FNAME: _USER_checkForErrors          FR SIZE:   0           *
    2285              ;*                                                             *
    2286              ;* FUNCTION ENVIRONMENT                                        *
    2287              ;*                                                             *
    2288              ;* FUNCTION PROPERTIES                                         *
    2289              ;*                            0 Parameter,  0 Auto,  0 SOE     *
    2290              ;***************************************************************
    2291              
    2292 000003d1       _USER_checkForErrors:
    2293                      .dwcfi  cfa_offset, -2
    2294                      .dwcfi  save_reg_to_mem, 26, 0
    2295                      .dwpsn  file "C:/ti/motorware/motorware_1_01_00_14/sw/modules/user/src/32b/user.c",line 193,column 3,
    2296 000003d1 9A00          MOVB      AL,#0                 ; [CPU_] |193| 
    2297              $C$DW$194       .dwtag  DW_TAG_TI_branch
    2298                      .dwattr $C$DW$194, DW_AT_low_pc(0x00)
    2299                      .dwattr $C$DW$194, DW_AT_name("_USER_setErrorCode")
    2300                      .dwattr $C$DW$194, DW_AT_TI_call
    2301 000003d2 7640'         LCR       #_USER_setErrorCode   ; [CPU_] |193| 
         000003d3 01D6 
    2302                      ; call occurs [#_USER_setErrorCode] ; [] |193| 
    2303              $C$DW$195       .dwtag  DW_TAG_TI_branch
    2304                      .dwattr $C$DW$195, DW_AT_low_pc(0x00)
    2305                      .dwattr $C$DW$195, DW_AT_TI_return
    2306 000003d4 0006          LRETR     ; [CPU_] 
TMS320C2000 Assembler PC v6.4.4 Wed Jul 08 10:37:11 2015

Tools Copyright (c) 1996-2015 Texas Instruments Incorporated
C:\Users\grant\AppData\Local\Temp\0209210                            PAGE   47

    2307                      ; return occurs ; [] 
    2308                      .dwattr $C$DW$192, DW_AT_TI_end_file("C:/ti/motorware/motorware_1_01_00_14/sw/modules/user/src/32b/us
    2309                      .dwattr $C$DW$192, DW_AT_TI_end_line(0x329)
    2310                      .dwattr $C$DW$192, DW_AT_TI_end_column(0x01)
    2311                      .dwendentry
    2312                      .dwendtag $C$DW$192
    2313              
    2314 000003d5               .sect   ".text"
    2315                      .clink
    2316                      .global _USER_calcPIgains
    2317              
    2318              $C$DW$196       .dwtag  DW_TAG_subprogram, DW_AT_name("USER_calcPIgains")
    2319                      .dwattr $C$DW$196, DW_AT_low_pc(_USER_calcPIgains)
    2320                      .dwattr $C$DW$196, DW_AT_high_pc(0x00)
    2321                      .dwattr $C$DW$196, DW_AT_TI_symbol_name("_USER_calcPIgains")
    2322                      .dwattr $C$DW$196, DW_AT_external
    2323                      .dwattr $C$DW$196, DW_AT_TI_begin_file("C:/ti/motorware/motorware_1_01_00_14/sw/modules/user/src/32b/
    2324                      .dwattr $C$DW$196, DW_AT_TI_begin_line(0x34f)
    2325                      .dwattr $C$DW$196, DW_AT_TI_begin_column(0x06)
    2326                      .dwattr $C$DW$196, DW_AT_TI_max_frame_size(-30)
    2327                      .dwpsn  file "C:/ti/motorware/motorware_1_01_00_14/sw/modules/user/src/32b/user.c",line 848,column 1,
    2328              
    2329                      .dwfde $C$DW$CIE, _USER_calcPIgains
    2330              $C$DW$197       .dwtag  DW_TAG_formal_parameter, DW_AT_name("handle")
    2331                      .dwattr $C$DW$197, DW_AT_TI_symbol_name("_handle")
    2332                      .dwattr $C$DW$197, DW_AT_type(*$C$DW$T$87)
    2333                      .dwattr $C$DW$197, DW_AT_location[DW_OP_reg12]
    2334              
    2335              ;***************************************************************
    2336              ;* FNAME: _USER_calcPIgains             FR SIZE:  28           *
    2337              ;*                                                             *
    2338              ;* FUNCTION ENVIRONMENT                                        *
    2339              ;*                                                             *
    2340              ;* FUNCTION PROPERTIES                                         *
    2341              ;*                            4 Parameter, 18 Auto,  6 SOE     *
    2342              ;***************************************************************
    2343              
    2344              _USER_calcPIgains:
    2345              ;* AR1   assigned to $O$C1
    2346              ;* AR3   assigned to _handle
    2347              $C$DW$198       .dwtag  DW_TAG_variable, DW_AT_name("handle")
    2348                      .dwattr $C$DW$198, DW_AT_TI_symbol_name("_handle")
    2349                      .dwattr $C$DW$198, DW_AT_type(*$C$DW$T$88)
    2350                      .dwattr $C$DW$198, DW_AT_location[DW_OP_reg10]
    2351              $C$DW$199       .dwtag  DW_TAG_variable, DW_AT_name("ctrlPeriod_sec")
    2352                      .dwattr $C$DW$199, DW_AT_TI_symbol_name("_ctrlPeriod_sec")
    2353                      .dwattr $C$DW$199, DW_AT_type(*$C$DW$T$54)
    2354                      .dwattr $C$DW$199, DW_AT_location[DW_OP_breg20 -14]
    2355              ;* AR2   assigned to _Ls_d
    2356              $C$DW$200       .dwtag  DW_TAG_variable, DW_AT_name("Ls_d")
    2357                      .dwattr $C$DW$200, DW_AT_TI_symbol_name("_Ls_d")
    2358                      .dwattr $C$DW$200, DW_AT_type(*$C$DW$T$54)
    2359                      .dwattr $C$DW$200, DW_AT_location[DW_OP_reg8]
    2360              $C$DW$201       .dwtag  DW_TAG_variable, DW_AT_name("Ls_q")
    2361                      .dwattr $C$DW$201, DW_AT_TI_symbol_name("_Ls_q")
TMS320C2000 Assembler PC v6.4.4 Wed Jul 08 10:37:11 2015

Tools Copyright (c) 1996-2015 Texas Instruments Incorporated
C:\Users\grant\AppData\Local\Temp\0209210                            PAGE   48

    2362                      .dwattr $C$DW$201, DW_AT_type(*$C$DW$T$54)
    2363                      .dwattr $C$DW$201, DW_AT_location[DW_OP_breg20 -16]
    2364              $C$DW$202       .dwtag  DW_TAG_variable, DW_AT_name("Rs")
    2365                      .dwattr $C$DW$202, DW_AT_TI_symbol_name("_Rs")
    2366                      .dwattr $C$DW$202, DW_AT_type(*$C$DW$T$54)
    2367                      .dwattr $C$DW$202, DW_AT_location[DW_OP_breg20 -18]
    2368              $C$DW$203       .dwtag  DW_TAG_variable, DW_AT_name("Kp_Id")
    2369                      .dwattr $C$DW$203, DW_AT_TI_symbol_name("_Kp_Id")
    2370                      .dwattr $C$DW$203, DW_AT_type(*$C$DW$T$20)
    2371                      .dwattr $C$DW$203, DW_AT_location[DW_OP_breg20 -20]
    2372              ;* AR2   assigned to _Ki_Id
    2373              $C$DW$204       .dwtag  DW_TAG_variable, DW_AT_name("Ki_Id")
    2374                      .dwattr $C$DW$204, DW_AT_TI_symbol_name("_Ki_Id")
    2375                      .dwattr $C$DW$204, DW_AT_type(*$C$DW$T$20)
    2376                      .dwattr $C$DW$204, DW_AT_location[DW_OP_reg8]
    2377              $C$DW$205       .dwtag  DW_TAG_variable, DW_AT_name("Kp_Iq")
    2378                      .dwattr $C$DW$205, DW_AT_TI_symbol_name("_Kp_Iq")
    2379                      .dwattr $C$DW$205, DW_AT_type(*$C$DW$T$20)
    2380                      .dwattr $C$DW$205, DW_AT_location[DW_OP_breg20 -22]
    2381              ;* AR1   assigned to _Ki_Iq
    2382              $C$DW$206       .dwtag  DW_TAG_variable, DW_AT_name("Ki_Iq")
    2383                      .dwattr $C$DW$206, DW_AT_TI_symbol_name("_Ki_Iq")
    2384                      .dwattr $C$DW$206, DW_AT_type(*$C$DW$T$20)
    2385                      .dwattr $C$DW$206, DW_AT_location[DW_OP_reg6]
    2386                      .dwcfi  cfa_offset, -2
    2387                      .dwcfi  save_reg_to_mem, 26, 0
    2388 000003d5 B2BD          MOVL      *SP++,XAR1            ; [CPU_] 
    2389                      .dwcfi  save_reg_to_mem, 7, 2
    2390                      .dwcfi  cfa_offset, -4
    2391 000003d6 AABD          MOVL      *SP++,XAR2            ; [CPU_] 
    2392                      .dwcfi  save_reg_to_mem, 9, 4
    2393                      .dwcfi  cfa_offset, -6
    2394 000003d7 A2BD          MOVL      *SP++,XAR3            ; [CPU_] 
    2395                      .dwcfi  save_reg_to_mem, 11, 6
    2396                      .dwcfi  cfa_offset, -8
    2397 000003d8 FE16          ADDB      SP,#22                ; [CPU_U] 
    2398                      .dwcfi  cfa_offset, -30
    2399 000003d9 82A4          MOVL      XAR3,XAR4             ; [CPU_] |848| 
    2400                      .dwpsn  file "C:/ti/motorware/motorware_1_01_00_14/sw/modules/ctrl/src/32b/ctrl.h",line 165,column 3,
    2401 000003da D0A6          MOVB      XAR0,#166             ; [CPU_] |165| 
    2402 000003db 0693          MOVL      ACC,*+XAR3[AR0]       ; [CPU_] |165| 
    2403                      .dwpsn  file "C:/ti/motorware/motorware_1_01_00_14/sw/modules/user/src/32b/user.c",line 878,column 3,
    2404 000003dc D018          MOVB      XAR0,#24              ; [CPU_] |878| 
    2405                      .dwpsn  file "C:/ti/motorware/motorware_1_01_00_14/sw/modules/ctrl/src/32b/ctrl.h",line 165,column 3,
    2406 000003dd 1E4E          MOVL      *-SP[14],ACC          ; [CPU_] |165| 
    2407                      .dwpsn  file "C:/ti/motorware/motorware_1_01_00_14/sw/modules/user/src/32b/user.c",line 878,column 3,
    2408 000003de 8A93          MOVL      XAR4,*+XAR3[AR0]      ; [CPU_] |878| 
    2409              $C$DW$207       .dwtag  DW_TAG_TI_branch
    2410                      .dwattr $C$DW$207, DW_AT_low_pc(0x00)
    2411                      .dwattr $C$DW$207, DW_AT_name("_EST_getLs_d_H")
    2412                      .dwattr $C$DW$207, DW_AT_TI_call
    2413 000003df 7640!         LCR       #_EST_getLs_d_H       ; [CPU_] |878| 
         000003e0 0000 
    2414                      ; call occurs [#_EST_getLs_d_H] ; [] |878| 
    2415                      .dwpsn  file "C:/ti/motorware/motorware_1_01_00_14/sw/modules/user/src/32b/user.c",line 880,column 3,
TMS320C2000 Assembler PC v6.4.4 Wed Jul 08 10:37:11 2015

Tools Copyright (c) 1996-2015 Texas Instruments Incorporated
C:\Users\grant\AppData\Local\Temp\0209210                            PAGE   49

    2416 000003e1 D018          MOVB      XAR0,#24              ; [CPU_] |880| 
    2417                      .dwpsn  file "C:/ti/motorware/motorware_1_01_00_14/sw/modules/user/src/32b/user.c",line 878,column 3,
    2418 000003e2 86A9          MOVL      XAR2,ACC              ; [CPU_] |878| 
    2419                      .dwpsn  file "C:/ti/motorware/motorware_1_01_00_14/sw/modules/user/src/32b/user.c",line 880,column 3,
    2420 000003e3 8A93          MOVL      XAR4,*+XAR3[AR0]      ; [CPU_] |880| 
    2421              $C$DW$208       .dwtag  DW_TAG_TI_branch
    2422                      .dwattr $C$DW$208, DW_AT_low_pc(0x00)
    2423                      .dwattr $C$DW$208, DW_AT_name("_EST_getLs_q_H")
    2424                      .dwattr $C$DW$208, DW_AT_TI_call
    2425 000003e4 7640!         LCR       #_EST_getLs_q_H       ; [CPU_] |880| 
         000003e5 0000 
    2426                      ; call occurs [#_EST_getLs_q_H] ; [] |880| 
    2427                      .dwpsn  file "C:/ti/motorware/motorware_1_01_00_14/sw/modules/user/src/32b/user.c",line 882,column 3,
    2428 000003e6 D018          MOVB      XAR0,#24              ; [CPU_] |882| 
    2429                      .dwpsn  file "C:/ti/motorware/motorware_1_01_00_14/sw/modules/user/src/32b/user.c",line 880,column 3,
    2430 000003e7 1E50          MOVL      *-SP[16],ACC          ; [CPU_] |880| 
    2431                      .dwpsn  file "C:/ti/motorware/motorware_1_01_00_14/sw/modules/user/src/32b/user.c",line 882,column 3,
    2432 000003e8 8A93          MOVL      XAR4,*+XAR3[AR0]      ; [CPU_] |882| 
    2433              $C$DW$209       .dwtag  DW_TAG_TI_branch
    2434                      .dwattr $C$DW$209, DW_AT_low_pc(0x00)
    2435                      .dwattr $C$DW$209, DW_AT_name("_EST_getRs_Ohm")
    2436                      .dwattr $C$DW$209, DW_AT_TI_call
    2437 000003e9 7640!         LCR       #_EST_getRs_Ohm       ; [CPU_] |882| 
         000003ea 0000 
    2438                      ; call occurs [#_EST_getRs_Ohm] ; [] |882| 
    2439 000003eb 1E52          MOVL      *-SP[18],ACC          ; [CPU_] |882| 
    2440                      .dwpsn  file "C:/ti/motorware/motorware_1_01_00_14/sw/modules/user/src/32b/user.c",line 886,column 3,
    2441 000003ec 9A00          MOV       AL,#0                 ; [CPU_] |886| 
    2442 000003ed 28A8          MOV       AH,#16832             ; [CPU_] |886| 
         000003ee 41C0 
    2443 000003ef 1E42          MOVL      *-SP[2],ACC           ; [CPU_] |886| 
    2444 000003f0 064E          MOVL      ACC,*-SP[14]          ; [CPU_] |886| 
    2445              $C$DW$210       .dwtag  DW_TAG_TI_branch
    2446                      .dwattr $C$DW$210, DW_AT_low_pc(0x00)
    2447                      .dwattr $C$DW$210, DW_AT_name("FS$$MPY")
    2448                      .dwattr $C$DW$210, DW_AT_TI_call
    2449 000003f1 7640!         LCR       #FS$$MPY              ; [CPU_] |886| 
         000003f2 0000 
    2450                      ; call occurs [#FS$$MPY] ; [] |886| 
    2451 000003f3 8BA9          MOVL      XAR1,ACC              ; [CPU_] |886| 
    2452 000003f4 FF2F          MOV       ACC,#32000 << 15      ; [CPU_] |886| 
         000003f5 7D00 
    2453 000003f6 1E42          MOVL      *-SP[2],ACC           ; [CPU_] |886| 
    2454 000003f7 AAA9          MOVL      ACC,XAR2              ; [CPU_] |886| 
    2455              $C$DW$211       .dwtag  DW_TAG_TI_branch
    2456                      .dwattr $C$DW$211, DW_AT_low_pc(0x00)
    2457                      .dwattr $C$DW$211, DW_AT_name("FS$$MPY")
    2458                      .dwattr $C$DW$211, DW_AT_TI_call
    2459 000003f8 7640!         LCR       #FS$$MPY              ; [CPU_] |886| 
         000003f9 0000 
    2460                      ; call occurs [#FS$$MPY] ; [] |886| 
    2461 000003fa 1EA6          MOVL      XAR6,ACC              ; [CPU_] |886| 
    2462 000003fb 9A00          MOV       AL,#0                 ; [CPU_] |886| 
    2463 000003fc 28A8          MOV       AH,#16800             ; [CPU_] |886| 
         000003fd 41A0 
TMS320C2000 Assembler PC v6.4.4 Wed Jul 08 10:37:11 2015

Tools Copyright (c) 1996-2015 Texas Instruments Incorporated
C:\Users\grant\AppData\Local\Temp\0209210                            PAGE   50

    2464 000003fe 1E42          MOVL      *-SP[2],ACC           ; [CPU_] |886| 
    2465 000003ff 06A6          MOVL      ACC,XAR6              ; [CPU_] |886| 
    2466              $C$DW$212       .dwtag  DW_TAG_TI_branch
    2467                      .dwattr $C$DW$212, DW_AT_low_pc(0x00)
    2468                      .dwattr $C$DW$212, DW_AT_name("FS$$MPY")
    2469                      .dwattr $C$DW$212, DW_AT_TI_call
    2470 00000400 7640!         LCR       #FS$$MPY              ; [CPU_] |886| 
         00000401 0000 
    2471                      ; call occurs [#FS$$MPY] ; [] |886| 
    2472 00000402 B242          MOVL      *-SP[2],XAR1          ; [CPU_] |886| 
    2473              $C$DW$213       .dwtag  DW_TAG_TI_branch
    2474                      .dwattr $C$DW$213, DW_AT_low_pc(0x00)
    2475                      .dwattr $C$DW$213, DW_AT_name("FS$$DIV")
    2476                      .dwattr $C$DW$213, DW_AT_TI_call
    2477 00000403 7640!         LCR       #FS$$DIV              ; [CPU_] |886| 
         00000404 0000 
    2478                      ; call occurs [#FS$$DIV] ; [] |886| 
    2479 00000405 5CAD          MOVZ      AR4,SP                ; [CPU_] |886| 
    2480 00000406 DC8C          SUBB      XAR4,#12              ; [CPU_U] |886| 
    2481 00000407 88A4          MOVZ      AR6,AR4               ; [CPU_] |886| 
    2482              $C$DW$214       .dwtag  DW_TAG_TI_branch
    2483                      .dwattr $C$DW$214, DW_AT_low_pc(0x00)
    2484                      .dwattr $C$DW$214, DW_AT_name("FS$$TOFD")
    2485                      .dwattr $C$DW$214, DW_AT_TI_call
    2486 00000408 7640!         LCR       #FS$$TOFD             ; [CPU_] |886| 
         00000409 0000 
    2487                      ; call occurs [#FS$$TOFD] ; [] |886| 
    2488 0000040a 5DAD          MOVZ      AR5,SP                ; [CPU_] |886| 
    2489 0000040b 5CAD          MOVZ      AR4,SP                ; [CPU_] |886| 
    2490 0000040c DD88          SUBB      XAR5,#8               ; [CPU_U] |886| 
    2491 0000040d DC8C          SUBB      XAR4,#12              ; [CPU_U] |886| 
    2492 0000040e 88A5          MOVZ      AR6,AR5               ; [CPU_] |886| 
    2493 0000040f 5CA4          MOVZ      AR4,AR4               ; [CPU_] |886| 
    2494 00000410 8F40+         MOVL      XAR5,#$C$FL2          ; [CPU_U] |886| 
         00000411 0004 
    2495              $C$DW$215       .dwtag  DW_TAG_TI_branch
    2496                      .dwattr $C$DW$215, DW_AT_low_pc(0x00)
    2497                      .dwattr $C$DW$215, DW_AT_name("FD$$MPY")
    2498                      .dwattr $C$DW$215, DW_AT_TI_call
    2499 00000412 7640!         LCR       #FD$$MPY              ; [CPU_] |886| 
         00000413 0000 
    2500                      ; call occurs [#FD$$MPY] ; [] |886| 
    2501 00000414 5CAD          MOVZ      AR4,SP                ; [CPU_] |886| 
    2502 00000415 DC88          SUBB      XAR4,#8               ; [CPU_U] |886| 
    2503 00000416 5CA4          MOVZ      AR4,AR4               ; [CPU_] |886| 
    2504              $C$DW$216       .dwtag  DW_TAG_TI_branch
    2505                      .dwattr $C$DW$216, DW_AT_low_pc(0x00)
    2506                      .dwattr $C$DW$216, DW_AT_name("FD$$TOL")
    2507                      .dwattr $C$DW$216, DW_AT_TI_call
    2508 00000417 7640!         LCR       #FD$$TOL              ; [CPU_] |886| 
         00000418 0000 
    2509                      ; call occurs [#FD$$TOL] ; [] |886| 
    2510 00000419 1E54          MOVL      *-SP[20],ACC          ; [CPU_] |886| 
    2511                      .dwpsn  file "C:/ti/motorware/motorware_1_01_00_14/sw/modules/user/src/32b/user.c",line 887,column 3,
    2512 0000041a AA42          MOVL      *-SP[2],XAR2          ; [CPU_] |887| 
TMS320C2000 Assembler PC v6.4.4 Wed Jul 08 10:37:11 2015

Tools Copyright (c) 1996-2015 Texas Instruments Incorporated
C:\Users\grant\AppData\Local\Temp\0209210                            PAGE   51

    2513 0000041b 0652          MOVL      ACC,*-SP[18]          ; [CPU_] |887| 
    2514              $C$DW$217       .dwtag  DW_TAG_TI_branch
    2515                      .dwattr $C$DW$217, DW_AT_low_pc(0x00)
    2516                      .dwattr $C$DW$217, DW_AT_name("FS$$DIV")
    2517                      .dwattr $C$DW$217, DW_AT_TI_call
    2518 0000041c 7640!         LCR       #FS$$DIV              ; [CPU_] |887| 
         0000041d 0000 
    2519                      ; call occurs [#FS$$DIV] ; [] |887| 
    2520 0000041e C44E          MOVL      XAR6,*-SP[14]         ; [CPU_] |887| 
    2521 0000041f C242          MOVL      *-SP[2],XAR6          ; [CPU_] |887| 
    2522              $C$DW$218       .dwtag  DW_TAG_TI_branch
    2523                      .dwattr $C$DW$218, DW_AT_low_pc(0x00)
    2524                      .dwattr $C$DW$218, DW_AT_name("FS$$MPY")
    2525                      .dwattr $C$DW$218, DW_AT_TI_call
    2526 00000420 7640!         LCR       #FS$$MPY              ; [CPU_] |887| 
         00000421 0000 
    2527                      ; call occurs [#FS$$MPY] ; [] |887| 
    2528 00000422 5CAD          MOVZ      AR4,SP                ; [CPU_] |887| 
    2529 00000423 DC8C          SUBB      XAR4,#12              ; [CPU_U] |887| 
    2530 00000424 88A4          MOVZ      AR6,AR4               ; [CPU_] |887| 
    2531              $C$DW$219       .dwtag  DW_TAG_TI_branch
    2532                      .dwattr $C$DW$219, DW_AT_low_pc(0x00)
    2533                      .dwattr $C$DW$219, DW_AT_name("FS$$TOFD")
    2534                      .dwattr $C$DW$219, DW_AT_TI_call
    2535 00000425 7640!         LCR       #FS$$TOFD             ; [CPU_] |887| 
         00000426 0000 
    2536                      ; call occurs [#FS$$TOFD] ; [] |887| 
    2537 00000427 5DAD          MOVZ      AR5,SP                ; [CPU_] |887| 
    2538 00000428 5CAD          MOVZ      AR4,SP                ; [CPU_] |887| 
    2539 00000429 DD88          SUBB      XAR5,#8               ; [CPU_U] |887| 
    2540 0000042a DC8C          SUBB      XAR4,#12              ; [CPU_U] |887| 
    2541 0000042b 88A5          MOVZ      AR6,AR5               ; [CPU_] |887| 
    2542 0000042c 5CA4          MOVZ      AR4,AR4               ; [CPU_] |887| 
    2543 0000042d 8F40+         MOVL      XAR5,#$C$FL2          ; [CPU_U] |887| 
         0000042e 0004 
    2544              $C$DW$220       .dwtag  DW_TAG_TI_branch
    2545                      .dwattr $C$DW$220, DW_AT_low_pc(0x00)
    2546                      .dwattr $C$DW$220, DW_AT_name("FD$$MPY")
    2547                      .dwattr $C$DW$220, DW_AT_TI_call
    2548 0000042f 7640!         LCR       #FD$$MPY              ; [CPU_] |887| 
         00000430 0000 
    2549                      ; call occurs [#FD$$MPY] ; [] |887| 
    2550 00000431 5CAD          MOVZ      AR4,SP                ; [CPU_] |887| 
    2551 00000432 DC88          SUBB      XAR4,#8               ; [CPU_U] |887| 
    2552 00000433 5CA4          MOVZ      AR4,AR4               ; [CPU_] |887| 
    2553              $C$DW$221       .dwtag  DW_TAG_TI_branch
    2554                      .dwattr $C$DW$221, DW_AT_low_pc(0x00)
    2555                      .dwattr $C$DW$221, DW_AT_name("FD$$TOL")
    2556                      .dwattr $C$DW$221, DW_AT_TI_call
    2557 00000434 7640!         LCR       #FD$$TOL              ; [CPU_] |887| 
         00000435 0000 
    2558                      ; call occurs [#FD$$TOL] ; [] |887| 
    2559 00000436 86A9          MOVL      XAR2,ACC              ; [CPU_] |887| 
    2560                      .dwpsn  file "C:/ti/motorware/motorware_1_01_00_14/sw/modules/user/src/32b/user.c",line 890,column 3,
    2561 00000437 FF2F          MOV       ACC,#32000 << 15      ; [CPU_] |890| 
TMS320C2000 Assembler PC v6.4.4 Wed Jul 08 10:37:11 2015

Tools Copyright (c) 1996-2015 Texas Instruments Incorporated
C:\Users\grant\AppData\Local\Temp\0209210                            PAGE   52

         00000438 7D00 
    2562 00000439 1E42          MOVL      *-SP[2],ACC           ; [CPU_] |890| 
    2563 0000043a 0650          MOVL      ACC,*-SP[16]          ; [CPU_] |890| 
    2564              $C$DW$222       .dwtag  DW_TAG_TI_branch
    2565                      .dwattr $C$DW$222, DW_AT_low_pc(0x00)
    2566                      .dwattr $C$DW$222, DW_AT_name("FS$$MPY")
    2567                      .dwattr $C$DW$222, DW_AT_TI_call
    2568 0000043b 7640!         LCR       #FS$$MPY              ; [CPU_] |890| 
         0000043c 0000 
    2569                      ; call occurs [#FS$$MPY] ; [] |890| 
    2570 0000043d 1EA6          MOVL      XAR6,ACC              ; [CPU_] |890| 
    2571 0000043e 9A00          MOV       AL,#0                 ; [CPU_] |890| 
    2572 0000043f 28A8          MOV       AH,#16800             ; [CPU_] |890| 
         00000440 41A0 
    2573 00000441 1E42          MOVL      *-SP[2],ACC           ; [CPU_] |890| 
    2574 00000442 06A6          MOVL      ACC,XAR6              ; [CPU_] |890| 
    2575              $C$DW$223       .dwtag  DW_TAG_TI_branch
    2576                      .dwattr $C$DW$223, DW_AT_low_pc(0x00)
    2577                      .dwattr $C$DW$223, DW_AT_name("FS$$MPY")
    2578                      .dwattr $C$DW$223, DW_AT_TI_call
    2579 00000443 7640!         LCR       #FS$$MPY              ; [CPU_] |890| 
         00000444 0000 
    2580                      ; call occurs [#FS$$MPY] ; [] |890| 
    2581 00000445 B242          MOVL      *-SP[2],XAR1          ; [CPU_] |890| 
    2582              $C$DW$224       .dwtag  DW_TAG_TI_branch
    2583                      .dwattr $C$DW$224, DW_AT_low_pc(0x00)
    2584                      .dwattr $C$DW$224, DW_AT_name("FS$$DIV")
    2585                      .dwattr $C$DW$224, DW_AT_TI_call
    2586 00000446 7640!         LCR       #FS$$DIV              ; [CPU_] |890| 
         00000447 0000 
    2587                      ; call occurs [#FS$$DIV] ; [] |890| 
    2588 00000448 5CAD          MOVZ      AR4,SP                ; [CPU_] |890| 
    2589 00000449 DC8C          SUBB      XAR4,#12              ; [CPU_U] |890| 
    2590 0000044a 88A4          MOVZ      AR6,AR4               ; [CPU_] |890| 
    2591              $C$DW$225       .dwtag  DW_TAG_TI_branch
    2592                      .dwattr $C$DW$225, DW_AT_low_pc(0x00)
    2593                      .dwattr $C$DW$225, DW_AT_name("FS$$TOFD")
    2594                      .dwattr $C$DW$225, DW_AT_TI_call
    2595 0000044b 7640!         LCR       #FS$$TOFD             ; [CPU_] |890| 
         0000044c 0000 
    2596                      ; call occurs [#FS$$TOFD] ; [] |890| 
    2597 0000044d 5DAD          MOVZ      AR5,SP                ; [CPU_] |890| 
    2598 0000044e 5CAD          MOVZ      AR4,SP                ; [CPU_] |890| 
    2599 0000044f DD88          SUBB      XAR5,#8               ; [CPU_U] |890| 
    2600 00000450 DC8C          SUBB      XAR4,#12              ; [CPU_U] |890| 
    2601 00000451 88A5          MOVZ      AR6,AR5               ; [CPU_] |890| 
    2602 00000452 5CA4          MOVZ      AR4,AR4               ; [CPU_] |890| 
    2603 00000453 8F40+         MOVL      XAR5,#$C$FL2          ; [CPU_U] |890| 
         00000454 0004 
    2604              $C$DW$226       .dwtag  DW_TAG_TI_branch
    2605                      .dwattr $C$DW$226, DW_AT_low_pc(0x00)
    2606                      .dwattr $C$DW$226, DW_AT_name("FD$$MPY")
    2607                      .dwattr $C$DW$226, DW_AT_TI_call
    2608 00000455 7640!         LCR       #FD$$MPY              ; [CPU_] |890| 
         00000456 0000 
TMS320C2000 Assembler PC v6.4.4 Wed Jul 08 10:37:11 2015

Tools Copyright (c) 1996-2015 Texas Instruments Incorporated
C:\Users\grant\AppData\Local\Temp\0209210                            PAGE   53

    2609                      ; call occurs [#FD$$MPY] ; [] |890| 
    2610 00000457 5CAD          MOVZ      AR4,SP                ; [CPU_] |890| 
    2611 00000458 DC88          SUBB      XAR4,#8               ; [CPU_U] |890| 
    2612 00000459 5CA4          MOVZ      AR4,AR4               ; [CPU_] |890| 
    2613              $C$DW$227       .dwtag  DW_TAG_TI_branch
    2614                      .dwattr $C$DW$227, DW_AT_low_pc(0x00)
    2615                      .dwattr $C$DW$227, DW_AT_name("FD$$TOL")
    2616                      .dwattr $C$DW$227, DW_AT_TI_call
    2617 0000045a 7640!         LCR       #FD$$TOL              ; [CPU_] |890| 
         0000045b 0000 
    2618                      ; call occurs [#FD$$TOL] ; [] |890| 
    2619 0000045c 1E56          MOVL      *-SP[22],ACC          ; [CPU_] |890| 
    2620 0000045d 0650          MOVL      ACC,*-SP[16]          ; [CPU_] |890| 
    2621                      .dwpsn  file "C:/ti/motorware/motorware_1_01_00_14/sw/modules/user/src/32b/user.c",line 891,column 3,
    2622 0000045e 1E42          MOVL      *-SP[2],ACC           ; [CPU_] |891| 
    2623 0000045f 0652          MOVL      ACC,*-SP[18]          ; [CPU_] |891| 
    2624              $C$DW$228       .dwtag  DW_TAG_TI_branch
    2625                      .dwattr $C$DW$228, DW_AT_low_pc(0x00)
    2626                      .dwattr $C$DW$228, DW_AT_name("FS$$DIV")
    2627                      .dwattr $C$DW$228, DW_AT_TI_call
    2628 00000460 7640!         LCR       #FS$$DIV              ; [CPU_] |891| 
         00000461 0000 
    2629                      ; call occurs [#FS$$DIV] ; [] |891| 
    2630 00000462 C44E          MOVL      XAR6,*-SP[14]         ; [CPU_] |891| 
    2631 00000463 C242          MOVL      *-SP[2],XAR6          ; [CPU_] |891| 
    2632              $C$DW$229       .dwtag  DW_TAG_TI_branch
    2633                      .dwattr $C$DW$229, DW_AT_low_pc(0x00)
    2634                      .dwattr $C$DW$229, DW_AT_name("FS$$MPY")
    2635                      .dwattr $C$DW$229, DW_AT_TI_call
    2636 00000464 7640!         LCR       #FS$$MPY              ; [CPU_] |891| 
         00000465 0000 
    2637                      ; call occurs [#FS$$MPY] ; [] |891| 
    2638 00000466 5CAD          MOVZ      AR4,SP                ; [CPU_] |891| 
    2639 00000467 DC8C          SUBB      XAR4,#12              ; [CPU_U] |891| 
    2640 00000468 88A4          MOVZ      AR6,AR4               ; [CPU_] |891| 
    2641              $C$DW$230       .dwtag  DW_TAG_TI_branch
    2642                      .dwattr $C$DW$230, DW_AT_low_pc(0x00)
    2643                      .dwattr $C$DW$230, DW_AT_name("FS$$TOFD")
    2644                      .dwattr $C$DW$230, DW_AT_TI_call
    2645 00000469 7640!         LCR       #FS$$TOFD             ; [CPU_] |891| 
         0000046a 0000 
    2646                      ; call occurs [#FS$$TOFD] ; [] |891| 
    2647 0000046b 5DAD          MOVZ      AR5,SP                ; [CPU_] |891| 
    2648 0000046c 5CAD          MOVZ      AR4,SP                ; [CPU_] |891| 
    2649 0000046d DD88          SUBB      XAR5,#8               ; [CPU_U] |891| 
    2650 0000046e DC8C          SUBB      XAR4,#12              ; [CPU_U] |891| 
    2651 0000046f 88A5          MOVZ      AR6,AR5               ; [CPU_] |891| 
    2652 00000470 5CA4          MOVZ      AR4,AR4               ; [CPU_] |891| 
    2653 00000471 8F40+         MOVL      XAR5,#$C$FL2          ; [CPU_U] |891| 
         00000472 0004 
    2654              $C$DW$231       .dwtag  DW_TAG_TI_branch
    2655                      .dwattr $C$DW$231, DW_AT_low_pc(0x00)
    2656                      .dwattr $C$DW$231, DW_AT_name("FD$$MPY")
    2657                      .dwattr $C$DW$231, DW_AT_TI_call
    2658 00000473 7640!         LCR       #FD$$MPY              ; [CPU_] |891| 
TMS320C2000 Assembler PC v6.4.4 Wed Jul 08 10:37:11 2015

Tools Copyright (c) 1996-2015 Texas Instruments Incorporated
C:\Users\grant\AppData\Local\Temp\0209210                            PAGE   54

         00000474 0000 
    2659                      ; call occurs [#FD$$MPY] ; [] |891| 
    2660 00000475 5CAD          MOVZ      AR4,SP                ; [CPU_] |891| 
    2661 00000476 DC88          SUBB      XAR4,#8               ; [CPU_U] |891| 
    2662 00000477 5CA4          MOVZ      AR4,AR4               ; [CPU_] |891| 
    2663              $C$DW$232       .dwtag  DW_TAG_TI_branch
    2664                      .dwattr $C$DW$232, DW_AT_low_pc(0x00)
    2665                      .dwattr $C$DW$232, DW_AT_name("FD$$TOL")
    2666                      .dwattr $C$DW$232, DW_AT_TI_call
    2667 00000478 7640!         LCR       #FD$$TOL              ; [CPU_] |891| 
         00000479 0000 
    2668                      ; call occurs [#FD$$TOL] ; [] |891| 
    2669                      .dwpsn  file "C:/ti/motorware/motorware_1_01_00_14/sw/modules/pid/src/32b/pid.h",line 333,column 3,is
    2670 0000047a D020          MOVB      XAR0,#32              ; [CPU_] |333| 
    2671 0000047b 8A93          MOVL      XAR4,*+XAR3[AR0]      ; [CPU_] |333| 
    2672                      .dwpsn  file "C:/ti/motorware/motorware_1_01_00_14/sw/modules/user/src/32b/user.c",line 891,column 3,
    2673 0000047c 8BA9          MOVL      XAR1,ACC              ; [CPU_] |891| 
    2674                      .dwpsn  file "C:/ti/motorware/motorware_1_01_00_14/sw/modules/user/src/32b/user.c",line 897,column 3,
    2675 0000047d 0200          MOVB      ACC,#0                ; [CPU_] |897| 
    2676                      .dwpsn  file "C:/ti/motorware/motorware_1_01_00_14/sw/modules/pid/src/32b/pid.h",line 333,column 3,is
    2677 0000047e AAD4          MOVL      *+XAR4[2],XAR2        ; [CPU_] |333| 
    2678                      .dwpsn  file "C:/ti/motorware/motorware_1_01_00_14/sw/modules/user/src/32b/user.c",line 897,column 3,
    2679 0000047f AA42          MOVL      *-SP[2],XAR2          ; [CPU_] |897| 
    2680 00000480 1E44          MOVL      *-SP[4],ACC           ; [CPU_] |897| 
    2681 00000481 0654          MOVL      ACC,*-SP[20]          ; [CPU_] |897| 
    2682 00000482 D501          MOVB      XAR5,#1               ; [CPU_] |897| 
    2683 00000483 8AA3          MOVL      XAR4,XAR3             ; [CPU_] |897| 
    2684              $C$DW$233       .dwtag  DW_TAG_TI_branch
    2685                      .dwattr $C$DW$233, DW_AT_low_pc(0x00)
    2686                      .dwattr $C$DW$233, DW_AT_name("_CTRL_setGains")
    2687                      .dwattr $C$DW$233, DW_AT_TI_call
    2688 00000484 7640!         LCR       #_CTRL_setGains       ; [CPU_] |897| 
         00000485 0000 
    2689                      ; call occurs [#_CTRL_setGains] ; [] |897| 
    2690                      .dwpsn  file "C:/ti/motorware/motorware_1_01_00_14/sw/modules/pid/src/32b/pid.h",line 333,column 3,is
    2691 00000486 D032          MOVB      XAR0,#50              ; [CPU_] |333| 
    2692 00000487 8A93          MOVL      XAR4,*+XAR3[AR0]      ; [CPU_] |333| 
    2693                      .dwpsn  file "C:/ti/motorware/motorware_1_01_00_14/sw/modules/user/src/32b/user.c",line 901,column 3,
    2694 00000488 0200          MOVB      ACC,#0                ; [CPU_] |901| 
    2695                      .dwpsn  file "C:/ti/motorware/motorware_1_01_00_14/sw/modules/pid/src/32b/pid.h",line 333,column 3,is
    2696 00000489 B2D4          MOVL      *+XAR4[2],XAR1        ; [CPU_] |333| 
    2697                      .dwpsn  file "C:/ti/motorware/motorware_1_01_00_14/sw/modules/user/src/32b/user.c",line 901,column 3,
    2698 0000048a B242          MOVL      *-SP[2],XAR1          ; [CPU_] |901| 
    2699 0000048b 1E44          MOVL      *-SP[4],ACC           ; [CPU_] |901| 
    2700 0000048c 0656          MOVL      ACC,*-SP[22]          ; [CPU_] |901| 
    2701 0000048d D502          MOVB      XAR5,#2               ; [CPU_] |901| 
    2702 0000048e 8AA3          MOVL      XAR4,XAR3             ; [CPU_] |901| 
    2703              $C$DW$234       .dwtag  DW_TAG_TI_branch
    2704                      .dwattr $C$DW$234, DW_AT_low_pc(0x00)
    2705                      .dwattr $C$DW$234, DW_AT_name("_CTRL_setGains")
    2706                      .dwattr $C$DW$234, DW_AT_TI_call
    2707 0000048f 7640!         LCR       #_CTRL_setGains       ; [CPU_] |901| 
         00000490 0000 
    2708                      ; call occurs [#_CTRL_setGains] ; [] |901| 
    2709 00000491 FE96          SUBB      SP,#22                ; [CPU_U] 
TMS320C2000 Assembler PC v6.4.4 Wed Jul 08 10:37:11 2015

Tools Copyright (c) 1996-2015 Texas Instruments Incorporated
C:\Users\grant\AppData\Local\Temp\0209210                            PAGE   55

    2710                      .dwcfi  cfa_offset, -8
    2711 00000492 82BE          MOVL      XAR3,*--SP            ; [CPU_] 
    2712                      .dwcfi  cfa_offset, -6
    2713                      .dwcfi  restore_reg, 11
    2714 00000493 86BE          MOVL      XAR2,*--SP            ; [CPU_] 
    2715                      .dwcfi  cfa_offset, -4
    2716                      .dwcfi  restore_reg, 9
    2717 00000494 8BBE          MOVL      XAR1,*--SP            ; [CPU_] 
    2718                      .dwcfi  cfa_offset, -2
    2719                      .dwcfi  restore_reg, 7
    2720              $C$DW$235       .dwtag  DW_TAG_TI_branch
    2721                      .dwattr $C$DW$235, DW_AT_low_pc(0x00)
    2722                      .dwattr $C$DW$235, DW_AT_TI_return
    2723 00000495 0006          LRETR     ; [CPU_] 
    2724                      ; return occurs ; [] 
    2725                      .dwattr $C$DW$196, DW_AT_TI_end_file("C:/ti/motorware/motorware_1_01_00_14/sw/modules/user/src/32b/us
    2726                      .dwattr $C$DW$196, DW_AT_TI_end_line(0x388)
    2727                      .dwattr $C$DW$196, DW_AT_TI_end_column(0x01)
    2728                      .dwendentry
    2729                      .dwendtag $C$DW$196
    2730              
    2731              ;***************************************************************
    2732              ;* FLOATING-POINT CONSTANTS                                    *
    2733              ;***************************************************************
    2734 00000000               .sect   ".econst"
    2735                      .align  2
    2736 00000000 0000  $C$FL1: .xldouble       $strtod("0x1p+30")
         00000001 0000 
         00000002 0000 
         00000003 41D0 
    2737                      .align  2
    2738 00000004 0000  $C$FL2: .xldouble       $strtod("0x1p+24")
         00000005 0000 
         00000006 0000 
         00000007 4170 
    2739              ;**************************************************************
    2740              ;* UNDEFINED EXTERNAL REFERENCES                              *
    2741              ;**************************************************************
    2742                      .global _EST_setLs_d_pu
    2743                      .global _CTRL_setGains
    2744                      .global _EST_setLs_q_pu
    2745                      .global _EST_setLs_qFmt
    2746                      .global _pow
    2747                      .global _log
    2748                      .global _EST_getFlux_pu
    2749                      .global _modf
    2750                      .global __IQ30toF
    2751                      .global _EST_getLs_coarse_max_pu
    2752                      .global _EST_getLs_q_pu
    2753                      .global _EST_getLs_d_pu
    2754                      .global _EST_getLs_d_H
    2755                      .global _EST_getRs_Ohm
    2756                      .global _EST_getLs_q_H
    2757                      .global FS$$MPY
    2758                      .global FS$$DIV
TMS320C2000 Assembler PC v6.4.4 Wed Jul 08 10:37:11 2015

Tools Copyright (c) 1996-2015 Texas Instruments Incorporated
C:\Users\grant\AppData\Local\Temp\0209210                            PAGE   56

    2759                      .global I$$TOFS
    2760                      .global FD$$MPY
    2761                      .global FS$$TOFD
    2762                      .global FS$$CMP
    2763                      .global FS$$ADD
    2764                      .global FS$$TOI
    2765                      .global FD$$TOL
    2766                      .global FS$$NEG
    2767              
    2768              ;***************************************************************
    2769              ;* TYPE INFORMATION                                            *
    2770              ;***************************************************************
    2771              
    2772              $C$DW$T$25      .dwtag  DW_TAG_enumeration_type
    2773                      .dwattr $C$DW$T$25, DW_AT_byte_size(0x01)
    2774              $C$DW$236       .dwtag  DW_TAG_enumerator, DW_AT_name("CTRL_State_Error"), DW_AT_const_value(0x00)
    2775              $C$DW$237       .dwtag  DW_TAG_enumerator, DW_AT_name("CTRL_State_Idle"), DW_AT_const_value(0x01)
    2776              $C$DW$238       .dwtag  DW_TAG_enumerator, DW_AT_name("CTRL_State_OffLine"), DW_AT_const_value(0x02)
    2777              $C$DW$239       .dwtag  DW_TAG_enumerator, DW_AT_name("CTRL_State_OnLine"), DW_AT_const_value(0x03)
    2778              $C$DW$240       .dwtag  DW_TAG_enumerator, DW_AT_name("CTRL_numStates"), DW_AT_const_value(0x04)
    2779                      .dwendtag $C$DW$T$25
    2780              
    2781              $C$DW$T$26      .dwtag  DW_TAG_typedef, DW_AT_name("CTRL_State_e")
    2782                      .dwattr $C$DW$T$26, DW_AT_type(*$C$DW$T$25)
    2783                      .dwattr $C$DW$T$26, DW_AT_language(DW_LANG_C)
    2784              
    2785              $C$DW$T$27      .dwtag  DW_TAG_enumeration_type
    2786                      .dwattr $C$DW$T$27, DW_AT_byte_size(0x01)
    2787              $C$DW$241       .dwtag  DW_TAG_enumerator, DW_AT_name("CTRL_ErrorCode_NoError"), DW_AT_const_value(0x00)
    2788              $C$DW$242       .dwtag  DW_TAG_enumerator, DW_AT_name("CTRL_ErrorCode_IdClip"), DW_AT_const_value(0x01)
    2789              $C$DW$243       .dwtag  DW_TAG_enumerator, DW_AT_name("CTRL_ErrorCode_EstError"), DW_AT_const_value(0x02)
    2790              $C$DW$244       .dwtag  DW_TAG_enumerator, DW_AT_name("CTRL_numErrorCodes"), DW_AT_const_value(0x03)
    2791                      .dwendtag $C$DW$T$27
    2792              
    2793              $C$DW$T$28      .dwtag  DW_TAG_typedef, DW_AT_name("CTRL_ErrorCode_e")
    2794                      .dwattr $C$DW$T$28, DW_AT_type(*$C$DW$T$27)
    2795                      .dwattr $C$DW$T$28, DW_AT_language(DW_LANG_C)
    2796              
    2797              $C$DW$T$58      .dwtag  DW_TAG_enumeration_type
    2798                      .dwattr $C$DW$T$58, DW_AT_byte_size(0x01)
    2799              $C$DW$245       .dwtag  DW_TAG_enumerator, DW_AT_name("CTRL_TargetProc_2806x"), DW_AT_const_value(0x00)
    2800              $C$DW$246       .dwtag  DW_TAG_enumerator, DW_AT_name("CTRL_TargetProc_2805x"), DW_AT_const_value(0x01)
    2801              $C$DW$247       .dwtag  DW_TAG_enumerator, DW_AT_name("CTRL_TargetProc_2803x"), DW_AT_const_value(0x02)
    2802              $C$DW$248       .dwtag  DW_TAG_enumerator, DW_AT_name("CTRL_TargetProc_2802x"), DW_AT_const_value(0x03)
    2803              $C$DW$249       .dwtag  DW_TAG_enumerator, DW_AT_name("CTRL_TargetProc_Unknown"), DW_AT_const_value(0x04)
    2804                      .dwendtag $C$DW$T$58
    2805              
    2806              $C$DW$T$59      .dwtag  DW_TAG_typedef, DW_AT_name("CTRL_TargetProc_e")
    2807                      .dwattr $C$DW$T$59, DW_AT_type(*$C$DW$T$58)
    2808                      .dwattr $C$DW$T$59, DW_AT_language(DW_LANG_C)
    2809              
    2810              $C$DW$T$64      .dwtag  DW_TAG_enumeration_type
    2811                      .dwattr $C$DW$T$64, DW_AT_byte_size(0x01)
    2812              $C$DW$250       .dwtag  DW_TAG_enumerator, DW_AT_name("MOTOR_Type_Induction"), DW_AT_const_value(0x00)
    2813              $C$DW$251       .dwtag  DW_TAG_enumerator, DW_AT_name("MOTOR_Type_Pm"), DW_AT_const_value(0x01)
TMS320C2000 Assembler PC v6.4.4 Wed Jul 08 10:37:11 2015

Tools Copyright (c) 1996-2015 Texas Instruments Incorporated
C:\Users\grant\AppData\Local\Temp\0209210                            PAGE   57

    2814                      .dwendtag $C$DW$T$64
    2815              
    2816              $C$DW$T$65      .dwtag  DW_TAG_typedef, DW_AT_name("MOTOR_Type_e")
    2817                      .dwattr $C$DW$T$65, DW_AT_type(*$C$DW$T$64)
    2818                      .dwattr $C$DW$T$65, DW_AT_language(DW_LANG_C)
    2819              
    2820              $C$DW$T$74      .dwtag  DW_TAG_enumeration_type
    2821                      .dwattr $C$DW$T$74, DW_AT_byte_size(0x01)
    2822              $C$DW$252       .dwtag  DW_TAG_enumerator, DW_AT_name("USER_ErrorCode_NoError"), DW_AT_const_value(0x00)
    2823              $C$DW$253       .dwtag  DW_TAG_enumerator, DW_AT_name("USER_ErrorCode_iqFullScaleCurrent_A_High"), DW_AT_cons
    2824              $C$DW$254       .dwtag  DW_TAG_enumerator, DW_AT_name("USER_ErrorCode_iqFullScaleCurrent_A_Low"), DW_AT_const
    2825              $C$DW$255       .dwtag  DW_TAG_enumerator, DW_AT_name("USER_ErrorCode_iqFullScaleVoltage_V_High"), DW_AT_cons
    2826              $C$DW$256       .dwtag  DW_TAG_enumerator, DW_AT_name("USER_ErrorCode_iqFullScaleVoltage_V_Low"), DW_AT_const
    2827              $C$DW$257       .dwtag  DW_TAG_enumerator, DW_AT_name("USER_ErrorCode_iqFullScaleFreq_Hz_High"), DW_AT_const_
    2828              $C$DW$258       .dwtag  DW_TAG_enumerator, DW_AT_name("USER_ErrorCode_iqFullScaleFreq_Hz_Low"), DW_AT_const_v
    2829              $C$DW$259       .dwtag  DW_TAG_enumerator, DW_AT_name("USER_ErrorCode_numPwmTicksPerIsrTick_High"), DW_AT_con
    2830              $C$DW$260       .dwtag  DW_TAG_enumerator, DW_AT_name("USER_ErrorCode_numPwmTicksPerIsrTick_Low"), DW_AT_cons
    2831              $C$DW$261       .dwtag  DW_TAG_enumerator, DW_AT_name("USER_ErrorCode_numIsrTicksPerCtrlTick_High"), DW_AT_co
    2832              $C$DW$262       .dwtag  DW_TAG_enumerator, DW_AT_name("USER_ErrorCode_numIsrTicksPerCtrlTick_Low"), DW_AT_con
    2833              $C$DW$263       .dwtag  DW_TAG_enumerator, DW_AT_name("USER_ErrorCode_numCtrlTicksPerCurrentTick_High"), DW_A
    2834              $C$DW$264       .dwtag  DW_TAG_enumerator, DW_AT_name("USER_ErrorCode_numCtrlTicksPerCurrentTick_Low"), DW_AT
    2835              $C$DW$265       .dwtag  DW_TAG_enumerator, DW_AT_name("USER_ErrorCode_numCtrlTicksPerEstTick_High"), DW_AT_co
    2836              $C$DW$266       .dwtag  DW_TAG_enumerator, DW_AT_name("USER_ErrorCode_numCtrlTicksPerEstTick_Low"), DW_AT_con
    2837              $C$DW$267       .dwtag  DW_TAG_enumerator, DW_AT_name("USER_ErrorCode_numCtrlTicksPerSpeedTick_High"), DW_AT_
    2838              $C$DW$268       .dwtag  DW_TAG_enumerator, DW_AT_name("USER_ErrorCode_numCtrlTicksPerSpeedTick_Low"), DW_AT_c
    2839              $C$DW$269       .dwtag  DW_TAG_enumerator, DW_AT_name("USER_ErrorCode_numCtrlTicksPerTrajTick_High"), DW_AT_c
    2840              $C$DW$270       .dwtag  DW_TAG_enumerator, DW_AT_name("USER_ErrorCode_numCtrlTicksPerTrajTick_Low"), DW_AT_co
    2841              $C$DW$271       .dwtag  DW_TAG_enumerator, DW_AT_name("USER_ErrorCode_numCurrentSensors_High"), DW_AT_const_v
    2842              $C$DW$272       .dwtag  DW_TAG_enumerator, DW_AT_name("USER_ErrorCode_numCurrentSensors_Low"), DW_AT_const_va
    2843              $C$DW$273       .dwtag  DW_TAG_enumerator, DW_AT_name("USER_ErrorCode_numVoltageSensors_High"), DW_AT_const_v
    2844              $C$DW$274       .dwtag  DW_TAG_enumerator, DW_AT_name("USER_ErrorCode_numVoltageSensors_Low"), DW_AT_const_va
    2845              $C$DW$275       .dwtag  DW_TAG_enumerator, DW_AT_name("USER_ErrorCode_offsetPole_rps_High"), DW_AT_const_valu
    2846              $C$DW$276       .dwtag  DW_TAG_enumerator, DW_AT_name("USER_ErrorCode_offsetPole_rps_Low"), DW_AT_const_value
    2847              $C$DW$277       .dwtag  DW_TAG_enumerator, DW_AT_name("USER_ErrorCode_fluxPole_rps_High"), DW_AT_const_value(
    2848              $C$DW$278       .dwtag  DW_TAG_enumerator, DW_AT_name("USER_ErrorCode_fluxPole_rps_Low"), DW_AT_const_value(0
    2849              $C$DW$279       .dwtag  DW_TAG_enumerator, DW_AT_name("USER_ErrorCode_zeroSpeedLimit_High"), DW_AT_const_valu
    2850              $C$DW$280       .dwtag  DW_TAG_enumerator, DW_AT_name("USER_ErrorCode_zeroSpeedLimit_Low"), DW_AT_const_value
    2851              $C$DW$281       .dwtag  DW_TAG_enumerator, DW_AT_name("USER_ErrorCode_forceAngleFreq_Hz_High"), DW_AT_const_v
    2852              $C$DW$282       .dwtag  DW_TAG_enumerator, DW_AT_name("USER_ErrorCode_forceAngleFreq_Hz_Low"), DW_AT_const_va
    2853              $C$DW$283       .dwtag  DW_TAG_enumerator, DW_AT_name("USER_ErrorCode_maxAccel_Hzps_High"), DW_AT_const_value
    2854              $C$DW$284       .dwtag  DW_TAG_enumerator, DW_AT_name("USER_ErrorCode_maxAccel_Hzps_Low"), DW_AT_const_value(
    2855              $C$DW$285       .dwtag  DW_TAG_enumerator, DW_AT_name("USER_ErrorCode_maxAccel_est_Hzps_High"), DW_AT_const_v
    2856              $C$DW$286       .dwtag  DW_TAG_enumerator, DW_AT_name("USER_ErrorCode_maxAccel_est_Hzps_Low"), DW_AT_const_va
    2857              $C$DW$287       .dwtag  DW_TAG_enumerator, DW_AT_name("USER_ErrorCode_directionPole_rps_High"), DW_AT_const_v
    2858              $C$DW$288       .dwtag  DW_TAG_enumerator, DW_AT_name("USER_ErrorCode_directionPole_rps_Low"), DW_AT_const_va
    2859              $C$DW$289       .dwtag  DW_TAG_enumerator, DW_AT_name("USER_ErrorCode_speedPole_rps_High"), DW_AT_const_value
    2860              $C$DW$290       .dwtag  DW_TAG_enumerator, DW_AT_name("USER_ErrorCode_speedPole_rps_Low"), DW_AT_const_value(
    2861              $C$DW$291       .dwtag  DW_TAG_enumerator, DW_AT_name("USER_ErrorCode_dcBusPole_rps_High"), DW_AT_const_value
    2862              $C$DW$292       .dwtag  DW_TAG_enumerator, DW_AT_name("USER_ErrorCode_dcBusPole_rps_Low"), DW_AT_const_value(
    2863              $C$DW$293       .dwtag  DW_TAG_enumerator, DW_AT_name("USER_ErrorCode_fluxFraction_High"), DW_AT_const_value(
    2864              $C$DW$294       .dwtag  DW_TAG_enumerator, DW_AT_name("USER_ErrorCode_fluxFraction_Low"), DW_AT_const_value(0
    2865              $C$DW$295       .dwtag  DW_TAG_enumerator, DW_AT_name("USER_ErrorCode_indEst_speedMaxFraction_High"), DW_AT_c
    2866              $C$DW$296       .dwtag  DW_TAG_enumerator, DW_AT_name("USER_ErrorCode_indEst_speedMaxFraction_Low"), DW_AT_co
    2867              $C$DW$297       .dwtag  DW_TAG_enumerator, DW_AT_name("USER_ErrorCode_powerWarpGain_High"), DW_AT_const_value
    2868              $C$DW$298       .dwtag  DW_TAG_enumerator, DW_AT_name("USER_ErrorCode_powerWarpGain_Low"), DW_AT_const_value(
TMS320C2000 Assembler PC v6.4.4 Wed Jul 08 10:37:11 2015

Tools Copyright (c) 1996-2015 Texas Instruments Incorporated
C:\Users\grant\AppData\Local\Temp\0209210                            PAGE   58

    2869              $C$DW$299       .dwtag  DW_TAG_enumerator, DW_AT_name("USER_ErrorCode_systemFreq_MHz_High"), DW_AT_const_valu
    2870              $C$DW$300       .dwtag  DW_TAG_enumerator, DW_AT_name("USER_ErrorCode_systemFreq_MHz_Low"), DW_AT_const_value
    2871              $C$DW$301       .dwtag  DW_TAG_enumerator, DW_AT_name("USER_ErrorCode_pwmFreq_kHz_High"), DW_AT_const_value(0
    2872              $C$DW$302       .dwtag  DW_TAG_enumerator, DW_AT_name("USER_ErrorCode_pwmFreq_kHz_Low"), DW_AT_const_value(0x
    2873              $C$DW$303       .dwtag  DW_TAG_enumerator, DW_AT_name("USER_ErrorCode_voltage_sf_High"), DW_AT_const_value(0x
    2874              $C$DW$304       .dwtag  DW_TAG_enumerator, DW_AT_name("USER_ErrorCode_voltage_sf_Low"), DW_AT_const_value(0x3
    2875              $C$DW$305       .dwtag  DW_TAG_enumerator, DW_AT_name("USER_ErrorCode_current_sf_High"), DW_AT_const_value(0x
    2876              $C$DW$306       .dwtag  DW_TAG_enumerator, DW_AT_name("USER_ErrorCode_current_sf_Low"), DW_AT_const_value(0x3
    2877              $C$DW$307       .dwtag  DW_TAG_enumerator, DW_AT_name("USER_ErrorCode_voltageFilterPole_Hz_High"), DW_AT_cons
    2878              $C$DW$308       .dwtag  DW_TAG_enumerator, DW_AT_name("USER_ErrorCode_voltageFilterPole_Hz_Low"), DW_AT_const
    2879              $C$DW$309       .dwtag  DW_TAG_enumerator, DW_AT_name("USER_ErrorCode_maxVsMag_pu_High"), DW_AT_const_value(0
    2880              $C$DW$310       .dwtag  DW_TAG_enumerator, DW_AT_name("USER_ErrorCode_maxVsMag_pu_Low"), DW_AT_const_value(0x
    2881              $C$DW$311       .dwtag  DW_TAG_enumerator, DW_AT_name("USER_ErrorCode_estKappa_High"), DW_AT_const_value(0x3b
    2882              $C$DW$312       .dwtag  DW_TAG_enumerator, DW_AT_name("USER_ErrorCode_estKappa_Low"), DW_AT_const_value(0x3c)
    2883              $C$DW$313       .dwtag  DW_TAG_enumerator, DW_AT_name("USER_ErrorCode_motor_type_Unknown"), DW_AT_const_value
    2884              $C$DW$314       .dwtag  DW_TAG_enumerator, DW_AT_name("USER_ErrorCode_motor_numPolePairs_High"), DW_AT_const_
    2885              $C$DW$315       .dwtag  DW_TAG_enumerator, DW_AT_name("USER_ErrorCode_motor_numPolePairs_Low"), DW_AT_const_v
    2886              $C$DW$316       .dwtag  DW_TAG_enumerator, DW_AT_name("USER_ErrorCode_motor_ratedFlux_High"), DW_AT_const_val
    2887              $C$DW$317       .dwtag  DW_TAG_enumerator, DW_AT_name("USER_ErrorCode_motor_ratedFlux_Low"), DW_AT_const_valu
    2888              $C$DW$318       .dwtag  DW_TAG_enumerator, DW_AT_name("USER_ErrorCode_motor_Rr_High"), DW_AT_const_value(0x42
    2889              $C$DW$319       .dwtag  DW_TAG_enumerator, DW_AT_name("USER_ErrorCode_motor_Rr_Low"), DW_AT_const_value(0x43)
    2890              $C$DW$320       .dwtag  DW_TAG_enumerator, DW_AT_name("USER_ErrorCode_motor_Rs_High"), DW_AT_const_value(0x44
    2891              $C$DW$321       .dwtag  DW_TAG_enumerator, DW_AT_name("USER_ErrorCode_motor_Rs_Low"), DW_AT_const_value(0x45)
    2892              $C$DW$322       .dwtag  DW_TAG_enumerator, DW_AT_name("USER_ErrorCode_motor_Ls_d_High"), DW_AT_const_value(0x
    2893              $C$DW$323       .dwtag  DW_TAG_enumerator, DW_AT_name("USER_ErrorCode_motor_Ls_d_Low"), DW_AT_const_value(0x4
    2894              $C$DW$324       .dwtag  DW_TAG_enumerator, DW_AT_name("USER_ErrorCode_motor_Ls_q_High"), DW_AT_const_value(0x
    2895              $C$DW$325       .dwtag  DW_TAG_enumerator, DW_AT_name("USER_ErrorCode_motor_Ls_q_Low"), DW_AT_const_value(0x4
    2896              $C$DW$326       .dwtag  DW_TAG_enumerator, DW_AT_name("USER_ErrorCode_maxCurrent_High"), DW_AT_const_value(0x
    2897              $C$DW$327       .dwtag  DW_TAG_enumerator, DW_AT_name("USER_ErrorCode_maxCurrent_Low"), DW_AT_const_value(0x4
    2898              $C$DW$328       .dwtag  DW_TAG_enumerator, DW_AT_name("USER_ErrorCode_maxCurrent_resEst_High"), DW_AT_const_v
    2899              $C$DW$329       .dwtag  DW_TAG_enumerator, DW_AT_name("USER_ErrorCode_maxCurrent_resEst_Low"), DW_AT_const_va
    2900              $C$DW$330       .dwtag  DW_TAG_enumerator, DW_AT_name("USER_ErrorCode_maxCurrent_indEst_High"), DW_AT_const_v
    2901              $C$DW$331       .dwtag  DW_TAG_enumerator, DW_AT_name("USER_ErrorCode_maxCurrent_indEst_Low"), DW_AT_const_va
    2902              $C$DW$332       .dwtag  DW_TAG_enumerator, DW_AT_name("USER_ErrorCode_maxCurrentSlope_High"), DW_AT_const_val
    2903              $C$DW$333       .dwtag  DW_TAG_enumerator, DW_AT_name("USER_ErrorCode_maxCurrentSlope_Low"), DW_AT_const_valu
    2904              $C$DW$334       .dwtag  DW_TAG_enumerator, DW_AT_name("USER_ErrorCode_maxCurrentSlope_powerWarp_High"), DW_AT
    2905              $C$DW$335       .dwtag  DW_TAG_enumerator, DW_AT_name("USER_ErrorCode_maxCurrentSlope_powerWarp_Low"), DW_AT_
    2906              $C$DW$336       .dwtag  DW_TAG_enumerator, DW_AT_name("USER_ErrorCode_IdRated_High"), DW_AT_const_value(0x54)
    2907              $C$DW$337       .dwtag  DW_TAG_enumerator, DW_AT_name("USER_ErrorCode_IdRated_Low"), DW_AT_const_value(0x55)
    2908              $C$DW$338       .dwtag  DW_TAG_enumerator, DW_AT_name("USER_ErrorCode_IdRatedFraction_indEst_High"), DW_AT_co
    2909              $C$DW$339       .dwtag  DW_TAG_enumerator, DW_AT_name("USER_ErrorCode_IdRatedFraction_indEst_Low"), DW_AT_con
    2910              $C$DW$340       .dwtag  DW_TAG_enumerator, DW_AT_name("USER_ErrorCode_IdRatedFraction_ratedFlux_High"), DW_AT
    2911              $C$DW$341       .dwtag  DW_TAG_enumerator, DW_AT_name("USER_ErrorCode_IdRatedFraction_ratedFlux_Low"), DW_AT_
    2912              $C$DW$342       .dwtag  DW_TAG_enumerator, DW_AT_name("USER_ErrorCode_IdRated_delta_High"), DW_AT_const_value
    2913              $C$DW$343       .dwtag  DW_TAG_enumerator, DW_AT_name("USER_ErrorCode_IdRated_delta_Low"), DW_AT_const_value(
    2914              $C$DW$344       .dwtag  DW_TAG_enumerator, DW_AT_name("USER_ErrorCode_fluxEstFreq_Hz_High"), DW_AT_const_valu
    2915              $C$DW$345       .dwtag  DW_TAG_enumerator, DW_AT_name("USER_ErrorCode_fluxEstFreq_Hz_Low"), DW_AT_const_value
