TMS320C2000 Assembler PC v6.4.4 Wed Jul 08 12:49:31 2015

Tools Copyright (c) 1996-2015 Texas Instruments Incorporated
C:\Users\grant\AppData\Local\Temp\0448010                            PAGE    1

       1              ;***************************************************************
       2              ;* TMS320C2000 C/C++ Codegen                         PC v6.4.4 *
       3              ;* Date/Time created: Wed Jul 08 12:49:30 2015                 *
       4              ;***************************************************************
       5                      .compiler_opts --float_support=softlib --hll_source=on --mem_model:code=flat --mem_model:data=large -
       6        0002  FP      .set    XAR2
       7              
       8              $C$DW$CU        .dwtag  DW_TAG_compile_unit
       9                      .dwattr $C$DW$CU, DW_AT_name("../proj_lab20.c")
      10                      .dwattr $C$DW$CU, DW_AT_producer("TI TMS320C2000 C/C++ Codegen PC v6.4.4 Copyright (c) 1996-2015 Texa
      11                      .dwattr $C$DW$CU, DW_AT_TI_version(0x01)
      12                      .dwattr $C$DW$CU, DW_AT_comp_dir("C:\work\ws_ccs_motorware\foc_proj_lab20\Release")
      13              ;**************************************************************
      14              ;* CINIT RECORDS                                              *
      15              ;**************************************************************
      16 00000000               .sect   ".cinit"
      17                      .align  1
      18 00000000 FFFF          .field          -1,16
      19 00000001 0000-         .field          _gCounter_updateGlobals+0,32
         00000002 0000 
      20 00000003 0000          .bits   0,16                    ; _gCounter_updateGlobals @ 0
      21              
      22 00000004               .sect   ".cinit"
      23                      .align  1
      24 00000004 FFFF          .field          -1,16
      25 00000005 0001-         .field          _Flag_Latch_softwareUpdate+0,32
         00000006 0000 
      26 00000007 0001          .bits   1,16                    ; _Flag_Latch_softwareUpdate @ 0
      27              
      28 00000008               .sect   ".cinit"
      29                      .align  1
      30 00000008 FFFF          .field          -1,16
      31 00000009 0002-         .field          _gLEDcnt+0,32
         0000000a 0000 
      32 0000000b 0000          .bits   0,16                    ; _gLEDcnt @ 0
      33              
      34 0000000c               .sect   ".cinit"
      35                      .align  1
      36 0000000c FFFE          .field          -2,16
      37 0000000d 0008-         .field          _gMaxCurrentSlope+0,32
         0000000e 0000 
      38 0000000f 0000          .bits   0,32                    ; _gMaxCurrentSlope @ 0
         00000010 0000 
      39              
      40 00000011               .sect   ".cinit"
      41                      .align  1
      42 00000011 FFFA          .field          -$C$IR_1,16
      43 00000012 0040-         .field          _gPwmData+0,32
         00000013 0000 
      44 00000014 0000          .bits   0,32                    ; _gPwmData._Tabc._value[0] @ 0
         00000015 0000 
      45 00000016 0000          .bits   0,32                    ; _gPwmData._Tabc._value[1] @ 32
         00000017 0000 
      46 00000018 0000          .bits   0,32                    ; _gPwmData._Tabc._value[2] @ 64
         00000019 0000 
TMS320C2000 Assembler PC v6.4.4 Wed Jul 08 12:49:31 2015

Tools Copyright (c) 1996-2015 Texas Instruments Incorporated
C:\Users\grant\AppData\Local\Temp\0448010                            PAGE    2

      47        0006  $C$IR_1:        .set    6
      48              
      49 0000001a               .sect   ".cinit"
      50                      .align  1
      51 0000001a FF9A          .field          -$C$IR_2,16
      52 0000001b 0080-         .field          _gMotorVars+0,32
         0000001c 0000 
      53 0000001d 0000          .bits   0,16                    ; _gMotorVars._Flag_enableSys @ 0
      54 0000001e 0000          .bits   0,16                    ; _gMotorVars._Flag_Run_Identify @ 16
      55 0000001f 0000          .bits   0,16                    ; _gMotorVars._Flag_MotorIdentified @ 32
      56 00000020 0001          .bits   1,16                    ; _gMotorVars._Flag_enableForceAngle @ 48
      57 00000021 0000          .bits   0,16                    ; _gMotorVars._Flag_enableFieldWeakening @ 64
      58 00000022 0000          .bits   0,16                    ; _gMotorVars._Flag_enableRsRecalc @ 80
      59 00000023 0001          .bits   1,16                    ; _gMotorVars._Flag_enableUserParams @ 96
      60 00000024 0001          .bits   1,16                    ; _gMotorVars._Flag_enableOffsetcalc @ 112
      61 00000025 0000          .bits   0,16                    ; _gMotorVars._Flag_enablePowerWarp @ 128
      62 00000026 0000          .bits   0,16                    ; _gMotorVars._Flag_enableSpeedCtrl @ 144
      63 00000027 0001          .bits   1,16                    ; _gMotorVars._CtrlState @ 160
      64 00000028 0001          .bits   1,16                    ; _gMotorVars._EstState @ 176
      65 00000029 0000          .bits   0,16                    ; _gMotorVars._UserErrorCode @ 192
      66 0000002a 0000          .bits   0,16                    ; _gMotorVars._CtrlVersion._rsvd @ 208
      67 0000002b 0004          .bits   4,16                    ; _gMotorVars._CtrlVersion._targetProc @ 224
      68 0000002c 0000          .bits   0,16                    ; _gMotorVars._CtrlVersion._major @ 240
      69 0000002d 0000          .bits   0,16                    ; _gMotorVars._CtrlVersion._minor @ 256
      70 0000002e               .space  16
      71 0000002f 0000          .bits   0,32                    ; _gMotorVars._IdRef_A @ 288
         00000030 0000 
      72 00000031 0000          .bits   0,32                    ; _gMotorVars._IqRef_A @ 320
         00000032 0000 
      73 00000033 9999          .bits   1677721,32                      ; _gMotorVars._SpeedRef_krpm @ 352
         00000034 0019 
      74 00000035 0000          .bits   0,32                    ; _gMotorVars._SpeedTraj_krpm @ 384
         00000036 0000 
      75 00000037 3333          .bits   3355443,32                      ; _gMotorVars._MaxAccel_krpmps @ 416
         00000038 0033 
      76 00000039 0000          .bits   0,32                    ; _gMotorVars._Speed_krpm @ 448
         0000003a 0000 
      77 0000003b 0000          .bits   16777216,32                     ; _gMotorVars._OverModulation @ 480
         0000003c 0100 
      78 0000003d 3333          .bits   11744051,32                     ; _gMotorVars._RsOnLineCurrent_A @ 512
         0000003e 00B3 
      79 0000003f 0190          .bits   400,32                  ; _gMotorVars._SvgenMaxModulation_ticks @ 544
         00000040 0000 
      80 00000041 0000          .bits   0,32                    ; _gMotorVars._Flux_Wb @ 576
         00000042 0000 
      81 00000043 0000          .bits   0,32                    ; _gMotorVars._Torque_Nm @ 608
         00000044 0000 
      82 00000045 0000          .xfloat $strtod("0x0p+0")               ; _gMotorVars._MagnCurr_A @ 640
         00000046 0000 
      83 00000047 0000          .xfloat $strtod("0x0p+0")               ; _gMotorVars._Rr_Ohm @ 672
         00000048 0000 
      84 00000049 0000          .xfloat $strtod("0x0p+0")               ; _gMotorVars._Rs_Ohm @ 704
         0000004a 0000 
      85 0000004b 0000          .xfloat $strtod("0x0p+0")               ; _gMotorVars._RsOnLine_Ohm @ 736
         0000004c 0000 
TMS320C2000 Assembler PC v6.4.4 Wed Jul 08 12:49:31 2015

Tools Copyright (c) 1996-2015 Texas Instruments Incorporated
C:\Users\grant\AppData\Local\Temp\0448010                            PAGE    3

      86 0000004d 0000          .xfloat $strtod("0x0p+0")               ; _gMotorVars._Lsd_H @ 768
         0000004e 0000 
      87 0000004f 0000          .xfloat $strtod("0x0p+0")               ; _gMotorVars._Lsq_H @ 800
         00000050 0000 
      88 00000051 0000          .xfloat $strtod("0x0p+0")               ; _gMotorVars._Flux_VpHz @ 832
         00000052 0000 
      89 00000053 0000          .xfloat $strtod("0x0p+0")               ; _gMotorVars._ipd_excFreq_Hz @ 864
         00000054 0000 
      90 00000055 0000          .bits   0,32                    ; _gMotorVars._ipd_Kspd @ 896
         00000056 0000 
      91 00000057 0000          .bits   0,32                    ; _gMotorVars._ipd_excMag_coarse_pu @ 928
         00000058 0000 
      92 00000059 0000          .bits   0,32                    ; _gMotorVars._ipd_excMag_fine_pu @ 960
         0000005a 0000 
      93 0000005b 0000          .xfloat $strtod("0x0p+0")               ; _gMotorVars._ipd_waitTime_coarse_sec @ 992
         0000005c 0000 
      94 0000005d 0000          .xfloat $strtod("0x0p+0")               ; _gMotorVars._ipd_waitTime_fine_sec @ 1024
         0000005e 0000 
      95 0000005f 0000          .bits   0,32                    ; _gMotorVars._Kp_spd @ 1056
         00000060 0000 
      96 00000061 0000          .bits   0,32                    ; _gMotorVars._Ki_spd @ 1088
         00000062 0000 
      97 00000063 0000          .bits   0,32                    ; _gMotorVars._Kp_Idq @ 1120
         00000064 0000 
      98 00000065 0000          .bits   0,32                    ; _gMotorVars._Ki_Idq @ 1152
         00000066 0000 
      99 00000067 0000          .bits   0,32                    ; _gMotorVars._Vd @ 1184
         00000068 0000 
     100 00000069 0000          .bits   0,32                    ; _gMotorVars._Vq @ 1216
         0000006a 0000 
     101 0000006b 0000          .bits   0,32                    ; _gMotorVars._Vs @ 1248
         0000006c 0000 
     102 0000006d 6666          .bits   15099494,32                     ; _gMotorVars._VsRef @ 1280
         0000006e 00E6 
     103 0000006f 0000          .bits   0,32                    ; _gMotorVars._VdcBus_kV @ 1312
         00000070 0000 
     104 00000071 0000          .bits   0,32                    ; _gMotorVars._Id_A @ 1344
         00000072 0000 
     105 00000073 0000          .bits   0,32                    ; _gMotorVars._Iq_A @ 1376
         00000074 0000 
     106 00000075 0000          .bits   0,32                    ; _gMotorVars._Is_A @ 1408
         00000076 0000 
     107 00000077 0000          .bits   0,32                    ; _gMotorVars._I_bias._value[0] @ 1440
         00000078 0000 
     108 00000079 0000          .bits   0,32                    ; _gMotorVars._I_bias._value[1] @ 1472
         0000007a 0000 
     109 0000007b 0000          .bits   0,32                    ; _gMotorVars._I_bias._value[2] @ 1504
         0000007c 0000 
     110 0000007d 0000          .bits   0,32                    ; _gMotorVars._V_bias._value[0] @ 1536
         0000007e 0000 
     111 0000007f 0000          .bits   0,32                    ; _gMotorVars._V_bias._value[1] @ 1568
         00000080 0000 
     112 00000081 0000          .bits   0,32                    ; _gMotorVars._V_bias._value[2] @ 1600
         00000082 0000 
     113        0066  $C$IR_2:        .set    102
TMS320C2000 Assembler PC v6.4.4 Wed Jul 08 12:49:31 2015

Tools Copyright (c) 1996-2015 Texas Instruments Incorporated
C:\Users\grant\AppData\Local\Temp\0448010                            PAGE    4

     114              
     115              
     116              $C$DW$1 .dwtag  DW_TAG_subprogram, DW_AT_name("USER_softwareUpdate1p6")
     117                      .dwattr $C$DW$1, DW_AT_TI_symbol_name("_USER_softwareUpdate1p6")
     118                      .dwattr $C$DW$1, DW_AT_declaration
     119                      .dwattr $C$DW$1, DW_AT_external
     120              $C$DW$2 .dwtag  DW_TAG_formal_parameter
     121                      .dwattr $C$DW$2, DW_AT_type(*$C$DW$T$201)
     122                      .dwendtag $C$DW$1
     123              
     124              
     125              $C$DW$3 .dwtag  DW_TAG_subprogram, DW_AT_name("USER_checkForErrors")
     126                      .dwattr $C$DW$3, DW_AT_TI_symbol_name("_USER_checkForErrors")
     127                      .dwattr $C$DW$3, DW_AT_declaration
     128                      .dwattr $C$DW$3, DW_AT_external
     129              $C$DW$4 .dwtag  DW_TAG_formal_parameter
     130                      .dwattr $C$DW$4, DW_AT_type(*$C$DW$T$208)
     131                      .dwendtag $C$DW$3
     132              
     133              
     134              $C$DW$5 .dwtag  DW_TAG_subprogram, DW_AT_name("USER_setParams")
     135                      .dwattr $C$DW$5, DW_AT_TI_symbol_name("_USER_setParams")
     136                      .dwattr $C$DW$5, DW_AT_declaration
     137                      .dwattr $C$DW$5, DW_AT_external
     138              $C$DW$6 .dwtag  DW_TAG_formal_parameter
     139                      .dwattr $C$DW$6, DW_AT_type(*$C$DW$T$208)
     140                      .dwendtag $C$DW$5
     141              
     142              
     143              $C$DW$7 .dwtag  DW_TAG_subprogram, DW_AT_name("USER_calcPIgains")
     144                      .dwattr $C$DW$7, DW_AT_TI_symbol_name("_USER_calcPIgains")
     145                      .dwattr $C$DW$7, DW_AT_declaration
     146                      .dwattr $C$DW$7, DW_AT_external
     147              $C$DW$8 .dwtag  DW_TAG_formal_parameter
     148                      .dwattr $C$DW$8, DW_AT_type(*$C$DW$T$201)
     149                      .dwendtag $C$DW$7
     150              
     151              
     152              $C$DW$9 .dwtag  DW_TAG_subprogram, DW_AT_name("GPIO_toggle")
     153                      .dwattr $C$DW$9, DW_AT_TI_symbol_name("_GPIO_toggle")
     154                      .dwattr $C$DW$9, DW_AT_declaration
     155                      .dwattr $C$DW$9, DW_AT_external
     156              $C$DW$10        .dwtag  DW_TAG_formal_parameter
     157                      .dwattr $C$DW$10, DW_AT_type(*$C$DW$T$81)
     158              $C$DW$11        .dwtag  DW_TAG_formal_parameter
     159                      .dwattr $C$DW$11, DW_AT_type(*$C$DW$T$203)
     160                      .dwendtag $C$DW$9
     161              
     162              
     163              $C$DW$12        .dwtag  DW_TAG_subprogram, DW_AT_name("HAL_enableAdcInts")
     164                      .dwattr $C$DW$12, DW_AT_TI_symbol_name("_HAL_enableAdcInts")
     165                      .dwattr $C$DW$12, DW_AT_declaration
     166                      .dwattr $C$DW$12, DW_AT_external
     167              $C$DW$13        .dwtag  DW_TAG_formal_parameter
     168                      .dwattr $C$DW$13, DW_AT_type(*$C$DW$T$259)
TMS320C2000 Assembler PC v6.4.4 Wed Jul 08 12:49:31 2015

Tools Copyright (c) 1996-2015 Texas Instruments Incorporated
C:\Users\grant\AppData\Local\Temp\0448010                            PAGE    5

     169                      .dwendtag $C$DW$12
     170              
     171              
     172              $C$DW$14        .dwtag  DW_TAG_subprogram, DW_AT_name("HAL_enableDebugInt")
     173                      .dwattr $C$DW$14, DW_AT_TI_symbol_name("_HAL_enableDebugInt")
     174                      .dwattr $C$DW$14, DW_AT_declaration
     175                      .dwattr $C$DW$14, DW_AT_external
     176              $C$DW$15        .dwtag  DW_TAG_formal_parameter
     177                      .dwattr $C$DW$15, DW_AT_type(*$C$DW$T$259)
     178                      .dwendtag $C$DW$14
     179              
     180              
     181              $C$DW$16        .dwtag  DW_TAG_subprogram, DW_AT_name("CTRL_getVersion")
     182                      .dwattr $C$DW$16, DW_AT_TI_symbol_name("_CTRL_getVersion")
     183                      .dwattr $C$DW$16, DW_AT_declaration
     184                      .dwattr $C$DW$16, DW_AT_external
     185              $C$DW$17        .dwtag  DW_TAG_formal_parameter
     186                      .dwattr $C$DW$17, DW_AT_type(*$C$DW$T$201)
     187              $C$DW$18        .dwtag  DW_TAG_formal_parameter
     188                      .dwattr $C$DW$18, DW_AT_type(*$C$DW$T$244)
     189                      .dwendtag $C$DW$16
     190              
     191              
     192              $C$DW$19        .dwtag  DW_TAG_subprogram, DW_AT_name("CTRL_getVdq_out_pu")
     193                      .dwattr $C$DW$19, DW_AT_TI_symbol_name("_CTRL_getVdq_out_pu")
     194                      .dwattr $C$DW$19, DW_AT_declaration
     195                      .dwattr $C$DW$19, DW_AT_external
     196              $C$DW$20        .dwtag  DW_TAG_formal_parameter
     197                      .dwattr $C$DW$20, DW_AT_type(*$C$DW$T$201)
     198              $C$DW$21        .dwtag  DW_TAG_formal_parameter
     199                      .dwattr $C$DW$21, DW_AT_type(*$C$DW$T$272)
     200                      .dwendtag $C$DW$19
     201              
     202              
     203              $C$DW$22        .dwtag  DW_TAG_subprogram, DW_AT_name("CTRL_setSpd_ref_krpm")
     204                      .dwattr $C$DW$22, DW_AT_TI_symbol_name("_CTRL_setSpd_ref_krpm")
     205                      .dwattr $C$DW$22, DW_AT_declaration
     206                      .dwattr $C$DW$22, DW_AT_external
     207              $C$DW$23        .dwtag  DW_TAG_formal_parameter
     208                      .dwattr $C$DW$23, DW_AT_type(*$C$DW$T$201)
     209              $C$DW$24        .dwtag  DW_TAG_formal_parameter
     210                      .dwattr $C$DW$24, DW_AT_type(*$C$DW$T$301)
     211                      .dwendtag $C$DW$22
     212              
     213              
     214              $C$DW$25        .dwtag  DW_TAG_subprogram, DW_AT_name("CTRL_setParams")
     215                      .dwattr $C$DW$25, DW_AT_TI_symbol_name("_CTRL_setParams")
     216                      .dwattr $C$DW$25, DW_AT_declaration
     217                      .dwattr $C$DW$25, DW_AT_external
     218              $C$DW$26        .dwtag  DW_TAG_formal_parameter
     219                      .dwattr $C$DW$26, DW_AT_type(*$C$DW$T$201)
     220              $C$DW$27        .dwtag  DW_TAG_formal_parameter
     221                      .dwattr $C$DW$27, DW_AT_type(*$C$DW$T$208)
     222                      .dwendtag $C$DW$25
     223              
TMS320C2000 Assembler PC v6.4.4 Wed Jul 08 12:49:31 2015

Tools Copyright (c) 1996-2015 Texas Instruments Incorporated
C:\Users\grant\AppData\Local\Temp\0448010                            PAGE    6

     224              
     225              $C$DW$28        .dwtag  DW_TAG_subprogram, DW_AT_name("CTRL_setup_user")
     226                      .dwattr $C$DW$28, DW_AT_TI_symbol_name("_CTRL_setup_user")
     227                      .dwattr $C$DW$28, DW_AT_declaration
     228                      .dwattr $C$DW$28, DW_AT_external
     229              $C$DW$29        .dwtag  DW_TAG_formal_parameter
     230                      .dwattr $C$DW$29, DW_AT_type(*$C$DW$T$201)
     231              $C$DW$30        .dwtag  DW_TAG_formal_parameter
     232                      .dwattr $C$DW$30, DW_AT_type(*$C$DW$T$301)
     233              $C$DW$31        .dwtag  DW_TAG_formal_parameter
     234                      .dwattr $C$DW$31, DW_AT_type(*$C$DW$T$301)
     235              $C$DW$32        .dwtag  DW_TAG_formal_parameter
     236                      .dwattr $C$DW$32, DW_AT_type(*$C$DW$T$301)
     237              $C$DW$33        .dwtag  DW_TAG_formal_parameter
     238                      .dwattr $C$DW$33, DW_AT_type(*$C$DW$T$301)
     239              $C$DW$34        .dwtag  DW_TAG_formal_parameter
     240                      .dwattr $C$DW$34, DW_AT_type(*$C$DW$T$271)
     241              $C$DW$35        .dwtag  DW_TAG_formal_parameter
     242                      .dwattr $C$DW$35, DW_AT_type(*$C$DW$T$271)
     243              $C$DW$36        .dwtag  DW_TAG_formal_parameter
     244                      .dwattr $C$DW$36, DW_AT_type(*$C$DW$T$304)
     245              $C$DW$37        .dwtag  DW_TAG_formal_parameter
     246                      .dwattr $C$DW$37, DW_AT_type(*$C$DW$T$304)
     247                      .dwendtag $C$DW$28
     248              
     249              
     250              $C$DW$38        .dwtag  DW_TAG_subprogram, DW_AT_name("HAL_setParams")
     251                      .dwattr $C$DW$38, DW_AT_TI_symbol_name("_HAL_setParams")
     252                      .dwattr $C$DW$38, DW_AT_declaration
     253                      .dwattr $C$DW$38, DW_AT_external
     254              $C$DW$39        .dwtag  DW_TAG_formal_parameter
     255                      .dwattr $C$DW$39, DW_AT_type(*$C$DW$T$259)
     256              $C$DW$40        .dwtag  DW_TAG_formal_parameter
     257                      .dwattr $C$DW$40, DW_AT_type(*$C$DW$T$298)
     258                      .dwendtag $C$DW$38
     259              
     260              
     261              $C$DW$41        .dwtag  DW_TAG_subprogram, DW_AT_name("EST_setFlag_enableForceAngle")
     262                      .dwattr $C$DW$41, DW_AT_TI_symbol_name("_EST_setFlag_enableForceAngle")
     263                      .dwattr $C$DW$41, DW_AT_declaration
     264                      .dwattr $C$DW$41, DW_AT_external
     265              $C$DW$42        .dwtag  DW_TAG_formal_parameter
     266                      .dwattr $C$DW$42, DW_AT_type(*$C$DW$T$50)
     267              $C$DW$43        .dwtag  DW_TAG_formal_parameter
     268                      .dwattr $C$DW$43, DW_AT_type(*$C$DW$T$304)
     269                      .dwendtag $C$DW$41
     270              
     271              
     272              $C$DW$44        .dwtag  DW_TAG_subprogram, DW_AT_name("EST_setFlag_enableRsRecalc")
     273                      .dwattr $C$DW$44, DW_AT_TI_symbol_name("_EST_setFlag_enableRsRecalc")
     274                      .dwattr $C$DW$44, DW_AT_declaration
     275                      .dwattr $C$DW$44, DW_AT_external
     276              $C$DW$45        .dwtag  DW_TAG_formal_parameter
     277                      .dwattr $C$DW$45, DW_AT_type(*$C$DW$T$50)
     278              $C$DW$46        .dwtag  DW_TAG_formal_parameter
TMS320C2000 Assembler PC v6.4.4 Wed Jul 08 12:49:31 2015

Tools Copyright (c) 1996-2015 Texas Instruments Incorporated
C:\Users\grant\AppData\Local\Temp\0448010                            PAGE    7

     279                      .dwattr $C$DW$46, DW_AT_type(*$C$DW$T$304)
     280                      .dwendtag $C$DW$44
     281              
     282              
     283              $C$DW$47        .dwtag  DW_TAG_subprogram, DW_AT_name("HAL_setupFaults")
     284                      .dwattr $C$DW$47, DW_AT_TI_symbol_name("_HAL_setupFaults")
     285                      .dwattr $C$DW$47, DW_AT_declaration
     286                      .dwattr $C$DW$47, DW_AT_external
     287              $C$DW$48        .dwtag  DW_TAG_formal_parameter
     288                      .dwattr $C$DW$48, DW_AT_type(*$C$DW$T$259)
     289                      .dwendtag $C$DW$47
     290              
     291              
     292              $C$DW$49        .dwtag  DW_TAG_subprogram, DW_AT_name("EST_run")
     293                      .dwattr $C$DW$49, DW_AT_TI_symbol_name("_EST_run")
     294                      .dwattr $C$DW$49, DW_AT_declaration
     295                      .dwattr $C$DW$49, DW_AT_external
     296              $C$DW$50        .dwtag  DW_TAG_formal_parameter
     297                      .dwattr $C$DW$50, DW_AT_type(*$C$DW$T$50)
     298              $C$DW$51        .dwtag  DW_TAG_formal_parameter
     299                      .dwattr $C$DW$51, DW_AT_type(*$C$DW$T$271)
     300              $C$DW$52        .dwtag  DW_TAG_formal_parameter
     301                      .dwattr $C$DW$52, DW_AT_type(*$C$DW$T$271)
     302              $C$DW$53        .dwtag  DW_TAG_formal_parameter
     303                      .dwattr $C$DW$53, DW_AT_type(*$C$DW$T$301)
     304              $C$DW$54        .dwtag  DW_TAG_formal_parameter
     305                      .dwattr $C$DW$54, DW_AT_type(*$C$DW$T$301)
     306                      .dwendtag $C$DW$49
     307              
     308              
     309              $C$DW$55        .dwtag  DW_TAG_subprogram, DW_AT_name("HAL_writeDrvData")
     310                      .dwattr $C$DW$55, DW_AT_TI_symbol_name("_HAL_writeDrvData")
     311                      .dwattr $C$DW$55, DW_AT_declaration
     312                      .dwattr $C$DW$55, DW_AT_external
     313              $C$DW$56        .dwtag  DW_TAG_formal_parameter
     314                      .dwattr $C$DW$56, DW_AT_type(*$C$DW$T$259)
     315              $C$DW$57        .dwtag  DW_TAG_formal_parameter
     316                      .dwattr $C$DW$57, DW_AT_type(*$C$DW$T$248)
     317                      .dwendtag $C$DW$55
     318              
     319              
     320              $C$DW$58        .dwtag  DW_TAG_subprogram, DW_AT_name("HAL_setupDrvSpi")
     321                      .dwattr $C$DW$58, DW_AT_TI_symbol_name("_HAL_setupDrvSpi")
     322                      .dwattr $C$DW$58, DW_AT_declaration
     323                      .dwattr $C$DW$58, DW_AT_external
     324              $C$DW$59        .dwtag  DW_TAG_formal_parameter
     325                      .dwattr $C$DW$59, DW_AT_type(*$C$DW$T$259)
     326              $C$DW$60        .dwtag  DW_TAG_formal_parameter
     327                      .dwattr $C$DW$60, DW_AT_type(*$C$DW$T$248)
     328                      .dwendtag $C$DW$58
     329              
     330              
     331              $C$DW$61        .dwtag  DW_TAG_subprogram, DW_AT_name("HAL_readDrvData")
     332                      .dwattr $C$DW$61, DW_AT_TI_symbol_name("_HAL_readDrvData")
     333                      .dwattr $C$DW$61, DW_AT_declaration
TMS320C2000 Assembler PC v6.4.4 Wed Jul 08 12:49:31 2015

Tools Copyright (c) 1996-2015 Texas Instruments Incorporated
C:\Users\grant\AppData\Local\Temp\0448010                            PAGE    8

     334                      .dwattr $C$DW$61, DW_AT_external
     335              $C$DW$62        .dwtag  DW_TAG_formal_parameter
     336                      .dwattr $C$DW$62, DW_AT_type(*$C$DW$T$259)
     337              $C$DW$63        .dwtag  DW_TAG_formal_parameter
     338                      .dwattr $C$DW$63, DW_AT_type(*$C$DW$T$248)
     339                      .dwendtag $C$DW$61
     340              
     341              
     342              $C$DW$64        .dwtag  DW_TAG_subprogram, DW_AT_name("HAL_enableDrv")
     343                      .dwattr $C$DW$64, DW_AT_TI_symbol_name("_HAL_enableDrv")
     344                      .dwattr $C$DW$64, DW_AT_declaration
     345                      .dwattr $C$DW$64, DW_AT_external
     346              $C$DW$65        .dwtag  DW_TAG_formal_parameter
     347                      .dwattr $C$DW$65, DW_AT_type(*$C$DW$T$259)
     348                      .dwendtag $C$DW$64
     349              
     350              
     351              $C$DW$66        .dwtag  DW_TAG_subprogram, DW_AT_name("HAL_enableGlobalInts")
     352                      .dwattr $C$DW$66, DW_AT_TI_symbol_name("_HAL_enableGlobalInts")
     353                      .dwattr $C$DW$66, DW_AT_declaration
     354                      .dwattr $C$DW$66, DW_AT_external
     355              $C$DW$67        .dwtag  DW_TAG_formal_parameter
     356                      .dwattr $C$DW$67, DW_AT_type(*$C$DW$T$259)
     357                      .dwendtag $C$DW$66
     358              
     359              
     360              $C$DW$68        .dwtag  DW_TAG_subprogram, DW_AT_name("EST_setMaxCurrentSlope_pu")
     361                      .dwattr $C$DW$68, DW_AT_TI_symbol_name("_EST_setMaxCurrentSlope_pu")
     362                      .dwattr $C$DW$68, DW_AT_declaration
     363                      .dwattr $C$DW$68, DW_AT_external
     364              $C$DW$69        .dwtag  DW_TAG_formal_parameter
     365                      .dwattr $C$DW$69, DW_AT_type(*$C$DW$T$50)
     366              $C$DW$70        .dwtag  DW_TAG_formal_parameter
     367                      .dwattr $C$DW$70, DW_AT_type(*$C$DW$T$301)
     368                      .dwendtag $C$DW$68
     369              
     370              
     371              $C$DW$71        .dwtag  DW_TAG_subprogram, DW_AT_name("EST_updateId_ref_pu")
     372                      .dwattr $C$DW$71, DW_AT_TI_symbol_name("_EST_updateId_ref_pu")
     373                      .dwattr $C$DW$71, DW_AT_declaration
     374                      .dwattr $C$DW$71, DW_AT_external
     375              $C$DW$72        .dwtag  DW_TAG_formal_parameter
     376                      .dwattr $C$DW$72, DW_AT_type(*$C$DW$T$50)
     377              $C$DW$73        .dwtag  DW_TAG_formal_parameter
     378                      .dwattr $C$DW$73, DW_AT_type(*$C$DW$T$309)
     379                      .dwendtag $C$DW$71
     380              
     381              
     382              $C$DW$74        .dwtag  DW_TAG_subprogram, DW_AT_name("EST_setId_ref_pu")
     383                      .dwattr $C$DW$74, DW_AT_TI_symbol_name("_EST_setId_ref_pu")
     384                      .dwattr $C$DW$74, DW_AT_declaration
     385                      .dwattr $C$DW$74, DW_AT_external
     386              $C$DW$75        .dwtag  DW_TAG_formal_parameter
     387                      .dwattr $C$DW$75, DW_AT_type(*$C$DW$T$50)
     388              $C$DW$76        .dwtag  DW_TAG_formal_parameter
TMS320C2000 Assembler PC v6.4.4 Wed Jul 08 12:49:31 2015

Tools Copyright (c) 1996-2015 Texas Instruments Incorporated
C:\Users\grant\AppData\Local\Temp\0448010                            PAGE    9

     389                      .dwattr $C$DW$76, DW_AT_type(*$C$DW$T$301)
     390                      .dwendtag $C$DW$74
     391              
     392              
     393              $C$DW$77        .dwtag  DW_TAG_subprogram, DW_AT_name("EST_setIq_ref_pu")
     394                      .dwattr $C$DW$77, DW_AT_TI_symbol_name("_EST_setIq_ref_pu")
     395                      .dwattr $C$DW$77, DW_AT_declaration
     396                      .dwattr $C$DW$77, DW_AT_external
     397              $C$DW$78        .dwtag  DW_TAG_formal_parameter
     398                      .dwattr $C$DW$78, DW_AT_type(*$C$DW$T$50)
     399              $C$DW$79        .dwtag  DW_TAG_formal_parameter
     400                      .dwattr $C$DW$79, DW_AT_type(*$C$DW$T$301)
     401                      .dwendtag $C$DW$77
     402              
     403                      .global _gCounter_updateGlobals
     404 00000000       _gCounter_updateGlobals:        .usect  ".ebss",1,1,0
     405              $C$DW$80        .dwtag  DW_TAG_variable, DW_AT_name("gCounter_updateGlobals")
     406                      .dwattr $C$DW$80, DW_AT_TI_symbol_name("_gCounter_updateGlobals")
     407                      .dwattr $C$DW$80, DW_AT_location[DW_OP_addr _gCounter_updateGlobals]
     408                      .dwattr $C$DW$80, DW_AT_type(*$C$DW$T$70)
     409                      .dwattr $C$DW$80, DW_AT_external
     410                      .global _Flag_Latch_softwareUpdate
     411 00000001       _Flag_Latch_softwareUpdate:     .usect  ".ebss",1,1,0
     412              $C$DW$81        .dwtag  DW_TAG_variable, DW_AT_name("Flag_Latch_softwareUpdate")
     413                      .dwattr $C$DW$81, DW_AT_TI_symbol_name("_Flag_Latch_softwareUpdate")
     414                      .dwattr $C$DW$81, DW_AT_location[DW_OP_addr _Flag_Latch_softwareUpdate]
     415                      .dwattr $C$DW$81, DW_AT_type(*$C$DW$T$73)
     416                      .dwattr $C$DW$81, DW_AT_external
     417                      .global _gLEDcnt
     418 00000002       _gLEDcnt:       .usect  ".ebss",1,1,0
     419              $C$DW$82        .dwtag  DW_TAG_variable, DW_AT_name("gLEDcnt")
     420                      .dwattr $C$DW$82, DW_AT_TI_symbol_name("_gLEDcnt")
     421                      .dwattr $C$DW$82, DW_AT_location[DW_OP_addr _gLEDcnt]
     422                      .dwattr $C$DW$82, DW_AT_type(*$C$DW$T$26)
     423                      .dwattr $C$DW$82, DW_AT_external
     424              
     425              $C$DW$83        .dwtag  DW_TAG_subprogram, DW_AT_name("CTRL_updateState")
     426                      .dwattr $C$DW$83, DW_AT_TI_symbol_name("_CTRL_updateState")
     427                      .dwattr $C$DW$83, DW_AT_type(*$C$DW$T$73)
     428                      .dwattr $C$DW$83, DW_AT_declaration
     429                      .dwattr $C$DW$83, DW_AT_external
     430              $C$DW$84        .dwtag  DW_TAG_formal_parameter
     431                      .dwattr $C$DW$84, DW_AT_type(*$C$DW$T$201)
     432                      .dwendtag $C$DW$83
     433              
     434              
     435              $C$DW$85        .dwtag  DW_TAG_subprogram, DW_AT_name("USER_getErrorCode")
     436                      .dwattr $C$DW$85, DW_AT_TI_symbol_name("_USER_getErrorCode")
     437                      .dwattr $C$DW$85, DW_AT_type(*$C$DW$T$167)
     438                      .dwattr $C$DW$85, DW_AT_declaration
     439                      .dwattr $C$DW$85, DW_AT_external
     440              $C$DW$86        .dwtag  DW_TAG_formal_parameter
     441                      .dwattr $C$DW$86, DW_AT_type(*$C$DW$T$208)
     442                      .dwendtag $C$DW$85
     443              
TMS320C2000 Assembler PC v6.4.4 Wed Jul 08 12:49:31 2015

Tools Copyright (c) 1996-2015 Texas Instruments Incorporated
C:\Users\grant\AppData\Local\Temp\0448010                            PAGE   10

     444              
     445              $C$DW$87        .dwtag  DW_TAG_subprogram, DW_AT_name("EST_doSpeedCtrl")
     446                      .dwattr $C$DW$87, DW_AT_TI_symbol_name("_EST_doSpeedCtrl")
     447                      .dwattr $C$DW$87, DW_AT_type(*$C$DW$T$73)
     448                      .dwattr $C$DW$87, DW_AT_declaration
     449                      .dwattr $C$DW$87, DW_AT_external
     450              $C$DW$88        .dwtag  DW_TAG_formal_parameter
     451                      .dwattr $C$DW$88, DW_AT_type(*$C$DW$T$50)
     452                      .dwendtag $C$DW$87
     453              
     454              
     455              $C$DW$89        .dwtag  DW_TAG_subprogram, DW_AT_name("EST_doCurrentCtrl")
     456                      .dwattr $C$DW$89, DW_AT_TI_symbol_name("_EST_doCurrentCtrl")
     457                      .dwattr $C$DW$89, DW_AT_type(*$C$DW$T$73)
     458                      .dwattr $C$DW$89, DW_AT_declaration
     459                      .dwattr $C$DW$89, DW_AT_external
     460              $C$DW$90        .dwtag  DW_TAG_formal_parameter
     461                      .dwattr $C$DW$90, DW_AT_type(*$C$DW$T$50)
     462                      .dwendtag $C$DW$89
     463              
     464              
     465              $C$DW$91        .dwtag  DW_TAG_subprogram, DW_AT_name("EST_getState")
     466                      .dwattr $C$DW$91, DW_AT_TI_symbol_name("_EST_getState")
     467                      .dwattr $C$DW$91, DW_AT_type(*$C$DW$T$165)
     468                      .dwattr $C$DW$91, DW_AT_declaration
     469                      .dwattr $C$DW$91, DW_AT_external
     470              $C$DW$92        .dwtag  DW_TAG_formal_parameter
     471                      .dwattr $C$DW$92, DW_AT_type(*$C$DW$T$50)
     472                      .dwendtag $C$DW$91
     473              
     474              
     475              $C$DW$93        .dwtag  DW_TAG_subprogram, DW_AT_name("EST_isMotorIdentified")
     476                      .dwattr $C$DW$93, DW_AT_TI_symbol_name("_EST_isMotorIdentified")
     477                      .dwattr $C$DW$93, DW_AT_type(*$C$DW$T$73)
     478                      .dwattr $C$DW$93, DW_AT_declaration
     479                      .dwattr $C$DW$93, DW_AT_external
     480              $C$DW$94        .dwtag  DW_TAG_formal_parameter
     481                      .dwattr $C$DW$94, DW_AT_type(*$C$DW$T$50)
     482                      .dwendtag $C$DW$93
     483              
     484              
     485              $C$DW$95        .dwtag  DW_TAG_subprogram, DW_AT_name("EST_getAngle_pu")
     486                      .dwattr $C$DW$95, DW_AT_TI_symbol_name("_EST_getAngle_pu")
     487                      .dwattr $C$DW$95, DW_AT_type(*$C$DW$T$35)
     488                      .dwattr $C$DW$95, DW_AT_declaration
     489                      .dwattr $C$DW$95, DW_AT_external
     490              $C$DW$96        .dwtag  DW_TAG_formal_parameter
     491                      .dwattr $C$DW$96, DW_AT_type(*$C$DW$T$50)
     492                      .dwendtag $C$DW$95
     493              
     494              
     495              $C$DW$97        .dwtag  DW_TAG_subprogram, DW_AT_name("EST_getFlux_VpHz")
     496                      .dwattr $C$DW$97, DW_AT_TI_symbol_name("_EST_getFlux_VpHz")
     497                      .dwattr $C$DW$97, DW_AT_type(*$C$DW$T$71)
     498                      .dwattr $C$DW$97, DW_AT_declaration
TMS320C2000 Assembler PC v6.4.4 Wed Jul 08 12:49:31 2015

Tools Copyright (c) 1996-2015 Texas Instruments Incorporated
C:\Users\grant\AppData\Local\Temp\0448010                            PAGE   11

     499                      .dwattr $C$DW$97, DW_AT_external
     500              $C$DW$98        .dwtag  DW_TAG_formal_parameter
     501                      .dwattr $C$DW$98, DW_AT_type(*$C$DW$T$50)
     502                      .dwendtag $C$DW$97
     503              
     504              
     505              $C$DW$99        .dwtag  DW_TAG_subprogram, DW_AT_name("EST_get_pu_to_krpm_sf")
     506                      .dwattr $C$DW$99, DW_AT_TI_symbol_name("_EST_get_pu_to_krpm_sf")
     507                      .dwattr $C$DW$99, DW_AT_type(*$C$DW$T$35)
     508                      .dwattr $C$DW$99, DW_AT_declaration
     509                      .dwattr $C$DW$99, DW_AT_external
     510              $C$DW$100       .dwtag  DW_TAG_formal_parameter
     511                      .dwattr $C$DW$100, DW_AT_type(*$C$DW$T$50)
     512                      .dwendtag $C$DW$99
     513              
     514              
     515              $C$DW$101       .dwtag  DW_TAG_subprogram, DW_AT_name("EST_getFm_pu")
     516                      .dwattr $C$DW$101, DW_AT_TI_symbol_name("_EST_getFm_pu")
     517                      .dwattr $C$DW$101, DW_AT_type(*$C$DW$T$35)
     518                      .dwattr $C$DW$101, DW_AT_declaration
     519                      .dwattr $C$DW$101, DW_AT_external
     520              $C$DW$102       .dwtag  DW_TAG_formal_parameter
     521                      .dwattr $C$DW$102, DW_AT_type(*$C$DW$T$50)
     522                      .dwendtag $C$DW$101
     523              
     524              
     525              $C$DW$103       .dwtag  DW_TAG_subprogram, DW_AT_name("_IQ24cosPU")
     526                      .dwattr $C$DW$103, DW_AT_TI_symbol_name("__IQ24cosPU")
     527                      .dwattr $C$DW$103, DW_AT_type(*$C$DW$T$12)
     528                      .dwattr $C$DW$103, DW_AT_declaration
     529                      .dwattr $C$DW$103, DW_AT_external
     530              $C$DW$104       .dwtag  DW_TAG_formal_parameter
     531                      .dwattr $C$DW$104, DW_AT_type(*$C$DW$T$12)
     532                      .dwendtag $C$DW$103
     533              
     534              
     535              $C$DW$105       .dwtag  DW_TAG_subprogram, DW_AT_name("_IQ24sinPU")
     536                      .dwattr $C$DW$105, DW_AT_TI_symbol_name("__IQ24sinPU")
     537                      .dwattr $C$DW$105, DW_AT_type(*$C$DW$T$12)
     538                      .dwattr $C$DW$105, DW_AT_declaration
     539                      .dwattr $C$DW$105, DW_AT_external
     540              $C$DW$106       .dwtag  DW_TAG_formal_parameter
     541                      .dwattr $C$DW$106, DW_AT_type(*$C$DW$T$12)
     542                      .dwendtag $C$DW$105
     543              
     544              
     545              $C$DW$107       .dwtag  DW_TAG_subprogram, DW_AT_name("EST_getRr_Ohm")
     546                      .dwattr $C$DW$107, DW_AT_TI_symbol_name("_EST_getRr_Ohm")
     547                      .dwattr $C$DW$107, DW_AT_type(*$C$DW$T$71)
     548                      .dwattr $C$DW$107, DW_AT_declaration
     549                      .dwattr $C$DW$107, DW_AT_external
     550              $C$DW$108       .dwtag  DW_TAG_formal_parameter
     551                      .dwattr $C$DW$108, DW_AT_type(*$C$DW$T$50)
     552                      .dwendtag $C$DW$107
     553              
TMS320C2000 Assembler PC v6.4.4 Wed Jul 08 12:49:31 2015

Tools Copyright (c) 1996-2015 Texas Instruments Incorporated
C:\Users\grant\AppData\Local\Temp\0448010                            PAGE   12

     554              
     555              $C$DW$109       .dwtag  DW_TAG_subprogram, DW_AT_name("EST_getOneOverDcBus_pu")
     556                      .dwattr $C$DW$109, DW_AT_TI_symbol_name("_EST_getOneOverDcBus_pu")
     557                      .dwattr $C$DW$109, DW_AT_type(*$C$DW$T$35)
     558                      .dwattr $C$DW$109, DW_AT_declaration
     559                      .dwattr $C$DW$109, DW_AT_external
     560              $C$DW$110       .dwtag  DW_TAG_formal_parameter
     561                      .dwattr $C$DW$110, DW_AT_type(*$C$DW$T$50)
     562                      .dwendtag $C$DW$109
     563              
     564              
     565              $C$DW$111       .dwtag  DW_TAG_subprogram, DW_AT_name("EST_getSpeed_krpm")
     566                      .dwattr $C$DW$111, DW_AT_TI_symbol_name("_EST_getSpeed_krpm")
     567                      .dwattr $C$DW$111, DW_AT_type(*$C$DW$T$35)
     568                      .dwattr $C$DW$111, DW_AT_declaration
     569                      .dwattr $C$DW$111, DW_AT_external
     570              $C$DW$112       .dwtag  DW_TAG_formal_parameter
     571                      .dwattr $C$DW$112, DW_AT_type(*$C$DW$T$50)
     572                      .dwendtag $C$DW$111
     573              
     574              
     575              $C$DW$113       .dwtag  DW_TAG_subprogram, DW_AT_name("EST_getRs_Ohm")
     576                      .dwattr $C$DW$113, DW_AT_TI_symbol_name("_EST_getRs_Ohm")
     577                      .dwattr $C$DW$113, DW_AT_type(*$C$DW$T$71)
     578                      .dwattr $C$DW$113, DW_AT_declaration
     579                      .dwattr $C$DW$113, DW_AT_external
     580              $C$DW$114       .dwtag  DW_TAG_formal_parameter
     581                      .dwattr $C$DW$114, DW_AT_type(*$C$DW$T$50)
     582                      .dwendtag $C$DW$113
     583              
     584              
     585              $C$DW$115       .dwtag  DW_TAG_subprogram, DW_AT_name("EST_getLs_d_H")
     586                      .dwattr $C$DW$115, DW_AT_TI_symbol_name("_EST_getLs_d_H")
     587                      .dwattr $C$DW$115, DW_AT_type(*$C$DW$T$71)
     588                      .dwattr $C$DW$115, DW_AT_declaration
     589                      .dwattr $C$DW$115, DW_AT_external
     590              $C$DW$116       .dwtag  DW_TAG_formal_parameter
     591                      .dwattr $C$DW$116, DW_AT_type(*$C$DW$T$50)
     592                      .dwendtag $C$DW$115
     593              
     594              
     595              $C$DW$117       .dwtag  DW_TAG_subprogram, DW_AT_name("EST_getIdRated")
     596                      .dwattr $C$DW$117, DW_AT_TI_symbol_name("_EST_getIdRated")
     597                      .dwattr $C$DW$117, DW_AT_type(*$C$DW$T$71)
     598                      .dwattr $C$DW$117, DW_AT_declaration
     599                      .dwattr $C$DW$117, DW_AT_external
     600              $C$DW$118       .dwtag  DW_TAG_formal_parameter
     601                      .dwattr $C$DW$118, DW_AT_type(*$C$DW$T$50)
     602                      .dwendtag $C$DW$117
     603              
     604              
     605              $C$DW$119       .dwtag  DW_TAG_subprogram, DW_AT_name("EST_getMaxCurrentSlope_pu")
     606                      .dwattr $C$DW$119, DW_AT_TI_symbol_name("_EST_getMaxCurrentSlope_pu")
     607                      .dwattr $C$DW$119, DW_AT_type(*$C$DW$T$35)
     608                      .dwattr $C$DW$119, DW_AT_declaration
TMS320C2000 Assembler PC v6.4.4 Wed Jul 08 12:49:31 2015

Tools Copyright (c) 1996-2015 Texas Instruments Incorporated
C:\Users\grant\AppData\Local\Temp\0448010                            PAGE   13

     609                      .dwattr $C$DW$119, DW_AT_external
     610              $C$DW$120       .dwtag  DW_TAG_formal_parameter
     611                      .dwattr $C$DW$120, DW_AT_type(*$C$DW$T$50)
     612                      .dwendtag $C$DW$119
     613              
     614              
     615              $C$DW$121       .dwtag  DW_TAG_subprogram, DW_AT_name("EST_getLs_q_H")
     616                      .dwattr $C$DW$121, DW_AT_TI_symbol_name("_EST_getLs_q_H")
     617                      .dwattr $C$DW$121, DW_AT_type(*$C$DW$T$71)
     618                      .dwattr $C$DW$121, DW_AT_declaration
     619                      .dwattr $C$DW$121, DW_AT_external
     620              $C$DW$122       .dwtag  DW_TAG_formal_parameter
     621                      .dwattr $C$DW$122, DW_AT_type(*$C$DW$T$50)
     622                      .dwendtag $C$DW$121
     623              
     624                      .global _controller_obj
     625 00000004       _controller_obj:        .usect  ".ebss",2,1,1
     626              $C$DW$123       .dwtag  DW_TAG_variable, DW_AT_name("controller_obj")
     627                      .dwattr $C$DW$123, DW_AT_TI_symbol_name("_controller_obj")
     628                      .dwattr $C$DW$123, DW_AT_location[DW_OP_addr _controller_obj]
     629                      .dwattr $C$DW$123, DW_AT_type(*$C$DW$T$237)
     630                      .dwattr $C$DW$123, DW_AT_external
     631              
     632              $C$DW$124       .dwtag  DW_TAG_subprogram, DW_AT_name("__IQmpy")
     633                      .dwattr $C$DW$124, DW_AT_TI_symbol_name("___IQmpy")
     634                      .dwattr $C$DW$124, DW_AT_type(*$C$DW$T$12)
     635                      .dwattr $C$DW$124, DW_AT_declaration
     636                      .dwattr $C$DW$124, DW_AT_external
     637              $C$DW$125       .dwtag  DW_TAG_formal_parameter
     638                      .dwattr $C$DW$125, DW_AT_type(*$C$DW$T$12)
     639              $C$DW$126       .dwtag  DW_TAG_formal_parameter
     640                      .dwattr $C$DW$126, DW_AT_type(*$C$DW$T$12)
     641              $C$DW$127       .dwtag  DW_TAG_formal_parameter
     642                      .dwattr $C$DW$127, DW_AT_type(*$C$DW$T$10)
     643                      .dwendtag $C$DW$124
     644              
     645                      .global _halHandle
     646 00000006       _halHandle:     .usect  ".ebss",2,1,1
     647              $C$DW$128       .dwtag  DW_TAG_variable, DW_AT_name("halHandle")
     648                      .dwattr $C$DW$128, DW_AT_TI_symbol_name("_halHandle")
     649                      .dwattr $C$DW$128, DW_AT_location[DW_OP_addr _halHandle]
     650                      .dwattr $C$DW$128, DW_AT_type(*$C$DW$T$259)
     651                      .dwattr $C$DW$128, DW_AT_external
     652                      .global _gMaxCurrentSlope
     653 00000008       _gMaxCurrentSlope:      .usect  ".ebss",2,1,1
     654              $C$DW$129       .dwtag  DW_TAG_variable, DW_AT_name("gMaxCurrentSlope")
     655                      .dwattr $C$DW$129, DW_AT_TI_symbol_name("_gMaxCurrentSlope")
     656                      .dwattr $C$DW$129, DW_AT_location[DW_OP_addr _gMaxCurrentSlope]
     657                      .dwattr $C$DW$129, DW_AT_type(*$C$DW$T$35)
     658                      .dwattr $C$DW$129, DW_AT_external
     659                      .global _gTorque_Ls_Id_Iq_pu_to_Nm_sf
     660 0000000a       _gTorque_Ls_Id_Iq_pu_to_Nm_sf:  .usect  ".ebss",2,1,1
     661              $C$DW$130       .dwtag  DW_TAG_variable, DW_AT_name("gTorque_Ls_Id_Iq_pu_to_Nm_sf")
     662                      .dwattr $C$DW$130, DW_AT_TI_symbol_name("_gTorque_Ls_Id_Iq_pu_to_Nm_sf")
     663                      .dwattr $C$DW$130, DW_AT_location[DW_OP_addr _gTorque_Ls_Id_Iq_pu_to_Nm_sf]
TMS320C2000 Assembler PC v6.4.4 Wed Jul 08 12:49:31 2015

Tools Copyright (c) 1996-2015 Texas Instruments Incorporated
C:\Users\grant\AppData\Local\Temp\0448010                            PAGE   14

     664                      .dwattr $C$DW$130, DW_AT_type(*$C$DW$T$35)
     665                      .dwattr $C$DW$130, DW_AT_external
     666                      .global _gTorque_Flux_Iq_pu_to_Nm_sf
     667 0000000c       _gTorque_Flux_Iq_pu_to_Nm_sf:   .usect  ".ebss",2,1,1
     668              $C$DW$131       .dwtag  DW_TAG_variable, DW_AT_name("gTorque_Flux_Iq_pu_to_Nm_sf")
     669                      .dwattr $C$DW$131, DW_AT_TI_symbol_name("_gTorque_Flux_Iq_pu_to_Nm_sf")
     670                      .dwattr $C$DW$131, DW_AT_location[DW_OP_addr _gTorque_Flux_Iq_pu_to_Nm_sf]
     671                      .dwattr $C$DW$131, DW_AT_type(*$C$DW$T$35)
     672                      .dwattr $C$DW$131, DW_AT_external
     673                      .global _gFlux_pu_to_Wb_sf
     674 0000000e       _gFlux_pu_to_Wb_sf:     .usect  ".ebss",2,1,1
     675              $C$DW$132       .dwtag  DW_TAG_variable, DW_AT_name("gFlux_pu_to_Wb_sf")
     676                      .dwattr $C$DW$132, DW_AT_TI_symbol_name("_gFlux_pu_to_Wb_sf")
     677                      .dwattr $C$DW$132, DW_AT_location[DW_OP_addr _gFlux_pu_to_Wb_sf]
     678                      .dwattr $C$DW$132, DW_AT_type(*$C$DW$T$35)
     679                      .dwattr $C$DW$132, DW_AT_external
     680                      .global _gFlux_pu_to_VpHz_sf
     681 00000010       _gFlux_pu_to_VpHz_sf:   .usect  ".ebss",2,1,1
     682              $C$DW$133       .dwtag  DW_TAG_variable, DW_AT_name("gFlux_pu_to_VpHz_sf")
     683                      .dwattr $C$DW$133, DW_AT_TI_symbol_name("_gFlux_pu_to_VpHz_sf")
     684                      .dwattr $C$DW$133, DW_AT_location[DW_OP_addr _gFlux_pu_to_VpHz_sf]
     685                      .dwattr $C$DW$133, DW_AT_type(*$C$DW$T$35)
     686                      .dwattr $C$DW$133, DW_AT_external
     687                      .global _clarkeHandle_V
     688 00000012       _clarkeHandle_V:        .usect  ".ebss",2,1,1
     689              $C$DW$134       .dwtag  DW_TAG_variable, DW_AT_name("clarkeHandle_V")
     690                      .dwattr $C$DW$134, DW_AT_TI_symbol_name("_clarkeHandle_V")
     691                      .dwattr $C$DW$134, DW_AT_location[DW_OP_addr _clarkeHandle_V]
     692                      .dwattr $C$DW$134, DW_AT_type(*$C$DW$T$47)
     693                      .dwattr $C$DW$134, DW_AT_external
     694                      .global _estHandle
     695 00000014       _estHandle:     .usect  ".ebss",2,1,1
     696              $C$DW$135       .dwtag  DW_TAG_variable, DW_AT_name("estHandle")
     697                      .dwattr $C$DW$135, DW_AT_TI_symbol_name("_estHandle")
     698                      .dwattr $C$DW$135, DW_AT_location[DW_OP_addr _estHandle]
     699                      .dwattr $C$DW$135, DW_AT_type(*$C$DW$T$50)
     700                      .dwattr $C$DW$135, DW_AT_external
     701                      .global _ctrlHandle
     702 00000016       _ctrlHandle:    .usect  ".ebss",2,1,1
     703              $C$DW$136       .dwtag  DW_TAG_variable, DW_AT_name("ctrlHandle")
     704                      .dwattr $C$DW$136, DW_AT_TI_symbol_name("_ctrlHandle")
     705                      .dwattr $C$DW$136, DW_AT_location[DW_OP_addr _ctrlHandle]
     706                      .dwattr $C$DW$136, DW_AT_type(*$C$DW$T$201)
     707                      .dwattr $C$DW$136, DW_AT_external
     708                      .global _clarkeHandle_I
     709 00000018       _clarkeHandle_I:        .usect  ".ebss",2,1,1
     710              $C$DW$137       .dwtag  DW_TAG_variable, DW_AT_name("clarkeHandle_I")
     711                      .dwattr $C$DW$137, DW_AT_TI_symbol_name("_clarkeHandle_I")
     712                      .dwattr $C$DW$137, DW_AT_location[DW_OP_addr _clarkeHandle_I]
     713                      .dwattr $C$DW$137, DW_AT_type(*$C$DW$T$47)
     714                      .dwattr $C$DW$137, DW_AT_external
     715                      .global _svgenHandle
     716 0000001a       _svgenHandle:   .usect  ".ebss",2,1,1
     717              $C$DW$138       .dwtag  DW_TAG_variable, DW_AT_name("svgenHandle")
     718                      .dwattr $C$DW$138, DW_AT_TI_symbol_name("_svgenHandle")
TMS320C2000 Assembler PC v6.4.4 Wed Jul 08 12:49:31 2015

Tools Copyright (c) 1996-2015 Texas Instruments Incorporated
C:\Users\grant\AppData\Local\Temp\0448010                            PAGE   15

     719                      .dwattr $C$DW$138, DW_AT_location[DW_OP_addr _svgenHandle]
     720                      .dwattr $C$DW$138, DW_AT_type(*$C$DW$T$61)
     721                      .dwattr $C$DW$138, DW_AT_external
     722                      .global _svgen
     723 0000001c       _svgen: .usect  ".ebss",2,1,1
     724              $C$DW$139       .dwtag  DW_TAG_variable, DW_AT_name("svgen")
     725                      .dwattr $C$DW$139, DW_AT_TI_symbol_name("_svgen")
     726                      .dwattr $C$DW$139, DW_AT_location[DW_OP_addr _svgen]
     727                      .dwattr $C$DW$139, DW_AT_type(*$C$DW$T$62)
     728                      .dwattr $C$DW$139, DW_AT_external
     729                      .global _iparkHandle
     730 0000001e       _iparkHandle:   .usect  ".ebss",2,1,1
     731              $C$DW$140       .dwtag  DW_TAG_variable, DW_AT_name("iparkHandle")
     732                      .dwattr $C$DW$140, DW_AT_TI_symbol_name("_iparkHandle")
     733                      .dwattr $C$DW$140, DW_AT_location[DW_OP_addr _iparkHandle]
     734                      .dwattr $C$DW$140, DW_AT_type(*$C$DW$T$58)
     735                      .dwattr $C$DW$140, DW_AT_external
     736                      .global _parkHandle
     737 00000020       _parkHandle:    .usect  ".ebss",2,1,1
     738              $C$DW$141       .dwtag  DW_TAG_variable, DW_AT_name("parkHandle")
     739                      .dwattr $C$DW$141, DW_AT_TI_symbol_name("_parkHandle")
     740                      .dwattr $C$DW$141, DW_AT_location[DW_OP_addr _parkHandle]
     741                      .dwattr $C$DW$141, DW_AT_type(*$C$DW$T$52)
     742                      .dwattr $C$DW$141, DW_AT_external
     743              
     744              $C$DW$142       .dwtag  DW_TAG_subprogram, DW_AT_name("__IQsat")
     745                      .dwattr $C$DW$142, DW_AT_TI_symbol_name("___IQsat")
     746                      .dwattr $C$DW$142, DW_AT_type(*$C$DW$T$12)
     747                      .dwattr $C$DW$142, DW_AT_declaration
     748                      .dwattr $C$DW$142, DW_AT_external
     749              $C$DW$143       .dwtag  DW_TAG_formal_parameter
     750                      .dwattr $C$DW$143, DW_AT_type(*$C$DW$T$12)
     751              $C$DW$144       .dwtag  DW_TAG_formal_parameter
     752                      .dwattr $C$DW$144, DW_AT_type(*$C$DW$T$12)
     753              $C$DW$145       .dwtag  DW_TAG_formal_parameter
     754                      .dwattr $C$DW$145, DW_AT_type(*$C$DW$T$12)
     755                      .dwendtag $C$DW$142
     756              
     757              
     758              $C$DW$146       .dwtag  DW_TAG_subprogram, DW_AT_name("USER_computeTorque_Nm")
     759                      .dwattr $C$DW$146, DW_AT_TI_symbol_name("_USER_computeTorque_Nm")
     760                      .dwattr $C$DW$146, DW_AT_type(*$C$DW$T$35)
     761                      .dwattr $C$DW$146, DW_AT_declaration
     762                      .dwattr $C$DW$146, DW_AT_external
     763              $C$DW$147       .dwtag  DW_TAG_formal_parameter
     764                      .dwattr $C$DW$147, DW_AT_type(*$C$DW$T$201)
     765              $C$DW$148       .dwtag  DW_TAG_formal_parameter
     766                      .dwattr $C$DW$148, DW_AT_type(*$C$DW$T$301)
     767              $C$DW$149       .dwtag  DW_TAG_formal_parameter
     768                      .dwattr $C$DW$149, DW_AT_type(*$C$DW$T$301)
     769                      .dwendtag $C$DW$146
     770              
     771              
     772              $C$DW$150       .dwtag  DW_TAG_subprogram, DW_AT_name("USER_computeFlux")
     773                      .dwattr $C$DW$150, DW_AT_TI_symbol_name("_USER_computeFlux")
TMS320C2000 Assembler PC v6.4.4 Wed Jul 08 12:49:31 2015

Tools Copyright (c) 1996-2015 Texas Instruments Incorporated
C:\Users\grant\AppData\Local\Temp\0448010                            PAGE   16

     774                      .dwattr $C$DW$150, DW_AT_type(*$C$DW$T$35)
     775                      .dwattr $C$DW$150, DW_AT_declaration
     776                      .dwattr $C$DW$150, DW_AT_external
     777              $C$DW$151       .dwtag  DW_TAG_formal_parameter
     778                      .dwattr $C$DW$151, DW_AT_type(*$C$DW$T$201)
     779              $C$DW$152       .dwtag  DW_TAG_formal_parameter
     780                      .dwattr $C$DW$152, DW_AT_type(*$C$DW$T$301)
     781                      .dwendtag $C$DW$150
     782              
     783              
     784              $C$DW$153       .dwtag  DW_TAG_subprogram, DW_AT_name("USER_computeFlux_pu_to_VpHz_sf")
     785                      .dwattr $C$DW$153, DW_AT_TI_symbol_name("_USER_computeFlux_pu_to_VpHz_sf")
     786                      .dwattr $C$DW$153, DW_AT_type(*$C$DW$T$35)
     787                      .dwattr $C$DW$153, DW_AT_declaration
     788                      .dwattr $C$DW$153, DW_AT_external
     789              
     790              $C$DW$154       .dwtag  DW_TAG_subprogram, DW_AT_name("USER_computeFlux_pu_to_Wb_sf")
     791                      .dwattr $C$DW$154, DW_AT_TI_symbol_name("_USER_computeFlux_pu_to_Wb_sf")
     792                      .dwattr $C$DW$154, DW_AT_type(*$C$DW$T$35)
     793                      .dwattr $C$DW$154, DW_AT_declaration
     794                      .dwattr $C$DW$154, DW_AT_external
     795              
     796              $C$DW$155       .dwtag  DW_TAG_subprogram, DW_AT_name("CTRL_initCtrl")
     797                      .dwattr $C$DW$155, DW_AT_TI_symbol_name("_CTRL_initCtrl")
     798                      .dwattr $C$DW$155, DW_AT_type(*$C$DW$T$201)
     799                      .dwattr $C$DW$155, DW_AT_declaration
     800                      .dwattr $C$DW$155, DW_AT_external
     801              $C$DW$156       .dwtag  DW_TAG_formal_parameter
     802                      .dwattr $C$DW$156, DW_AT_type(*$C$DW$T$239)
     803              $C$DW$157       .dwtag  DW_TAG_formal_parameter
     804                      .dwattr $C$DW$157, DW_AT_type(*$C$DW$T$239)
     805                      .dwendtag $C$DW$155
     806              
     807              
     808              $C$DW$158       .dwtag  DW_TAG_subprogram, DW_AT_name("PARK_init")
     809                      .dwattr $C$DW$158, DW_AT_TI_symbol_name("_PARK_init")
     810                      .dwattr $C$DW$158, DW_AT_type(*$C$DW$T$52)
     811                      .dwattr $C$DW$158, DW_AT_declaration
     812                      .dwattr $C$DW$158, DW_AT_external
     813              $C$DW$159       .dwtag  DW_TAG_formal_parameter
     814                      .dwattr $C$DW$159, DW_AT_type(*$C$DW$T$3)
     815              $C$DW$160       .dwtag  DW_TAG_formal_parameter
     816                      .dwattr $C$DW$160, DW_AT_type(*$C$DW$T$231)
     817                      .dwendtag $C$DW$158
     818              
     819              
     820              $C$DW$161       .dwtag  DW_TAG_subprogram, DW_AT_name("IPARK_init")
     821                      .dwattr $C$DW$161, DW_AT_TI_symbol_name("_IPARK_init")
     822                      .dwattr $C$DW$161, DW_AT_type(*$C$DW$T$58)
     823                      .dwattr $C$DW$161, DW_AT_declaration
     824                      .dwattr $C$DW$161, DW_AT_external
     825              $C$DW$162       .dwtag  DW_TAG_formal_parameter
     826                      .dwattr $C$DW$162, DW_AT_type(*$C$DW$T$3)
     827              $C$DW$163       .dwtag  DW_TAG_formal_parameter
     828                      .dwattr $C$DW$163, DW_AT_type(*$C$DW$T$231)
TMS320C2000 Assembler PC v6.4.4 Wed Jul 08 12:49:31 2015

Tools Copyright (c) 1996-2015 Texas Instruments Incorporated
C:\Users\grant\AppData\Local\Temp\0448010                            PAGE   17

     829                      .dwendtag $C$DW$161
     830              
     831              
     832              $C$DW$164       .dwtag  DW_TAG_subprogram, DW_AT_name("HAL_init")
     833                      .dwattr $C$DW$164, DW_AT_TI_symbol_name("_HAL_init")
     834                      .dwattr $C$DW$164, DW_AT_type(*$C$DW$T$259)
     835                      .dwattr $C$DW$164, DW_AT_declaration
     836                      .dwattr $C$DW$164, DW_AT_external
     837              $C$DW$165       .dwtag  DW_TAG_formal_parameter
     838                      .dwattr $C$DW$165, DW_AT_type(*$C$DW$T$3)
     839              $C$DW$166       .dwtag  DW_TAG_formal_parameter
     840                      .dwattr $C$DW$166, DW_AT_type(*$C$DW$T$231)
     841                      .dwendtag $C$DW$164
     842              
     843              
     844              $C$DW$167       .dwtag  DW_TAG_subprogram, DW_AT_name("CLARKE_init")
     845                      .dwattr $C$DW$167, DW_AT_TI_symbol_name("_CLARKE_init")
     846                      .dwattr $C$DW$167, DW_AT_type(*$C$DW$T$47)
     847                      .dwattr $C$DW$167, DW_AT_declaration
     848                      .dwattr $C$DW$167, DW_AT_external
     849              $C$DW$168       .dwtag  DW_TAG_formal_parameter
     850                      .dwattr $C$DW$168, DW_AT_type(*$C$DW$T$3)
     851              $C$DW$169       .dwtag  DW_TAG_formal_parameter
     852                      .dwattr $C$DW$169, DW_AT_type(*$C$DW$T$231)
     853                      .dwendtag $C$DW$167
     854              
     855              
     856              $C$DW$170       .dwtag  DW_TAG_subprogram, DW_AT_name("USER_computeTorque_Flux_Iq_pu_to_Nm_sf")
     857                      .dwattr $C$DW$170, DW_AT_TI_symbol_name("_USER_computeTorque_Flux_Iq_pu_to_Nm_sf")
     858                      .dwattr $C$DW$170, DW_AT_type(*$C$DW$T$35)
     859                      .dwattr $C$DW$170, DW_AT_declaration
     860                      .dwattr $C$DW$170, DW_AT_external
     861              
     862              $C$DW$171       .dwtag  DW_TAG_subprogram, DW_AT_name("USER_computeTorque_Ls_Id_Iq_pu_to_Nm_sf")
     863                      .dwattr $C$DW$171, DW_AT_TI_symbol_name("_USER_computeTorque_Ls_Id_Iq_pu_to_Nm_sf")
     864                      .dwattr $C$DW$171, DW_AT_type(*$C$DW$T$35)
     865                      .dwattr $C$DW$171, DW_AT_declaration
     866                      .dwattr $C$DW$171, DW_AT_external
     867              
     868              $C$DW$172       .dwtag  DW_TAG_subprogram, DW_AT_name("SVGEN_init")
     869                      .dwattr $C$DW$172, DW_AT_TI_symbol_name("_SVGEN_init")
     870                      .dwattr $C$DW$172, DW_AT_type(*$C$DW$T$61)
     871                      .dwattr $C$DW$172, DW_AT_declaration
     872                      .dwattr $C$DW$172, DW_AT_external
     873              $C$DW$173       .dwtag  DW_TAG_formal_parameter
     874                      .dwattr $C$DW$173, DW_AT_type(*$C$DW$T$3)
     875              $C$DW$174       .dwtag  DW_TAG_formal_parameter
     876                      .dwattr $C$DW$174, DW_AT_type(*$C$DW$T$231)
     877                      .dwendtag $C$DW$172
     878              
     879                      .global _ipark
     880 00000022       _ipark: .usect  ".ebss",4,1,1
     881              $C$DW$175       .dwtag  DW_TAG_variable, DW_AT_name("ipark")
     882                      .dwattr $C$DW$175, DW_AT_TI_symbol_name("_ipark")
     883                      .dwattr $C$DW$175, DW_AT_location[DW_OP_addr _ipark]
TMS320C2000 Assembler PC v6.4.4 Wed Jul 08 12:49:31 2015

Tools Copyright (c) 1996-2015 Texas Instruments Incorporated
C:\Users\grant\AppData\Local\Temp\0448010                            PAGE   18

     884                      .dwattr $C$DW$175, DW_AT_type(*$C$DW$T$59)
     885                      .dwattr $C$DW$175, DW_AT_external
     886                      .global _park
     887 00000026       _park:  .usect  ".ebss",4,1,1
     888              $C$DW$176       .dwtag  DW_TAG_variable, DW_AT_name("park")
     889                      .dwattr $C$DW$176, DW_AT_TI_symbol_name("_park")
     890                      .dwattr $C$DW$176, DW_AT_location[DW_OP_addr _park]
     891                      .dwattr $C$DW$176, DW_AT_type(*$C$DW$T$53)
     892                      .dwattr $C$DW$176, DW_AT_external
     893                      .global _gAdcBiasV
     894 0000002a       _gAdcBiasV:     .usect  ".ebss",6,1,1
     895              $C$DW$177       .dwtag  DW_TAG_variable, DW_AT_name("gAdcBiasV")
     896                      .dwattr $C$DW$177, DW_AT_TI_symbol_name("_gAdcBiasV")
     897                      .dwattr $C$DW$177, DW_AT_location[DW_OP_addr _gAdcBiasV]
     898                      .dwattr $C$DW$177, DW_AT_type(*$C$DW$T$118)
     899                      .dwattr $C$DW$177, DW_AT_external
     900                      .global _clarke_I
     901 00000030       _clarke_I:      .usect  ".ebss",6,1,1
     902              $C$DW$178       .dwtag  DW_TAG_variable, DW_AT_name("clarke_I")
     903                      .dwattr $C$DW$178, DW_AT_TI_symbol_name("_clarke_I")
     904                      .dwattr $C$DW$178, DW_AT_location[DW_OP_addr _clarke_I]
     905                      .dwattr $C$DW$178, DW_AT_type(*$C$DW$T$48)
     906                      .dwattr $C$DW$178, DW_AT_external
     907                      .global _clarke_V
     908 00000036       _clarke_V:      .usect  ".ebss",6,1,1
     909              $C$DW$179       .dwtag  DW_TAG_variable, DW_AT_name("clarke_V")
     910                      .dwattr $C$DW$179, DW_AT_TI_symbol_name("_clarke_V")
     911                      .dwattr $C$DW$179, DW_AT_location[DW_OP_addr _clarke_V]
     912                      .dwattr $C$DW$179, DW_AT_type(*$C$DW$T$48)
     913                      .dwattr $C$DW$179, DW_AT_external
     914                      .global _gPwmData
     915 00000040       _gPwmData:      .usect  ".ebss",6,1,1
     916              $C$DW$180       .dwtag  DW_TAG_variable, DW_AT_name("gPwmData")
     917                      .dwattr $C$DW$180, DW_AT_TI_symbol_name("_gPwmData")
     918                      .dwattr $C$DW$180, DW_AT_location[DW_OP_addr _gPwmData]
     919                      .dwattr $C$DW$180, DW_AT_type(*$C$DW$T$263)
     920                      .dwattr $C$DW$180, DW_AT_external
     921                      .global _gAdcBiasI
     922 00000046       _gAdcBiasI:     .usect  ".ebss",6,1,1
     923              $C$DW$181       .dwtag  DW_TAG_variable, DW_AT_name("gAdcBiasI")
     924                      .dwattr $C$DW$181, DW_AT_TI_symbol_name("_gAdcBiasI")
     925                      .dwattr $C$DW$181, DW_AT_location[DW_OP_addr _gAdcBiasI]
     926                      .dwattr $C$DW$181, DW_AT_type(*$C$DW$T$118)
     927                      .dwattr $C$DW$181, DW_AT_external
     928                      .global _gAdcData
     929 0000004c       _gAdcData:      .usect  ".ebss",14,1,1
     930              $C$DW$182       .dwtag  DW_TAG_variable, DW_AT_name("gAdcData")
     931                      .dwattr $C$DW$182, DW_AT_TI_symbol_name("_gAdcData")
     932                      .dwattr $C$DW$182, DW_AT_location[DW_OP_addr _gAdcData]
     933                      .dwattr $C$DW$182, DW_AT_type(*$C$DW$T$150)
     934                      .dwattr $C$DW$182, DW_AT_external
     935                      .global _gDrvSpi8301Vars
     936 0000005a       _gDrvSpi8301Vars:       .usect  ".ebss",24,1,0
     937              $C$DW$183       .dwtag  DW_TAG_variable, DW_AT_name("gDrvSpi8301Vars")
     938                      .dwattr $C$DW$183, DW_AT_TI_symbol_name("_gDrvSpi8301Vars")
TMS320C2000 Assembler PC v6.4.4 Wed Jul 08 12:49:31 2015

Tools Copyright (c) 1996-2015 Texas Instruments Incorporated
C:\Users\grant\AppData\Local\Temp\0448010                            PAGE   19

     939                      .dwattr $C$DW$183, DW_AT_location[DW_OP_addr _gDrvSpi8301Vars]
     940                      .dwattr $C$DW$183, DW_AT_type(*$C$DW$T$247)
     941                      .dwattr $C$DW$183, DW_AT_external
     942                      .global _gMotorVars
     943 00000080       _gMotorVars:    .usect  ".ebss",102,1,1
     944              $C$DW$184       .dwtag  DW_TAG_variable, DW_AT_name("gMotorVars")
     945                      .dwattr $C$DW$184, DW_AT_TI_symbol_name("_gMotorVars")
     946                      .dwattr $C$DW$184, DW_AT_location[DW_OP_addr _gMotorVars]
     947                      .dwattr $C$DW$184, DW_AT_type(*$C$DW$T$280)
     948                      .dwattr $C$DW$184, DW_AT_external
     949              $C$DW$185       .dwtag  DW_TAG_variable, DW_AT_name("hal")
     950                      .dwattr $C$DW$185, DW_AT_TI_symbol_name("_hal")
     951                      .dwattr $C$DW$185, DW_AT_type(*$C$DW$T$256)
     952                      .dwattr $C$DW$185, DW_AT_declaration
     953                      .dwattr $C$DW$185, DW_AT_external
     954                      .global _gUserParams
     955 00000100       _gUserParams:   .usect  ".ebss",172,1,1
     956              $C$DW$186       .dwtag  DW_TAG_variable, DW_AT_name("gUserParams")
     957                      .dwattr $C$DW$186, DW_AT_TI_symbol_name("_gUserParams")
     958                      .dwattr $C$DW$186, DW_AT_location[DW_OP_addr _gUserParams]
     959                      .dwattr $C$DW$186, DW_AT_type(*$C$DW$T$207)
     960                      .dwattr $C$DW$186, DW_AT_external
     961              ;       C:\ti\ccsv6\tools\compiler\ti-cgt-c2000_6.4.4\bin\opt2000.exe C:\\Users\\grant\\AppData\\Local\\Temp\
     962              ;       C:\ti\ccsv6\tools\compiler\ti-cgt-c2000_6.4.4\bin\ac2000.exe -@C:\\Users\\grant\\AppData\\Local\\Temp
     963 00000000               .sect   ".text"
     964                      .clink
     965                      .global _updateKpKiGains
     966              
     967              $C$DW$187       .dwtag  DW_TAG_subprogram, DW_AT_name("updateKpKiGains")
     968                      .dwattr $C$DW$187, DW_AT_low_pc(_updateKpKiGains)
     969                      .dwattr $C$DW$187, DW_AT_high_pc(0x00)
     970                      .dwattr $C$DW$187, DW_AT_TI_symbol_name("_updateKpKiGains")
     971                      .dwattr $C$DW$187, DW_AT_external
     972                      .dwattr $C$DW$187, DW_AT_TI_begin_file("../proj_lab20.c")
     973                      .dwattr $C$DW$187, DW_AT_TI_begin_line(0x2bd)
     974                      .dwattr $C$DW$187, DW_AT_TI_begin_column(0x06)
     975                      .dwattr $C$DW$187, DW_AT_TI_max_frame_size(-2)
     976                      .dwpsn  file "../proj_lab20.c",line 702,column 1,is_stmt,address _updateKpKiGains,isa 0
     977              
     978                      .dwfde $C$DW$CIE, _updateKpKiGains
     979              $C$DW$188       .dwtag  DW_TAG_formal_parameter, DW_AT_name("handle")
     980                      .dwattr $C$DW$188, DW_AT_TI_symbol_name("_handle")
     981                      .dwattr $C$DW$188, DW_AT_type(*$C$DW$T$201)
     982                      .dwattr $C$DW$188, DW_AT_location[DW_OP_reg12]
     983              
     984              ;***************************************************************
     985              ;* FNAME: _updateKpKiGains              FR SIZE:   0           *
     986              ;*                                                             *
     987              ;* FUNCTION ENVIRONMENT                                        *
     988              ;*                                                             *
     989              ;* FUNCTION PROPERTIES                                         *
     990              ;*                            0 Parameter,  0 Auto,  0 SOE     *
     991              ;***************************************************************
     992              
     993              _updateKpKiGains:
TMS320C2000 Assembler PC v6.4.4 Wed Jul 08 12:49:31 2015

Tools Copyright (c) 1996-2015 Texas Instruments Incorporated
C:\Users\grant\AppData\Local\Temp\0448010                            PAGE   20

     994              ;* AR4   assigned to _handle
     995              $C$DW$189       .dwtag  DW_TAG_variable, DW_AT_name("handle")
     996                      .dwattr $C$DW$189, DW_AT_TI_symbol_name("_handle")
     997                      .dwattr $C$DW$189, DW_AT_type(*$C$DW$T$238)
     998                      .dwattr $C$DW$189, DW_AT_location[DW_OP_reg12]
     999              ;* AL    assigned to _Ki
    1000              $C$DW$190       .dwtag  DW_TAG_variable, DW_AT_name("Ki")
    1001                      .dwattr $C$DW$190, DW_AT_TI_symbol_name("_Ki")
    1002                      .dwattr $C$DW$190, DW_AT_type(*$C$DW$T$35)
    1003                      .dwattr $C$DW$190, DW_AT_location[DW_OP_reg0]
    1004              ;* AL    assigned to _Kp
    1005              $C$DW$191       .dwtag  DW_TAG_variable, DW_AT_name("Kp")
    1006                      .dwattr $C$DW$191, DW_AT_TI_symbol_name("_Kp")
    1007                      .dwattr $C$DW$191, DW_AT_type(*$C$DW$T$35)
    1008                      .dwattr $C$DW$191, DW_AT_location[DW_OP_reg0]
    1009              ;* AL    assigned to _Ki
    1010              $C$DW$192       .dwtag  DW_TAG_variable, DW_AT_name("Ki")
    1011                      .dwattr $C$DW$192, DW_AT_TI_symbol_name("_Ki")
    1012                      .dwattr $C$DW$192, DW_AT_type(*$C$DW$T$35)
    1013                      .dwattr $C$DW$192, DW_AT_location[DW_OP_reg0]
    1014              ;* AL    assigned to _Kp
    1015              $C$DW$193       .dwtag  DW_TAG_variable, DW_AT_name("Kp")
    1016                      .dwattr $C$DW$193, DW_AT_TI_symbol_name("_Kp")
    1017                      .dwattr $C$DW$193, DW_AT_type(*$C$DW$T$35)
    1018                      .dwattr $C$DW$193, DW_AT_location[DW_OP_reg0]
    1019              ;* AL    assigned to _Ki
    1020              $C$DW$194       .dwtag  DW_TAG_variable, DW_AT_name("Ki")
    1021                      .dwattr $C$DW$194, DW_AT_TI_symbol_name("_Ki")
    1022                      .dwattr $C$DW$194, DW_AT_type(*$C$DW$T$35)
    1023                      .dwattr $C$DW$194, DW_AT_location[DW_OP_reg0]
    1024              ;* AL    assigned to _Kp
    1025              $C$DW$195       .dwtag  DW_TAG_variable, DW_AT_name("Kp")
    1026                      .dwattr $C$DW$195, DW_AT_TI_symbol_name("_Kp")
    1027                      .dwattr $C$DW$195, DW_AT_type(*$C$DW$T$35)
    1028                      .dwattr $C$DW$195, DW_AT_location[DW_OP_reg0]
    1029                      .dwcfi  cfa_offset, -2
    1030                      .dwcfi  save_reg_to_mem, 26, 0
    1031 00000000 761F-         MOVW      DP,#_gMotorVars+10    ; [CPU_U] 
         00000001 0002 
    1032                      .dwpsn  file "../proj_lab20.c",line 703,column 3,is_stmt,isa 0
    1033 00000002 920A-         MOV       AL,@_gMotorVars+10    ; [CPU_] |703| 
    1034 00000003 5203          CMPB      AL,#3                 ; [CPU_] |703| 
    1035 00000004 ED1D          BF        $C$L1,NEQ             ; [CPU_] |703| 
    1036                      ; branchcc occurs ; [] |703| 
    1037 00000005 9202-         MOV       AL,@_gMotorVars+2     ; [CPU_] |703| 
    1038 00000006 5201          CMPB      AL,#1                 ; [CPU_] |703| 
    1039 00000007 ED1A          BF        $C$L1,NEQ             ; [CPU_] |703| 
    1040                      ; branchcc occurs ; [] |703| 
    1041 00000008 761F-         MOVW      DP,#_Flag_Latch_softwareUpdate ; [CPU_U] 
         00000009 0000 
    1042 0000000a 9201-         MOV       AL,@_Flag_Latch_softwareUpdate ; [CPU_] |703| 
    1043 0000000b 5201          CMPB      AL,#1                 ; [CPU_] |703| 
    1044 0000000c EC15          BF        $C$L1,EQ              ; [CPU_] |703| 
    1045                      ; branchcc occurs ; [] |703| 
    1046 0000000d 761F-         MOVW      DP,#_gMotorVars+66    ; [CPU_U] 
TMS320C2000 Assembler PC v6.4.4 Wed Jul 08 12:49:31 2015

Tools Copyright (c) 1996-2015 Texas Instruments Incorporated
C:\Users\grant\AppData\Local\Temp\0448010                            PAGE   21

         0000000e 0003 
    1047                      .dwpsn  file "C:/ti/motorware/motorware_1_01_00_14/sw/modules/ctrl/src/32b/ctrl.h",line 1505,column 7
    1048 0000000f D0CE          MOVB      XAR0,#206             ; [CPU_] |1505| 
    1049                      .dwpsn  file "../proj_lab20.c",line 706,column 7,is_stmt,isa 0
    1050 00000010 0602-         MOVL      ACC,@_gMotorVars+66   ; [CPU_] |706| 
    1051                      .dwpsn  file "C:/ti/motorware/motorware_1_01_00_14/sw/modules/ctrl/src/32b/ctrl.h",line 1505,column 7
    1052 00000011 1E94          MOVL      *+XAR4[AR0],ACC       ; [CPU_] |1505| 
    1053                      .dwpsn  file "C:/ti/motorware/motorware_1_01_00_14/sw/modules/ctrl/src/32b/ctrl.h",line 1480,column 7
    1054 00000012 D0D4          MOVB      XAR0,#212             ; [CPU_] |1480| 
    1055                      .dwpsn  file "../proj_lab20.c",line 707,column 7,is_stmt,isa 0
    1056 00000013 0604-         MOVL      ACC,@_gMotorVars+68   ; [CPU_] |707| 
    1057                      .dwpsn  file "C:/ti/motorware/motorware_1_01_00_14/sw/modules/ctrl/src/32b/ctrl.h",line 1480,column 7
    1058 00000014 1E94          MOVL      *+XAR4[AR0],ACC       ; [CPU_] |1480| 
    1059                      .dwpsn  file "C:/ti/motorware/motorware_1_01_00_14/sw/modules/ctrl/src/32b/ctrl.h",line 1509,column 7
    1060 00000015 D0CA          MOVB      XAR0,#202             ; [CPU_] |1509| 
    1061                      .dwpsn  file "../proj_lab20.c",line 710,column 7,is_stmt,isa 0
    1062 00000016 0606-         MOVL      ACC,@_gMotorVars+70   ; [CPU_] |710| 
    1063                      .dwpsn  file "C:/ti/motorware/motorware_1_01_00_14/sw/modules/ctrl/src/32b/ctrl.h",line 1509,column 7
    1064 00000017 1E94          MOVL      *+XAR4[AR0],ACC       ; [CPU_] |1509| 
    1065                      .dwpsn  file "C:/ti/motorware/motorware_1_01_00_14/sw/modules/ctrl/src/32b/ctrl.h",line 1484,column 7
    1066 00000018 D0D0          MOVB      XAR0,#208             ; [CPU_] |1484| 
    1067                      .dwpsn  file "../proj_lab20.c",line 711,column 7,is_stmt,isa 0
    1068 00000019 0608-         MOVL      ACC,@_gMotorVars+72   ; [CPU_] |711| 
    1069                      .dwpsn  file "C:/ti/motorware/motorware_1_01_00_14/sw/modules/ctrl/src/32b/ctrl.h",line 1484,column 7
    1070 0000001a 1E94          MOVL      *+XAR4[AR0],ACC       ; [CPU_] |1484| 
    1071                      .dwpsn  file "C:/ti/motorware/motorware_1_01_00_14/sw/modules/ctrl/src/32b/ctrl.h",line 1513,column 7
    1072 0000001b D0CC          MOVB      XAR0,#204             ; [CPU_] |1513| 
    1073                      .dwpsn  file "../proj_lab20.c",line 712,column 7,is_stmt,isa 0
    1074 0000001c 0606-         MOVL      ACC,@_gMotorVars+70   ; [CPU_] |712| 
    1075                      .dwpsn  file "C:/ti/motorware/motorware_1_01_00_14/sw/modules/ctrl/src/32b/ctrl.h",line 1513,column 7
    1076 0000001d 1E94          MOVL      *+XAR4[AR0],ACC       ; [CPU_] |1513| 
    1077                      .dwpsn  file "../proj_lab20.c",line 713,column 7,is_stmt,isa 0
    1078 0000001e 0608-         MOVL      ACC,@_gMotorVars+72   ; [CPU_] |713| 
    1079                      .dwpsn  file "C:/ti/motorware/motorware_1_01_00_14/sw/modules/ctrl/src/32b/ctrl.h",line 1488,column 7
    1080 0000001f D0D2          MOVB      XAR0,#210             ; [CPU_] |1488| 
    1081 00000020 1E94          MOVL      *+XAR4[AR0],ACC       ; [CPU_] |1488| 
    1082              $C$L1:    
    1083              $C$DW$196       .dwtag  DW_TAG_TI_branch
    1084                      .dwattr $C$DW$196, DW_AT_low_pc(0x00)
    1085                      .dwattr $C$DW$196, DW_AT_TI_return
    1086 00000021 0006          LRETR     ; [CPU_] 
    1087                      ; return occurs ; [] 
    1088                      .dwattr $C$DW$187, DW_AT_TI_end_file("../proj_lab20.c")
    1089                      .dwattr $C$DW$187, DW_AT_TI_end_line(0x2cd)
    1090                      .dwattr $C$DW$187, DW_AT_TI_end_column(0x01)
    1091                      .dwendentry
    1092                      .dwendtag $C$DW$187
    1093              
    1094 00000022               .sect   ".text"
    1095                      .clink
    1096                      .global _updateGlobalVariables_motor
    1097              
    1098              $C$DW$197       .dwtag  DW_TAG_subprogram, DW_AT_name("updateGlobalVariables_motor")
    1099                      .dwattr $C$DW$197, DW_AT_low_pc(_updateGlobalVariables_motor)
    1100                      .dwattr $C$DW$197, DW_AT_high_pc(0x00)
TMS320C2000 Assembler PC v6.4.4 Wed Jul 08 12:49:31 2015

Tools Copyright (c) 1996-2015 Texas Instruments Incorporated
C:\Users\grant\AppData\Local\Temp\0448010                            PAGE   22

    1101                      .dwattr $C$DW$197, DW_AT_TI_symbol_name("_updateGlobalVariables_motor")
    1102                      .dwattr $C$DW$197, DW_AT_external
    1103                      .dwattr $C$DW$197, DW_AT_TI_begin_file("../proj_lab20.c")
    1104                      .dwattr $C$DW$197, DW_AT_TI_begin_line(0x28e)
    1105                      .dwattr $C$DW$197, DW_AT_TI_begin_column(0x06)
    1106                      .dwattr $C$DW$197, DW_AT_TI_max_frame_size(-8)
    1107                      .dwpsn  file "../proj_lab20.c",line 655,column 1,is_stmt,address _updateGlobalVariables_motor,isa 0
    1108              
    1109                      .dwfde $C$DW$CIE, _updateGlobalVariables_motor
    1110              $C$DW$198       .dwtag  DW_TAG_formal_parameter, DW_AT_name("handle")
    1111                      .dwattr $C$DW$198, DW_AT_TI_symbol_name("_handle")
    1112                      .dwattr $C$DW$198, DW_AT_type(*$C$DW$T$201)
    1113                      .dwattr $C$DW$198, DW_AT_location[DW_OP_reg12]
    1114              
    1115              ;***************************************************************
    1116              ;* FNAME: _updateGlobalVariables_motor  FR SIZE:   6           *
    1117              ;*                                                             *
    1118              ;* FUNCTION ENVIRONMENT                                        *
    1119              ;*                                                             *
    1120              ;* FUNCTION PROPERTIES                                         *
    1121              ;*                            2 Parameter,  0 Auto,  4 SOE     *
    1122              ;***************************************************************
    1123              
    1124              _updateGlobalVariables_motor:
    1125              ;* XT    assigned to $O$R2
    1126              ;* AR2   assigned to _handle
    1127              $C$DW$199       .dwtag  DW_TAG_variable, DW_AT_name("handle")
    1128                      .dwattr $C$DW$199, DW_AT_TI_symbol_name("_handle")
    1129                      .dwattr $C$DW$199, DW_AT_type(*$C$DW$T$238)
    1130                      .dwattr $C$DW$199, DW_AT_location[DW_OP_reg8]
    1131                      .dwcfi  cfa_offset, -2
    1132                      .dwcfi  save_reg_to_mem, 26, 0
    1133 00000022 B2BD          MOVL      *SP++,XAR1            ; [CPU_] 
    1134                      .dwcfi  save_reg_to_mem, 7, 2
    1135                      .dwcfi  cfa_offset, -4
    1136 00000023 AABD          MOVL      *SP++,XAR2            ; [CPU_] 
    1137                      .dwcfi  save_reg_to_mem, 9, 4
    1138                      .dwcfi  cfa_offset, -6
    1139 00000024 FE02          ADDB      SP,#2                 ; [CPU_U] 
    1140                      .dwcfi  cfa_offset, -8
    1141 00000025 86A4          MOVL      XAR2,XAR4             ; [CPU_] |655| 
    1142                      .dwpsn  file "../proj_lab20.c",line 659,column 3,is_stmt,isa 0
    1143 00000026 D018          MOVB      XAR0,#24              ; [CPU_] |659| 
    1144 00000027 8A92          MOVL      XAR4,*+XAR2[AR0]      ; [CPU_] |659| 
    1145              $C$DW$200       .dwtag  DW_TAG_TI_branch
    1146                      .dwattr $C$DW$200, DW_AT_low_pc(0x00)
    1147                      .dwattr $C$DW$200, DW_AT_name("_EST_getSpeed_krpm")
    1148                      .dwattr $C$DW$200, DW_AT_TI_call
    1149 00000028 7640!         LCR       #_EST_getSpeed_krpm   ; [CPU_] |659| 
         00000029 0000 
    1150                      ; call occurs [#_EST_getSpeed_krpm] ; [] |659| 
    1151 0000002a 761F-         MOVW      DP,#_gMotorVars+28    ; [CPU_U] 
         0000002b 0002 
    1152                      .dwpsn  file "C:/ti/motorware/motorware_1_01_00_14/sw/modules/traj/src/32b/traj.h",line 96,column 3,i
    1153 0000002c D06C          MOVB      XAR0,#108             ; [CPU_] |96| 
TMS320C2000 Assembler PC v6.4.4 Wed Jul 08 12:49:31 2015

Tools Copyright (c) 1996-2015 Texas Instruments Incorporated
C:\Users\grant\AppData\Local\Temp\0448010                            PAGE   23

    1154                      .dwpsn  file "../proj_lab20.c",line 659,column 3,is_stmt,isa 0
    1155 0000002d 1E1C-         MOVL      @_gMotorVars+28,ACC   ; [CPU_] |659| 
    1156                      .dwpsn  file "C:/ti/motorware/motorware_1_01_00_14/sw/modules/traj/src/32b/traj.h",line 96,column 3,i
    1157 0000002e 8A92          MOVL      XAR4,*+XAR2[AR0]      ; [CPU_] |96| 
    1158                      .dwpsn  file "../proj_lab20.c",line 662,column 3,is_stmt,isa 0
    1159 0000002f D018          MOVB      XAR0,#24              ; [CPU_] |662| 
    1160                      .dwpsn  file "C:/ti/motorware/motorware_1_01_00_14/sw/modules/traj/src/32b/traj.h",line 96,column 3,i
    1161 00000030 8BD4          MOVL      XAR1,*+XAR4[2]        ; [CPU_] |96| 
    1162                      .dwpsn  file "../proj_lab20.c",line 662,column 3,is_stmt,isa 0
    1163 00000031 8A92          MOVL      XAR4,*+XAR2[AR0]      ; [CPU_] |662| 
    1164              $C$DW$201       .dwtag  DW_TAG_TI_branch
    1165                      .dwattr $C$DW$201, DW_AT_low_pc(0x00)
    1166                      .dwattr $C$DW$201, DW_AT_name("_EST_get_pu_to_krpm_sf")
    1167                      .dwattr $C$DW$201, DW_AT_TI_call
    1168 00000032 7640!         LCR       #_EST_get_pu_to_krpm_sf ; [CPU_] |662| 
         00000033 0000 
    1169                      ; call occurs [#_EST_get_pu_to_krpm_sf] ; [] |662| 
    1170 00000034 761F-         MOVW      DP,#_gMotorVars+24    ; [CPU_U] 
         00000035 0002 
    1171 00000036 B2AC          MOVL      XT,XAR1               ; [CPU_] |662| 
    1172                      .dwpsn  file "../proj_lab20.c",line 665,column 3,is_stmt,isa 0
    1173 00000037 8AA2          MOVL      XAR4,XAR2             ; [CPU_] |665| 
    1174                      .dwpsn  file "../proj_lab20.c",line 662,column 3,is_stmt,isa 0
    1175 00000038 5605          IMPYL     P,XT,ACC              ; [CPU_] |662| 
         00000039 00A9 
    1176 0000003a 5663          QMPYL     ACC,XT,ACC            ; [CPU_] |662| 
         0000003b 00A9 
    1177 0000003c 56A7          LSL64     ACC:P,#8              ; [CPU_] |662| 
    1178 0000003d 1E18-         MOVL      @_gMotorVars+24,ACC   ; [CPU_] |662| 
    1179 0000003e 761F-         MOVW      DP,#_gTorque_Ls_Id_Iq_pu_to_Nm_sf ; [CPU_U] 
         0000003f 0000 
    1180                      .dwpsn  file "../proj_lab20.c",line 665,column 3,is_stmt,isa 0
    1181 00000040 060A-         MOVL      ACC,@_gTorque_Ls_Id_Iq_pu_to_Nm_sf ; [CPU_] |665| 
    1182 00000041 1E42          MOVL      *-SP[2],ACC           ; [CPU_] |665| 
    1183 00000042 060C-         MOVL      ACC,@_gTorque_Flux_Iq_pu_to_Nm_sf ; [CPU_] |665| 
    1184              $C$DW$202       .dwtag  DW_TAG_TI_branch
    1185                      .dwattr $C$DW$202, DW_AT_low_pc(0x00)
    1186                      .dwattr $C$DW$202, DW_AT_name("_USER_computeTorque_Nm")
    1187                      .dwattr $C$DW$202, DW_AT_TI_call
    1188 00000043 7640!         LCR       #_USER_computeTorque_Nm ; [CPU_] |665| 
         00000044 0000 
    1189                      ; call occurs [#_USER_computeTorque_Nm] ; [] |665| 
    1190 00000045 761F-         MOVW      DP,#_gMotorVars+38    ; [CPU_U] 
         00000046 0002 
    1191                      .dwpsn  file "../proj_lab20.c",line 668,column 3,is_stmt,isa 0
    1192 00000047 D018          MOVB      XAR0,#24              ; [CPU_] |668| 
    1193                      .dwpsn  file "../proj_lab20.c",line 665,column 3,is_stmt,isa 0
    1194 00000048 1E26-         MOVL      @_gMotorVars+38,ACC   ; [CPU_] |665| 
    1195                      .dwpsn  file "../proj_lab20.c",line 668,column 3,is_stmt,isa 0
    1196 00000049 8A92          MOVL      XAR4,*+XAR2[AR0]      ; [CPU_] |668| 
    1197              $C$DW$203       .dwtag  DW_TAG_TI_branch
    1198                      .dwattr $C$DW$203, DW_AT_low_pc(0x00)
    1199                      .dwattr $C$DW$203, DW_AT_name("_EST_getIdRated")
    1200                      .dwattr $C$DW$203, DW_AT_TI_call
    1201 0000004a 7640!         LCR       #_EST_getIdRated      ; [CPU_] |668| 
TMS320C2000 Assembler PC v6.4.4 Wed Jul 08 12:49:31 2015

Tools Copyright (c) 1996-2015 Texas Instruments Incorporated
C:\Users\grant\AppData\Local\Temp\0448010                            PAGE   24

         0000004b 0000 
    1202                      ; call occurs [#_EST_getIdRated] ; [] |668| 
    1203 0000004c 761F-         MOVW      DP,#_gMotorVars+40    ; [CPU_U] 
         0000004d 0002 
    1204                      .dwpsn  file "../proj_lab20.c",line 671,column 3,is_stmt,isa 0
    1205 0000004e D018          MOVB      XAR0,#24              ; [CPU_] |671| 
    1206                      .dwpsn  file "../proj_lab20.c",line 668,column 3,is_stmt,isa 0
    1207 0000004f 1E28-         MOVL      @_gMotorVars+40,ACC   ; [CPU_] |668| 
    1208                      .dwpsn  file "../proj_lab20.c",line 671,column 3,is_stmt,isa 0
    1209 00000050 8A92          MOVL      XAR4,*+XAR2[AR0]      ; [CPU_] |671| 
    1210              $C$DW$204       .dwtag  DW_TAG_TI_branch
    1211                      .dwattr $C$DW$204, DW_AT_low_pc(0x00)
    1212                      .dwattr $C$DW$204, DW_AT_name("_EST_getRr_Ohm")
    1213                      .dwattr $C$DW$204, DW_AT_TI_call
    1214 00000051 7640!         LCR       #_EST_getRr_Ohm       ; [CPU_] |671| 
         00000052 0000 
    1215                      ; call occurs [#_EST_getRr_Ohm] ; [] |671| 
    1216 00000053 761F-         MOVW      DP,#_gMotorVars+42    ; [CPU_U] 
         00000054 0002 
    1217                      .dwpsn  file "../proj_lab20.c",line 674,column 3,is_stmt,isa 0
    1218 00000055 D018          MOVB      XAR0,#24              ; [CPU_] |674| 
    1219                      .dwpsn  file "../proj_lab20.c",line 671,column 3,is_stmt,isa 0
    1220 00000056 1E2A-         MOVL      @_gMotorVars+42,ACC   ; [CPU_] |671| 
    1221                      .dwpsn  file "../proj_lab20.c",line 674,column 3,is_stmt,isa 0
    1222 00000057 8A92          MOVL      XAR4,*+XAR2[AR0]      ; [CPU_] |674| 
    1223              $C$DW$205       .dwtag  DW_TAG_TI_branch
    1224                      .dwattr $C$DW$205, DW_AT_low_pc(0x00)
    1225                      .dwattr $C$DW$205, DW_AT_name("_EST_getRs_Ohm")
    1226                      .dwattr $C$DW$205, DW_AT_TI_call
    1227 00000058 7640!         LCR       #_EST_getRs_Ohm       ; [CPU_] |674| 
         00000059 0000 
    1228                      ; call occurs [#_EST_getRs_Ohm] ; [] |674| 
    1229 0000005a 761F-         MOVW      DP,#_gMotorVars+44    ; [CPU_U] 
         0000005b 0002 
    1230                      .dwpsn  file "../proj_lab20.c",line 677,column 3,is_stmt,isa 0
    1231 0000005c D018          MOVB      XAR0,#24              ; [CPU_] |677| 
    1232                      .dwpsn  file "../proj_lab20.c",line 674,column 3,is_stmt,isa 0
    1233 0000005d 1E2C-         MOVL      @_gMotorVars+44,ACC   ; [CPU_] |674| 
    1234                      .dwpsn  file "../proj_lab20.c",line 677,column 3,is_stmt,isa 0
    1235 0000005e 8A92          MOVL      XAR4,*+XAR2[AR0]      ; [CPU_] |677| 
    1236              $C$DW$206       .dwtag  DW_TAG_TI_branch
    1237                      .dwattr $C$DW$206, DW_AT_low_pc(0x00)
    1238                      .dwattr $C$DW$206, DW_AT_name("_EST_getLs_d_H")
    1239                      .dwattr $C$DW$206, DW_AT_TI_call
    1240 0000005f 7640!         LCR       #_EST_getLs_d_H       ; [CPU_] |677| 
         00000060 0000 
    1241                      ; call occurs [#_EST_getLs_d_H] ; [] |677| 
    1242 00000061 761F-         MOVW      DP,#_gMotorVars+48    ; [CPU_U] 
         00000062 0002 
    1243                      .dwpsn  file "../proj_lab20.c",line 680,column 3,is_stmt,isa 0
    1244 00000063 D018          MOVB      XAR0,#24              ; [CPU_] |680| 
    1245                      .dwpsn  file "../proj_lab20.c",line 677,column 3,is_stmt,isa 0
    1246 00000064 1E30-         MOVL      @_gMotorVars+48,ACC   ; [CPU_] |677| 
    1247                      .dwpsn  file "../proj_lab20.c",line 680,column 3,is_stmt,isa 0
    1248 00000065 8A92          MOVL      XAR4,*+XAR2[AR0]      ; [CPU_] |680| 
TMS320C2000 Assembler PC v6.4.4 Wed Jul 08 12:49:31 2015

Tools Copyright (c) 1996-2015 Texas Instruments Incorporated
C:\Users\grant\AppData\Local\Temp\0448010                            PAGE   25

    1249              $C$DW$207       .dwtag  DW_TAG_TI_branch
    1250                      .dwattr $C$DW$207, DW_AT_low_pc(0x00)
    1251                      .dwattr $C$DW$207, DW_AT_name("_EST_getLs_q_H")
    1252                      .dwattr $C$DW$207, DW_AT_TI_call
    1253 00000066 7640!         LCR       #_EST_getLs_q_H       ; [CPU_] |680| 
         00000067 0000 
    1254                      ; call occurs [#_EST_getLs_q_H] ; [] |680| 
    1255 00000068 761F-         MOVW      DP,#_gMotorVars+50    ; [CPU_U] 
         00000069 0002 
    1256                      .dwpsn  file "../proj_lab20.c",line 683,column 3,is_stmt,isa 0
    1257 0000006a D018          MOVB      XAR0,#24              ; [CPU_] |683| 
    1258                      .dwpsn  file "../proj_lab20.c",line 680,column 3,is_stmt,isa 0
    1259 0000006b 1E32-         MOVL      @_gMotorVars+50,ACC   ; [CPU_] |680| 
    1260                      .dwpsn  file "../proj_lab20.c",line 683,column 3,is_stmt,isa 0
    1261 0000006c 8A92          MOVL      XAR4,*+XAR2[AR0]      ; [CPU_] |683| 
    1262              $C$DW$208       .dwtag  DW_TAG_TI_branch
    1263                      .dwattr $C$DW$208, DW_AT_low_pc(0x00)
    1264                      .dwattr $C$DW$208, DW_AT_name("_EST_getFlux_VpHz")
    1265                      .dwattr $C$DW$208, DW_AT_TI_call
    1266 0000006d 7640!         LCR       #_EST_getFlux_VpHz    ; [CPU_] |683| 
         0000006e 0000 
    1267                      ; call occurs [#_EST_getFlux_VpHz] ; [] |683| 
    1268 0000006f 761F-         MOVW      DP,#_gMotorVars+52    ; [CPU_U] 
         00000070 0002 
    1269 00000071 1E34-         MOVL      @_gMotorVars+52,ACC   ; [CPU_] |683| 
    1270                      .dwpsn  file "../proj_lab20.c",line 686,column 3,is_stmt,isa 0
    1271 00000072 8AA2          MOVL      XAR4,XAR2             ; [CPU_] |686| 
    1272 00000073 761F-         MOVW      DP,#_gFlux_pu_to_Wb_sf ; [CPU_U] 
         00000074 0000 
    1273 00000075 060E-         MOVL      ACC,@_gFlux_pu_to_Wb_sf ; [CPU_] |686| 
    1274              $C$DW$209       .dwtag  DW_TAG_TI_branch
    1275                      .dwattr $C$DW$209, DW_AT_low_pc(0x00)
    1276                      .dwattr $C$DW$209, DW_AT_name("_USER_computeFlux")
    1277                      .dwattr $C$DW$209, DW_AT_TI_call
    1278 00000076 7640!         LCR       #_USER_computeFlux    ; [CPU_] |686| 
         00000077 0000 
    1279                      ; call occurs [#_USER_computeFlux] ; [] |686| 
    1280 00000078 761F-         MOVW      DP,#_gMotorVars+36    ; [CPU_U] 
         00000079 0002 
    1281                      .dwpsn  file "../proj_lab20.c",line 692,column 3,is_stmt,isa 0
    1282 0000007a D018          MOVB      XAR0,#24              ; [CPU_] |692| 
    1283                      .dwpsn  file "../proj_lab20.c",line 686,column 3,is_stmt,isa 0
    1284 0000007b 1E24-         MOVL      @_gMotorVars+36,ACC   ; [CPU_] |686| 
    1285                      .dwpsn  file "../proj_lab20.c",line 689,column 3,is_stmt,isa 0
    1286 0000007c 92E2          MOV       AL,*+XAR2[4]          ; [CPU_] |689| 
    1287 0000007d 960A-         MOV       @_gMotorVars+10,AL    ; [CPU_] |689| 
    1288                      .dwpsn  file "../proj_lab20.c",line 692,column 3,is_stmt,isa 0
    1289 0000007e 8A92          MOVL      XAR4,*+XAR2[AR0]      ; [CPU_] |692| 
    1290              $C$DW$210       .dwtag  DW_TAG_TI_branch
    1291                      .dwattr $C$DW$210, DW_AT_low_pc(0x00)
    1292                      .dwattr $C$DW$210, DW_AT_name("_EST_getState")
    1293                      .dwattr $C$DW$210, DW_AT_TI_call
    1294 0000007f 7640!         LCR       #_EST_getState        ; [CPU_] |692| 
         00000080 0000 
    1295                      ; call occurs [#_EST_getState] ; [] |692| 
TMS320C2000 Assembler PC v6.4.4 Wed Jul 08 12:49:31 2015

Tools Copyright (c) 1996-2015 Texas Instruments Incorporated
C:\Users\grant\AppData\Local\Temp\0448010                            PAGE   26

    1296 00000081 761F-         MOVW      DP,#_gMotorVars+11    ; [CPU_U] 
         00000082 0002 
    1297 00000083 960B-         MOV       @_gMotorVars+11,AL    ; [CPU_] |692| 
    1298                      .dwpsn  file "../proj_lab20.c",line 695,column 3,is_stmt,isa 0
    1299 00000084 8F06          MOVL      XAR4,#402653          ; [CPU_U] |695| 
         00000085 24DD 
    1300 00000086 761F-         MOVW      DP,#_gAdcData+12      ; [CPU_U] 
         00000087 0001 
    1301 00000088 8718-         MOVL      XT,@_gAdcData+12      ; [CPU_] |695| 
    1302 00000089 FE82          SUBB      SP,#2                 ; [CPU_U] 
    1303                      .dwcfi  cfa_offset, -6
    1304 0000008a 86BE          MOVL      XAR2,*--SP            ; [CPU_] 
    1305                      .dwcfi  cfa_offset, -4
    1306                      .dwcfi  restore_reg, 9
    1307 0000008b 5605          IMPYL     P,XT,XAR4             ; [CPU_] |695| 
         0000008c 00A4 
    1308 0000008d 5663          QMPYL     ACC,XT,XAR4           ; [CPU_] |695| 
         0000008e 00A4 
    1309 0000008f 8BBE          MOVL      XAR1,*--SP            ; [CPU_] 
    1310                      .dwcfi  cfa_offset, -2
    1311                      .dwcfi  restore_reg, 7
    1312 00000090 56A7          LSL64     ACC:P,#8              ; [CPU_] |695| 
    1313 00000091 761F-         MOVW      DP,#_gMotorVars+82    ; [CPU_U] 
         00000092 0003 
    1314 00000093 1E12-         MOVL      @_gMotorVars+82,ACC   ; [CPU_] |695| 
    1315              $C$DW$211       .dwtag  DW_TAG_TI_branch
    1316                      .dwattr $C$DW$211, DW_AT_low_pc(0x00)
    1317                      .dwattr $C$DW$211, DW_AT_TI_return
    1318 00000094 0006          LRETR     ; [CPU_] 
    1319                      ; return occurs ; [] 
    1320                      .dwattr $C$DW$197, DW_AT_TI_end_file("../proj_lab20.c")
    1321                      .dwattr $C$DW$197, DW_AT_TI_end_line(0x2ba)
    1322                      .dwattr $C$DW$197, DW_AT_TI_end_column(0x01)
    1323                      .dwendentry
    1324                      .dwendtag $C$DW$197
    1325              
    1326 00000095               .sect   ".text"
    1327                      .clink
    1328                      .global _setupClarke_V
    1329              
    1330              $C$DW$212       .dwtag  DW_TAG_subprogram, DW_AT_name("setupClarke_V")
    1331                      .dwattr $C$DW$212, DW_AT_low_pc(_setupClarke_V)
    1332                      .dwattr $C$DW$212, DW_AT_high_pc(0x00)
    1333                      .dwattr $C$DW$212, DW_AT_TI_symbol_name("_setupClarke_V")
    1334                      .dwattr $C$DW$212, DW_AT_external
    1335                      .dwattr $C$DW$212, DW_AT_TI_begin_file("../proj_lab20.c")
    1336                      .dwattr $C$DW$212, DW_AT_TI_begin_line(0x275)
    1337                      .dwattr $C$DW$212, DW_AT_TI_begin_column(0x06)
    1338                      .dwattr $C$DW$212, DW_AT_TI_max_frame_size(-2)
    1339                      .dwpsn  file "../proj_lab20.c",line 630,column 1,is_stmt,address _setupClarke_V,isa 0
    1340              
    1341                      .dwfde $C$DW$CIE, _setupClarke_V
    1342              $C$DW$213       .dwtag  DW_TAG_formal_parameter, DW_AT_name("handle")
    1343                      .dwattr $C$DW$213, DW_AT_TI_symbol_name("_handle")
    1344                      .dwattr $C$DW$213, DW_AT_type(*$C$DW$T$47)
TMS320C2000 Assembler PC v6.4.4 Wed Jul 08 12:49:31 2015

Tools Copyright (c) 1996-2015 Texas Instruments Incorporated
C:\Users\grant\AppData\Local\Temp\0448010                            PAGE   27

    1345                      .dwattr $C$DW$213, DW_AT_location[DW_OP_reg12]
    1346              $C$DW$214       .dwtag  DW_TAG_formal_parameter, DW_AT_name("numVoltageSensors")
    1347                      .dwattr $C$DW$214, DW_AT_TI_symbol_name("_numVoltageSensors")
    1348                      .dwattr $C$DW$214, DW_AT_type(*$C$DW$T$239)
    1349                      .dwattr $C$DW$214, DW_AT_location[DW_OP_reg0]
    1350              
    1351              ;***************************************************************
    1352              ;* FNAME: _setupClarke_V                FR SIZE:   0           *
    1353              ;*                                                             *
    1354              ;* FUNCTION ENVIRONMENT                                        *
    1355              ;*                                                             *
    1356              ;* FUNCTION PROPERTIES                                         *
    1357              ;*                            0 Parameter,  0 Auto,  0 SOE     *
    1358              ;***************************************************************
    1359              
    1360              _setupClarke_V:
    1361              ;* PL    assigned to _beta_sf
    1362              $C$DW$215       .dwtag  DW_TAG_variable, DW_AT_name("beta_sf")
    1363                      .dwattr $C$DW$215, DW_AT_TI_symbol_name("_beta_sf")
    1364                      .dwattr $C$DW$215, DW_AT_type(*$C$DW$T$35)
    1365                      .dwattr $C$DW$215, DW_AT_location[DW_OP_reg2]
    1366              ;* AR6   assigned to _alpha_sf
    1367              $C$DW$216       .dwtag  DW_TAG_variable, DW_AT_name("alpha_sf")
    1368                      .dwattr $C$DW$216, DW_AT_TI_symbol_name("_alpha_sf")
    1369                      .dwattr $C$DW$216, DW_AT_type(*$C$DW$T$35)
    1370                      .dwattr $C$DW$216, DW_AT_location[DW_OP_reg16]
    1371              ;* AL    assigned to _numVoltageSensors
    1372              $C$DW$217       .dwtag  DW_TAG_variable, DW_AT_name("numVoltageSensors")
    1373                      .dwattr $C$DW$217, DW_AT_TI_symbol_name("_numVoltageSensors")
    1374                      .dwattr $C$DW$217, DW_AT_type(*$C$DW$T$239)
    1375                      .dwattr $C$DW$217, DW_AT_location[DW_OP_reg0]
    1376              ;* AR4   assigned to _handle
    1377              $C$DW$218       .dwtag  DW_TAG_variable, DW_AT_name("handle")
    1378                      .dwattr $C$DW$218, DW_AT_TI_symbol_name("_handle")
    1379                      .dwattr $C$DW$218, DW_AT_type(*$C$DW$T$229)
    1380                      .dwattr $C$DW$218, DW_AT_location[DW_OP_reg12]
    1381                      .dwcfi  cfa_offset, -2
    1382                      .dwcfi  save_reg_to_mem, 26, 0
    1383                      .dwpsn  file "../proj_lab20.c",line 635,column 3,is_stmt,isa 0
    1384 00000095 5203          CMPB      AL,#3                 ; [CPU_] |635| 
    1385 00000096 EC05          BF        $C$L2,EQ              ; [CPU_] |635| 
    1386                      ; branchcc occurs ; [] |635| 
    1387                      .dwpsn  file "../proj_lab20.c",line 643,column 7,is_stmt,isa 0
    1388 00000097 B600          MOVB      XAR7,#0               ; [CPU_] |643| 
    1389                      .dwpsn  file "../proj_lab20.c",line 642,column 7,is_stmt,isa 0
    1390 00000098 BE00          MOVB      XAR6,#0               ; [CPU_] |642| 
    1391                      .dwpsn  file "../proj_lab20.c",line 643,column 7,is_stmt,isa 0
    1392 00000099 A3A7          MOVL      P,XAR7                ; [CPU_] |643| 
    1393 0000009a 6F0A          B         $C$L3,UNC             ; [CPU_] |643| 
    1394                      ; branch occurs ; [] |643| 
    1395 0000009b       $C$L2:    
    1396                      .dwpsn  file "../proj_lab20.c",line 637,column 7,is_stmt,isa 0
    1397 0000009b 28AB          MOV       PL,#21845             ; [CPU_] |637| 
         0000009c 5555 
    1398 0000009d 28AA          MOV       PH,#85                ; [CPU_] |637| 
TMS320C2000 Assembler PC v6.4.4 Wed Jul 08 12:49:31 2015

Tools Copyright (c) 1996-2015 Texas Instruments Incorporated
C:\Users\grant\AppData\Local\Temp\0448010                            PAGE   28

         0000009e 0055 
    1399 0000009f A9A6          MOVL      XAR6,P                ; [CPU_] |637| 
    1400                      .dwpsn  file "../proj_lab20.c",line 638,column 7,is_stmt,isa 0
    1401 000000a0 28AB          MOV       PL,#52538             ; [CPU_] |638| 
         000000a1 CD3A 
    1402 000000a2 28AA          MOV       PH,#147               ; [CPU_] |638| 
         000000a3 0093 
    1403 000000a4       $C$L3:    
    1404                      .dwpsn  file "C:/ti/motorware/motorware_1_01_00_14/sw/modules/clarke/src/32b/clarke.h",line 185,colum
    1405 000000a4 C2C4          MOVL      *+XAR4[0],XAR6        ; [CPU_] |185| 
    1406                      .dwpsn  file "C:/ti/motorware/motorware_1_01_00_14/sw/modules/clarke/src/32b/clarke.h",line 186,colum
    1407 000000a5 A9D4          MOVL      *+XAR4[2],P           ; [CPU_] |186| 
    1408                      .dwpsn  file "C:/ti/motorware/motorware_1_01_00_14/sw/modules/clarke/src/32b/clarke.h",line 170,colum
    1409 000000a6 96E4          MOV       *+XAR4[4],AL          ; [CPU_] |170| 
    1410              $C$DW$219       .dwtag  DW_TAG_TI_branch
    1411                      .dwattr $C$DW$219, DW_AT_low_pc(0x00)
    1412                      .dwattr $C$DW$219, DW_AT_TI_return
    1413 000000a7 0006          LRETR     ; [CPU_] 
    1414                      ; return occurs ; [] 
    1415                      .dwattr $C$DW$212, DW_AT_TI_end_file("../proj_lab20.c")
    1416                      .dwattr $C$DW$212, DW_AT_TI_end_line(0x28b)
    1417                      .dwattr $C$DW$212, DW_AT_TI_end_column(0x01)
    1418                      .dwendentry
    1419                      .dwendtag $C$DW$212
    1420              
    1421 000000a8               .sect   ".text"
    1422                      .clink
    1423                      .global _setupClarke_I
    1424              
    1425              $C$DW$220       .dwtag  DW_TAG_subprogram, DW_AT_name("setupClarke_I")
    1426                      .dwattr $C$DW$220, DW_AT_low_pc(_setupClarke_I)
    1427                      .dwattr $C$DW$220, DW_AT_high_pc(0x00)
    1428                      .dwattr $C$DW$220, DW_AT_TI_symbol_name("_setupClarke_I")
    1429                      .dwattr $C$DW$220, DW_AT_external
    1430                      .dwattr $C$DW$220, DW_AT_TI_begin_file("../proj_lab20.c")
    1431                      .dwattr $C$DW$220, DW_AT_TI_begin_line(0x257)
    1432                      .dwattr $C$DW$220, DW_AT_TI_begin_column(0x06)
    1433                      .dwattr $C$DW$220, DW_AT_TI_max_frame_size(-2)
    1434                      .dwpsn  file "../proj_lab20.c",line 600,column 1,is_stmt,address _setupClarke_I,isa 0
    1435              
    1436                      .dwfde $C$DW$CIE, _setupClarke_I
    1437              $C$DW$221       .dwtag  DW_TAG_formal_parameter, DW_AT_name("handle")
    1438                      .dwattr $C$DW$221, DW_AT_TI_symbol_name("_handle")
    1439                      .dwattr $C$DW$221, DW_AT_type(*$C$DW$T$47)
    1440                      .dwattr $C$DW$221, DW_AT_location[DW_OP_reg12]
    1441              $C$DW$222       .dwtag  DW_TAG_formal_parameter, DW_AT_name("numCurrentSensors")
    1442                      .dwattr $C$DW$222, DW_AT_TI_symbol_name("_numCurrentSensors")
    1443                      .dwattr $C$DW$222, DW_AT_type(*$C$DW$T$239)
    1444                      .dwattr $C$DW$222, DW_AT_location[DW_OP_reg0]
    1445              
    1446              ;***************************************************************
    1447              ;* FNAME: _setupClarke_I                FR SIZE:   0           *
    1448              ;*                                                             *
    1449              ;* FUNCTION ENVIRONMENT                                        *
    1450              ;*                                                             *
TMS320C2000 Assembler PC v6.4.4 Wed Jul 08 12:49:31 2015

Tools Copyright (c) 1996-2015 Texas Instruments Incorporated
C:\Users\grant\AppData\Local\Temp\0448010                            PAGE   29

    1451              ;* FUNCTION PROPERTIES                                         *
    1452              ;*                            0 Parameter,  0 Auto,  0 SOE     *
    1453              ;***************************************************************
    1454              
    1455              _setupClarke_I:
    1456              ;* PL    assigned to _beta_sf
    1457              $C$DW$223       .dwtag  DW_TAG_variable, DW_AT_name("beta_sf")
    1458                      .dwattr $C$DW$223, DW_AT_TI_symbol_name("_beta_sf")
    1459                      .dwattr $C$DW$223, DW_AT_type(*$C$DW$T$35)
    1460                      .dwattr $C$DW$223, DW_AT_location[DW_OP_reg2]
    1461              ;* AR6   assigned to _alpha_sf
    1462              $C$DW$224       .dwtag  DW_TAG_variable, DW_AT_name("alpha_sf")
    1463                      .dwattr $C$DW$224, DW_AT_TI_symbol_name("_alpha_sf")
    1464                      .dwattr $C$DW$224, DW_AT_type(*$C$DW$T$35)
    1465                      .dwattr $C$DW$224, DW_AT_location[DW_OP_reg16]
    1466              ;* AL    assigned to _numCurrentSensors
    1467              $C$DW$225       .dwtag  DW_TAG_variable, DW_AT_name("numCurrentSensors")
    1468                      .dwattr $C$DW$225, DW_AT_TI_symbol_name("_numCurrentSensors")
    1469                      .dwattr $C$DW$225, DW_AT_type(*$C$DW$T$239)
    1470                      .dwattr $C$DW$225, DW_AT_location[DW_OP_reg0]
    1471              ;* AR4   assigned to _handle
    1472              $C$DW$226       .dwtag  DW_TAG_variable, DW_AT_name("handle")
    1473                      .dwattr $C$DW$226, DW_AT_TI_symbol_name("_handle")
    1474                      .dwattr $C$DW$226, DW_AT_type(*$C$DW$T$229)
    1475                      .dwattr $C$DW$226, DW_AT_location[DW_OP_reg12]
    1476                      .dwcfi  cfa_offset, -2
    1477                      .dwcfi  save_reg_to_mem, 26, 0
    1478                      .dwpsn  file "../proj_lab20.c",line 605,column 3,is_stmt,isa 0
    1479 000000a8 5203          CMPB      AL,#3                 ; [CPU_] |605| 
    1480 000000a9 EC0B          BF        $C$L5,EQ              ; [CPU_] |605| 
    1481                      ; branchcc occurs ; [] |605| 
    1482                      .dwpsn  file "../proj_lab20.c",line 610,column 8,is_stmt,isa 0
    1483 000000aa 5202          CMPB      AL,#2                 ; [CPU_] |610| 
    1484 000000ab EC05          BF        $C$L4,EQ              ; [CPU_] |610| 
    1485                      ; branchcc occurs ; [] |610| 
    1486                      .dwpsn  file "../proj_lab20.c",line 618,column 7,is_stmt,isa 0
    1487 000000ac B600          MOVB      XAR7,#0               ; [CPU_] |618| 
    1488                      .dwpsn  file "../proj_lab20.c",line 617,column 7,is_stmt,isa 0
    1489 000000ad BE00          MOVB      XAR6,#0               ; [CPU_] |617| 
    1490                      .dwpsn  file "../proj_lab20.c",line 618,column 7,is_stmt,isa 0
    1491 000000ae A3A7          MOVL      P,XAR7                ; [CPU_] |618| 
    1492 000000af 6F0E          B         $C$L7,UNC             ; [CPU_] |618| 
    1493                      ; branch occurs ; [] |618| 
    1494 000000b0       $C$L4:    
    1495                      .dwpsn  file "../proj_lab20.c",line 612,column 7,is_stmt,isa 0
    1496 000000b0 2BAB          MOV       PL,#0                 ; [CPU_] |612| 
    1497 000000b1 28AA          MOV       PH,#256               ; [CPU_] |612| 
         000000b2 0100 
    1498                      .dwpsn  file "../proj_lab20.c",line 614,column 5,is_stmt,isa 0
    1499 000000b3 6F05          B         $C$L6,UNC             ; [CPU_] |614| 
    1500                      ; branch occurs ; [] |614| 
    1501 000000b4       $C$L5:    
    1502                      .dwpsn  file "../proj_lab20.c",line 607,column 7,is_stmt,isa 0
    1503 000000b4 28AB          MOV       PL,#21845             ; [CPU_] |607| 
         000000b5 5555 
TMS320C2000 Assembler PC v6.4.4 Wed Jul 08 12:49:31 2015

Tools Copyright (c) 1996-2015 Texas Instruments Incorporated
C:\Users\grant\AppData\Local\Temp\0448010                            PAGE   30

    1504 000000b6 28AA          MOV       PH,#85                ; [CPU_] |607| 
         000000b7 0055 
    1505 000000b8       $C$L6:    
    1506 000000b8 A9A6          MOVL      XAR6,P                ; [CPU_] |607| 
    1507                      .dwpsn  file "../proj_lab20.c",line 608,column 7,is_stmt,isa 0
    1508 000000b9 28AB          MOV       PL,#52538             ; [CPU_] |608| 
         000000ba CD3A 
    1509 000000bb 28AA          MOV       PH,#147               ; [CPU_] |608| 
         000000bc 0093 
    1510 000000bd       $C$L7:    
    1511                      .dwpsn  file "C:/ti/motorware/motorware_1_01_00_14/sw/modules/clarke/src/32b/clarke.h",line 185,colum
    1512 000000bd C2C4          MOVL      *+XAR4[0],XAR6        ; [CPU_] |185| 
    1513                      .dwpsn  file "C:/ti/motorware/motorware_1_01_00_14/sw/modules/clarke/src/32b/clarke.h",line 186,colum
    1514 000000be A9D4          MOVL      *+XAR4[2],P           ; [CPU_] |186| 
    1515                      .dwpsn  file "C:/ti/motorware/motorware_1_01_00_14/sw/modules/clarke/src/32b/clarke.h",line 170,colum
    1516 000000bf 96E4          MOV       *+XAR4[4],AL          ; [CPU_] |170| 
    1517              $C$DW$227       .dwtag  DW_TAG_TI_branch
    1518                      .dwattr $C$DW$227, DW_AT_low_pc(0x00)
    1519                      .dwattr $C$DW$227, DW_AT_TI_return
    1520 000000c0 0006          LRETR     ; [CPU_] 
    1521                      ; return occurs ; [] 
    1522                      .dwattr $C$DW$220, DW_AT_TI_end_file("../proj_lab20.c")
    1523                      .dwattr $C$DW$220, DW_AT_TI_end_line(0x272)
    1524                      .dwattr $C$DW$220, DW_AT_TI_end_column(0x01)
    1525                      .dwendentry
    1526                      .dwendtag $C$DW$220
    1527              
    1528 00000000               .sect   ".text:retain"
    1529                      .retain
    1530                      .retainrefs
    1531                      .global _mainISR
    1532              
    1533              $C$DW$228       .dwtag  DW_TAG_subprogram, DW_AT_name("mainISR")
    1534                      .dwattr $C$DW$228, DW_AT_low_pc(_mainISR)
    1535                      .dwattr $C$DW$228, DW_AT_high_pc(0x00)
    1536                      .dwattr $C$DW$228, DW_AT_TI_symbol_name("_mainISR")
    1537                      .dwattr $C$DW$228, DW_AT_external
    1538                      .dwattr $C$DW$228, DW_AT_TI_begin_file("../proj_lab20.c")
    1539                      .dwattr $C$DW$228, DW_AT_TI_begin_line(0x1d0)
    1540                      .dwattr $C$DW$228, DW_AT_TI_begin_column(0x10)
    1541                      .dwattr $C$DW$228, DW_AT_TI_interrupt
    1542                      .dwattr $C$DW$228, DW_AT_TI_max_frame_size(-70)
    1543                      .dwpsn  file "../proj_lab20.c",line 465,column 1,is_stmt,address _mainISR,isa 0
    1544              
    1545                      .dwfde $C$DW$CIE, _mainISR
    1546              
    1547              ;***************************************************************
    1548              ;* FNAME: _mainISR                      FR SIZE:  68           *
    1549              ;*                                                             *
    1550              ;* FUNCTION ENVIRONMENT                                        *
    1551              ;*                                                             *
    1552              ;* FUNCTION PROPERTIES                                         *
    1553              ;*                           10 Parameter, 44 Auto, 14 SOE     *
    1554              ;***************************************************************
    1555              
TMS320C2000 Assembler PC v6.4.4 Wed Jul 08 12:49:31 2015

Tools Copyright (c) 1996-2015 Texas Instruments Incorporated
C:\Users\grant\AppData\Local\Temp\0448010                            PAGE   31

    1556              _mainISR:
    1557              ;* AR4   assigned to $O$C12
    1558              ;* AR4   assigned to $O$C13
    1559              ;* AL    assigned to $O$C14
    1560              ;* PL    assigned to $O$C15
    1561              ;* AR4   assigned to $O$C16
    1562              ;* AR0   assigned to $O$C17
    1563              ;* AR4   assigned to $O$C18
    1564              ;* AL    assigned to $O$C19
    1565              ;* AR4   assigned to $O$C20
    1566              ;* AL    assigned to $O$C21
    1567              ;* AR4   assigned to $O$C22
    1568              ;* AR5   assigned to $O$C23
    1569              ;* AR4   assigned to $O$C24
    1570              ;* AR4   assigned to $O$C25
    1571              ;* AL    assigned to $O$C26
    1572              ;* AR4   assigned to $O$C27
    1573              ;* AR4   assigned to $O$C28
    1574              ;* AL    assigned to $O$C29
    1575              ;* AR4   assigned to $O$C30
    1576              ;* AR1   assigned to $O$C31
    1577              ;* AR7   assigned to $O$C32
    1578              ;* AR1   assigned to $O$C33
    1579              ;* AR7   assigned to $O$U518
    1580              ;* AR5   assigned to $O$U524
    1581              ;* AR5   assigned to _obj
    1582              $C$DW$229       .dwtag  DW_TAG_variable, DW_AT_name("obj")
    1583                      .dwattr $C$DW$229, DW_AT_TI_symbol_name("_obj")
    1584                      .dwattr $C$DW$229, DW_AT_type(*$C$DW$T$257)
    1585                      .dwattr $C$DW$229, DW_AT_location[DW_OP_reg14]
    1586              ;* AR5   assigned to _alpha_sf
    1587              $C$DW$230       .dwtag  DW_TAG_variable, DW_AT_name("alpha_sf")
    1588                      .dwattr $C$DW$230, DW_AT_TI_symbol_name("_alpha_sf")
    1589                      .dwattr $C$DW$230, DW_AT_type(*$C$DW$T$35)
    1590                      .dwattr $C$DW$230, DW_AT_location[DW_OP_reg14]
    1591              ;* AR7   assigned to _beta_sf
    1592              $C$DW$231       .dwtag  DW_TAG_variable, DW_AT_name("beta_sf")
    1593                      .dwattr $C$DW$231, DW_AT_TI_symbol_name("_beta_sf")
    1594                      .dwattr $C$DW$231, DW_AT_type(*$C$DW$T$35)
    1595                      .dwattr $C$DW$231, DW_AT_location[DW_OP_reg18]
    1596              ;* AR7   assigned to _alpha_sf
    1597              $C$DW$232       .dwtag  DW_TAG_variable, DW_AT_name("alpha_sf")
    1598                      .dwattr $C$DW$232, DW_AT_TI_symbol_name("_alpha_sf")
    1599                      .dwattr $C$DW$232, DW_AT_type(*$C$DW$T$35)
    1600                      .dwattr $C$DW$232, DW_AT_location[DW_OP_reg18]
    1601              ;* AR6   assigned to _beta_sf
    1602              $C$DW$233       .dwtag  DW_TAG_variable, DW_AT_name("beta_sf")
    1603                      .dwattr $C$DW$233, DW_AT_TI_symbol_name("_beta_sf")
    1604                      .dwattr $C$DW$233, DW_AT_type(*$C$DW$T$35)
    1605                      .dwattr $C$DW$233, DW_AT_location[DW_OP_reg16]
    1606              ;* AR6   assigned to _obj
    1607              $C$DW$234       .dwtag  DW_TAG_variable, DW_AT_name("obj")
    1608                      .dwattr $C$DW$234, DW_AT_TI_symbol_name("_obj")
    1609                      .dwattr $C$DW$234, DW_AT_type(*$C$DW$T$286)
    1610                      .dwattr $C$DW$234, DW_AT_location[DW_OP_reg16]
TMS320C2000 Assembler PC v6.4.4 Wed Jul 08 12:49:31 2015

Tools Copyright (c) 1996-2015 Texas Instruments Incorporated
C:\Users\grant\AppData\Local\Temp\0448010                            PAGE   32

    1611              ;* AR5   assigned to _pOutVec
    1612              $C$DW$235       .dwtag  DW_TAG_variable, DW_AT_name("pOutVec")
    1613                      .dwattr $C$DW$235, DW_AT_TI_symbol_name("_pOutVec")
    1614                      .dwattr $C$DW$235, DW_AT_type(*$C$DW$T$272)
    1615                      .dwattr $C$DW$235, DW_AT_location[DW_OP_reg14]
    1616              ;* AR7   assigned to _sinTh
    1617              $C$DW$236       .dwtag  DW_TAG_variable, DW_AT_name("sinTh")
    1618                      .dwattr $C$DW$236, DW_AT_TI_symbol_name("_sinTh")
    1619                      .dwattr $C$DW$236, DW_AT_type(*$C$DW$T$35)
    1620                      .dwattr $C$DW$236, DW_AT_location[DW_OP_reg18]
    1621              ;* AR6   assigned to _cosTh
    1622              $C$DW$237       .dwtag  DW_TAG_variable, DW_AT_name("cosTh")
    1623                      .dwattr $C$DW$237, DW_AT_TI_symbol_name("_cosTh")
    1624                      .dwattr $C$DW$237, DW_AT_type(*$C$DW$T$35)
    1625                      .dwattr $C$DW$237, DW_AT_location[DW_OP_reg16]
    1626              $C$DW$238       .dwtag  DW_TAG_variable, DW_AT_name("value_0")
    1627                      .dwattr $C$DW$238, DW_AT_TI_symbol_name("_value_0")
    1628                      .dwattr $C$DW$238, DW_AT_type(*$C$DW$T$35)
    1629                      .dwattr $C$DW$238, DW_AT_location[DW_OP_breg20 -46]
    1630              $C$DW$239       .dwtag  DW_TAG_variable, DW_AT_name("value_1")
    1631                      .dwattr $C$DW$239, DW_AT_TI_symbol_name("_value_1")
    1632                      .dwattr $C$DW$239, DW_AT_type(*$C$DW$T$35)
    1633                      .dwattr $C$DW$239, DW_AT_location[DW_OP_breg20 -48]
    1634              ;* PL    assigned to _outMax
    1635              $C$DW$240       .dwtag  DW_TAG_variable, DW_AT_name("outMax")
    1636                      .dwattr $C$DW$240, DW_AT_TI_symbol_name("_outMax")
    1637                      .dwattr $C$DW$240, DW_AT_type(*$C$DW$T$35)
    1638                      .dwattr $C$DW$240, DW_AT_location[DW_OP_reg2]
    1639              ;* AR5   assigned to _obj
    1640              $C$DW$241       .dwtag  DW_TAG_variable, DW_AT_name("obj")
    1641                      .dwattr $C$DW$241, DW_AT_TI_symbol_name("_obj")
    1642                      .dwattr $C$DW$241, DW_AT_type(*$C$DW$T$290)
    1643                      .dwattr $C$DW$241, DW_AT_location[DW_OP_reg14]
    1644              ;* AR7   assigned to _refValue
    1645              $C$DW$242       .dwtag  DW_TAG_variable, DW_AT_name("refValue")
    1646                      .dwattr $C$DW$242, DW_AT_TI_symbol_name("_refValue")
    1647                      .dwattr $C$DW$242, DW_AT_type(*$C$DW$T$35)
    1648                      .dwattr $C$DW$242, DW_AT_location[DW_OP_reg18]
    1649              ;* AR6   assigned to _fbackValue
    1650              $C$DW$243       .dwtag  DW_TAG_variable, DW_AT_name("fbackValue")
    1651                      .dwattr $C$DW$243, DW_AT_TI_symbol_name("_fbackValue")
    1652                      .dwattr $C$DW$243, DW_AT_type(*$C$DW$T$35)
    1653                      .dwattr $C$DW$243, DW_AT_location[DW_OP_reg16]
    1654              ;* AR5   assigned to _obj
    1655              $C$DW$244       .dwtag  DW_TAG_variable, DW_AT_name("obj")
    1656                      .dwattr $C$DW$244, DW_AT_TI_symbol_name("_obj")
    1657                      .dwattr $C$DW$244, DW_AT_type(*$C$DW$T$290)
    1658                      .dwattr $C$DW$244, DW_AT_location[DW_OP_reg14]
    1659              $C$DW$245       .dwtag  DW_TAG_variable, DW_AT_name("Up")
    1660                      .dwattr $C$DW$245, DW_AT_TI_symbol_name("_Up")
    1661                      .dwattr $C$DW$245, DW_AT_type(*$C$DW$T$35)
    1662                      .dwattr $C$DW$245, DW_AT_location[DW_OP_breg20 -46]
    1663              ;* AL    assigned to _Ui
    1664              $C$DW$246       .dwtag  DW_TAG_variable, DW_AT_name("Ui")
    1665                      .dwattr $C$DW$246, DW_AT_TI_symbol_name("_Ui")
TMS320C2000 Assembler PC v6.4.4 Wed Jul 08 12:49:31 2015

Tools Copyright (c) 1996-2015 Texas Instruments Incorporated
C:\Users\grant\AppData\Local\Temp\0448010                            PAGE   33

    1666                      .dwattr $C$DW$246, DW_AT_type(*$C$DW$T$35)
    1667                      .dwattr $C$DW$246, DW_AT_location[DW_OP_reg0]
    1668              ;* AR4   assigned to _handle
    1669              $C$DW$247       .dwtag  DW_TAG_variable, DW_AT_name("handle")
    1670                      .dwattr $C$DW$247, DW_AT_TI_symbol_name("_handle")
    1671                      .dwattr $C$DW$247, DW_AT_type(*$C$DW$T$201)
    1672                      .dwattr $C$DW$247, DW_AT_location[DW_OP_reg12]
    1673              ;* AR4   assigned to _obj
    1674              $C$DW$248       .dwtag  DW_TAG_variable, DW_AT_name("obj")
    1675                      .dwattr $C$DW$248, DW_AT_TI_symbol_name("_obj")
    1676                      .dwattr $C$DW$248, DW_AT_type(*$C$DW$T$290)
    1677                      .dwattr $C$DW$248, DW_AT_location[DW_OP_reg12]
    1678              ;* AR6   assigned to _fbackValue
    1679              $C$DW$249       .dwtag  DW_TAG_variable, DW_AT_name("fbackValue")
    1680                      .dwattr $C$DW$249, DW_AT_TI_symbol_name("_fbackValue")
    1681                      .dwattr $C$DW$249, DW_AT_type(*$C$DW$T$35)
    1682                      .dwattr $C$DW$249, DW_AT_location[DW_OP_reg16]
    1683              ;* AR4   assigned to _obj
    1684              $C$DW$250       .dwtag  DW_TAG_variable, DW_AT_name("obj")
    1685                      .dwattr $C$DW$250, DW_AT_TI_symbol_name("_obj")
    1686                      .dwattr $C$DW$250, DW_AT_type(*$C$DW$T$290)
    1687                      .dwattr $C$DW$250, DW_AT_location[DW_OP_reg12]
    1688              ;* AR7   assigned to _Up
    1689              $C$DW$251       .dwtag  DW_TAG_variable, DW_AT_name("Up")
    1690                      .dwattr $C$DW$251, DW_AT_TI_symbol_name("_Up")
    1691                      .dwattr $C$DW$251, DW_AT_type(*$C$DW$T$35)
    1692                      .dwattr $C$DW$251, DW_AT_location[DW_OP_reg18]
    1693              ;* AL    assigned to _Ui
    1694              $C$DW$252       .dwtag  DW_TAG_variable, DW_AT_name("Ui")
    1695                      .dwattr $C$DW$252, DW_AT_TI_symbol_name("_Ui")
    1696                      .dwattr $C$DW$252, DW_AT_type(*$C$DW$T$35)
    1697                      .dwattr $C$DW$252, DW_AT_location[DW_OP_reg0]
    1698              ;* AR4   assigned to _obj
    1699              $C$DW$253       .dwtag  DW_TAG_variable, DW_AT_name("obj")
    1700                      .dwattr $C$DW$253, DW_AT_TI_symbol_name("_obj")
    1701                      .dwattr $C$DW$253, DW_AT_type(*$C$DW$T$290)
    1702                      .dwattr $C$DW$253, DW_AT_location[DW_OP_reg12]
    1703              ;* AR6   assigned to _refValue
    1704              $C$DW$254       .dwtag  DW_TAG_variable, DW_AT_name("refValue")
    1705                      .dwattr $C$DW$254, DW_AT_TI_symbol_name("_refValue")
    1706                      .dwattr $C$DW$254, DW_AT_type(*$C$DW$T$35)
    1707                      .dwattr $C$DW$254, DW_AT_location[DW_OP_reg16]
    1708              ;* AR7   assigned to _fbackValue
    1709              $C$DW$255       .dwtag  DW_TAG_variable, DW_AT_name("fbackValue")
    1710                      .dwattr $C$DW$255, DW_AT_TI_symbol_name("_fbackValue")
    1711                      .dwattr $C$DW$255, DW_AT_type(*$C$DW$T$35)
    1712                      .dwattr $C$DW$255, DW_AT_location[DW_OP_reg18]
    1713              ;* AR4   assigned to _obj
    1714              $C$DW$256       .dwtag  DW_TAG_variable, DW_AT_name("obj")
    1715                      .dwattr $C$DW$256, DW_AT_TI_symbol_name("_obj")
    1716                      .dwattr $C$DW$256, DW_AT_type(*$C$DW$T$290)
    1717                      .dwattr $C$DW$256, DW_AT_location[DW_OP_reg12]
    1718              ;* AR5   assigned to _Up
    1719              $C$DW$257       .dwtag  DW_TAG_variable, DW_AT_name("Up")
    1720                      .dwattr $C$DW$257, DW_AT_TI_symbol_name("_Up")
TMS320C2000 Assembler PC v6.4.4 Wed Jul 08 12:49:31 2015

Tools Copyright (c) 1996-2015 Texas Instruments Incorporated
C:\Users\grant\AppData\Local\Temp\0448010                            PAGE   34

    1721                      .dwattr $C$DW$257, DW_AT_type(*$C$DW$T$35)
    1722                      .dwattr $C$DW$257, DW_AT_location[DW_OP_reg14]
    1723              ;* AL    assigned to _Ui
    1724              $C$DW$258       .dwtag  DW_TAG_variable, DW_AT_name("Ui")
    1725                      .dwattr $C$DW$258, DW_AT_TI_symbol_name("_Ui")
    1726                      .dwattr $C$DW$258, DW_AT_type(*$C$DW$T$35)
    1727                      .dwattr $C$DW$258, DW_AT_location[DW_OP_reg0]
    1728              ;* AR3   assigned to _handle
    1729              $C$DW$259       .dwtag  DW_TAG_variable, DW_AT_name("handle")
    1730                      .dwattr $C$DW$259, DW_AT_TI_symbol_name("_handle")
    1731                      .dwattr $C$DW$259, DW_AT_type(*$C$DW$T$201)
    1732                      .dwattr $C$DW$259, DW_AT_location[DW_OP_reg10]
    1733              ;* AR3   assigned to _obj
    1734              $C$DW$260       .dwtag  DW_TAG_variable, DW_AT_name("obj")
    1735                      .dwattr $C$DW$260, DW_AT_TI_symbol_name("_obj")
    1736                      .dwattr $C$DW$260, DW_AT_type(*$C$DW$T$237)
    1737                      .dwattr $C$DW$260, DW_AT_location[DW_OP_reg10]
    1738              ;* AR7   assigned to _refValue
    1739              $C$DW$261       .dwtag  DW_TAG_variable, DW_AT_name("refValue")
    1740                      .dwattr $C$DW$261, DW_AT_TI_symbol_name("_refValue")
    1741                      .dwattr $C$DW$261, DW_AT_type(*$C$DW$T$35)
    1742                      .dwattr $C$DW$261, DW_AT_location[DW_OP_reg18]
    1743              ;* AR6   assigned to _fbackValue
    1744              $C$DW$262       .dwtag  DW_TAG_variable, DW_AT_name("fbackValue")
    1745                      .dwattr $C$DW$262, DW_AT_TI_symbol_name("_fbackValue")
    1746                      .dwattr $C$DW$262, DW_AT_type(*$C$DW$T$35)
    1747                      .dwattr $C$DW$262, DW_AT_location[DW_OP_reg16]
    1748              ;* PL    assigned to _outMax
    1749              $C$DW$263       .dwtag  DW_TAG_variable, DW_AT_name("outMax")
    1750                      .dwattr $C$DW$263, DW_AT_TI_symbol_name("_outMax")
    1751                      .dwattr $C$DW$263, DW_AT_type(*$C$DW$T$35)
    1752                      .dwattr $C$DW$263, DW_AT_location[DW_OP_reg2]
    1753              ;* AL    assigned to _outMin
    1754              $C$DW$264       .dwtag  DW_TAG_variable, DW_AT_name("outMin")
    1755                      .dwattr $C$DW$264, DW_AT_TI_symbol_name("_outMin")
    1756                      .dwattr $C$DW$264, DW_AT_type(*$C$DW$T$35)
    1757                      .dwattr $C$DW$264, DW_AT_location[DW_OP_reg0]
    1758              ;* AR1   assigned to _Kp_Id
    1759              $C$DW$265       .dwtag  DW_TAG_variable, DW_AT_name("Kp_Id")
    1760                      .dwattr $C$DW$265, DW_AT_TI_symbol_name("_Kp_Id")
    1761                      .dwattr $C$DW$265, DW_AT_type(*$C$DW$T$35)
    1762                      .dwattr $C$DW$265, DW_AT_location[DW_OP_reg6]
    1763              $C$DW$266       .dwtag  DW_TAG_variable, DW_AT_name("Kp_Iq")
    1764                      .dwattr $C$DW$266, DW_AT_TI_symbol_name("_Kp_Iq")
    1765                      .dwattr $C$DW$266, DW_AT_type(*$C$DW$T$35)
    1766                      .dwattr $C$DW$266, DW_AT_location[DW_OP_breg20 -48]
    1767              $C$DW$267       .dwtag  DW_TAG_variable, DW_AT_name("refValue")
    1768                      .dwattr $C$DW$267, DW_AT_TI_symbol_name("_refValue")
    1769                      .dwattr $C$DW$267, DW_AT_type(*$C$DW$T$35)
    1770                      .dwattr $C$DW$267, DW_AT_location[DW_OP_breg20 -12]
    1771              $C$DW$268       .dwtag  DW_TAG_variable, DW_AT_name("maxVsMag")
    1772                      .dwattr $C$DW$268, DW_AT_TI_symbol_name("_maxVsMag")
    1773                      .dwattr $C$DW$268, DW_AT_type(*$C$DW$T$35)
    1774                      .dwattr $C$DW$268, DW_AT_location[DW_OP_breg20 -50]
    1775              ;* AR4   assigned to _obj
TMS320C2000 Assembler PC v6.4.4 Wed Jul 08 12:49:31 2015

Tools Copyright (c) 1996-2015 Texas Instruments Incorporated
C:\Users\grant\AppData\Local\Temp\0448010                            PAGE   35

    1776              $C$DW$269       .dwtag  DW_TAG_variable, DW_AT_name("obj")
    1777                      .dwattr $C$DW$269, DW_AT_TI_symbol_name("_obj")
    1778                      .dwattr $C$DW$269, DW_AT_type(*$C$DW$T$266)
    1779                      .dwattr $C$DW$269, DW_AT_location[DW_OP_reg12]
    1780              ;* AR7   assigned to _sinTh
    1781              $C$DW$270       .dwtag  DW_TAG_variable, DW_AT_name("sinTh")
    1782                      .dwattr $C$DW$270, DW_AT_TI_symbol_name("_sinTh")
    1783                      .dwattr $C$DW$270, DW_AT_type(*$C$DW$T$35)
    1784                      .dwattr $C$DW$270, DW_AT_location[DW_OP_reg18]
    1785              ;* AR4   assigned to _cosTh
    1786              $C$DW$271       .dwtag  DW_TAG_variable, DW_AT_name("cosTh")
    1787                      .dwattr $C$DW$271, DW_AT_TI_symbol_name("_cosTh")
    1788                      .dwattr $C$DW$271, DW_AT_type(*$C$DW$T$35)
    1789                      .dwattr $C$DW$271, DW_AT_location[DW_OP_reg12]
    1790              ;* AR6   assigned to _Va
    1791              $C$DW$272       .dwtag  DW_TAG_variable, DW_AT_name("Va")
    1792                      .dwattr $C$DW$272, DW_AT_TI_symbol_name("_Va")
    1793                      .dwattr $C$DW$272, DW_AT_type(*$C$DW$T$35)
    1794                      .dwattr $C$DW$272, DW_AT_location[DW_OP_reg16]
    1795              ;* AR5   assigned to _Vb
    1796              $C$DW$273       .dwtag  DW_TAG_variable, DW_AT_name("Vb")
    1797                      .dwattr $C$DW$273, DW_AT_TI_symbol_name("_Vb")
    1798                      .dwattr $C$DW$273, DW_AT_type(*$C$DW$T$35)
    1799                      .dwattr $C$DW$273, DW_AT_location[DW_OP_reg14]
    1800              ;* AR7   assigned to _Vc
    1801              $C$DW$274       .dwtag  DW_TAG_variable, DW_AT_name("Vc")
    1802                      .dwattr $C$DW$274, DW_AT_TI_symbol_name("_Vc")
    1803                      .dwattr $C$DW$274, DW_AT_type(*$C$DW$T$35)
    1804                      .dwattr $C$DW$274, DW_AT_location[DW_OP_reg18]
    1805              ;* AR6   assigned to _obj
    1806              $C$DW$275       .dwtag  DW_TAG_variable, DW_AT_name("obj")
    1807                      .dwattr $C$DW$275, DW_AT_TI_symbol_name("_obj")
    1808                      .dwattr $C$DW$275, DW_AT_type(*$C$DW$T$250)
    1809                      .dwattr $C$DW$275, DW_AT_location[DW_OP_reg16]
    1810              ;* AR7   assigned to _obj
    1811              $C$DW$276       .dwtag  DW_TAG_variable, DW_AT_name("obj")
    1812                      .dwattr $C$DW$276, DW_AT_TI_symbol_name("_obj")
    1813                      .dwattr $C$DW$276, DW_AT_type(*$C$DW$T$283)
    1814                      .dwattr $C$DW$276, DW_AT_location[DW_OP_reg18]
    1815              ;* AR6   assigned to _obj
    1816              $C$DW$277       .dwtag  DW_TAG_variable, DW_AT_name("obj")
    1817                      .dwattr $C$DW$277, DW_AT_TI_symbol_name("_obj")
    1818                      .dwattr $C$DW$277, DW_AT_type(*$C$DW$T$250)
    1819                      .dwattr $C$DW$277, DW_AT_location[DW_OP_reg16]
    1820              ;* AR7   assigned to _obj
    1821              $C$DW$278       .dwtag  DW_TAG_variable, DW_AT_name("obj")
    1822                      .dwattr $C$DW$278, DW_AT_TI_symbol_name("_obj")
    1823                      .dwattr $C$DW$278, DW_AT_type(*$C$DW$T$283)
    1824                      .dwattr $C$DW$278, DW_AT_location[DW_OP_reg18]
    1825              ;* AR5   assigned to _obj
    1826              $C$DW$279       .dwtag  DW_TAG_variable, DW_AT_name("obj")
    1827                      .dwattr $C$DW$279, DW_AT_TI_symbol_name("_obj")
    1828                      .dwattr $C$DW$279, DW_AT_type(*$C$DW$T$257)
    1829                      .dwattr $C$DW$279, DW_AT_location[DW_OP_reg14]
    1830              ;* AR0   assigned to _period
TMS320C2000 Assembler PC v6.4.4 Wed Jul 08 12:49:31 2015

Tools Copyright (c) 1996-2015 Texas Instruments Incorporated
C:\Users\grant\AppData\Local\Temp\0448010                            PAGE   36

    1831              $C$DW$280       .dwtag  DW_TAG_variable, DW_AT_name("period")
    1832                      .dwattr $C$DW$280, DW_AT_TI_symbol_name("_period")
    1833                      .dwattr $C$DW$280, DW_AT_type(*$C$DW$T$35)
    1834                      .dwattr $C$DW$280, DW_AT_location[DW_OP_reg4]
    1835              $C$DW$281       .dwtag  DW_TAG_variable, DW_AT_name("flag_enableCurrentCtrl")
    1836                      .dwattr $C$DW$281, DW_AT_TI_symbol_name("_flag_enableCurrentCtrl")
    1837                      .dwattr $C$DW$281, DW_AT_type(*$C$DW$T$73)
    1838                      .dwattr $C$DW$281, DW_AT_location[DW_OP_breg20 -41]
    1839              $C$DW$282       .dwtag  DW_TAG_variable, DW_AT_name("flag_enableSpeedCtrl")
    1840                      .dwattr $C$DW$282, DW_AT_TI_symbol_name("_flag_enableSpeedCtrl")
    1841                      .dwattr $C$DW$282, DW_AT_type(*$C$DW$T$73)
    1842                      .dwattr $C$DW$282, DW_AT_location[DW_OP_breg20 -42]
    1843              $C$DW$283       .dwtag  DW_TAG_variable, DW_AT_name("ctrlState")
    1844                      .dwattr $C$DW$283, DW_AT_TI_symbol_name("_ctrlState")
    1845                      .dwattr $C$DW$283, DW_AT_type(*$C$DW$T$43)
    1846                      .dwattr $C$DW$283, DW_AT_location[DW_OP_breg20 -43]
    1847              $C$DW$284       .dwtag  DW_TAG_variable, DW_AT_name("speed_outMax_pu")
    1848                      .dwattr $C$DW$284, DW_AT_TI_symbol_name("_speed_outMax_pu")
    1849                      .dwattr $C$DW$284, DW_AT_type(*$C$DW$T$35)
    1850                      .dwattr $C$DW$284, DW_AT_location[DW_OP_breg20 -50]
    1851              ;* AR3   assigned to _speed_ref_pu
    1852              $C$DW$285       .dwtag  DW_TAG_variable, DW_AT_name("speed_ref_pu")
    1853                      .dwattr $C$DW$285, DW_AT_TI_symbol_name("_speed_ref_pu")
    1854                      .dwattr $C$DW$285, DW_AT_type(*$C$DW$T$35)
    1855                      .dwattr $C$DW$285, DW_AT_location[DW_OP_reg10]
    1856              $C$DW$286       .dwtag  DW_TAG_variable, DW_AT_name("speed_pu")
    1857                      .dwattr $C$DW$286, DW_AT_TI_symbol_name("_speed_pu")
    1858                      .dwattr $C$DW$286, DW_AT_type(*$C$DW$T$35)
    1859                      .dwattr $C$DW$286, DW_AT_location[DW_OP_breg20 -52]
    1860              $C$DW$287       .dwtag  DW_TAG_variable, DW_AT_name("angle_pu")
    1861                      .dwattr $C$DW$287, DW_AT_TI_symbol_name("_angle_pu")
    1862                      .dwattr $C$DW$287, DW_AT_type(*$C$DW$T$35)
    1863                      .dwattr $C$DW$287, DW_AT_location[DW_OP_breg20 -54]
    1864              ;* XT    assigned to _value
    1865              $C$DW$288       .dwtag  DW_TAG_variable, DW_AT_name("value")
    1866                      .dwattr $C$DW$288, DW_AT_TI_symbol_name("_value")
    1867                      .dwattr $C$DW$288, DW_AT_type(*$C$DW$T$35)
    1868                      .dwattr $C$DW$288, DW_AT_location[DW_OP_reg21]
    1869              ;* XT    assigned to _value
    1870              $C$DW$289       .dwtag  DW_TAG_variable, DW_AT_name("value")
    1871                      .dwattr $C$DW$289, DW_AT_TI_symbol_name("_value")
    1872                      .dwattr $C$DW$289, DW_AT_type(*$C$DW$T$35)
    1873                      .dwattr $C$DW$289, DW_AT_location[DW_OP_reg21]
    1874              ;* XT    assigned to _value
    1875              $C$DW$290       .dwtag  DW_TAG_variable, DW_AT_name("value")
    1876                      .dwattr $C$DW$290, DW_AT_TI_symbol_name("_value")
    1877                      .dwattr $C$DW$290, DW_AT_type(*$C$DW$T$35)
    1878                      .dwattr $C$DW$290, DW_AT_location[DW_OP_reg21]
    1879              ;* XT    assigned to _value
    1880              $C$DW$291       .dwtag  DW_TAG_variable, DW_AT_name("value")
    1881                      .dwattr $C$DW$291, DW_AT_TI_symbol_name("_value")
    1882                      .dwattr $C$DW$291, DW_AT_type(*$C$DW$T$35)
    1883                      .dwattr $C$DW$291, DW_AT_location[DW_OP_reg21]
    1884              ;* XT    assigned to _value
    1885              $C$DW$292       .dwtag  DW_TAG_variable, DW_AT_name("value")
TMS320C2000 Assembler PC v6.4.4 Wed Jul 08 12:49:31 2015

Tools Copyright (c) 1996-2015 Texas Instruments Incorporated
C:\Users\grant\AppData\Local\Temp\0448010                            PAGE   37

    1886                      .dwattr $C$DW$292, DW_AT_TI_symbol_name("_value")
    1887                      .dwattr $C$DW$292, DW_AT_type(*$C$DW$T$35)
    1888                      .dwattr $C$DW$292, DW_AT_location[DW_OP_reg21]
    1889              ;* XT    assigned to _value
    1890              $C$DW$293       .dwtag  DW_TAG_variable, DW_AT_name("value")
    1891                      .dwattr $C$DW$293, DW_AT_TI_symbol_name("_value")
    1892                      .dwattr $C$DW$293, DW_AT_type(*$C$DW$T$35)
    1893                      .dwattr $C$DW$293, DW_AT_location[DW_OP_reg21]
    1894              ;* XT    assigned to _value
    1895              $C$DW$294       .dwtag  DW_TAG_variable, DW_AT_name("value")
    1896                      .dwattr $C$DW$294, DW_AT_TI_symbol_name("_value")
    1897                      .dwattr $C$DW$294, DW_AT_type(*$C$DW$T$35)
    1898                      .dwattr $C$DW$294, DW_AT_location[DW_OP_reg21]
    1899              ;* AL    assigned to _refValue_pu
    1900              $C$DW$295       .dwtag  DW_TAG_variable, DW_AT_name("refValue_pu")
    1901                      .dwattr $C$DW$295, DW_AT_TI_symbol_name("_refValue_pu")
    1902                      .dwattr $C$DW$295, DW_AT_type(*$C$DW$T$35)
    1903                      .dwattr $C$DW$295, DW_AT_location[DW_OP_reg0]
    1904              ;* AR6   assigned to _fbackValue
    1905              $C$DW$296       .dwtag  DW_TAG_variable, DW_AT_name("fbackValue")
    1906                      .dwattr $C$DW$296, DW_AT_TI_symbol_name("_fbackValue")
    1907                      .dwattr $C$DW$296, DW_AT_type(*$C$DW$T$35)
    1908                      .dwattr $C$DW$296, DW_AT_location[DW_OP_reg16]
    1909              ;* AR7   assigned to _fbackValue
    1910              $C$DW$297       .dwtag  DW_TAG_variable, DW_AT_name("fbackValue")
    1911                      .dwattr $C$DW$297, DW_AT_TI_symbol_name("_fbackValue")
    1912                      .dwattr $C$DW$297, DW_AT_type(*$C$DW$T$35)
    1913                      .dwattr $C$DW$297, DW_AT_location[DW_OP_reg18]
    1914              ;* PL    assigned to _Vmax
    1915              $C$DW$298       .dwtag  DW_TAG_variable, DW_AT_name("Vmax")
    1916                      .dwattr $C$DW$298, DW_AT_TI_symbol_name("_Vmax")
    1917                      .dwattr $C$DW$298, DW_AT_type(*$C$DW$T$35)
    1918                      .dwattr $C$DW$298, DW_AT_location[DW_OP_reg2]
    1919              ;* XT    assigned to _Vmin
    1920              $C$DW$299       .dwtag  DW_TAG_variable, DW_AT_name("Vmin")
    1921                      .dwattr $C$DW$299, DW_AT_TI_symbol_name("_Vmin")
    1922                      .dwattr $C$DW$299, DW_AT_type(*$C$DW$T$35)
    1923                      .dwattr $C$DW$299, DW_AT_location[DW_OP_reg21]
    1924              $C$DW$300       .dwtag  DW_TAG_variable, DW_AT_name("cnt")
    1925                      .dwattr $C$DW$300, DW_AT_TI_symbol_name("_cnt")
    1926                      .dwattr $C$DW$300, DW_AT_type(*$C$DW$T$36)
    1927                      .dwattr $C$DW$300, DW_AT_location[DW_OP_breg20 -41]
    1928              $C$DW$301       .dwtag  DW_TAG_variable, DW_AT_name("cnt")
    1929                      .dwattr $C$DW$301, DW_AT_TI_symbol_name("_cnt")
    1930                      .dwattr $C$DW$301, DW_AT_type(*$C$DW$T$36)
    1931                      .dwattr $C$DW$301, DW_AT_location[DW_OP_breg20 -41]
    1932              ;* AR5   assigned to $O$v2
    1933              ;* AR6   assigned to $O$v3
    1934              ;* AR4   assigned to $O$v4
    1935              ;* AR6   assigned to $O$K43
    1936              ;* AR1   assigned to $O$K43
    1937              ;* AR4   assigned to $O$v1
    1938              ;* AR4   assigned to $O$v1
    1939              ;* AR4   assigned to $O$v1
    1940              $C$DW$302       .dwtag  DW_TAG_variable, DW_AT_name("Iab_pu")
TMS320C2000 Assembler PC v6.4.4 Wed Jul 08 12:49:31 2015

Tools Copyright (c) 1996-2015 Texas Instruments Incorporated
C:\Users\grant\AppData\Local\Temp\0448010                            PAGE   38

    1941                      .dwattr $C$DW$302, DW_AT_TI_symbol_name("_Iab_pu")
    1942                      .dwattr $C$DW$302, DW_AT_type(*$C$DW$T$72)
    1943                      .dwattr $C$DW$302, DW_AT_location[DW_OP_breg20 -24]
    1944              $C$DW$303       .dwtag  DW_TAG_variable, DW_AT_name("Vab_pu")
    1945                      .dwattr $C$DW$303, DW_AT_TI_symbol_name("_Vab_pu")
    1946                      .dwattr $C$DW$303, DW_AT_type(*$C$DW$T$72)
    1947                      .dwattr $C$DW$303, DW_AT_location[DW_OP_breg20 -28]
    1948              $C$DW$304       .dwtag  DW_TAG_variable, DW_AT_name("Vdq_out_pu")
    1949                      .dwattr $C$DW$304, DW_AT_TI_symbol_name("_Vdq_out_pu")
    1950                      .dwattr $C$DW$304, DW_AT_type(*$C$DW$T$72)
    1951                      .dwattr $C$DW$304, DW_AT_location[DW_OP_breg20 -32]
    1952              $C$DW$305       .dwtag  DW_TAG_variable, DW_AT_name("Vab_out_pu")
    1953                      .dwattr $C$DW$305, DW_AT_TI_symbol_name("_Vab_out_pu")
    1954                      .dwattr $C$DW$305, DW_AT_type(*$C$DW$T$72)
    1955                      .dwattr $C$DW$305, DW_AT_location[DW_OP_breg20 -36]
    1956              $C$DW$306       .dwtag  DW_TAG_variable, DW_AT_name("phasor")
    1957                      .dwattr $C$DW$306, DW_AT_TI_symbol_name("_phasor")
    1958                      .dwattr $C$DW$306, DW_AT_type(*$C$DW$T$72)
    1959                      .dwattr $C$DW$306, DW_AT_location[DW_OP_breg20 -40]
    1960                      .dwcfi  cfa_offset, -2
    1961                      .dwcfi  save_reg_to_mem, 26, 0
    1962 00000000 761B          ASP       ; [CPU_] 
    1963 00000001 0005          PUSH      AR1H:AR0H             ; [CPU_] 
    1964                      .dwcfi  save_reg_to_mem, 5, 2
    1965                      .dwcfi  save_reg_to_mem, 7, 3
    1966                      .dwcfi  cfa_offset, -4
    1967 00000002 ABBD          MOVL      *SP++,XT              ; [CPU_] 
    1968                      .dwcfi  save_reg_to_mem, 21, 4
    1969                      .dwcfi  save_reg_to_mem, 22, 5
    1970                      .dwcfi  cfa_offset, -6
    1971 00000003 A2BD          MOVL      *SP++,XAR3            ; [CPU_] 
    1972                      .dwcfi  save_reg_to_mem, 10, 6
    1973                      .dwcfi  save_reg_to_mem, 11, 7
    1974                      .dwcfi  cfa_offset, -8
    1975 00000004 A8BD          MOVL      *SP++,XAR4            ; [CPU_] 
    1976                      .dwcfi  save_reg_to_mem, 12, 8
    1977                      .dwcfi  save_reg_to_mem, 13, 9
    1978                      .dwcfi  cfa_offset, -10
    1979 00000005 A0BD          MOVL      *SP++,XAR5            ; [CPU_] 
    1980                      .dwcfi  save_reg_to_mem, 14, 10
    1981                      .dwcfi  save_reg_to_mem, 15, 11
    1982                      .dwcfi  cfa_offset, -12
    1983 00000006 C2BD          MOVL      *SP++,XAR6            ; [CPU_] 
    1984                      .dwcfi  save_reg_to_mem, 16, 12
    1985                      .dwcfi  save_reg_to_mem, 17, 13
    1986                      .dwcfi  cfa_offset, -14
    1987 00000007 C3BD          MOVL      *SP++,XAR7            ; [CPU_] 
    1988                      .dwcfi  save_reg_to_mem, 18, 14
    1989                      .dwcfi  save_reg_to_mem, 19, 15
    1990                      .dwcfi  cfa_offset, -16
    1991 00000008 FE36          ADDB      SP,#54                ; [CPU_U] 
    1992                      .dwcfi  cfa_offset, -70
    1993 00000009 FF69          SPM       0                     ; [CPU_] 
    1994 0000000a 2942          CLRC      PAGE0,OVM             ; [CPU_] 
    1995 0000000b 5616          CLRC      AMODE                 ; [CPU_] 
TMS320C2000 Assembler PC v6.4.4 Wed Jul 08 12:49:31 2015

Tools Copyright (c) 1996-2015 Texas Instruments Incorporated
C:\Users\grant\AppData\Local\Temp\0448010                            PAGE   39

    1996 0000000c 761F-         MOVW      DP,#_ctrlHandle       ; [CPU_U] 
         0000000d 0000 
    1997                      .dwpsn  file "../proj_lab20.c",line 468,column 20,is_stmt,isa 0
    1998 0000000e 8A16-         MOVL      XAR4,@_ctrlHandle     ; [CPU_] |468| 
    1999                      .dwpsn  file "C:/ti/motorware/motorware_1_01_00_14/sw/modules/traj/src/32b/traj.h",line 96,column 3,i
    2000 0000000f D06C          MOVB      XAR0,#108             ; [CPU_] |96| 
    2001 00000010 8394          MOVL      XAR5,*+XAR4[AR0]      ; [CPU_] |96| 
    2002 00000011 D078          MOVB      XAR0,#120             ; [CPU_] |96| 
    2003 00000012 82D5          MOVL      XAR3,*+XAR5[2]        ; [CPU_] |96| 
    2004 00000013 8394          MOVL      XAR5,*+XAR4[AR0]      ; [CPU_] |96| 
    2005 00000014 06D5          MOVL      ACC,*+XAR5[2]         ; [CPU_] |96| 
    2006                      .dwpsn  file "../proj_lab20.c",line 479,column 3,is_stmt,isa 0
    2007 00000015 0A02-         INC       @_gLEDcnt             ; [CPU_] |479| 
    2008                      .dwpsn  file "C:/ti/motorware/motorware_1_01_00_14/sw/modules/traj/src/32b/traj.h",line 96,column 3,i
    2009 00000016 1E72          MOVL      *-SP[50],ACC          ; [CPU_] |96| 
    2010                      .dwpsn  file "../proj_lab20.c",line 479,column 3,is_stmt,isa 0
    2011 00000017 9202-         MOV       AL,@_gLEDcnt          ; [CPU_] |479| 
    2012 00000018 9CFF          ADDB      AL,#-1                ; [CPU_] |479| 
    2013 00000019 1BA9          CMP       AL,#3000              ; [CPU_] |479| 
         0000001a 0BB8 
    2014 0000001b 56C9          BF        $C$L8,LOS             ; [CPU_] |479| 
         0000001c 000D 
    2015                      ; branchcc occurs ; [] |479| 
    2016                      .dwpsn  file "C:/ti/motorware/motorware_1_01_00_14/sw/modules/hal/boards/boostxldrv8301_revB/f28x/f28
    2017 0000001d 0208          MOVB      ACC,#8                ; [CPU_] |747| 
    2018 0000001e 0706-         ADDL      ACC,@_halHandle       ; [CPU_] |747| 
    2019 0000001f 8AA9          MOVL      XAR4,ACC              ; [CPU_] |747| 
    2020 00000020 9A22          MOVB      AL,#34                ; [CPU_] |747| 
    2021 00000021 8AC4          MOVL      XAR4,*+XAR4[0]        ; [CPU_] |747| 
    2022              $C$DW$307       .dwtag  DW_TAG_TI_branch
    2023                      .dwattr $C$DW$307, DW_AT_low_pc(0x00)
    2024                      .dwattr $C$DW$307, DW_AT_name("_GPIO_toggle")
    2025                      .dwattr $C$DW$307, DW_AT_TI_call
    2026 00000022 7640!         LCR       #_GPIO_toggle         ; [CPU_] |747| 
         00000023 0000 
    2027                      ; call occurs [#_GPIO_toggle] ; [] |747| 
    2028 00000024 761F-         MOVW      DP,#_gLEDcnt          ; [CPU_U] 
         00000025 0000 
    2029                      .dwpsn  file "../proj_lab20.c",line 482,column 5,is_stmt,isa 0
    2030 00000026 2B02-         MOV       @_gLEDcnt,#0          ; [CPU_] |482| 
    2031 00000027 8A16-         MOVL      XAR4,@_ctrlHandle     ; [CPU_] |482| 
    2032 00000028       $C$L8:    
    2033                      .dwpsn  file "../proj_lab20.c",line 487,column 3,is_stmt,isa 0
    2034 00000028 8306-         MOVL      XAR5,@_halHandle      ; [CPU_] |487| 
    2035                      .dwpsn  file "C:/ti/motorware/motorware_1_01_00_14/sw/drivers/adc/src/32b/f28x/f2806x/adc.h",line 584
    2036 00000029 7680          MOVL      XAR6,#26117           ; [CPU_U] |584| 
         0000002a 6605 
    2037 0000002b 06A6          MOVL      ACC,XAR6              ; [CPU_] |584| 
    2038 0000002c 07C5          ADDL      ACC,*+XAR5[0]         ; [CPU_] |584| 
    2039 0000002d 1EA6          MOVL      XAR6,ACC              ; [CPU_] |584| 
    2040                      .dwpsn  file "C:/ti/motorware/motorware_1_01_00_14/sw/drivers/pie/src/32b/f28x/f2806x/pie.h",line 797
    2041 0000002e D06C          MOVB      XAR0,#108             ; [CPU_] |797| 
    2042                      .dwpsn  file "C:/ti/motorware/motorware_1_01_00_14/sw/drivers/adc/src/32b/f28x/f2806x/adc.h",line 584
    2043 0000002f 56BF          MOVB      *+XAR6[0],#1,UNC      ; [CPU_] |584| 
         00000030 01C6 
TMS320C2000 Assembler PC v6.4.4 Wed Jul 08 12:49:31 2015

Tools Copyright (c) 1996-2015 Texas Instruments Incorporated
C:\Users\grant\AppData\Local\Temp\0448010                            PAGE   40

    2044                      .dwpsn  file "C:/ti/motorware/motorware_1_01_00_14/sw/drivers/pie/src/32b/f28x/f2806x/pie.h",line 797
    2045 00000031 C495          MOVL      XAR6,*+XAR5[AR0]      ; [CPU_] |797| 
    2046                      .dwpsn  file "C:/ti/motorware/motorware_1_01_00_14/sw/modules/hal/boards/boostxldrv8301_revB/f28x/f28
    2047 00000032 D092          MOVB      XAR0,#146             ; [CPU_] |532| 
    2048                      .dwpsn  file "C:/ti/motorware/motorware_1_01_00_14/sw/drivers/pie/src/32b/f28x/f2806x/pie.h",line 797
    2049 00000033 28CE          MOV       *+XAR6[1],#512        ; [CPU_] |797| 
         00000034 0200 
    2050                      .dwpsn  file "C:/ti/motorware/motorware_1_01_00_14/sw/drivers/adc/src/32b/f28x/f2806x/adc.h",line 697
    2051 00000035 C5C5          MOVL      XAR7,*+XAR5[0]        ; [CPU_] |697| 
    2052                      .dwpsn  file "C:/ti/motorware/motorware_1_01_00_14/sw/modules/hal/boards/boostxldrv8301_revB/f28x/f28
    2053 00000036 8B95          MOVL      XAR1,*+XAR5[AR0]      ; [CPU_] |532| 
    2054                      .dwpsn  file "C:/ti/motorware/motorware_1_01_00_14/sw/modules/hal/boards/boostxldrv8301_revB/f28x/f28
    2055 00000037 7680-         MOVL      XAR6,#_gAdcData       ; [CPU_U] |533| 
         00000038 004C 
    2056                      .dwpsn  file "C:/ti/motorware/motorware_1_01_00_14/sw/modules/hal/boards/boostxldrv8301_revB/f28x/f28
    2057 00000039 D084          MOVB      XAR0,#132             ; [CPU_] |532| 
    2058                      .dwpsn  file "C:/ti/motorware/motorware_1_01_00_14/sw/drivers/adc/src/32b/f28x/f2806x/adc.h",line 697
    2059 0000003a 0ECF          MOVU      ACC,*+XAR7[1]         ; [CPU_] |697| 
    2060 0000003b 1EAC          MOVL      XT,ACC                ; [CPU_] |697| 
    2061                      .dwpsn  file "C:/ti/motorware/motorware_1_01_00_14/sw/modules/hal/boards/boostxldrv8301_revB/f28x/f28
    2062 0000003c 5605          IMPYL     P,XT,XAR1             ; [CPU_] |532| 
         0000003d 00A1 
    2063 0000003e 5663          QMPYL     ACC,XT,XAR1           ; [CPU_] |532| 
         0000003f 00A1 
    2064 00000040 568B          ASR64     ACC:P,#12             ; [CPU_] |532| 
    2065 00000041 A9A9          MOVL      ACC,P                 ; [CPU_] |532| 
    2066 00000042 0395          SUBL      ACC,*+XAR5[AR0]       ; [CPU_] |532| 
    2067                      .dwpsn  file "C:/ti/motorware/motorware_1_01_00_14/sw/modules/hal/boards/boostxldrv8301_revB/f28x/f28
    2068 00000043 D086          MOVB      XAR0,#134             ; [CPU_] |537| 
    2069                      .dwpsn  file "C:/ti/motorware/motorware_1_01_00_14/sw/modules/hal/boards/boostxldrv8301_revB/f28x/f28
    2070 00000044 1EC6          MOVL      *+XAR6[0],ACC         ; [CPU_] |533| 
    2071                      .dwpsn  file "C:/ti/motorware/motorware_1_01_00_14/sw/drivers/adc/src/32b/f28x/f2806x/adc.h",line 697
    2072 00000045 0ED7          MOVU      ACC,*+XAR7[2]         ; [CPU_] |697| 
    2073 00000046 1EAC          MOVL      XT,ACC                ; [CPU_] |697| 
    2074                      .dwpsn  file "C:/ti/motorware/motorware_1_01_00_14/sw/modules/hal/boards/boostxldrv8301_revB/f28x/f28
    2075 00000047 5605          IMPYL     P,XT,XAR1             ; [CPU_] |537| 
         00000048 00A1 
    2076 00000049 5663          QMPYL     ACC,XT,XAR1           ; [CPU_] |537| 
         0000004a 00A1 
    2077 0000004b 568B          ASR64     ACC:P,#12             ; [CPU_] |537| 
    2078 0000004c A9A9          MOVL      ACC,P                 ; [CPU_] |537| 
    2079 0000004d 0395          SUBL      ACC,*+XAR5[AR0]       ; [CPU_] |537| 
    2080                      .dwpsn  file "C:/ti/motorware/motorware_1_01_00_14/sw/modules/hal/boards/boostxldrv8301_revB/f28x/f28
    2081 0000004e D088          MOVB      XAR0,#136             ; [CPU_] |542| 
    2082                      .dwpsn  file "C:/ti/motorware/motorware_1_01_00_14/sw/modules/hal/boards/boostxldrv8301_revB/f28x/f28
    2083 0000004f 1ED6          MOVL      *+XAR6[2],ACC         ; [CPU_] |538| 
    2084                      .dwpsn  file "C:/ti/motorware/motorware_1_01_00_14/sw/drivers/adc/src/32b/f28x/f2806x/adc.h",line 697
    2085 00000050 0EDF          MOVU      ACC,*+XAR7[3]         ; [CPU_] |697| 
    2086 00000051 1EAC          MOVL      XT,ACC                ; [CPU_] |697| 
    2087                      .dwpsn  file "C:/ti/motorware/motorware_1_01_00_14/sw/modules/hal/boards/boostxldrv8301_revB/f28x/f28
    2088 00000052 5605          IMPYL     P,XT,XAR1             ; [CPU_] |542| 
         00000053 00A1 
    2089 00000054 5663          QMPYL     ACC,XT,XAR1           ; [CPU_] |542| 
         00000055 00A1 
    2090 00000056 568B          ASR64     ACC:P,#12             ; [CPU_] |542| 
TMS320C2000 Assembler PC v6.4.4 Wed Jul 08 12:49:31 2015

Tools Copyright (c) 1996-2015 Texas Instruments Incorporated
C:\Users\grant\AppData\Local\Temp\0448010                            PAGE   41

    2091 00000057 A9A9          MOVL      ACC,P                 ; [CPU_] |542| 
    2092 00000058 0395          SUBL      ACC,*+XAR5[AR0]       ; [CPU_] |542| 
    2093                      .dwpsn  file "C:/ti/motorware/motorware_1_01_00_14/sw/modules/hal/boards/boostxldrv8301_revB/f28x/f28
    2094 00000059 D094          MOVB      XAR0,#148             ; [CPU_] |547| 
    2095                      .dwpsn  file "C:/ti/motorware/motorware_1_01_00_14/sw/modules/hal/boards/boostxldrv8301_revB/f28x/f28
    2096 0000005a 1EE6          MOVL      *+XAR6[4],ACC         ; [CPU_] |543| 
    2097                      .dwpsn  file "C:/ti/motorware/motorware_1_01_00_14/sw/modules/hal/boards/boostxldrv8301_revB/f28x/f28
    2098 0000005b 8B95          MOVL      XAR1,*+XAR5[AR0]      ; [CPU_] |547| 
    2099                      .dwpsn  file "C:/ti/motorware/motorware_1_01_00_14/sw/drivers/adc/src/32b/f28x/f2806x/adc.h",line 697
    2100 0000005c 0EE7          MOVU      ACC,*+XAR7[4]         ; [CPU_] |697| 
    2101 0000005d 1EAC          MOVL      XT,ACC                ; [CPU_] |697| 
    2102                      .dwpsn  file "C:/ti/motorware/motorware_1_01_00_14/sw/modules/hal/boards/boostxldrv8301_revB/f28x/f28
    2103 0000005e D08A          MOVB      XAR0,#138             ; [CPU_] |547| 
    2104 0000005f 5605          IMPYL     P,XT,XAR1             ; [CPU_] |547| 
         00000060 00A1 
    2105 00000061 5663          QMPYL     ACC,XT,XAR1           ; [CPU_] |547| 
         00000062 00A1 
    2106 00000063 568B          ASR64     ACC:P,#12             ; [CPU_] |547| 
    2107 00000064 A9A9          MOVL      ACC,P                 ; [CPU_] |547| 
    2108 00000065 0395          SUBL      ACC,*+XAR5[AR0]       ; [CPU_] |547| 
    2109                      .dwpsn  file "C:/ti/motorware/motorware_1_01_00_14/sw/modules/hal/boards/boostxldrv8301_revB/f28x/f28
    2110 00000066 D08C          MOVB      XAR0,#140             ; [CPU_] |552| 
    2111                      .dwpsn  file "C:/ti/motorware/motorware_1_01_00_14/sw/modules/hal/boards/boostxldrv8301_revB/f28x/f28
    2112 00000067 1EF6          MOVL      *+XAR6[6],ACC         ; [CPU_] |548| 
    2113                      .dwpsn  file "C:/ti/motorware/motorware_1_01_00_14/sw/drivers/adc/src/32b/f28x/f2806x/adc.h",line 697
    2114 00000068 0EEF          MOVU      ACC,*+XAR7[5]         ; [CPU_] |697| 
    2115 00000069 1EAC          MOVL      XT,ACC                ; [CPU_] |697| 
    2116                      .dwpsn  file "C:/ti/motorware/motorware_1_01_00_14/sw/modules/hal/boards/boostxldrv8301_revB/f28x/f28
    2117 0000006a 5605          IMPYL     P,XT,XAR1             ; [CPU_] |552| 
         0000006b 00A1 
    2118 0000006c 5663          QMPYL     ACC,XT,XAR1           ; [CPU_] |552| 
         0000006d 00A1 
    2119 0000006e 568B          ASR64     ACC:P,#12             ; [CPU_] |552| 
    2120 0000006f A9A9          MOVL      ACC,P                 ; [CPU_] |552| 
    2121 00000070 0395          SUBL      ACC,*+XAR5[AR0]       ; [CPU_] |552| 
    2122                      .dwpsn  file "C:/ti/motorware/motorware_1_01_00_14/sw/modules/hal/boards/boostxldrv8301_revB/f28x/f28
    2123 00000071 D008          MOVB      XAR0,#8               ; [CPU_] |553| 
    2124 00000072 1E96          MOVL      *+XAR6[AR0],ACC       ; [CPU_] |553| 
    2125                      .dwpsn  file "C:/ti/motorware/motorware_1_01_00_14/sw/modules/hal/boards/boostxldrv8301_revB/f28x/f28
    2126 00000073 D08E          MOVB      XAR0,#142             ; [CPU_] |557| 
    2127                      .dwpsn  file "C:/ti/motorware/motorware_1_01_00_14/sw/drivers/adc/src/32b/f28x/f2806x/adc.h",line 697
    2128 00000074 0EF7          MOVU      ACC,*+XAR7[6]         ; [CPU_] |697| 
    2129 00000075 1EAC          MOVL      XT,ACC                ; [CPU_] |697| 
    2130                      .dwpsn  file "C:/ti/motorware/motorware_1_01_00_14/sw/modules/hal/boards/boostxldrv8301_revB/f28x/f28
    2131 00000076 5605          IMPYL     P,XT,XAR1             ; [CPU_] |557| 
         00000077 00A1 
    2132 00000078 5663          QMPYL     ACC,XT,XAR1           ; [CPU_] |557| 
         00000079 00A1 
    2133 0000007a 568B          ASR64     ACC:P,#12             ; [CPU_] |557| 
    2134 0000007b A9A9          MOVL      ACC,P                 ; [CPU_] |557| 
    2135 0000007c 0395          SUBL      ACC,*+XAR5[AR0]       ; [CPU_] |557| 
    2136                      .dwpsn  file "C:/ti/motorware/motorware_1_01_00_14/sw/modules/hal/boards/boostxldrv8301_revB/f28x/f28
    2137 0000007d D00A          MOVB      XAR0,#10              ; [CPU_] |558| 
    2138 0000007e 1E96          MOVL      *+XAR6[AR0],ACC       ; [CPU_] |558| 
    2139                      .dwpsn  file "C:/ti/motorware/motorware_1_01_00_14/sw/modules/hal/boards/boostxldrv8301_revB/f28x/f28
TMS320C2000 Assembler PC v6.4.4 Wed Jul 08 12:49:31 2015

Tools Copyright (c) 1996-2015 Texas Instruments Incorporated
C:\Users\grant\AppData\Local\Temp\0448010                            PAGE   42

    2140 0000007f D00C          MOVB      XAR0,#12              ; [CPU_] |563| 
    2141                      .dwpsn  file "C:/ti/motorware/motorware_1_01_00_14/sw/drivers/adc/src/32b/f28x/f2806x/adc.h",line 697
    2142 00000080 0EFF          MOVU      ACC,*+XAR7[7]         ; [CPU_] |697| 
    2143 00000081 1EAC          MOVL      XT,ACC                ; [CPU_] |697| 
    2144                      .dwpsn  file "C:/ti/motorware/motorware_1_01_00_14/sw/modules/hal/boards/boostxldrv8301_revB/f28x/f28
    2145 00000082 5605          IMPYL     P,XT,XAR1             ; [CPU_] |562| 
         00000083 00A1 
    2146 00000084 5663          QMPYL     ACC,XT,XAR1           ; [CPU_] |562| 
         00000085 00A1 
    2147 00000086 568B          ASR64     ACC:P,#12             ; [CPU_] |562| 
    2148                      .dwpsn  file "C:/ti/motorware/motorware_1_01_00_14/sw/modules/hal/boards/boostxldrv8301_revB/f28x/f28
    2149 00000087 A996          MOVL      *+XAR6[AR0],P         ; [CPU_] |563| 
    2150                      .dwpsn  file "../proj_lab20.c",line 498,column 5,is_stmt,isa 0
    2151 00000088 D09C          MOVB      XAR0,#156             ; [CPU_] |498| 
    2152 00000089 9294          MOV       AL,*+XAR4[AR0]        ; [CPU_] |498| 
    2153 0000008a D0ED          MOVB      XAR0,#237             ; [CPU_] |498| 
    2154 0000008b 5494          CMP       AL,*+XAR4[AR0]        ; [CPU_] |498| 
    2155 0000008c 56C6          BF        $C$L31,HI             ; [CPU_] |498| 
         0000008d 02E3 
    2156                      ; branchcc occurs ; [] |498| 
    2157                      .dwpsn  file "C:/ti/motorware/motorware_1_01_00_14/sw/modules/ctrl/src/32b/ctrl.h",line 771,column 3,
    2158 0000008e 92E4          MOV       AL,*+XAR4[4]          ; [CPU_] |771| 
    2159                      .dwpsn  file "C:/ti/motorware/motorware_1_01_00_14/sw/modules/ctrl/src/32b/ctrl.h",line 1087,column 3
    2160 0000008f D0ED          MOVB      XAR0,#237             ; [CPU_] |1087| 
    2161                      .dwpsn  file "C:/ti/motorware/motorware_1_01_00_14/sw/modules/ctrl/src/32b/ctrl.h",line 771,column 3,
    2162 00000090 966B          MOV       *-SP[43],AL           ; [CPU_] |771| 
    2163                      .dwpsn  file "C:/ti/motorware/motorware_1_01_00_14/sw/modules/ctrl/src/32b/ctrl.h",line 1087,column 3
    2164 00000091 56BF          MOVB      *+XAR4[AR0],#1,UNC    ; [CPU_] |1087| 
         00000092 0194 
    2165                      .dwpsn  file "C:/ti/motorware/motorware_1_01_00_14/sw/modules/clarke/src/32b/clarke.h",line 125,colum
    2166 00000093 8A18-         MOVL      XAR4,@_clarkeHandle_I ; [CPU_] |125| 
    2167 00000094 83C4          MOVL      XAR5,*+XAR4[0]        ; [CPU_] |125| 
    2168                      .dwpsn  file "C:/ti/motorware/motorware_1_01_00_14/sw/modules/clarke/src/32b/clarke.h",line 126,colum
    2169 00000095 C5D4          MOVL      XAR7,*+XAR4[2]        ; [CPU_] |126| 
    2170                      .dwpsn  file "C:/ti/motorware/motorware_1_01_00_14/sw/modules/clarke/src/32b/clarke.h",line 129,colum
    2171 00000096 92E4          MOV       AL,*+XAR4[4]          ; [CPU_] |129| 
    2172 00000097 5203          CMPB      AL,#3                 ; [CPU_] |129| 
    2173 00000098 EC0E          BF        $C$L9,EQ              ; [CPU_] |129| 
    2174                      ; branchcc occurs ; [] |129| 
    2175                      .dwpsn  file "C:/ti/motorware/motorware_1_01_00_14/sw/modules/clarke/src/32b/clarke.h",line 134,colum
    2176 00000099 5202          CMPB      AL,#2                 ; [CPU_] |134| 
    2177 0000009a ED22          BF        $C$L11,NEQ            ; [CPU_] |134| 
    2178                      ; branchcc occurs ; [] |134| 
    2179                      .dwpsn  file "C:/ti/motorware/motorware_1_01_00_14/sw/modules/clarke/src/32b/clarke.h",line 136,colum
    2180 0000009b 87C6          MOVL      XT,*+XAR6[0]          ; [CPU_] |136| 
    2181 0000009c 5605          IMPYL     P,XT,XAR5             ; [CPU_] |136| 
         0000009d 00A5 
    2182 0000009e 5663          QMPYL     ACC,XT,XAR5           ; [CPU_] |136| 
         0000009f 00A5 
    2183 000000a0 56A7          LSL64     ACC:P,#8              ; [CPU_] |136| 
    2184 000000a1 1E58          MOVL      *-SP[24],ACC          ; [CPU_] |136| 
    2185                      .dwpsn  file "C:/ti/motorware/motorware_1_01_00_14/sw/modules/clarke/src/32b/clarke.h",line 137,colum
    2186 000000a2 06D6          MOVL      ACC,*+XAR6[2]         ; [CPU_] |137| 
    2187 000000a3 FF30          LSL       ACC,1                 ; [CPU_] |137| 
    2188 000000a4 07C6          ADDL      ACC,*+XAR6[0]         ; [CPU_] |137| 
TMS320C2000 Assembler PC v6.4.4 Wed Jul 08 12:49:31 2015

Tools Copyright (c) 1996-2015 Texas Instruments Incorporated
C:\Users\grant\AppData\Local\Temp\0448010                            PAGE   43

    2189 000000a5 6F10          B         $C$L10,UNC            ; [CPU_] |137| 
    2190                      ; branch occurs ; [] |137| 
    2191 000000a6       $C$L9:    
    2192                      .dwpsn  file "C:/ti/motorware/motorware_1_01_00_14/sw/modules/clarke/src/32b/clarke.h",line 131,colum
    2193 000000a6 8F00-         MOVL      XAR4,#_gAdcData       ; [CPU_U] |131| 
         000000a7 004C 
    2194 000000a8 06C4          MOVL      ACC,*+XAR4[0]         ; [CPU_] |131| 
    2195 000000a9 FF30          LSL       ACC,1                 ; [CPU_] |131| 
    2196 000000aa 03D4          SUBL      ACC,*+XAR4[2]         ; [CPU_] |131| 
    2197 000000ab 03E4          SUBL      ACC,*+XAR4[4]         ; [CPU_] |131| 
    2198 000000ac 1EAC          MOVL      XT,ACC                ; [CPU_] |131| 
    2199 000000ad 5605          IMPYL     P,XT,XAR5             ; [CPU_] |131| 
         000000ae 00A5 
    2200 000000af 5663          QMPYL     ACC,XT,XAR5           ; [CPU_] |131| 
         000000b0 00A5 
    2201 000000b1 56A7          LSL64     ACC:P,#8              ; [CPU_] |131| 
    2202 000000b2 1E58          MOVL      *-SP[24],ACC          ; [CPU_] |131| 
    2203                      .dwpsn  file "C:/ti/motorware/motorware_1_01_00_14/sw/modules/clarke/src/32b/clarke.h",line 132,colum
    2204 000000b3 06D4          MOVL      ACC,*+XAR4[2]         ; [CPU_] |132| 
    2205 000000b4 03E4          SUBL      ACC,*+XAR4[4]         ; [CPU_] |132| 
    2206 000000b5       $C$L10:    
    2207 000000b5 1EAC          MOVL      XT,ACC                ; [CPU_] |132| 
    2208 000000b6 5605          IMPYL     P,XT,XAR7             ; [CPU_] |132| 
         000000b7 00A7 
    2209 000000b8 5663          QMPYL     ACC,XT,XAR7           ; [CPU_] |132| 
         000000b9 00A7 
    2210 000000ba 56A7          LSL64     ACC:P,#8              ; [CPU_] |132| 
    2211 000000bb 1E56          MOVL      *-SP[22],ACC          ; [CPU_] |132| 
    2212 000000bc       $C$L11:    
    2213                      .dwpsn  file "C:/ti/motorware/motorware_1_01_00_14/sw/modules/clarke/src/32b/clarke.h",line 125,colum
    2214 000000bc 8A12-         MOVL      XAR4,@_clarkeHandle_V ; [CPU_] |125| 
    2215                      .dwpsn  file "C:/ti/motorware/motorware_1_01_00_14/sw/modules/clarke/src/32b/clarke.h",line 129,colum
    2216 000000bd 92E4          MOV       AL,*+XAR4[4]          ; [CPU_] |129| 
    2217                      .dwpsn  file "C:/ti/motorware/motorware_1_01_00_14/sw/modules/clarke/src/32b/clarke.h",line 125,colum
    2218 000000be C5C4          MOVL      XAR7,*+XAR4[0]        ; [CPU_] |125| 
    2219                      .dwpsn  file "C:/ti/motorware/motorware_1_01_00_14/sw/modules/clarke/src/32b/clarke.h",line 126,colum
    2220 000000bf C4D4          MOVL      XAR6,*+XAR4[2]        ; [CPU_] |126| 
    2221                      .dwpsn  file "C:/ti/motorware/motorware_1_01_00_14/sw/modules/clarke/src/32b/clarke.h",line 129,colum
    2222 000000c0 5203          CMPB      AL,#3                 ; [CPU_] |129| 
    2223 000000c1 EC11          BF        $C$L12,EQ             ; [CPU_] |129| 
    2224                      ; branchcc occurs ; [] |129| 
    2225                      .dwpsn  file "C:/ti/motorware/motorware_1_01_00_14/sw/modules/clarke/src/32b/clarke.h",line 134,colum
    2226 000000c2 5202          CMPB      AL,#2                 ; [CPU_] |134| 
    2227 000000c3 ED29          BF        $C$L14,NEQ            ; [CPU_] |134| 
    2228                      ; branchcc occurs ; [] |134| 
    2229                      .dwpsn  file "C:/ti/motorware/motorware_1_01_00_14/sw/modules/clarke/src/32b/clarke.h",line 136,colum
    2230 000000c4 8F00-         MOVL      XAR4,#_gAdcData       ; [CPU_U] |136| 
         000000c5 004C 
    2231 000000c6 87F4          MOVL      XT,*+XAR4[6]          ; [CPU_] |136| 
    2232                      .dwpsn  file "C:/ti/motorware/motorware_1_01_00_14/sw/modules/clarke/src/32b/clarke.h",line 137,colum
    2233 000000c7 D008          MOVB      XAR0,#8               ; [CPU_] |137| 
    2234                      .dwpsn  file "C:/ti/motorware/motorware_1_01_00_14/sw/modules/clarke/src/32b/clarke.h",line 136,colum
    2235 000000c8 5605          IMPYL     P,XT,XAR7             ; [CPU_] |136| 
         000000c9 00A7 
    2236 000000ca 5663          QMPYL     ACC,XT,XAR7           ; [CPU_] |136| 
TMS320C2000 Assembler PC v6.4.4 Wed Jul 08 12:49:31 2015

Tools Copyright (c) 1996-2015 Texas Instruments Incorporated
C:\Users\grant\AppData\Local\Temp\0448010                            PAGE   44

         000000cb 00A7 
    2237 000000cc 56A7          LSL64     ACC:P,#8              ; [CPU_] |136| 
    2238 000000cd 1E5C          MOVL      *-SP[28],ACC          ; [CPU_] |136| 
    2239                      .dwpsn  file "C:/ti/motorware/motorware_1_01_00_14/sw/modules/clarke/src/32b/clarke.h",line 137,colum
    2240 000000ce 0694          MOVL      ACC,*+XAR4[AR0]       ; [CPU_] |137| 
    2241 000000cf FF30          LSL       ACC,1                 ; [CPU_] |137| 
    2242 000000d0 07F4          ADDL      ACC,*+XAR4[6]         ; [CPU_] |137| 
    2243 000000d1 6F14          B         $C$L13,UNC            ; [CPU_] |137| 
    2244                      ; branch occurs ; [] |137| 
    2245 000000d2       $C$L12:    
    2246                      .dwpsn  file "C:/ti/motorware/motorware_1_01_00_14/sw/modules/clarke/src/32b/clarke.h",line 131,colum
    2247 000000d2 8F00-         MOVL      XAR4,#_gAdcData       ; [CPU_U] |131| 
         000000d3 004C 
    2248 000000d4 D008          MOVB      XAR0,#8               ; [CPU_] |131| 
    2249 000000d5 06F4          MOVL      ACC,*+XAR4[6]         ; [CPU_] |131| 
    2250                      .dwpsn  file "C:/ti/motorware/motorware_1_01_00_14/sw/modules/clarke/src/32b/clarke.h",line 132,colum
    2251 000000d6 D108          MOVB      XAR1,#8               ; [CPU_] |132| 
    2252                      .dwpsn  file "C:/ti/motorware/motorware_1_01_00_14/sw/modules/clarke/src/32b/clarke.h",line 131,colum
    2253 000000d7 FF30          LSL       ACC,1                 ; [CPU_] |131| 
    2254 000000d8 0394          SUBL      ACC,*+XAR4[AR0]       ; [CPU_] |131| 
    2255 000000d9 D00A          MOVB      XAR0,#10              ; [CPU_] |131| 
    2256 000000da 0394          SUBL      ACC,*+XAR4[AR0]       ; [CPU_] |131| 
    2257 000000db 1EAC          MOVL      XT,ACC                ; [CPU_] |131| 
    2258                      .dwpsn  file "C:/ti/motorware/motorware_1_01_00_14/sw/modules/clarke/src/32b/clarke.h",line 132,colum
    2259 000000dc D00A          MOVB      XAR0,#10              ; [CPU_] |132| 
    2260                      .dwpsn  file "C:/ti/motorware/motorware_1_01_00_14/sw/modules/clarke/src/32b/clarke.h",line 131,colum
    2261 000000dd 5605          IMPYL     P,XT,XAR7             ; [CPU_] |131| 
         000000de 00A7 
    2262 000000df 5663          QMPYL     ACC,XT,XAR7           ; [CPU_] |131| 
         000000e0 00A7 
    2263 000000e1 56A7          LSL64     ACC:P,#8              ; [CPU_] |131| 
    2264 000000e2 1E5C          MOVL      *-SP[28],ACC          ; [CPU_] |131| 
    2265                      .dwpsn  file "C:/ti/motorware/motorware_1_01_00_14/sw/modules/clarke/src/32b/clarke.h",line 132,colum
    2266 000000e3 069C          MOVL      ACC,*+XAR4[AR1]       ; [CPU_] |132| 
    2267 000000e4 0394          SUBL      ACC,*+XAR4[AR0]       ; [CPU_] |132| 
    2268 000000e5       $C$L13:    
    2269 000000e5 1EAC          MOVL      XT,ACC                ; [CPU_] |132| 
    2270 000000e6 5605          IMPYL     P,XT,XAR6             ; [CPU_] |132| 
         000000e7 00A6 
    2271 000000e8 5663          QMPYL     ACC,XT,XAR6           ; [CPU_] |132| 
         000000e9 00A6 
    2272 000000ea 56A7          LSL64     ACC:P,#8              ; [CPU_] |132| 
    2273 000000eb 1E5A          MOVL      *-SP[26],ACC          ; [CPU_] |132| 
    2274 000000ec       $C$L14:    
    2275                      .dwpsn  file "../proj_lab20.c",line 520,column 9,is_stmt,isa 0
    2276 000000ec 5CAD          MOVZ      AR4,SP                ; [CPU_] |520| 
    2277 000000ed 5DAD          MOVZ      AR5,SP                ; [CPU_] |520| 
    2278 000000ee 8D40-         MOVL      XAR1,#_gAdcData       ; [CPU_U] |520| 
         000000ef 004C 
    2279 000000f0 D00C          MOVB      XAR0,#12              ; [CPU_] |520| 
    2280 000000f1 DC9C          SUBB      XAR4,#28              ; [CPU_U] |520| 
    2281 000000f2 0EA4          MOVU      ACC,AR4               ; [CPU_] |520| 
    2282 000000f3 DD98          SUBB      XAR5,#24              ; [CPU_U] |520| 
    2283 000000f4 1E42          MOVL      *-SP[2],ACC           ; [CPU_] |520| 
    2284 000000f5 8A14-         MOVL      XAR4,@_estHandle      ; [CPU_] |520| 
TMS320C2000 Assembler PC v6.4.4 Wed Jul 08 12:49:31 2015

Tools Copyright (c) 1996-2015 Texas Instruments Incorporated
C:\Users\grant\AppData\Local\Temp\0448010                            PAGE   45

    2285 000000f6 5DA5          MOVZ      AR5,AR5               ; [CPU_] |520| 
    2286 000000f7 A244          MOVL      *-SP[4],XAR3          ; [CPU_] |520| 
    2287 000000f8 0691          MOVL      ACC,*+XAR1[AR0]       ; [CPU_] |520| 
    2288              $C$DW$308       .dwtag  DW_TAG_TI_branch
    2289                      .dwattr $C$DW$308, DW_AT_low_pc(0x00)
    2290                      .dwattr $C$DW$308, DW_AT_name("_EST_run")
    2291                      .dwattr $C$DW$308, DW_AT_TI_call
    2292 000000f9 7640!         LCR       #_EST_run             ; [CPU_] |520| 
         000000fa 0000 
    2293                      ; call occurs [#_EST_run] ; [] |520| 
    2294 000000fb 761F-         MOVW      DP,#_estHandle        ; [CPU_U] 
         000000fc 0000 
    2295                      .dwpsn  file "../proj_lab20.c",line 526,column 9,is_stmt,isa 0
    2296 000000fd 8A14-         MOVL      XAR4,@_estHandle      ; [CPU_] |526| 
    2297              $C$DW$309       .dwtag  DW_TAG_TI_branch
    2298                      .dwattr $C$DW$309, DW_AT_low_pc(0x00)
    2299                      .dwattr $C$DW$309, DW_AT_name("_EST_doSpeedCtrl")
    2300                      .dwattr $C$DW$309, DW_AT_TI_call
    2301 000000fe 7640!         LCR       #_EST_doSpeedCtrl     ; [CPU_] |526| 
         000000ff 0000 
    2302                      ; call occurs [#_EST_doSpeedCtrl] ; [] |526| 
    2303 00000100 761F-         MOVW      DP,#_estHandle        ; [CPU_U] 
         00000101 0000 
    2304 00000102 966A          MOV       *-SP[42],AL           ; [CPU_] |526| 
    2305                      .dwpsn  file "../proj_lab20.c",line 527,column 9,is_stmt,isa 0
    2306 00000103 8A14-         MOVL      XAR4,@_estHandle      ; [CPU_] |527| 
    2307              $C$DW$310       .dwtag  DW_TAG_TI_branch
    2308                      .dwattr $C$DW$310, DW_AT_low_pc(0x00)
    2309                      .dwattr $C$DW$310, DW_AT_name("_EST_doCurrentCtrl")
    2310                      .dwattr $C$DW$310, DW_AT_TI_call
    2311 00000104 7640!         LCR       #_EST_doCurrentCtrl   ; [CPU_] |527| 
         00000105 0000 
    2312                      ; call occurs [#_EST_doCurrentCtrl] ; [] |527| 
    2313 00000106 761F-         MOVW      DP,#_estHandle        ; [CPU_U] 
         00000107 0000 
    2314 00000108 9669          MOV       *-SP[41],AL           ; [CPU_] |527| 
    2315                      .dwpsn  file "../proj_lab20.c",line 531,column 7,is_stmt,isa 0
    2316 00000109 8A14-         MOVL      XAR4,@_estHandle      ; [CPU_] |531| 
    2317              $C$DW$311       .dwtag  DW_TAG_TI_branch
    2318                      .dwattr $C$DW$311, DW_AT_low_pc(0x00)
    2319                      .dwattr $C$DW$311, DW_AT_name("_EST_getAngle_pu")
    2320                      .dwattr $C$DW$311, DW_AT_TI_call
    2321 0000010a 7640!         LCR       #_EST_getAngle_pu     ; [CPU_] |531| 
         0000010b 0000 
    2322                      ; call occurs [#_EST_getAngle_pu] ; [] |531| 
    2323 0000010c 761F-         MOVW      DP,#_estHandle        ; [CPU_U] 
         0000010d 0000 
    2324 0000010e 1E76          MOVL      *-SP[54],ACC          ; [CPU_] |531| 
    2325                      .dwpsn  file "../proj_lab20.c",line 532,column 7,is_stmt,isa 0
    2326 0000010f 8A14-         MOVL      XAR4,@_estHandle      ; [CPU_] |532| 
    2327              $C$DW$312       .dwtag  DW_TAG_TI_branch
    2328                      .dwattr $C$DW$312, DW_AT_low_pc(0x00)
    2329                      .dwattr $C$DW$312, DW_AT_name("_EST_getFm_pu")
    2330                      .dwattr $C$DW$312, DW_AT_TI_call
    2331 00000110 7640!         LCR       #_EST_getFm_pu        ; [CPU_] |532| 
TMS320C2000 Assembler PC v6.4.4 Wed Jul 08 12:49:31 2015

Tools Copyright (c) 1996-2015 Texas Instruments Incorporated
C:\Users\grant\AppData\Local\Temp\0448010                            PAGE   46

         00000111 0000 
    2332                      ; call occurs [#_EST_getFm_pu] ; [] |532| 
    2333 00000112 1E74          MOVL      *-SP[52],ACC          ; [CPU_] |532| 
    2334 00000113 0676          MOVL      ACC,*-SP[54]          ; [CPU_] |532| 
    2335                      .dwpsn  file "C:/ti/motorware/motorware_1_01_00_14/sw/modules/ctrl/src/32b/ctrl.h",line 2043,column 3
    2336              $C$DW$313       .dwtag  DW_TAG_TI_branch
    2337                      .dwattr $C$DW$313, DW_AT_low_pc(0x00)
    2338                      .dwattr $C$DW$313, DW_AT_name("__IQ24cosPU")
    2339                      .dwattr $C$DW$313, DW_AT_TI_call
    2340 00000114 7640!         LCR       #__IQ24cosPU          ; [CPU_] |2043| 
         00000115 0000 
    2341                      ; call occurs [#__IQ24cosPU] ; [] |2043| 
    2342 00000116 1E68          MOVL      *-SP[40],ACC          ; [CPU_] |2043| 
    2343 00000117 0676          MOVL      ACC,*-SP[54]          ; [CPU_] |2043| 
    2344                      .dwpsn  file "C:/ti/motorware/motorware_1_01_00_14/sw/modules/ctrl/src/32b/ctrl.h",line 2044,column 3
    2345              $C$DW$314       .dwtag  DW_TAG_TI_branch
    2346                      .dwattr $C$DW$314, DW_AT_low_pc(0x00)
    2347                      .dwattr $C$DW$314, DW_AT_name("__IQ24sinPU")
    2348                      .dwattr $C$DW$314, DW_AT_TI_call
    2349 00000118 7640!         LCR       #__IQ24sinPU          ; [CPU_] |2044| 
         00000119 0000 
    2350                      ; call occurs [#__IQ24sinPU] ; [] |2044| 
    2351 0000011a 761F-         MOVW      DP,#_parkHandle       ; [CPU_U] 
         0000011b 0000 
    2352                      .dwpsn  file "../proj_lab20.c",line 538,column 7,is_stmt,isa 0
    2353 0000011c C420-         MOVL      XAR6,@_parkHandle     ; [CPU_] |538| 
    2354                      .dwpsn  file "C:/ti/motorware/motorware_1_01_00_14/sw/modules/ctrl/src/32b/ctrl.h",line 2044,column 3
    2355 0000011d 1E66          MOVL      *-SP[38],ACC          ; [CPU_] |2044| 
    2356                      .dwpsn  file "C:/ti/motorware/motorware_1_01_00_14/sw/modules/park/src/32b/park.h",line 175,column 3,
    2357 0000011e 0668          MOVL      ACC,*-SP[40]          ; [CPU_] |175| 
    2358 0000011f 1ED6          MOVL      *+XAR6[2],ACC         ; [CPU_] |175| 
    2359                      .dwpsn  file "C:/ti/motorware/motorware_1_01_00_14/sw/modules/park/src/32b/park.h",line 176,column 3,
    2360 00000120 0666          MOVL      ACC,*-SP[38]          ; [CPU_] |176| 
    2361 00000121 1EC6          MOVL      *+XAR6[0],ACC         ; [CPU_] |176| 
    2362                      .dwpsn  file "../proj_lab20.c",line 541,column 7,is_stmt,isa 0
    2363 00000122 8A16-         MOVL      XAR4,@_ctrlHandle     ; [CPU_] |541| 
    2364                      .dwpsn  file "C:/ti/motorware/motorware_1_01_00_14/sw/modules/park/src/32b/park.h",line 141,column 13
    2365 00000123 C5C6          MOVL      XAR7,*+XAR6[0]        ; [CPU_] |141| 
    2366                      .dwpsn  file "../proj_lab20.c",line 541,column 7,is_stmt,isa 0
    2367 00000124 A8A9          MOVL      ACC,XAR4              ; [CPU_] |541| 
    2368 00000125 09B4          ADDB      ACC,#180              ; [CPU_] |541| 
    2369 00000126 83A9          MOVL      XAR5,ACC              ; [CPU_] |541| 
    2370                      .dwpsn  file "C:/ti/motorware/motorware_1_01_00_14/sw/modules/park/src/32b/park.h",line 142,column 13
    2371 00000127 C4D6          MOVL      XAR6,*+XAR6[2]        ; [CPU_] |142| 
    2372                      .dwpsn  file "C:/ti/motorware/motorware_1_01_00_14/sw/modules/park/src/32b/park.h",line 144,column 15
    2373 00000128 0658          MOVL      ACC,*-SP[24]          ; [CPU_] |144| 
    2374 00000129 1E6E          MOVL      *-SP[46],ACC          ; [CPU_] |144| 
    2375                      .dwpsn  file "C:/ti/motorware/motorware_1_01_00_14/sw/modules/park/src/32b/park.h",line 145,column 15
    2376 0000012a 0656          MOVL      ACC,*-SP[22]          ; [CPU_] |145| 
    2377 0000012b 876E          MOVL      XT,*-SP[46]           ; [CPU_] |145| 
    2378 0000012c 1E70          MOVL      *-SP[48],ACC          ; [CPU_] |145| 
    2379                      .dwpsn  file "C:/ti/motorware/motorware_1_01_00_14/sw/modules/park/src/32b/park.h",line 148,column 3,
    2380 0000012d 5605          IMPYL     P,XT,XAR6             ; [CPU_] |148| 
         0000012e 00A6 
    2381 0000012f 5663          QMPYL     ACC,XT,XAR6           ; [CPU_] |148| 
TMS320C2000 Assembler PC v6.4.4 Wed Jul 08 12:49:31 2015

Tools Copyright (c) 1996-2015 Texas Instruments Incorporated
C:\Users\grant\AppData\Local\Temp\0448010                            PAGE   47

         00000130 00A6 
    2382 00000131 56A7          LSL64     ACC:P,#8              ; [CPU_] |148| 
    2383 00000132 8770          MOVL      XT,*-SP[48]           ; [CPU_] |148| 
    2384 00000133 8EA9          MOVL      XAR0,ACC              ; [CPU_] |148| 
    2385 00000134 5605          IMPYL     P,XT,XAR7             ; [CPU_] |148| 
         00000135 00A7 
    2386 00000136 5663          QMPYL     ACC,XT,XAR7           ; [CPU_] |148| 
         00000137 00A7 
    2387 00000138 56A7          LSL64     ACC:P,#8              ; [CPU_] |148| 
    2388 00000139 07A0          ADDL      ACC,XAR0              ; [CPU_] |148| 
    2389 0000013a D0B2          MOVB      XAR0,#178             ; [CPU_] |148| 
    2390 0000013b 1E94          MOVL      *+XAR4[AR0],ACC       ; [CPU_] |148| 
    2391                      .dwpsn  file "../proj_lab20.c",line 544,column 7,is_stmt,isa 0
    2392 0000013c D060          MOVB      XAR0,#96              ; [CPU_] |544| 
    2393                      .dwpsn  file "C:/ti/motorware/motorware_1_01_00_14/sw/modules/park/src/32b/park.h",line 148,column 3,
    2394 0000013d 876E          MOVL      XT,*-SP[46]           ; [CPU_] |148| 
    2395                      .dwpsn  file "C:/ti/motorware/motorware_1_01_00_14/sw/modules/park/src/32b/park.h",line 149,column 3,
    2396 0000013e 5605          IMPYL     P,XT,XAR7             ; [CPU_] |149| 
         0000013f 00A7 
    2397 00000140 5663          QMPYL     ACC,XT,XAR7           ; [CPU_] |149| 
         00000141 00A7 
    2398 00000142 56A7          LSL64     ACC:P,#8              ; [CPU_] |149| 
    2399 00000143 8770          MOVL      XT,*-SP[48]           ; [CPU_] |149| 
    2400 00000144 1EA7          MOVL      XAR7,ACC              ; [CPU_] |149| 
    2401 00000145 5605          IMPYL     P,XT,XAR6             ; [CPU_] |149| 
         00000146 00A6 
    2402 00000147 5663          QMPYL     ACC,XT,XAR6           ; [CPU_] |149| 
         00000148 00A6 
    2403 00000149 56A7          LSL64     ACC:P,#8              ; [CPU_] |149| 
    2404 0000014a 03A7          SUBL      ACC,XAR7              ; [CPU_] |149| 
    2405 0000014b 1EC5          MOVL      *+XAR5[0],ACC         ; [CPU_] |149| 
    2406                      .dwpsn  file "../proj_lab20.c",line 544,column 7,is_stmt,isa 0
    2407 0000014c C494          MOVL      XAR6,*+XAR4[AR0]      ; [CPU_] |544| 
    2408 0000014d 5DAD          MOVZ      AR5,SP                ; [CPU_] |544| 
    2409 0000014e 06D6          MOVL      ACC,*+XAR6[2]         ; [CPU_] |544| 
    2410                      .dwpsn  file "../proj_lab20.c",line 550,column 7,is_stmt,isa 0
    2411 0000014f 88AD          MOVZ      AR6,SP                ; [CPU_] |550| 
    2412                      .dwpsn  file "../proj_lab20.c",line 544,column 7,is_stmt,isa 0
    2413 00000150 DD90          SUBB      XAR5,#16              ; [CPU_U] |544| 
    2414 00000151 5DA5          MOVZ      AR5,AR5               ; [CPU_] |544| 
    2415                      .dwpsn  file "../proj_lab20.c",line 550,column 7,is_stmt,isa 0
    2416 00000152 DE94          SUBB      XAR6,#20              ; [CPU_U] |550| 
    2417                      .dwpsn  file "../proj_lab20.c",line 544,column 7,is_stmt,isa 0
    2418 00000153 1EC5          MOVL      *+XAR5[0],ACC         ; [CPU_] |544| 
    2419                      .dwpsn  file "../proj_lab20.c",line 545,column 7,is_stmt,isa 0
    2420 00000154 0200          MOVB      ACC,#0                ; [CPU_] |545| 
    2421 00000155 1E4E          MOVL      *-SP[14],ACC          ; [CPU_] |545| 
    2422                      .dwpsn  file "../proj_lab20.c",line 547,column 7,is_stmt,isa 0
    2423 00000156 1E54          MOVL      *-SP[20],ACC          ; [CPU_] |547| 
    2424                      .dwpsn  file "../proj_lab20.c",line 548,column 7,is_stmt,isa 0
    2425 00000157 1E52          MOVL      *-SP[18],ACC          ; [CPU_] |548| 
    2426                      .dwpsn  file "../proj_lab20.c",line 550,column 7,is_stmt,isa 0
    2427 00000158 0674          MOVL      ACC,*-SP[52]          ; [CPU_] |550| 
    2428 00000159 A242          MOVL      *-SP[2],XAR3          ; [CPU_] |550| 
    2429 0000015a 1E44          MOVL      *-SP[4],ACC           ; [CPU_] |550| 
TMS320C2000 Assembler PC v6.4.4 Wed Jul 08 12:49:31 2015

Tools Copyright (c) 1996-2015 Texas Instruments Incorporated
C:\Users\grant\AppData\Local\Temp\0448010                            PAGE   48

    2430 0000015b 0672          MOVL      ACC,*-SP[50]          ; [CPU_] |550| 
    2431 0000015c 1E46          MOVL      *-SP[6],ACC           ; [CPU_] |550| 
    2432 0000015d 0EA6          MOVU      ACC,AR6               ; [CPU_] |550| 
    2433 0000015e 1E48          MOVL      *-SP[8],ACC           ; [CPU_] |550| 
    2434 0000015f 926A          MOV       AL,*-SP[42]           ; [CPU_] |550| 
    2435 00000160 9649          MOV       *-SP[9],AL            ; [CPU_] |550| 
    2436 00000161 9269          MOV       AL,*-SP[41]           ; [CPU_] |550| 
    2437 00000162 964A          MOV       *-SP[10],AL           ; [CPU_] |550| 
    2438 00000163 0676          MOVL      ACC,*-SP[54]          ; [CPU_] |550| 
    2439              $C$DW$315       .dwtag  DW_TAG_TI_branch
    2440                      .dwattr $C$DW$315, DW_AT_low_pc(0x00)
    2441                      .dwattr $C$DW$315, DW_AT_name("_CTRL_setup_user")
    2442                      .dwattr $C$DW$315, DW_AT_TI_call
    2443 00000164 7640!         LCR       #_CTRL_setup_user     ; [CPU_] |550| 
         00000165 0000 
    2444                      ; call occurs [#_CTRL_setup_user] ; [] |550| 
    2445 00000166 926B          MOV       AL,*-SP[43]           ; [CPU_] |550| 
    2446                      .dwpsn  file "../proj_lab20.c",line 561,column 7,is_stmt,isa 0
    2447 00000167 5203          CMPB      AL,#3                 ; [CPU_] |561| 
    2448 00000168 EC75          BF        $C$L19,EQ             ; [CPU_] |561| 
    2449                      ; branchcc occurs ; [] |561| 
    2450                      .dwpsn  file "../proj_lab20.c",line 578,column 12,is_stmt,isa 0
    2451 00000169 5202          CMPB      AL,#2                 ; [CPU_] |578| 
    2452 0000016a 56C0          BF        $C$L32,NEQ            ; [CPU_] |578| 
         0000016b 0209 
    2453                      ; branchcc occurs ; [] |578| 
    2454 0000016c 761F-         MOVW      DP,#_halHandle        ; [CPU_U] 
         0000016d 0000 
    2455 0000016e 2901          CLRC      SXM                   ; [CPU_] 
    2456                      .dwpsn  file "C:/ti/motorware/motorware_1_01_00_14/sw/modules/hal/boards/boostxldrv8301_revB/f28x/f28
    2457 0000016f 8306-         MOVL      XAR5,@_halHandle      ; [CPU_] |205| 
    2458                      .dwpsn  file "C:/ti/motorware/motorware_1_01_00_14/sw/modules/hal/boards/boostxldrv8301_revB/f28x/f28
    2459 00000170 9A00          MOVB      AL,#0                 ; [CPU_] |209| 
    2460 00000171 9669          MOV       *-SP[41],AL           ; [CPU_] |209| 
    2461 00000172       $C$L15:    
    2462                      .dwpsn  file "C:/ti/motorware/motorware_1_01_00_14/sw/modules/hal/boards/boostxldrv8301_revB/f28x/f28
    2463 00000172 D096          MOVB      XAR0,#150             ; [CPU_] |209| 
    2464 00000173 5495          CMP       AL,*+XAR5[AR0]        ; [CPU_] |209| 
    2465 00000174 56C8          BF        $C$L18,LO             ; [CPU_] |209| 
         00000175 003D 
    2466                      ; branchcc occurs ; [] |209| 
    2467                      .dwpsn  file "C:/ti/motorware/motorware_1_01_00_14/sw/modules/hal/boards/boostxldrv8301_revB/f28x/f28
    2468 00000176 9A00          MOVB      AL,#0                 ; [CPU_] |216| 
    2469 00000177 2901          CLRC      SXM                   ; [CPU_] 
    2470 00000178 9669          MOV       *-SP[41],AL           ; [CPU_] |216| 
    2471 00000179       $C$L16:    
    2472                      .dwpsn  file "C:/ti/motorware/motorware_1_01_00_14/sw/modules/hal/boards/boostxldrv8301_revB/f28x/f28
    2473 00000179 D097          MOVB      XAR0,#151             ; [CPU_] |216| 
    2474 0000017a 5495          CMP       AL,*+XAR5[AR0]        ; [CPU_] |216| 
    2475 0000017b 56C8          BF        $C$L17,LO             ; [CPU_] |216| 
         0000017c 000A 
    2476                      ; branchcc occurs ; [] |216| 
    2477                      .dwpsn  file "C:/ti/motorware/motorware_1_01_00_14/sw/modules/ctrl/src/32b/ctrl.h",line 2097,column 3
    2478 0000017d 8F00-         MOVL      XAR4,#_gPwmData       ; [CPU_U] |2097| 
         0000017e 0040 
TMS320C2000 Assembler PC v6.4.4 Wed Jul 08 12:49:31 2015

Tools Copyright (c) 1996-2015 Texas Instruments Incorporated
C:\Users\grant\AppData\Local\Temp\0448010                            PAGE   49

    2479 0000017f 0200          MOVB      ACC,#0                ; [CPU_] |2097| 
    2480 00000180 1EC4          MOVL      *+XAR4[0],ACC         ; [CPU_] |2097| 
    2481                      .dwpsn  file "C:/ti/motorware/motorware_1_01_00_14/sw/modules/ctrl/src/32b/ctrl.h",line 2098,column 3
    2482 00000181 1ED4          MOVL      *+XAR4[2],ACC         ; [CPU_] |2098| 
    2483                      .dwpsn  file "C:/ti/motorware/motorware_1_01_00_14/sw/modules/ctrl/src/32b/ctrl.h",line 2099,column 3
    2484 00000182 1EE4          MOVL      *+XAR4[4],ACC         ; [CPU_] |2099| 
    2485                      .dwpsn  file "C:/ti/motorware/motorware_1_01_00_14/sw/modules/ctrl/src/32b/ctrl.h",line 2101,column 3
    2486 00000183 FFEF          B         $C$L32,UNC            ; [CPU_] |2101| 
         00000184 01F0 
    2487                      ; branch occurs ; [] |2101| 
    2488 00000185       $C$L17:    
    2489                      .dwpsn  file "C:/ti/motorware/motorware_1_01_00_14/sw/modules/offset/src/32b/offset.h",line 139,colum
    2490 00000185 8AA5          MOVL      XAR4,XAR5             ; [CPU_] |139| 
    2491 00000186 5603          MOV       ACC,AL << 1           ; [CPU_] |139| 
         00000187 01A9 
    2492 00000188 5601          ADDL      XAR4,ACC              ; [CPU_] |139| 
         00000189 00A4 
    2493 0000018a D03A          MOVB      XAR0,#58              ; [CPU_] |139| 
    2494 0000018b C594          MOVL      XAR7,*+XAR4[AR0]      ; [CPU_] |139| 
    2495                      .dwpsn  file "C:/ti/motorware/motorware_1_01_00_14/sw/modules/filter/src/32b/filter_fo.h",line 201,co
    2496 0000018c 8AA1          MOVL      XAR4,XAR1             ; [CPU_] |201| 
    2497                      .dwpsn  file "C:/ti/motorware/motorware_1_01_00_14/sw/modules/filter/src/32b/filter_fo.h",line 191,co
    2498 0000018d D00C          MOVB      XAR0,#12              ; [CPU_] |191| 
    2499 0000018e C497          MOVL      XAR6,*+XAR7[AR0]      ; [CPU_] |191| 
    2500                      .dwpsn  file "C:/ti/motorware/motorware_1_01_00_14/sw/modules/filter/src/32b/filter_fo.h",line 201,co
    2501 0000018f 5601          ADDL      XAR4,ACC              ; [CPU_] |201| 
         00000190 00A4 
    2502 00000191 87D6          MOVL      XT,*+XAR6[2]          ; [CPU_] |201| 
    2503 00000192 5605          IMPYL     P,XT,*+XAR4[6]        ; [CPU_] |201| 
         00000193 00F4 
    2504 00000194 5663          QMPYL     ACC,XT,*+XAR4[6]      ; [CPU_] |201| 
         00000195 00F4 
    2505 00000196 56A7          LSL64     ACC:P,#8              ; [CPU_] |201| 
    2506 00000197 87E6          MOVL      XT,*+XAR6[4]          ; [CPU_] |201| 
    2507 00000198 8EA9          MOVL      XAR0,ACC              ; [CPU_] |201| 
    2508 00000199 5605          IMPYL     P,XT,*+XAR6[6]        ; [CPU_] |201| 
         0000019a 00F6 
    2509 0000019b 5663          QMPYL     ACC,XT,*+XAR6[6]      ; [CPU_] |201| 
         0000019c 00F6 
    2510 0000019d 56A7          LSL64     ACC:P,#8              ; [CPU_] |201| 
    2511 0000019e 87C6          MOVL      XT,*+XAR6[0]          ; [CPU_] |201| 
    2512 0000019f 07A0          ADDL      ACC,XAR0              ; [CPU_] |201| 
    2513 000001a0 82A9          MOVL      XAR3,ACC              ; [CPU_] |201| 
    2514 000001a1 D008          MOVB      XAR0,#8               ; [CPU_] |201| 
    2515 000001a2 5605          IMPYL     P,XT,*+XAR6[AR0]      ; [CPU_] |201| 
         000001a3 0096 
    2516 000001a4 5663          QMPYL     ACC,XT,*+XAR6[AR0]    ; [CPU_] |201| 
         000001a5 0096 
    2517 000001a6 56A7          LSL64     ACC:P,#8              ; [CPU_] |201| 
    2518 000001a7 5641          SUBL      XAR3,ACC              ; [CPU_] |201| 
         000001a8 00A3 
    2519                      .dwpsn  file "C:/ti/motorware/motorware_1_01_00_14/sw/modules/filter/src/32b/filter_fo.h",line 206,co
    2520 000001a9 A3F4          MOVL      P,*+XAR4[6]           ; [CPU_] |206| 
    2521                      .dwpsn  file "C:/ti/motorware/motorware_1_01_00_14/sw/modules/filter/src/32b/filter_fo.h",line 207,co
    2522 000001aa D008          MOVB      XAR0,#8               ; [CPU_] |207| 
TMS320C2000 Assembler PC v6.4.4 Wed Jul 08 12:49:31 2015

Tools Copyright (c) 1996-2015 Texas Instruments Incorporated
C:\Users\grant\AppData\Local\Temp\0448010                            PAGE   50

    2523                      .dwpsn  file "C:/ti/motorware/motorware_1_01_00_14/sw/modules/filter/src/32b/filter_fo.h",line 206,co
    2524 000001ab A9F6          MOVL      *+XAR6[6],P           ; [CPU_] |206| 
    2525                      .dwpsn  file "C:/ti/motorware/motorware_1_01_00_14/sw/modules/filter/src/32b/filter_fo.h",line 207,co
    2526 000001ac A296          MOVL      *+XAR6[AR0],XAR3      ; [CPU_] |207| 
    2527                      .dwpsn  file "C:/ti/motorware/motorware_1_01_00_14/sw/modules/offset/src/32b/offset.h",line 141,colum
    2528 000001ad A2C7          MOVL      *+XAR7[0],XAR3        ; [CPU_] |141| 
    2529                      .dwpsn  file "C:/ti/motorware/motorware_1_01_00_14/sw/modules/hal/boards/boostxldrv8301_revB/f28x/f28
    2530 000001ae 0A69          INC       *-SP[41]              ; [CPU_] |216| 
    2531                      .dwpsn  file "C:/ti/motorware/motorware_1_01_00_14/sw/modules/offset/src/32b/offset.h",line 141,colum
    2532 000001af 9269          MOV       AL,*-SP[41]           ; [CPU_] |141| 
    2533                      .dwpsn  file "C:/ti/motorware/motorware_1_01_00_14/sw/modules/hal/boards/boostxldrv8301_revB/f28x/f28
    2534 000001b0 6FC9          B         $C$L16,UNC            ; [CPU_] |216| 
    2535                      ; branch occurs ; [] |216| 
    2536 000001b1       $C$L18:    
    2537                      .dwpsn  file "C:/ti/motorware/motorware_1_01_00_14/sw/modules/offset/src/32b/offset.h",line 139,colum
    2538 000001b1 8AA5          MOVL      XAR4,XAR5             ; [CPU_] |139| 
    2539 000001b2 5603          MOV       ACC,AL << 1           ; [CPU_] |139| 
         000001b3 01A9 
    2540 000001b4 5601          ADDL      XAR4,ACC              ; [CPU_] |139| 
         000001b5 00A4 
    2541 000001b6 D00A          MOVB      XAR0,#10              ; [CPU_] |139| 
    2542 000001b7 C594          MOVL      XAR7,*+XAR4[AR0]      ; [CPU_] |139| 
    2543                      .dwpsn  file "C:/ti/motorware/motorware_1_01_00_14/sw/modules/filter/src/32b/filter_fo.h",line 201,co
    2544 000001b8 8AA1          MOVL      XAR4,XAR1             ; [CPU_] |201| 
    2545                      .dwpsn  file "C:/ti/motorware/motorware_1_01_00_14/sw/modules/filter/src/32b/filter_fo.h",line 191,co
    2546 000001b9 D00C          MOVB      XAR0,#12              ; [CPU_] |191| 
    2547 000001ba C497          MOVL      XAR6,*+XAR7[AR0]      ; [CPU_] |191| 
    2548                      .dwpsn  file "C:/ti/motorware/motorware_1_01_00_14/sw/modules/filter/src/32b/filter_fo.h",line 201,co
    2549 000001bb 5601          ADDL      XAR4,ACC              ; [CPU_] |201| 
         000001bc 00A4 
    2550 000001bd 87D6          MOVL      XT,*+XAR6[2]          ; [CPU_] |201| 
    2551 000001be 5605          IMPYL     P,XT,*+XAR4[0]        ; [CPU_] |201| 
         000001bf 00C4 
    2552 000001c0 5663          QMPYL     ACC,XT,*+XAR4[0]      ; [CPU_] |201| 
         000001c1 00C4 
    2553 000001c2 56A7          LSL64     ACC:P,#8              ; [CPU_] |201| 
    2554 000001c3 87E6          MOVL      XT,*+XAR6[4]          ; [CPU_] |201| 
    2555 000001c4 8EA9          MOVL      XAR0,ACC              ; [CPU_] |201| 
    2556 000001c5 5605          IMPYL     P,XT,*+XAR6[6]        ; [CPU_] |201| 
         000001c6 00F6 
    2557 000001c7 5663          QMPYL     ACC,XT,*+XAR6[6]      ; [CPU_] |201| 
         000001c8 00F6 
    2558 000001c9 56A7          LSL64     ACC:P,#8              ; [CPU_] |201| 
    2559 000001ca 87C6          MOVL      XT,*+XAR6[0]          ; [CPU_] |201| 
    2560 000001cb 07A0          ADDL      ACC,XAR0              ; [CPU_] |201| 
    2561 000001cc 82A9          MOVL      XAR3,ACC              ; [CPU_] |201| 
    2562 000001cd D008          MOVB      XAR0,#8               ; [CPU_] |201| 
    2563 000001ce 5605          IMPYL     P,XT,*+XAR6[AR0]      ; [CPU_] |201| 
         000001cf 0096 
    2564 000001d0 5663          QMPYL     ACC,XT,*+XAR6[AR0]    ; [CPU_] |201| 
         000001d1 0096 
    2565 000001d2 56A7          LSL64     ACC:P,#8              ; [CPU_] |201| 
    2566 000001d3 5641          SUBL      XAR3,ACC              ; [CPU_] |201| 
         000001d4 00A3 
    2567                      .dwpsn  file "C:/ti/motorware/motorware_1_01_00_14/sw/modules/filter/src/32b/filter_fo.h",line 206,co
TMS320C2000 Assembler PC v6.4.4 Wed Jul 08 12:49:31 2015

Tools Copyright (c) 1996-2015 Texas Instruments Incorporated
C:\Users\grant\AppData\Local\Temp\0448010                            PAGE   51

    2568 000001d5 A3C4          MOVL      P,*+XAR4[0]           ; [CPU_] |206| 
    2569                      .dwpsn  file "C:/ti/motorware/motorware_1_01_00_14/sw/modules/filter/src/32b/filter_fo.h",line 207,co
    2570 000001d6 D008          MOVB      XAR0,#8               ; [CPU_] |207| 
    2571                      .dwpsn  file "C:/ti/motorware/motorware_1_01_00_14/sw/modules/filter/src/32b/filter_fo.h",line 206,co
    2572 000001d7 A9F6          MOVL      *+XAR6[6],P           ; [CPU_] |206| 
    2573                      .dwpsn  file "C:/ti/motorware/motorware_1_01_00_14/sw/modules/filter/src/32b/filter_fo.h",line 207,co
    2574 000001d8 A296          MOVL      *+XAR6[AR0],XAR3      ; [CPU_] |207| 
    2575                      .dwpsn  file "C:/ti/motorware/motorware_1_01_00_14/sw/modules/offset/src/32b/offset.h",line 141,colum
    2576 000001d9 A2C7          MOVL      *+XAR7[0],XAR3        ; [CPU_] |141| 
    2577                      .dwpsn  file "C:/ti/motorware/motorware_1_01_00_14/sw/modules/hal/boards/boostxldrv8301_revB/f28x/f28
    2578 000001da 0A69          INC       *-SP[41]              ; [CPU_] |209| 
    2579                      .dwpsn  file "C:/ti/motorware/motorware_1_01_00_14/sw/modules/offset/src/32b/offset.h",line 141,colum
    2580 000001db 9269          MOV       AL,*-SP[41]           ; [CPU_] |141| 
    2581                      .dwpsn  file "C:/ti/motorware/motorware_1_01_00_14/sw/modules/hal/boards/boostxldrv8301_revB/f28x/f28
    2582 000001dc 6F96          B         $C$L15,UNC            ; [CPU_] |209| 
    2583                      ; branch occurs ; [] |209| 
    2584 000001dd       $C$L19:    
    2585 000001dd 761F-         MOVW      DP,#_ctrlHandle       ; [CPU_U] 
         000001de 0000 
    2586                      .dwpsn  file "../proj_lab20.c",line 564,column 9,is_stmt,isa 0
    2587 000001df 8A16-         MOVL      XAR4,@_ctrlHandle     ; [CPU_] |564| 
    2588 000001e0 82A4          MOVL      XAR3,XAR4             ; [CPU_] |564| 
    2589                      .dwpsn  file "C:/ti/motorware/motorware_1_01_00_14/sw/modules/ctrl/src/32b/ctrl.h",line 263,column 3,
    2590 000001e1 D0F4          MOVB      XAR0,#244             ; [CPU_] |263| 
    2591 000001e2 9293          MOV       AL,*+XAR3[AR0]        ; [CPU_] |263| 
    2592 000001e3 EC49          BF        $C$L20,EQ             ; [CPU_] |263| 
    2593                      ; branchcc occurs ; [] |263| 
    2594                      .dwpsn  file "C:/ti/motorware/motorware_1_01_00_14/sw/modules/ctrl/src/32b/ctrl.h",line 2075,column 3
    2595 000001e4 D09E          MOVB      XAR0,#158             ; [CPU_] |2075| 
    2596 000001e5 9293          MOV       AL,*+XAR3[AR0]        ; [CPU_] |2075| 
    2597 000001e6 D0EE          MOVB      XAR0,#238             ; [CPU_] |2075| 
    2598 000001e7 5493          CMP       AL,*+XAR3[AR0]        ; [CPU_] |2075| 
    2599 000001e8 56C6          BF        $C$L21,HI             ; [CPU_] |2075| 
         000001e9 004A 
    2600                      ; branchcc occurs ; [] |2075| 
    2601                      .dwpsn  file "C:/ti/motorware/motorware_1_01_00_14/sw/modules/ctrl/src/32b/ctrl.h",line 672,column 3,
    2602 000001ea A2A9          MOVL      ACC,XAR3              ; [CPU_] |672| 
    2603 000001eb FF18          ADD       ACC,#1 << 8           ; [CPU_] |672| 
         000001ec 0001 
    2604 000001ed 83A9          MOVL      XAR5,ACC              ; [CPU_] |672| 
    2605                      .dwpsn  file "C:/ti/motorware/motorware_1_01_00_14/sw/modules/ctrl/src/32b/ctrl.h",line 197,column 3,
    2606 000001ee A2A9          MOVL      ACC,XAR3              ; [CPU_] |197| 
    2607                      .dwpsn  file "C:/ti/motorware/motorware_1_01_00_14/sw/modules/ctrl/src/32b/ctrl.h",line 672,column 3,
    2608 000001ef C5C5          MOVL      XAR7,*+XAR5[0]        ; [CPU_] |672| 
    2609                      .dwpsn  file "C:/ti/motorware/motorware_1_01_00_14/sw/modules/ctrl/src/32b/ctrl.h",line 197,column 3,
    2610 000001f0 FF11          ADD       ACC,#129 << 1         ; [CPU_] |197| 
         000001f1 0081 
    2611 000001f2 83A9          MOVL      XAR5,ACC              ; [CPU_] |197| 
    2612                      .dwpsn  file "C:/ti/motorware/motorware_1_01_00_14/sw/modules/ctrl/src/32b/ctrl.h",line 760,column 3,
    2613 000001f3 A2A9          MOVL      ACC,XAR3              ; [CPU_] |760| 
    2614                      .dwpsn  file "C:/ti/motorware/motorware_1_01_00_14/sw/modules/ctrl/src/32b/ctrl.h",line 197,column 3,
    2615 000001f4 C4C5          MOVL      XAR6,*+XAR5[0]        ; [CPU_] |197| 
    2616                      .dwpsn  file "C:/ti/motorware/motorware_1_01_00_14/sw/modules/ctrl/src/32b/ctrl.h",line 760,column 3,
    2617 000001f5 FF12          ADD       ACC,#65 << 2          ; [CPU_] |760| 
         000001f6 0041 
TMS320C2000 Assembler PC v6.4.4 Wed Jul 08 12:49:31 2015

Tools Copyright (c) 1996-2015 Texas Instruments Incorporated
C:\Users\grant\AppData\Local\Temp\0448010                            PAGE   52

    2618 000001f7 83A9          MOVL      XAR5,ACC              ; [CPU_] |760| 
    2619                      .dwpsn  file "C:/ti/motorware/motorware_1_01_00_14/sw/modules/ctrl/src/32b/ctrl.h",line 1099,column 3
    2620 000001f8 D0EE          MOVB      XAR0,#238             ; [CPU_] |1099| 
    2621                      .dwpsn  file "C:/ti/motorware/motorware_1_01_00_14/sw/modules/ctrl/src/32b/ctrl.h",line 760,column 3,
    2622 000001f9 A3C5          MOVL      P,*+XAR5[0]           ; [CPU_] |760| 
    2623                      .dwpsn  file "C:/ti/motorware/motorware_1_01_00_14/sw/modules/ctrl/src/32b/ctrl.h",line 1099,column 3
    2624 000001fa 2B93          MOV       *+XAR3[AR0],#0        ; [CPU_] |1099| 
    2625                      .dwpsn  file "C:/ti/motorware/motorware_1_01_00_14/sw/modules/pid/src/32b/pid.h",line 358,column 16,i
    2626 000001fb D044          MOVB      XAR0,#68              ; [CPU_] |358| 
    2627 000001fc 8393          MOVL      XAR5,*+XAR3[AR0]      ; [CPU_] |358| 
    2628                      .dwpsn  file "C:/ti/motorware/motorware_1_01_00_14/sw/modules/ctrl/src/32b/ctrl.h",line 2526,column 1
    2629 000001fd A9A9          MOVL      ACC,P                 ; [CPU_] |2526| 
    2630 000001fe FF54          NEG       ACC                   ; [CPU_] |2526| 
    2631                      .dwpsn  file "C:/ti/motorware/motorware_1_01_00_14/sw/modules/pid/src/32b/pid.h",line 360,column 3,is
    2632 000001ff D00C          MOVB      XAR0,#12              ; [CPU_] |360| 
    2633 00000200 1E95          MOVL      *+XAR5[AR0],ACC       ; [CPU_] |360| 
    2634                      .dwpsn  file "C:/ti/motorware/motorware_1_01_00_14/sw/modules/pid/src/32b/pid.h",line 361,column 3,is
    2635 00000201 D00E          MOVB      XAR0,#14              ; [CPU_] |361| 
    2636                      .dwpsn  file "C:/ti/motorware/motorware_1_01_00_14/sw/modules/pid/src/32b/pid.h",line 270,column 3,is
    2637 00000202 06A7          MOVL      ACC,XAR7              ; [CPU_] |270| 
    2638                      .dwpsn  file "C:/ti/motorware/motorware_1_01_00_14/sw/modules/pid/src/32b/pid.h",line 361,column 3,is
    2639 00000203 A995          MOVL      *+XAR5[AR0],P         ; [CPU_] |361| 
    2640                      .dwpsn  file "C:/ti/motorware/motorware_1_01_00_14/sw/modules/pid/src/32b/pid.h",line 262,column 16,i
    2641 00000204 D044          MOVB      XAR0,#68              ; [CPU_] |262| 
    2642 00000205 8393          MOVL      XAR5,*+XAR3[AR0]      ; [CPU_] |262| 
    2643                      .dwpsn  file "C:/ti/motorware/motorware_1_01_00_14/sw/modules/pid/src/32b/pid.h",line 270,column 3,is
    2644 00000206 03A6          SUBL      ACC,XAR6              ; [CPU_] |270| 
    2645 00000207 8EA9          MOVL      XAR0,ACC              ; [CPU_] |270| 
    2646                      .dwpsn  file "C:/ti/motorware/motorware_1_01_00_14/sw/modules/pid/src/32b/pid.h",line 271,column 3,is
    2647 00000208 D10E          MOVB      XAR1,#14              ; [CPU_] |271| 
    2648                      .dwpsn  file "C:/ti/motorware/motorware_1_01_00_14/sw/modules/pid/src/32b/pid.h",line 270,column 3,is
    2649 00000209 87C5          MOVL      XT,*+XAR5[0]          ; [CPU_] |270| 
    2650 0000020a 5663          QMPYL     ACC,XT,XAR0           ; [CPU_] |270| 
         0000020b 00A0 
    2651 0000020c 5605          IMPYL     P,XT,XAR0             ; [CPU_] |270| 
         0000020d 00A0 
    2652 0000020e 56A7          LSL64     ACC:P,#8              ; [CPU_] |270| 
    2653 0000020f 1E6E          MOVL      *-SP[46],ACC          ; [CPU_] |270| 
    2654                      .dwpsn  file "C:/ti/motorware/motorware_1_01_00_14/sw/modules/pid/src/32b/pid.h",line 271,column 3,is
    2655 00000210 87D5          MOVL      XT,*+XAR5[2]          ; [CPU_] |271| 
    2656 00000211 5605          IMPYL     P,XT,XAR0             ; [CPU_] |271| 
         00000212 00A0 
    2657 00000213 5663          QMPYL     ACC,XT,XAR0           ; [CPU_] |271| 
         00000214 00A0 
    2658 00000215 D00C          MOVB      XAR0,#12              ; [CPU_] |271| 
    2659 00000216 56A7          LSL64     ACC:P,#8              ; [CPU_] |271| 
    2660 00000217 07F5          ADDL      ACC,*+XAR5[6]         ; [CPU_] |271| 
    2661 00000218 5650          MINL      ACC,*+XAR5[AR1]       ; [CPU_] |271| 
         00000219 009D 
    2662 0000021a 5661          MAXL      ACC,*+XAR5[AR0]       ; [CPU_] |271| 
         0000021b 0095 
    2663                      .dwpsn  file "C:/ti/motorware/motorware_1_01_00_14/sw/modules/pid/src/32b/pid.h",line 274,column 3,is
    2664 0000021c D008          MOVB      XAR0,#8               ; [CPU_] |274| 
    2665                      .dwpsn  file "C:/ti/motorware/motorware_1_01_00_14/sw/modules/pid/src/32b/pid.h",line 273,column 3,is
    2666 0000021d 1EF5          MOVL      *+XAR5[6],ACC         ; [CPU_] |273| 
TMS320C2000 Assembler PC v6.4.4 Wed Jul 08 12:49:31 2015

Tools Copyright (c) 1996-2015 Texas Instruments Incorporated
C:\Users\grant\AppData\Local\Temp\0448010                            PAGE   53

    2667                      .dwpsn  file "C:/ti/motorware/motorware_1_01_00_14/sw/modules/pid/src/32b/pid.h",line 274,column 3,is
    2668 0000021e C395          MOVL      *+XAR5[AR0],XAR7      ; [CPU_] |274| 
    2669                      .dwpsn  file "C:/ti/motorware/motorware_1_01_00_14/sw/modules/pid/src/32b/pid.h",line 275,column 3,is
    2670 0000021f D00A          MOVB      XAR0,#10              ; [CPU_] |275| 
    2671 00000220 C295          MOVL      *+XAR5[AR0],XAR6      ; [CPU_] |275| 
    2672                      .dwpsn  file "C:/ti/motorware/motorware_1_01_00_14/sw/modules/pid/src/32b/pid.h",line 277,column 3,is
    2673 00000221 C46E          MOVL      XAR6,*-SP[46]         ; [CPU_] |277| 
    2674 00000222 D10E          MOVB      XAR1,#14              ; [CPU_] |277| 
    2675 00000223 D00C          MOVB      XAR0,#12              ; [CPU_] |277| 
    2676 00000224 07A6          ADDL      ACC,XAR6              ; [CPU_] |277| 
    2677 00000225 5650          MINL      ACC,*+XAR5[AR1]       ; [CPU_] |277| 
         00000226 009D 
    2678 00000227 5661          MAXL      ACC,*+XAR5[AR0]       ; [CPU_] |277| 
         00000228 0095 
    2679 00000229 D0E4          MOVB      XAR0,#228             ; [CPU_] |277| 
    2680 0000022a 1E93          MOVL      *+XAR3[AR0],ACC       ; [CPU_] |277| 
    2681                      .dwpsn  file "C:/ti/motorware/motorware_1_01_00_14/sw/modules/pid/src/32b/pid.h",line 279,column 3,is
    2682 0000022b 6F07          B         $C$L21,UNC            ; [CPU_] |279| 
    2683                      ; branch occurs ; [] |279| 
    2684 0000022c       $C$L20:    
    2685                      .dwpsn  file "C:/ti/motorware/motorware_1_01_00_14/sw/modules/ctrl/src/32b/ctrl.h",line 1439,column 3
    2686 0000022c D0E4          MOVB      XAR0,#228             ; [CPU_] |1439| 
    2687 0000022d 0200          MOVB      ACC,#0                ; [CPU_] |1439| 
    2688 0000022e 1E93          MOVL      *+XAR3[AR0],ACC       ; [CPU_] |1439| 
    2689                      .dwpsn  file "C:/ti/motorware/motorware_1_01_00_14/sw/modules/pid/src/32b/pid.h",line 413,column 3,is
    2690 0000022f D044          MOVB      XAR0,#68              ; [CPU_] |413| 
    2691 00000230 8393          MOVL      XAR5,*+XAR3[AR0]      ; [CPU_] |413| 
    2692 00000231 1EF5          MOVL      *+XAR5[6],ACC         ; [CPU_] |413| 
    2693 00000232       $C$L21:    
    2694                      .dwpsn  file "C:/ti/motorware/motorware_1_01_00_14/sw/modules/ctrl/src/32b/ctrl.h",line 219,column 3,
    2695 00000232 A2A9          MOVL      ACC,XAR3              ; [CPU_] |219| 
    2696 00000233 FF11          ADD       ACC,#131 << 1         ; [CPU_] |219| 
         00000234 0083 
    2697 00000235 83A9          MOVL      XAR5,ACC              ; [CPU_] |219| 
    2698 00000236 92C5          MOV       AL,*+XAR5[0]          ; [CPU_] |219| 
    2699 00000237 56C1          BF        $C$L26,EQ             ; [CPU_] |219| 
         00000238 00CD 
    2700                      ; branchcc occurs ; [] |219| 
    2701 00000239 D09D          MOVB      XAR0,#157             ; [CPU_] |219| 
    2702 0000023a 9293          MOV       AL,*+XAR3[AR0]        ; [CPU_] |219| 
    2703 0000023b D0EC          MOVB      XAR0,#236             ; [CPU_] |219| 
    2704 0000023c 5493          CMP       AL,*+XAR3[AR0]        ; [CPU_] |219| 
    2705 0000023d 56C6          BF        $C$L26,HI             ; [CPU_] |219| 
         0000023e 00C7 
    2706                      ; branchcc occurs ; [] |219| 
    2707                      .dwpsn  file "C:/ti/motorware/motorware_1_01_00_14/sw/modules/ctrl/src/32b/ctrl.h",line 517,column 3,
    2708 0000023f D0CA          MOVB      XAR0,#202             ; [CPU_] |517| 
    2709 00000240 8B93          MOVL      XAR1,*+XAR3[AR0]      ; [CPU_] |517| 
    2710 00000241 D0CC          MOVB      XAR0,#204             ; [CPU_] |517| 
    2711 00000242 0693          MOVL      ACC,*+XAR3[AR0]       ; [CPU_] |517| 
    2712                      .dwpsn  file "C:/ti/motorware/motorware_1_01_00_14/sw/modules/ctrl/src/32b/ctrl.h",line 545,column 3,
    2713 00000243 D0A8          MOVB      XAR0,#168             ; [CPU_] |545| 
    2714                      .dwpsn  file "C:/ti/motorware/motorware_1_01_00_14/sw/modules/ctrl/src/32b/ctrl.h",line 517,column 3,
    2715 00000244 1E70          MOVL      *-SP[48],ACC          ; [CPU_] |517| 
    2716                      .dwpsn  file "C:/ti/motorware/motorware_1_01_00_14/sw/modules/ctrl/src/32b/ctrl.h",line 545,column 3,
TMS320C2000 Assembler PC v6.4.4 Wed Jul 08 12:49:31 2015

Tools Copyright (c) 1996-2015 Texas Instruments Incorporated
C:\Users\grant\AppData\Local\Temp\0448010                            PAGE   54

    2717 00000245 0693          MOVL      ACC,*+XAR3[AR0]       ; [CPU_] |545| 
    2718                      .dwpsn  file "C:/ti/motorware/motorware_1_01_00_14/sw/modules/ctrl/src/32b/ctrl.h",line 1075,column 3
    2719 00000246 D0EC          MOVB      XAR0,#236             ; [CPU_] |1075| 
    2720                      .dwpsn  file "C:/ti/motorware/motorware_1_01_00_14/sw/modules/ctrl/src/32b/ctrl.h",line 545,column 3,
    2721 00000247 1E72          MOVL      *-SP[50],ACC          ; [CPU_] |545| 
    2722                      .dwpsn  file "C:/ti/motorware/motorware_1_01_00_14/sw/modules/ctrl/src/32b/ctrl.h",line 1075,column 3
    2723 00000248 2B93          MOV       *+XAR3[AR0],#0        ; [CPU_] |1075| 
    2724                      .dwpsn  file "C:/ti/motorware/motorware_1_01_00_14/sw/modules/ctrl/src/32b/ctrl.h",line 230,column 3,
    2725 00000249 D0F1          MOVB      XAR0,#241             ; [CPU_] |230| 
    2726 0000024a 9293          MOV       AL,*+XAR3[AR0]        ; [CPU_] |230| 
    2727 0000024b EC0C          BF        $C$L22,EQ             ; [CPU_] |230| 
    2728                      ; branchcc occurs ; [] |230| 
    2729                      .dwpsn  file "C:/ti/motorware/motorware_1_01_00_14/sw/modules/ctrl/src/32b/ctrl.h",line 2567,column 6
    2730 0000024c D018          MOVB      XAR0,#24              ; [CPU_] |2567| 
    2731 0000024d 8A93          MOVL      XAR4,*+XAR3[AR0]      ; [CPU_] |2567| 
    2732              $C$DW$316       .dwtag  DW_TAG_TI_branch
    2733                      .dwattr $C$DW$316, DW_AT_low_pc(0x00)
    2734                      .dwattr $C$DW$316, DW_AT_name("_EST_getOneOverDcBus_pu")
    2735                      .dwattr $C$DW$316, DW_AT_TI_call
    2736 0000024e 7640!         LCR       #_EST_getOneOverDcBus_pu ; [CPU_] |2567| 
         0000024f 0000 
    2737                      ; call occurs [#_EST_getOneOverDcBus_pu] ; [] |2567| 
    2738 00000250 B2AC          MOVL      XT,XAR1               ; [CPU_] |2567| 
    2739 00000251 5605          IMPYL     P,XT,ACC              ; [CPU_] |2567| 
         00000252 00A9 
    2740 00000253 5663          QMPYL     ACC,XT,ACC            ; [CPU_] |2567| 
         00000254 00A9 
    2741 00000255 56A7          LSL64     ACC:P,#8              ; [CPU_] |2567| 
    2742 00000256 8BA9          MOVL      XAR1,ACC              ; [CPU_] |2567| 
    2743 00000257       $C$L22:    
    2744                      .dwpsn  file "C:/ti/motorware/motorware_1_01_00_14/sw/modules/pid/src/32b/pid.h",line 346,column 3,is
    2745 00000257 D020          MOVB      XAR0,#32              ; [CPU_] |346| 
    2746 00000258 8A93          MOVL      XAR4,*+XAR3[AR0]      ; [CPU_] |346| 
    2747                      .dwpsn  file "C:/ti/motorware/motorware_1_01_00_14/sw/modules/ctrl/src/32b/ctrl.h",line 2573,column 5
    2748 00000259 A2A9          MOVL      ACC,XAR3              ; [CPU_] |2573| 
    2749                      .dwpsn  file "C:/ti/motorware/motorware_1_01_00_14/sw/modules/ctrl/src/32b/ctrl.h",line 655,column 5,
    2750 0000025a D0F4          MOVB      XAR0,#244             ; [CPU_] |655| 
    2751                      .dwpsn  file "C:/ti/motorware/motorware_1_01_00_14/sw/modules/ctrl/src/32b/ctrl.h",line 2573,column 5
    2752 0000025b 09E2          ADDB      ACC,#226              ; [CPU_] |2573| 
    2753                      .dwpsn  file "C:/ti/motorware/motorware_1_01_00_14/sw/modules/pid/src/32b/pid.h",line 346,column 3,is
    2754 0000025c B2C4          MOVL      *+XAR4[0],XAR1        ; [CPU_] |346| 
    2755                      .dwpsn  file "C:/ti/motorware/motorware_1_01_00_14/sw/modules/ctrl/src/32b/ctrl.h",line 2573,column 5
    2756 0000025d 8AA9          MOVL      XAR4,ACC              ; [CPU_] |2573| 
    2757                      .dwpsn  file "C:/ti/motorware/motorware_1_01_00_14/sw/modules/ctrl/src/32b/ctrl.h",line 655,column 5,
    2758 0000025e 9293          MOV       AL,*+XAR3[AR0]        ; [CPU_] |655| 
    2759 0000025f EC05          BF        $C$L23,EQ             ; [CPU_] |655| 
    2760                      ; branchcc occurs ; [] |655| 
    2761 00000260 D014          MOVB      XAR0,#20              ; [CPU_] |655| 
    2762 00000261 0694          MOVL      ACC,*+XAR4[AR0]       ; [CPU_] |655| 
    2763 00000262 07C4          ADDL      ACC,*+XAR4[0]         ; [CPU_] |655| 
    2764 00000263 6F03          B         $C$L24,UNC            ; [CPU_] |655| 
    2765                      ; branch occurs ; [] |655| 
    2766 00000264       $C$L23:    
    2767 00000264 D0F6          MOVB      XAR0,#246             ; [CPU_] |655| 
    2768 00000265 0693          MOVL      ACC,*+XAR3[AR0]       ; [CPU_] |655| 
TMS320C2000 Assembler PC v6.4.4 Wed Jul 08 12:49:31 2015

Tools Copyright (c) 1996-2015 Texas Instruments Incorporated
C:\Users\grant\AppData\Local\Temp\0448010                            PAGE   55

    2769 00000266       $C$L24:    
    2770                      .dwpsn  file "C:/ti/motorware/motorware_1_01_00_14/sw/modules/ctrl/src/32b/ctrl.h",line 2576,column 5
    2771 00000266 5DAD          MOVZ      AR5,SP                ; [CPU_] |2576| 
    2772                      .dwpsn  file "C:/ti/motorware/motorware_1_01_00_14/sw/modules/ctrl/src/32b/ctrl.h",line 662,column 3,
    2773 00000267 1E4C          MOVL      *-SP[12],ACC          ; [CPU_] |662| 
    2774                      .dwpsn  file "C:/ti/motorware/motorware_1_01_00_14/sw/modules/ctrl/src/32b/ctrl.h",line 2576,column 5
    2775 00000268 D018          MOVB      XAR0,#24              ; [CPU_] |2576| 
    2776 00000269 8A93          MOVL      XAR4,*+XAR3[AR0]      ; [CPU_] |2576| 
    2777 0000026a DD8C          SUBB      XAR5,#12              ; [CPU_U] |2576| 
    2778 0000026b 5DA5          MOVZ      AR5,AR5               ; [CPU_] |2576| 
    2779              $C$DW$317       .dwtag  DW_TAG_TI_branch
    2780                      .dwattr $C$DW$317, DW_AT_low_pc(0x00)
    2781                      .dwattr $C$DW$317, DW_AT_name("_EST_updateId_ref_pu")
    2782                      .dwattr $C$DW$317, DW_AT_TI_call
    2783 0000026c 7640!         LCR       #_EST_updateId_ref_pu ; [CPU_] |2576| 
         0000026d 0000 
    2784                      ; call occurs [#_EST_updateId_ref_pu] ; [] |2576| 
    2785                      .dwpsn  file "C:/ti/motorware/motorware_1_01_00_14/sw/modules/ctrl/src/32b/ctrl.h",line 329,column 3,
    2786 0000026e D0B2          MOVB      XAR0,#178             ; [CPU_] |329| 
    2787                      .dwpsn  file "C:/ti/motorware/motorware_1_01_00_14/sw/modules/pid/src/32b/pid.h",line 358,column 16,i
    2788 0000026f C572          MOVL      XAR7,*-SP[50]         ; [CPU_] |358| 
    2789                      .dwpsn  file "C:/ti/motorware/motorware_1_01_00_14/sw/modules/ctrl/src/32b/ctrl.h",line 329,column 3,
    2790 00000270 C493          MOVL      XAR6,*+XAR3[AR0]      ; [CPU_] |329| 
    2791                      .dwpsn  file "C:/ti/motorware/motorware_1_01_00_14/sw/modules/pid/src/32b/pid.h",line 358,column 16,i
    2792 00000271 D020          MOVB      XAR0,#32              ; [CPU_] |358| 
    2793 00000272 8A93          MOVL      XAR4,*+XAR3[AR0]      ; [CPU_] |358| 
    2794                      .dwpsn  file "C:/ti/motorware/motorware_1_01_00_14/sw/modules/pid/src/32b/pid.h",line 360,column 3,is
    2795 00000273 06A7          MOVL      ACC,XAR7              ; [CPU_] |360| 
    2796 00000274 D00C          MOVB      XAR0,#12              ; [CPU_] |360| 
    2797 00000275 FF54          NEG       ACC                   ; [CPU_] |360| 
    2798 00000276 1E6E          MOVL      *-SP[46],ACC          ; [CPU_] |360| 
    2799 00000277 1E94          MOVL      *+XAR4[AR0],ACC       ; [CPU_] |360| 
    2800                      .dwpsn  file "C:/ti/motorware/motorware_1_01_00_14/sw/modules/pid/src/32b/pid.h",line 361,column 3,is
    2801 00000278 D00E          MOVB      XAR0,#14              ; [CPU_] |361| 
    2802 00000279 C394          MOVL      *+XAR4[AR0],XAR7      ; [CPU_] |361| 
    2803                      .dwpsn  file "C:/ti/motorware/motorware_1_01_00_14/sw/modules/pid/src/32b/pid.h",line 233,column 16,i
    2804 0000027a D020          MOVB      XAR0,#32              ; [CPU_] |233| 
    2805 0000027b 8A93          MOVL      XAR4,*+XAR3[AR0]      ; [CPU_] |233| 
    2806                      .dwpsn  file "C:/ti/motorware/motorware_1_01_00_14/sw/modules/pid/src/32b/pid.h",line 242,column 3,is
    2807 0000027c 064C          MOVL      ACC,*-SP[12]          ; [CPU_] |242| 
    2808 0000027d 03A6          SUBL      ACC,XAR6              ; [CPU_] |242| 
    2809 0000027e 87C4          MOVL      XT,*+XAR4[0]          ; [CPU_] |242| 
    2810 0000027f 5605          IMPYL     P,XT,ACC              ; [CPU_] |242| 
         00000280 00A9 
    2811 00000281 5663          QMPYL     ACC,XT,ACC            ; [CPU_] |242| 
         00000282 00A9 
    2812 00000283 56A7          LSL64     ACC:P,#8              ; [CPU_] |242| 
    2813 00000284 1EA7          MOVL      XAR7,ACC              ; [CPU_] |242| 
    2814                      .dwpsn  file "C:/ti/motorware/motorware_1_01_00_14/sw/modules/pid/src/32b/pid.h",line 243,column 3,is
    2815 00000285 87D4          MOVL      XT,*+XAR4[2]          ; [CPU_] |243| 
    2816 00000286 D10E          MOVB      XAR1,#14              ; [CPU_] |243| 
    2817 00000287 D00C          MOVB      XAR0,#12              ; [CPU_] |243| 
    2818 00000288 5605          IMPYL     P,XT,XAR7             ; [CPU_] |243| 
         00000289 00A7 
    2819 0000028a 5663          QMPYL     ACC,XT,XAR7           ; [CPU_] |243| 
TMS320C2000 Assembler PC v6.4.4 Wed Jul 08 12:49:31 2015

Tools Copyright (c) 1996-2015 Texas Instruments Incorporated
C:\Users\grant\AppData\Local\Temp\0448010                            PAGE   56

         0000028b 00A7 
    2820 0000028c 56A7          LSL64     ACC:P,#8              ; [CPU_] |243| 
    2821 0000028d 07F4          ADDL      ACC,*+XAR4[6]         ; [CPU_] |243| 
    2822 0000028e 5650          MINL      ACC,*+XAR4[AR1]       ; [CPU_] |243| 
         0000028f 009C 
    2823                      .dwpsn  file "C:/ti/motorware/motorware_1_01_00_14/sw/modules/pid/src/32b/pid.h",line 249,column 3,is
    2824 00000290 D10E          MOVB      XAR1,#14              ; [CPU_] |249| 
    2825                      .dwpsn  file "C:/ti/motorware/motorware_1_01_00_14/sw/modules/pid/src/32b/pid.h",line 243,column 3,is
    2826 00000291 5661          MAXL      ACC,*+XAR4[AR0]       ; [CPU_] |243| 
         00000292 0094 
    2827                      .dwpsn  file "C:/ti/motorware/motorware_1_01_00_14/sw/modules/pid/src/32b/pid.h",line 246,column 3,is
    2828 00000293 D008          MOVB      XAR0,#8               ; [CPU_] |246| 
    2829                      .dwpsn  file "C:/ti/motorware/motorware_1_01_00_14/sw/modules/pid/src/32b/pid.h",line 245,column 3,is
    2830 00000294 1EF4          MOVL      *+XAR4[6],ACC         ; [CPU_] |245| 
    2831                      .dwpsn  file "C:/ti/motorware/motorware_1_01_00_14/sw/modules/pid/src/32b/pid.h",line 246,column 3,is
    2832 00000295 A34C          MOVL      P,*-SP[12]            ; [CPU_] |246| 
    2833                      .dwpsn  file "C:/ti/motorware/motorware_1_01_00_14/sw/modules/pid/src/32b/pid.h",line 249,column 3,is
    2834 00000296 07A7          ADDL      ACC,XAR7              ; [CPU_] |249| 
    2835                      .dwpsn  file "C:/ti/motorware/motorware_1_01_00_14/sw/modules/pid/src/32b/pid.h",line 246,column 3,is
    2836 00000297 A994          MOVL      *+XAR4[AR0],P         ; [CPU_] |246| 
    2837                      .dwpsn  file "C:/ti/motorware/motorware_1_01_00_14/sw/modules/pid/src/32b/pid.h",line 247,column 3,is
    2838 00000298 D00A          MOVB      XAR0,#10              ; [CPU_] |247| 
    2839 00000299 C294          MOVL      *+XAR4[AR0],XAR6      ; [CPU_] |247| 
    2840                      .dwpsn  file "C:/ti/motorware/motorware_1_01_00_14/sw/modules/pid/src/32b/pid.h",line 249,column 3,is
    2841 0000029a D00C          MOVB      XAR0,#12              ; [CPU_] |249| 
    2842 0000029b 5650          MINL      ACC,*+XAR4[AR1]       ; [CPU_] |249| 
         0000029c 009C 
    2843 0000029d 5661          MAXL      ACC,*+XAR4[AR0]       ; [CPU_] |249| 
         0000029e 0094 
    2844 0000029f D0C0          MOVB      XAR0,#192             ; [CPU_] |249| 
    2845 000002a0 1E93          MOVL      *+XAR3[AR0],ACC       ; [CPU_] |249| 
    2846                      .dwpsn  file "C:/ti/motorware/motorware_1_01_00_14/sw/modules/ctrl/src/32b/ctrl.h",line 2591,column 5
    2847 000002a1 064C          MOVL      ACC,*-SP[12]          ; [CPU_] |2591| 
    2848 000002a2 D018          MOVB      XAR0,#24              ; [CPU_] |2591| 
    2849 000002a3 8A93          MOVL      XAR4,*+XAR3[AR0]      ; [CPU_] |2591| 
    2850              $C$DW$318       .dwtag  DW_TAG_TI_branch
    2851                      .dwattr $C$DW$318, DW_AT_low_pc(0x00)
    2852                      .dwattr $C$DW$318, DW_AT_name("_EST_setId_ref_pu")
    2853                      .dwattr $C$DW$318, DW_AT_TI_call
    2854 000002a4 7640!         LCR       #_EST_setId_ref_pu    ; [CPU_] |2591| 
         000002a5 0000 
    2855                      ; call occurs [#_EST_setId_ref_pu] ; [] |2591| 
    2856                      .dwpsn  file "C:/ti/motorware/motorware_1_01_00_14/sw/modules/ctrl/src/32b/ctrl.h",line 230,column 3,
    2857 000002a6 D0F1          MOVB      XAR0,#241             ; [CPU_] |230| 
    2858 000002a7 9293          MOV       AL,*+XAR3[AR0]        ; [CPU_] |230| 
    2859 000002a8 EC0C          BF        $C$L25,EQ             ; [CPU_] |230| 
    2860                      ; branchcc occurs ; [] |230| 
    2861                      .dwpsn  file "C:/ti/motorware/motorware_1_01_00_14/sw/modules/ctrl/src/32b/ctrl.h",line 2600,column 6
    2862 000002a9 D018          MOVB      XAR0,#24              ; [CPU_] |2600| 
    2863 000002aa 8A93          MOVL      XAR4,*+XAR3[AR0]      ; [CPU_] |2600| 
    2864              $C$DW$319       .dwtag  DW_TAG_TI_branch
    2865                      .dwattr $C$DW$319, DW_AT_low_pc(0x00)
    2866                      .dwattr $C$DW$319, DW_AT_name("_EST_getOneOverDcBus_pu")
    2867                      .dwattr $C$DW$319, DW_AT_TI_call
    2868 000002ab 7640!         LCR       #_EST_getOneOverDcBus_pu ; [CPU_] |2600| 
TMS320C2000 Assembler PC v6.4.4 Wed Jul 08 12:49:31 2015

Tools Copyright (c) 1996-2015 Texas Instruments Incorporated
C:\Users\grant\AppData\Local\Temp\0448010                            PAGE   57

         000002ac 0000 
    2869                      ; call occurs [#_EST_getOneOverDcBus_pu] ; [] |2600| 
    2870 000002ad 8770          MOVL      XT,*-SP[48]           ; [CPU_] |2600| 
    2871 000002ae 5605          IMPYL     P,XT,ACC              ; [CPU_] |2600| 
         000002af 00A9 
    2872 000002b0 5663          QMPYL     ACC,XT,ACC            ; [CPU_] |2600| 
         000002b1 00A9 
    2873 000002b2 56A7          LSL64     ACC:P,#8              ; [CPU_] |2600| 
    2874 000002b3 1E70          MOVL      *-SP[48],ACC          ; [CPU_] |2600| 
    2875 000002b4       $C$L25:    
    2876                      .dwpsn  file "C:/ti/motorware/motorware_1_01_00_14/sw/modules/pid/src/32b/pid.h",line 346,column 3,is
    2877 000002b4 D032          MOVB      XAR0,#50              ; [CPU_] |346| 
    2878 000002b5 8A93          MOVL      XAR4,*+XAR3[AR0]      ; [CPU_] |346| 
    2879 000002b6 0670          MOVL      ACC,*-SP[48]          ; [CPU_] |346| 
    2880                      .dwpsn  file "C:/ti/motorware/motorware_1_01_00_14/sw/modules/ctrl/src/32b/ctrl.h",line 428,column 3,
    2881 000002b7 D1F8          MOVB      XAR1,#248             ; [CPU_] |428| 
    2882 000002b8 D0E4          MOVB      XAR0,#228             ; [CPU_] |428| 
    2883                      .dwpsn  file "C:/ti/motorware/motorware_1_01_00_14/sw/modules/pid/src/32b/pid.h",line 346,column 3,is
    2884 000002b9 1EC4          MOVL      *+XAR4[0],ACC         ; [CPU_] |346| 
    2885                      .dwpsn  file "C:/ti/motorware/motorware_1_01_00_14/sw/modules/ctrl/src/32b/ctrl.h",line 428,column 3,
    2886 000002ba 069B          MOVL      ACC,*+XAR3[AR1]       ; [CPU_] |428| 
    2887 000002bb 0793          ADDL      ACC,*+XAR3[AR0]       ; [CPU_] |428| 
    2888                      .dwpsn  file "C:/ti/motorware/motorware_1_01_00_14/sw/modules/ctrl/src/32b/ctrl.h",line 396,column 3,
    2889 000002bc D0B4          MOVB      XAR0,#180             ; [CPU_] |396| 
    2890                      .dwpsn  file "C:/ti/motorware/motorware_1_01_00_14/sw/modules/ctrl/src/32b/ctrl.h",line 428,column 3,
    2891 000002bd 1E4C          MOVL      *-SP[12],ACC          ; [CPU_] |428| 
    2892                      .dwpsn  file "C:/ti/motorware/motorware_1_01_00_14/sw/modules/ctrl/src/32b/ctrl.h",line 396,column 3,
    2893 000002be C593          MOVL      XAR7,*+XAR3[AR0]      ; [CPU_] |396| 
    2894                      .dwpsn  file "C:/ti/motorware/motorware_1_01_00_14/sw/modules/pid/src/32b/pid.h",line 358,column 16,i
    2895 000002bf D032          MOVB      XAR0,#50              ; [CPU_] |358| 
    2896 000002c0 8A93          MOVL      XAR4,*+XAR3[AR0]      ; [CPU_] |358| 
    2897                      .dwpsn  file "C:/ti/motorware/motorware_1_01_00_14/sw/modules/pid/src/32b/pid.h",line 360,column 3,is
    2898 000002c1 066E          MOVL      ACC,*-SP[46]          ; [CPU_] |360| 
    2899 000002c2 D00C          MOVB      XAR0,#12              ; [CPU_] |360| 
    2900 000002c3 1E94          MOVL      *+XAR4[AR0],ACC       ; [CPU_] |360| 
    2901                      .dwpsn  file "C:/ti/motorware/motorware_1_01_00_14/sw/modules/pid/src/32b/pid.h",line 361,column 3,is
    2902 000002c4 D00E          MOVB      XAR0,#14              ; [CPU_] |361| 
    2903 000002c5 0672          MOVL      ACC,*-SP[50]          ; [CPU_] |361| 
    2904 000002c6 1E94          MOVL      *+XAR4[AR0],ACC       ; [CPU_] |361| 
    2905                      .dwpsn  file "C:/ti/motorware/motorware_1_01_00_14/sw/modules/ctrl/src/32b/ctrl.h",line 2618,column 5
    2906 000002c7 C44C          MOVL      XAR6,*-SP[12]         ; [CPU_] |2618| 
    2907                      .dwpsn  file "C:/ti/motorware/motorware_1_01_00_14/sw/modules/pid/src/32b/pid.h",line 233,column 16,i
    2908 000002c8 D032          MOVB      XAR0,#50              ; [CPU_] |233| 
    2909 000002c9 8A93          MOVL      XAR4,*+XAR3[AR0]      ; [CPU_] |233| 
    2910                      .dwpsn  file "C:/ti/motorware/motorware_1_01_00_14/sw/modules/pid/src/32b/pid.h",line 242,column 3,is
    2911 000002ca 06A6          MOVL      ACC,XAR6              ; [CPU_] |242| 
    2912 000002cb 87C4          MOVL      XT,*+XAR4[0]          ; [CPU_] |242| 
    2913 000002cc 03A7          SUBL      ACC,XAR7              ; [CPU_] |242| 
    2914 000002cd 5605          IMPYL     P,XT,ACC              ; [CPU_] |242| 
         000002ce 00A9 
    2915 000002cf 5663          QMPYL     ACC,XT,ACC            ; [CPU_] |242| 
         000002d0 00A9 
    2916 000002d1 56A7          LSL64     ACC:P,#8              ; [CPU_] |242| 
    2917 000002d2 83A9          MOVL      XAR5,ACC              ; [CPU_] |242| 
    2918                      .dwpsn  file "C:/ti/motorware/motorware_1_01_00_14/sw/modules/pid/src/32b/pid.h",line 243,column 3,is
TMS320C2000 Assembler PC v6.4.4 Wed Jul 08 12:49:31 2015

Tools Copyright (c) 1996-2015 Texas Instruments Incorporated
C:\Users\grant\AppData\Local\Temp\0448010                            PAGE   58

    2919 000002d3 D10E          MOVB      XAR1,#14              ; [CPU_] |243| 
    2920 000002d4 D00C          MOVB      XAR0,#12              ; [CPU_] |243| 
    2921 000002d5 87D4          MOVL      XT,*+XAR4[2]          ; [CPU_] |243| 
    2922 000002d6 5605          IMPYL     P,XT,XAR5             ; [CPU_] |243| 
         000002d7 00A5 
    2923 000002d8 5663          QMPYL     ACC,XT,XAR5           ; [CPU_] |243| 
         000002d9 00A5 
    2924 000002da 56A7          LSL64     ACC:P,#8              ; [CPU_] |243| 
    2925 000002db 07F4          ADDL      ACC,*+XAR4[6]         ; [CPU_] |243| 
    2926 000002dc 5650          MINL      ACC,*+XAR4[AR1]       ; [CPU_] |243| 
         000002dd 009C 
    2927                      .dwpsn  file "C:/ti/motorware/motorware_1_01_00_14/sw/modules/pid/src/32b/pid.h",line 249,column 3,is
    2928 000002de D10E          MOVB      XAR1,#14              ; [CPU_] |249| 
    2929                      .dwpsn  file "C:/ti/motorware/motorware_1_01_00_14/sw/modules/pid/src/32b/pid.h",line 243,column 3,is
    2930 000002df 5661          MAXL      ACC,*+XAR4[AR0]       ; [CPU_] |243| 
         000002e0 0094 
    2931                      .dwpsn  file "C:/ti/motorware/motorware_1_01_00_14/sw/modules/pid/src/32b/pid.h",line 246,column 3,is
    2932 000002e1 D008          MOVB      XAR0,#8               ; [CPU_] |246| 
    2933                      .dwpsn  file "C:/ti/motorware/motorware_1_01_00_14/sw/modules/pid/src/32b/pid.h",line 245,column 3,is
    2934 000002e2 1EF4          MOVL      *+XAR4[6],ACC         ; [CPU_] |245| 
    2935                      .dwpsn  file "C:/ti/motorware/motorware_1_01_00_14/sw/modules/pid/src/32b/pid.h",line 249,column 3,is
    2936 000002e3 07A5          ADDL      ACC,XAR5              ; [CPU_] |249| 
    2937                      .dwpsn  file "C:/ti/motorware/motorware_1_01_00_14/sw/modules/pid/src/32b/pid.h",line 246,column 3,is
    2938 000002e4 C294          MOVL      *+XAR4[AR0],XAR6      ; [CPU_] |246| 
    2939                      .dwpsn  file "C:/ti/motorware/motorware_1_01_00_14/sw/modules/pid/src/32b/pid.h",line 247,column 3,is
    2940 000002e5 D00A          MOVB      XAR0,#10              ; [CPU_] |247| 
    2941 000002e6 C394          MOVL      *+XAR4[AR0],XAR7      ; [CPU_] |247| 
    2942                      .dwpsn  file "C:/ti/motorware/motorware_1_01_00_14/sw/modules/pid/src/32b/pid.h",line 249,column 3,is
    2943 000002e7 D00C          MOVB      XAR0,#12              ; [CPU_] |249| 
    2944 000002e8 5650          MINL      ACC,*+XAR4[AR1]       ; [CPU_] |249| 
         000002e9 009C 
    2945 000002ea 5661          MAXL      ACC,*+XAR4[AR0]       ; [CPU_] |249| 
         000002eb 0094 
    2946 000002ec D0C2          MOVB      XAR0,#194             ; [CPU_] |249| 
    2947 000002ed 1E93          MOVL      *+XAR3[AR0],ACC       ; [CPU_] |249| 
    2948                      .dwpsn  file "C:/ti/motorware/motorware_1_01_00_14/sw/modules/ctrl/src/32b/ctrl.h",line 2621,column 5
    2949 000002ee D018          MOVB      XAR0,#24              ; [CPU_] |2621| 
    2950 000002ef 06A6          MOVL      ACC,XAR6              ; [CPU_] |2621| 
    2951 000002f0 8A93          MOVL      XAR4,*+XAR3[AR0]      ; [CPU_] |2621| 
    2952              $C$DW$320       .dwtag  DW_TAG_TI_branch
    2953                      .dwattr $C$DW$320, DW_AT_low_pc(0x00)
    2954                      .dwattr $C$DW$320, DW_AT_name("_EST_setIq_ref_pu")
    2955                      .dwattr $C$DW$320, DW_AT_TI_call
    2956 000002f1 7640!         LCR       #_EST_setIq_ref_pu    ; [CPU_] |2621| 
         000002f2 0000 
    2957                      ; call occurs [#_EST_setIq_ref_pu] ; [] |2621| 
    2958                      .dwpsn  file "C:/ti/motorware/motorware_1_01_00_14/sw/modules/ctrl/src/32b/ctrl.h",line 85,column 3,i
    2959 000002f3 A2A9          MOVL      ACC,XAR3              ; [CPU_] |85| 
    2960 000002f4 09C0          ADDB      ACC,#192              ; [CPU_] |85| 
    2961 000002f5 8AA9          MOVL      XAR4,ACC              ; [CPU_] |85| 
    2962 000002f6 D0FA          MOVB      XAR0,#250             ; [CPU_] |85| 
    2963 000002f7 0693          MOVL      ACC,*+XAR3[AR0]       ; [CPU_] |85| 
    2964 000002f8 5601          ADDL      *+XAR4[0],ACC         ; [CPU_] |85| 
         000002f9 00C4 
    2965                      .dwpsn  file "C:/ti/motorware/motorware_1_01_00_14/sw/modules/ctrl/src/32b/ctrl.h",line 86,column 3,i
TMS320C2000 Assembler PC v6.4.4 Wed Jul 08 12:49:31 2015

Tools Copyright (c) 1996-2015 Texas Instruments Incorporated
C:\Users\grant\AppData\Local\Temp\0448010                            PAGE   59

    2966 000002fa A2A9          MOVL      ACC,XAR3              ; [CPU_] |86| 
    2967 000002fb 09C2          ADDB      ACC,#194              ; [CPU_] |86| 
