TMS320C2000 Assembler PC v6.4.4 Wed Jul 08 12:49:31 2015

Tools Copyright (c) 1996-2015 Texas Instruments Incorporated
C:\Users\grant\AppData\Local\Temp\0448010                            PAGE    1

       1              ;***************************************************************
       2              ;* TMS320C2000 C/C++ Codegen                         PC v6.4.4 *
       3              ;* Date/Time created: Wed Jul 08 12:49:30 2015                 *
       4              ;***************************************************************
       5                      .compiler_opts --float_support=softlib --hll_source=on --mem_model:code=flat --mem_model:data=large -
       6        0002  FP      .set    XAR2
       7              
       8              $C$DW$CU        .dwtag  DW_TAG_compile_unit
       9                      .dwattr $C$DW$CU, DW_AT_name("../proj_lab20.c")
      10                      .dwattr $C$DW$CU, DW_AT_producer("TI TMS320C2000 C/C++ Codegen PC v6.4.4 Copyright (c) 1996-2015 Texa
      11                      .dwattr $C$DW$CU, DW_AT_TI_version(0x01)
      12                      .dwattr $C$DW$CU, DW_AT_comp_dir("C:\work\ws_ccs_motorware\foc_proj_lab20\Release")
      13              ;**************************************************************
      14              ;* CINIT RECORDS                                              *
      15              ;**************************************************************
      16 00000000               .sect   ".cinit"
      17                      .align  1
      18 00000000 FFFF          .field          -1,16
      19 00000001 0000-         .field          _gCounter_updateGlobals+0,32
         00000002 0000 
      20 00000003 0000          .bits   0,16                    ; _gCounter_updateGlobals @ 0
      21              
      22 00000004               .sect   ".cinit"
      23                      .align  1
      24 00000004 FFFF          .field          -1,16
      25 00000005 0001-         .field          _Flag_Latch_softwareUpdate+0,32
         00000006 0000 
      26 00000007 0001          .bits   1,16                    ; _Flag_Latch_softwareUpdate @ 0
      27              
      28 00000008               .sect   ".cinit"
      29                      .align  1
      30 00000008 FFFF          .field          -1,16
      31 00000009 0002-         .field          _gLEDcnt+0,32
         0000000a 0000 
      32 0000000b 0000          .bits   0,16                    ; _gLEDcnt @ 0
      33              
      34 0000000c               .sect   ".cinit"
      35                      .align  1
      36 0000000c FFFE          .field          -2,16
      37 0000000d 0008-         .field          _gMaxCurrentSlope+0,32
         0000000e 0000 
      38 0000000f 0000          .bits   0,32                    ; _gMaxCurrentSlope @ 0
         00000010 0000 
      39              
      40 00000011               .sect   ".cinit"
      41                      .align  1
      42 00000011 FFFA          .field          -$C$IR_1,16
      43 00000012 0040-         .field          _gPwmData+0,32
         00000013 0000 
      44 00000014 0000          .bits   0,32                    ; _gPwmData._Tabc._value[0] @ 0
         00000015 0000 
      45 00000016 0000          .bits   0,32                    ; _gPwmData._Tabc._value[1] @ 32
         00000017 0000 
      46 00000018 0000          .bits   0,32                    ; _gPwmData._Tabc._value[2] @ 64
         00000019 0000 
TMS320C2000 Assembler PC v6.4.4 Wed Jul 08 12:49:31 2015

Tools Copyright (c) 1996-2015 Texas Instruments Incorporated
C:\Users\grant\AppData\Local\Temp\0448010                            PAGE    2

      47        0006  $C$IR_1:        .set    6
      48              
      49 0000001a               .sect   ".cinit"
      50                      .align  1
      51 0000001a FF9A          .field          -$C$IR_2,16
      52 0000001b 0080-         .field          _gMotorVars+0,32
         0000001c 0000 
      53 0000001d 0000          .bits   0,16                    ; _gMotorVars._Flag_enableSys @ 0
      54 0000001e 0000          .bits   0,16                    ; _gMotorVars._Flag_Run_Identify @ 16
      55 0000001f 0000          .bits   0,16                    ; _gMotorVars._Flag_MotorIdentified @ 32
      56 00000020 0001          .bits   1,16                    ; _gMotorVars._Flag_enableForceAngle @ 48
      57 00000021 0000          .bits   0,16                    ; _gMotorVars._Flag_enableFieldWeakening @ 64
      58 00000022 0000          .bits   0,16                    ; _gMotorVars._Flag_enableRsRecalc @ 80
      59 00000023 0001          .bits   1,16                    ; _gMotorVars._Flag_enableUserParams @ 96
      60 00000024 0001          .bits   1,16                    ; _gMotorVars._Flag_enableOffsetcalc @ 112
      61 00000025 0000          .bits   0,16                    ; _gMotorVars._Flag_enablePowerWarp @ 128
      62 00000026 0000          .bits   0,16                    ; _gMotorVars._Flag_enableSpeedCtrl @ 144
      63 00000027 0001          .bits   1,16                    ; _gMotorVars._CtrlState @ 160
      64 00000028 0001          .bits   1,16                    ; _gMotorVars._EstState @ 176
      65 00000029 0000          .bits   0,16                    ; _gMotorVars._UserErrorCode @ 192
      66 0000002a 0000          .bits   0,16                    ; _gMotorVars._CtrlVersion._rsvd @ 208
      67 0000002b 0004          .bits   4,16                    ; _gMotorVars._CtrlVersion._targetProc @ 224
      68 0000002c 0000          .bits   0,16                    ; _gMotorVars._CtrlVersion._major @ 240
      69 0000002d 0000          .bits   0,16                    ; _gMotorVars._CtrlVersion._minor @ 256
      70 0000002e               .space  16
      71 0000002f 0000          .bits   0,32                    ; _gMotorVars._IdRef_A @ 288
         00000030 0000 
      72 00000031 0000          .bits   0,32                    ; _gMotorVars._IqRef_A @ 320
         00000032 0000 
      73 00000033 9999          .bits   1677721,32                      ; _gMotorVars._SpeedRef_krpm @ 352
         00000034 0019 
      74 00000035 0000          .bits   0,32                    ; _gMotorVars._SpeedTraj_krpm @ 384
         00000036 0000 
      75 00000037 3333          .bits   3355443,32                      ; _gMotorVars._MaxAccel_krpmps @ 416
         00000038 0033 
      76 00000039 0000          .bits   0,32                    ; _gMotorVars._Speed_krpm @ 448
         0000003a 0000 
      77 0000003b 0000          .bits   16777216,32                     ; _gMotorVars._OverModulation @ 480
         0000003c 0100 
      78 0000003d 3333          .bits   11744051,32                     ; _gMotorVars._RsOnLineCurrent_A @ 512
         0000003e 00B3 
      79 0000003f 0190          .bits   400,32                  ; _gMotorVars._SvgenMaxModulation_ticks @ 544
         00000040 0000 
      80 00000041 0000          .bits   0,32                    ; _gMotorVars._Flux_Wb @ 576
         00000042 0000 
      81 00000043 0000          .bits   0,32                    ; _gMotorVars._Torque_Nm @ 608
         00000044 0000 
      82 00000045 0000          .xfloat $strtod("0x0p+0")               ; _gMotorVars._MagnCurr_A @ 640
         00000046 0000 
      83 00000047 0000          .xfloat $strtod("0x0p+0")               ; _gMotorVars._Rr_Ohm @ 672
         00000048 0000 
      84 00000049 0000          .xfloat $strtod("0x0p+0")               ; _gMotorVars._Rs_Ohm @ 704
         0000004a 0000 
      85 0000004b 0000          .xfloat $strtod("0x0p+0")               ; _gMotorVars._RsOnLine_Ohm @ 736
         0000004c 0000 
TMS320C2000 Assembler PC v6.4.4 Wed Jul 08 12:49:31 2015

Tools Copyright (c) 1996-2015 Texas Instruments Incorporated
C:\Users\grant\AppData\Local\Temp\0448010                            PAGE    3

      86 0000004d 0000          .xfloat $strtod("0x0p+0")               ; _gMotorVars._Lsd_H @ 768
         0000004e 0000 
      87 0000004f 0000          .xfloat $strtod("0x0p+0")               ; _gMotorVars._Lsq_H @ 800
         00000050 0000 
      88 00000051 0000          .xfloat $strtod("0x0p+0")               ; _gMotorVars._Flux_VpHz @ 832
         00000052 0000 
      89 00000053 0000          .xfloat $strtod("0x0p+0")               ; _gMotorVars._ipd_excFreq_Hz @ 864
         00000054 0000 
      90 00000055 0000          .bits   0,32                    ; _gMotorVars._ipd_Kspd @ 896
         00000056 0000 
      91 00000057 0000          .bits   0,32                    ; _gMotorVars._ipd_excMag_coarse_pu @ 928
         00000058 0000 
      92 00000059 0000          .bits   0,32                    ; _gMotorVars._ipd_excMag_fine_pu @ 960
         0000005a 0000 
      93 0000005b 0000          .xfloat $strtod("0x0p+0")               ; _gMotorVars._ipd_waitTime_coarse_sec @ 992
         0000005c 0000 
      94 0000005d 0000          .xfloat $strtod("0x0p+0")               ; _gMotorVars._ipd_waitTime_fine_sec @ 1024
         0000005e 0000 
      95 0000005f 0000          .bits   0,32                    ; _gMotorVars._Kp_spd @ 1056
         00000060 0000 
      96 00000061 0000          .bits   0,32                    ; _gMotorVars._Ki_spd @ 1088
         00000062 0000 
      97 00000063 0000          .bits   0,32                    ; _gMotorVars._Kp_Idq @ 1120
         00000064 0000 
      98 00000065 0000          .bits   0,32                    ; _gMotorVars._Ki_Idq @ 1152
         00000066 0000 
      99 00000067 0000          .bits   0,32                    ; _gMotorVars._Vd @ 1184
         00000068 0000 
     100 00000069 0000          .bits   0,32                    ; _gMotorVars._Vq @ 1216
         0000006a 0000 
     101 0000006b 0000          .bits   0,32                    ; _gMotorVars._Vs @ 1248
         0000006c 0000 
     102 0000006d 6666          .bits   15099494,32                     ; _gMotorVars._VsRef @ 1280
         0000006e 00E6 
     103 0000006f 0000          .bits   0,32                    ; _gMotorVars._VdcBus_kV @ 1312
         00000070 0000 
     104 00000071 0000          .bits   0,32                    ; _gMotorVars._Id_A @ 1344
         00000072 0000 
     105 00000073 0000          .bits   0,32                    ; _gMotorVars._Iq_A @ 1376
         00000074 0000 
     106 00000075 0000          .bits   0,32                    ; _gMotorVars._Is_A @ 1408
         00000076 0000 
     107 00000077 0000          .bits   0,32                    ; _gMotorVars._I_bias._value[0] @ 1440
         00000078 0000 
     108 00000079 0000          .bits   0,32                    ; _gMotorVars._I_bias._value[1] @ 1472
         0000007a 0000 
     109 0000007b 0000          .bits   0,32                    ; _gMotorVars._I_bias._value[2] @ 1504
         0000007c 0000 
     110 0000007d 0000          .bits   0,32                    ; _gMotorVars._V_bias._value[0] @ 1536
         0000007e 0000 
     111 0000007f 0000          .bits   0,32                    ; _gMotorVars._V_bias._value[1] @ 1568
         00000080 0000 
     112 00000081 0000          .bits   0,32                    ; _gMotorVars._V_bias._value[2] @ 1600
         00000082 0000 
     113        0066  $C$IR_2:        .set    102
TMS320C2000 Assembler PC v6.4.4 Wed Jul 08 12:49:31 2015

Tools Copyright (c) 1996-2015 Texas Instruments Incorporated
C:\Users\grant\AppData\Local\Temp\0448010                            PAGE    4

     114              
     115              
     116              $C$DW$1 .dwtag  DW_TAG_subprogram, DW_AT_name("USER_softwareUpdate1p6")
     117                      .dwattr $C$DW$1, DW_AT_TI_symbol_name("_USER_softwareUpdate1p6")
     118                      .dwattr $C$DW$1, DW_AT_declaration
     119                      .dwattr $C$DW$1, DW_AT_external
     120              $C$DW$2 .dwtag  DW_TAG_formal_parameter
     121                      .dwattr $C$DW$2, DW_AT_type(*$C$DW$T$201)
     122                      .dwendtag $C$DW$1
     123              
     124              
     125              $C$DW$3 .dwtag  DW_TAG_subprogram, DW_AT_name("USER_checkForErrors")
     126                      .dwattr $C$DW$3, DW_AT_TI_symbol_name("_USER_checkForErrors")
     127                      .dwattr $C$DW$3, DW_AT_declaration
     128                      .dwattr $C$DW$3, DW_AT_external
     129              $C$DW$4 .dwtag  DW_TAG_formal_parameter
     130                      .dwattr $C$DW$4, DW_AT_type(*$C$DW$T$208)
     131                      .dwendtag $C$DW$3
     132              
     133              
     134              $C$DW$5 .dwtag  DW_TAG_subprogram, DW_AT_name("USER_setParams")
     135                      .dwattr $C$DW$5, DW_AT_TI_symbol_name("_USER_setParams")
     136                      .dwattr $C$DW$5, DW_AT_declaration
     137                      .dwattr $C$DW$5, DW_AT_external
     138              $C$DW$6 .dwtag  DW_TAG_formal_parameter
     139                      .dwattr $C$DW$6, DW_AT_type(*$C$DW$T$208)
     140                      .dwendtag $C$DW$5
     141              
     142              
     143              $C$DW$7 .dwtag  DW_TAG_subprogram, DW_AT_name("USER_calcPIgains")
     144                      .dwattr $C$DW$7, DW_AT_TI_symbol_name("_USER_calcPIgains")
     145                      .dwattr $C$DW$7, DW_AT_declaration
     146                      .dwattr $C$DW$7, DW_AT_external
     147              $C$DW$8 .dwtag  DW_TAG_formal_parameter
     148                      .dwattr $C$DW$8, DW_AT_type(*$C$DW$T$201)
     149                      .dwendtag $C$DW$7
     150              
     151              
     152              $C$DW$9 .dwtag  DW_TAG_subprogram, DW_AT_name("GPIO_toggle")
     153                      .dwattr $C$DW$9, DW_AT_TI_symbol_name("_GPIO_toggle")
     154                      .dwattr $C$DW$9, DW_AT_declaration
     155                      .dwattr $C$DW$9, DW_AT_external
     156              $C$DW$10        .dwtag  DW_TAG_formal_parameter
     157                      .dwattr $C$DW$10, DW_AT_type(*$C$DW$T$81)
     158              $C$DW$11        .dwtag  DW_TAG_formal_parameter
     159                      .dwattr $C$DW$11, DW_AT_type(*$C$DW$T$203)
     160                      .dwendtag $C$DW$9
     161              
     162              
     163              $C$DW$12        .dwtag  DW_TAG_subprogram, DW_AT_name("HAL_enableAdcInts")
     164                      .dwattr $C$DW$12, DW_AT_TI_symbol_name("_HAL_enableAdcInts")
     165                      .dwattr $C$DW$12, DW_AT_declaration
     166                      .dwattr $C$DW$12, DW_AT_external
     167              $C$DW$13        .dwtag  DW_TAG_formal_parameter
     168                      .dwattr $C$DW$13, DW_AT_type(*$C$DW$T$259)
TMS320C2000 Assembler PC v6.4.4 Wed Jul 08 12:49:31 2015

Tools Copyright (c) 1996-2015 Texas Instruments Incorporated
C:\Users\grant\AppData\Local\Temp\0448010                            PAGE    5

     169                      .dwendtag $C$DW$12
     170              
     171              
     172              $C$DW$14        .dwtag  DW_TAG_subprogram, DW_AT_name("HAL_enableDebugInt")
     173                      .dwattr $C$DW$14, DW_AT_TI_symbol_name("_HAL_enableDebugInt")
     174                      .dwattr $C$DW$14, DW_AT_declaration
     175                      .dwattr $C$DW$14, DW_AT_external
     176              $C$DW$15        .dwtag  DW_TAG_formal_parameter
     177                      .dwattr $C$DW$15, DW_AT_type(*$C$DW$T$259)
     178                      .dwendtag $C$DW$14
     179              
     180              
     181              $C$DW$16        .dwtag  DW_TAG_subprogram, DW_AT_name("CTRL_getVersion")
     182                      .dwattr $C$DW$16, DW_AT_TI_symbol_name("_CTRL_getVersion")
     183                      .dwattr $C$DW$16, DW_AT_declaration
     184                      .dwattr $C$DW$16, DW_AT_external
     185              $C$DW$17        .dwtag  DW_TAG_formal_parameter
     186                      .dwattr $C$DW$17, DW_AT_type(*$C$DW$T$201)
     187              $C$DW$18        .dwtag  DW_TAG_formal_parameter
     188                      .dwattr $C$DW$18, DW_AT_type(*$C$DW$T$244)
     189                      .dwendtag $C$DW$16
     190              
     191              
     192              $C$DW$19        .dwtag  DW_TAG_subprogram, DW_AT_name("CTRL_getVdq_out_pu")
     193                      .dwattr $C$DW$19, DW_AT_TI_symbol_name("_CTRL_getVdq_out_pu")
     194                      .dwattr $C$DW$19, DW_AT_declaration
     195                      .dwattr $C$DW$19, DW_AT_external
     196              $C$DW$20        .dwtag  DW_TAG_formal_parameter
     197                      .dwattr $C$DW$20, DW_AT_type(*$C$DW$T$201)
     198              $C$DW$21        .dwtag  DW_TAG_formal_parameter
     199                      .dwattr $C$DW$21, DW_AT_type(*$C$DW$T$272)
     200                      .dwendtag $C$DW$19
     201              
     202              
     203              $C$DW$22        .dwtag  DW_TAG_subprogram, DW_AT_name("CTRL_setSpd_ref_krpm")
     204                      .dwattr $C$DW$22, DW_AT_TI_symbol_name("_CTRL_setSpd_ref_krpm")
     205                      .dwattr $C$DW$22, DW_AT_declaration
     206                      .dwattr $C$DW$22, DW_AT_external
     207              $C$DW$23        .dwtag  DW_TAG_formal_parameter
     208                      .dwattr $C$DW$23, DW_AT_type(*$C$DW$T$201)
     209              $C$DW$24        .dwtag  DW_TAG_formal_parameter
     210                      .dwattr $C$DW$24, DW_AT_type(*$C$DW$T$301)
     211                      .dwendtag $C$DW$22
     212              
     213              
     214              $C$DW$25        .dwtag  DW_TAG_subprogram, DW_AT_name("CTRL_setParams")
     215                      .dwattr $C$DW$25, DW_AT_TI_symbol_name("_CTRL_setParams")
     216                      .dwattr $C$DW$25, DW_AT_declaration
     217                      .dwattr $C$DW$25, DW_AT_external
     218              $C$DW$26        .dwtag  DW_TAG_formal_parameter
     219                      .dwattr $C$DW$26, DW_AT_type(*$C$DW$T$201)
     220              $C$DW$27        .dwtag  DW_TAG_formal_parameter
     221                      .dwattr $C$DW$27, DW_AT_type(*$C$DW$T$208)
     222                      .dwendtag $C$DW$25
     223              
TMS320C2000 Assembler PC v6.4.4 Wed Jul 08 12:49:31 2015

Tools Copyright (c) 1996-2015 Texas Instruments Incorporated
C:\Users\grant\AppData\Local\Temp\0448010                            PAGE    6

     224              
     225              $C$DW$28        .dwtag  DW_TAG_subprogram, DW_AT_name("CTRL_setup_user")
     226                      .dwattr $C$DW$28, DW_AT_TI_symbol_name("_CTRL_setup_user")
     227                      .dwattr $C$DW$28, DW_AT_declaration
     228                      .dwattr $C$DW$28, DW_AT_external
     229              $C$DW$29        .dwtag  DW_TAG_formal_parameter
     230                      .dwattr $C$DW$29, DW_AT_type(*$C$DW$T$201)
     231              $C$DW$30        .dwtag  DW_TAG_formal_parameter
     232                      .dwattr $C$DW$30, DW_AT_type(*$C$DW$T$301)
     233              $C$DW$31        .dwtag  DW_TAG_formal_parameter
     234                      .dwattr $C$DW$31, DW_AT_type(*$C$DW$T$301)
     235              $C$DW$32        .dwtag  DW_TAG_formal_parameter
     236                      .dwattr $C$DW$32, DW_AT_type(*$C$DW$T$301)
     237              $C$DW$33        .dwtag  DW_TAG_formal_parameter
     238                      .dwattr $C$DW$33, DW_AT_type(*$C$DW$T$301)
     239              $C$DW$34        .dwtag  DW_TAG_formal_parameter
     240                      .dwattr $C$DW$34, DW_AT_type(*$C$DW$T$271)
     241              $C$DW$35        .dwtag  DW_TAG_formal_parameter
     242                      .dwattr $C$DW$35, DW_AT_type(*$C$DW$T$271)
     243              $C$DW$36        .dwtag  DW_TAG_formal_parameter
     244                      .dwattr $C$DW$36, DW_AT_type(*$C$DW$T$304)
     245              $C$DW$37        .dwtag  DW_TAG_formal_parameter
     246                      .dwattr $C$DW$37, DW_AT_type(*$C$DW$T$304)
     247                      .dwendtag $C$DW$28
     248              
     249              
     250              $C$DW$38        .dwtag  DW_TAG_subprogram, DW_AT_name("HAL_setParams")
     251                      .dwattr $C$DW$38, DW_AT_TI_symbol_name("_HAL_setParams")
     252                      .dwattr $C$DW$38, DW_AT_declaration
     253                      .dwattr $C$DW$38, DW_AT_external
     254              $C$DW$39        .dwtag  DW_TAG_formal_parameter
     255                      .dwattr $C$DW$39, DW_AT_type(*$C$DW$T$259)
     256              $C$DW$40        .dwtag  DW_TAG_formal_parameter
     257                      .dwattr $C$DW$40, DW_AT_type(*$C$DW$T$298)
     258                      .dwendtag $C$DW$38
     259              
     260              
     261              $C$DW$41        .dwtag  DW_TAG_subprogram, DW_AT_name("EST_setFlag_enableForceAngle")
     262                      .dwattr $C$DW$41, DW_AT_TI_symbol_name("_EST_setFlag_enableForceAngle")
     263                      .dwattr $C$DW$41, DW_AT_declaration
     264                      .dwattr $C$DW$41, DW_AT_external
     265              $C$DW$42        .dwtag  DW_TAG_formal_parameter
     266                      .dwattr $C$DW$42, DW_AT_type(*$C$DW$T$50)
     267              $C$DW$43        .dwtag  DW_TAG_formal_parameter
     268                      .dwattr $C$DW$43, DW_AT_type(*$C$DW$T$304)
     269                      .dwendtag $C$DW$41
     270              
     271              
     272              $C$DW$44        .dwtag  DW_TAG_subprogram, DW_AT_name("EST_setFlag_enableRsRecalc")
     273                      .dwattr $C$DW$44, DW_AT_TI_symbol_name("_EST_setFlag_enableRsRecalc")
     274                      .dwattr $C$DW$44, DW_AT_declaration
     275                      .dwattr $C$DW$44, DW_AT_external
     276              $C$DW$45        .dwtag  DW_TAG_formal_parameter
     277                      .dwattr $C$DW$45, DW_AT_type(*$C$DW$T$50)
     278              $C$DW$46        .dwtag  DW_TAG_formal_parameter
TMS320C2000 Assembler PC v6.4.4 Wed Jul 08 12:49:31 2015

Tools Copyright (c) 1996-2015 Texas Instruments Incorporated
C:\Users\grant\AppData\Local\Temp\0448010                            PAGE    7

     279                      .dwattr $C$DW$46, DW_AT_type(*$C$DW$T$304)
     280                      .dwendtag $C$DW$44
     281              
     282              
     283              $C$DW$47        .dwtag  DW_TAG_subprogram, DW_AT_name("HAL_setupFaults")
     284                      .dwattr $C$DW$47, DW_AT_TI_symbol_name("_HAL_setupFaults")
     285                      .dwattr $C$DW$47, DW_AT_declaration
     286                      .dwattr $C$DW$47, DW_AT_external
     287              $C$DW$48        .dwtag  DW_TAG_formal_parameter
     288                      .dwattr $C$DW$48, DW_AT_type(*$C$DW$T$259)
     289                      .dwendtag $C$DW$47
     290              
     291              
     292              $C$DW$49        .dwtag  DW_TAG_subprogram, DW_AT_name("EST_run")
     293                      .dwattr $C$DW$49, DW_AT_TI_symbol_name("_EST_run")
     294                      .dwattr $C$DW$49, DW_AT_declaration
     295                      .dwattr $C$DW$49, DW_AT_external
     296              $C$DW$50        .dwtag  DW_TAG_formal_parameter
     297                      .dwattr $C$DW$50, DW_AT_type(*$C$DW$T$50)
     298              $C$DW$51        .dwtag  DW_TAG_formal_parameter
     299                      .dwattr $C$DW$51, DW_AT_type(*$C$DW$T$271)
     300              $C$DW$52        .dwtag  DW_TAG_formal_parameter
     301                      .dwattr $C$DW$52, DW_AT_type(*$C$DW$T$271)
     302              $C$DW$53        .dwtag  DW_TAG_formal_parameter
     303                      .dwattr $C$DW$53, DW_AT_type(*$C$DW$T$301)
     304              $C$DW$54        .dwtag  DW_TAG_formal_parameter
     305                      .dwattr $C$DW$54, DW_AT_type(*$C$DW$T$301)
     306                      .dwendtag $C$DW$49
     307              
     308              
     309              $C$DW$55        .dwtag  DW_TAG_subprogram, DW_AT_name("HAL_writeDrvData")
     310                      .dwattr $C$DW$55, DW_AT_TI_symbol_name("_HAL_writeDrvData")
     311                      .dwattr $C$DW$55, DW_AT_declaration
     312                      .dwattr $C$DW$55, DW_AT_external
     313              $C$DW$56        .dwtag  DW_TAG_formal_parameter
     314                      .dwattr $C$DW$56, DW_AT_type(*$C$DW$T$259)
     315              $C$DW$57        .dwtag  DW_TAG_formal_parameter
     316                      .dwattr $C$DW$57, DW_AT_type(*$C$DW$T$248)
     317                      .dwendtag $C$DW$55
     318              
     319              
     320              $C$DW$58        .dwtag  DW_TAG_subprogram, DW_AT_name("HAL_setupDrvSpi")
     321                      .dwattr $C$DW$58, DW_AT_TI_symbol_name("_HAL_setupDrvSpi")
     322                      .dwattr $C$DW$58, DW_AT_declaration
     323                      .dwattr $C$DW$58, DW_AT_external
     324              $C$DW$59        .dwtag  DW_TAG_formal_parameter
     325                      .dwattr $C$DW$59, DW_AT_type(*$C$DW$T$259)
     326              $C$DW$60        .dwtag  DW_TAG_formal_parameter
     327                      .dwattr $C$DW$60, DW_AT_type(*$C$DW$T$248)
     328                      .dwendtag $C$DW$58
     329              
     330              
     331              $C$DW$61        .dwtag  DW_TAG_subprogram, DW_AT_name("HAL_readDrvData")
     332                      .dwattr $C$DW$61, DW_AT_TI_symbol_name("_HAL_readDrvData")
     333                      .dwattr $C$DW$61, DW_AT_declaration
TMS320C2000 Assembler PC v6.4.4 Wed Jul 08 12:49:31 2015

Tools Copyright (c) 1996-2015 Texas Instruments Incorporated
C:\Users\grant\AppData\Local\Temp\0448010                            PAGE    8

     334                      .dwattr $C$DW$61, DW_AT_external
     335              $C$DW$62        .dwtag  DW_TAG_formal_parameter
     336                      .dwattr $C$DW$62, DW_AT_type(*$C$DW$T$259)
     337              $C$DW$63        .dwtag  DW_TAG_formal_parameter
     338                      .dwattr $C$DW$63, DW_AT_type(*$C$DW$T$248)
     339                      .dwendtag $C$DW$61
     340              
     341              
     342              $C$DW$64        .dwtag  DW_TAG_subprogram, DW_AT_name("HAL_enableDrv")
     343                      .dwattr $C$DW$64, DW_AT_TI_symbol_name("_HAL_enableDrv")
     344                      .dwattr $C$DW$64, DW_AT_declaration
     345                      .dwattr $C$DW$64, DW_AT_external
     346              $C$DW$65        .dwtag  DW_TAG_formal_parameter
     347                      .dwattr $C$DW$65, DW_AT_type(*$C$DW$T$259)
     348                      .dwendtag $C$DW$64
     349              
     350              
     351              $C$DW$66        .dwtag  DW_TAG_subprogram, DW_AT_name("HAL_enableGlobalInts")
     352                      .dwattr $C$DW$66, DW_AT_TI_symbol_name("_HAL_enableGlobalInts")
     353                      .dwattr $C$DW$66, DW_AT_declaration
     354                      .dwattr $C$DW$66, DW_AT_external
     355              $C$DW$67        .dwtag  DW_TAG_formal_parameter
     356                      .dwattr $C$DW$67, DW_AT_type(*$C$DW$T$259)
     357                      .dwendtag $C$DW$66
     358              
     359              
     360              $C$DW$68        .dwtag  DW_TAG_subprogram, DW_AT_name("EST_setMaxCurrentSlope_pu")
     361                      .dwattr $C$DW$68, DW_AT_TI_symbol_name("_EST_setMaxCurrentSlope_pu")
     362                      .dwattr $C$DW$68, DW_AT_declaration
     363                      .dwattr $C$DW$68, DW_AT_external
     364              $C$DW$69        .dwtag  DW_TAG_formal_parameter
     365                      .dwattr $C$DW$69, DW_AT_type(*$C$DW$T$50)
     366              $C$DW$70        .dwtag  DW_TAG_formal_parameter
     367                      .dwattr $C$DW$70, DW_AT_type(*$C$DW$T$301)
     368                      .dwendtag $C$DW$68
     369              
     370              
     371              $C$DW$71        .dwtag  DW_TAG_subprogram, DW_AT_name("EST_updateId_ref_pu")
     372                      .dwattr $C$DW$71, DW_AT_TI_symbol_name("_EST_updateId_ref_pu")
     373                      .dwattr $C$DW$71, DW_AT_declaration
     374                      .dwattr $C$DW$71, DW_AT_external
     375              $C$DW$72        .dwtag  DW_TAG_formal_parameter
     376                      .dwattr $C$DW$72, DW_AT_type(*$C$DW$T$50)
     377              $C$DW$73        .dwtag  DW_TAG_formal_parameter
     378                      .dwattr $C$DW$73, DW_AT_type(*$C$DW$T$309)
     379                      .dwendtag $C$DW$71
     380              
     381              
     382              $C$DW$74        .dwtag  DW_TAG_subprogram, DW_AT_name("EST_setId_ref_pu")
     383                      .dwattr $C$DW$74, DW_AT_TI_symbol_name("_EST_setId_ref_pu")
     384                      .dwattr $C$DW$74, DW_AT_declaration
     385                      .dwattr $C$DW$74, DW_AT_external
     386              $C$DW$75        .dwtag  DW_TAG_formal_parameter
     387                      .dwattr $C$DW$75, DW_AT_type(*$C$DW$T$50)
     388              $C$DW$76        .dwtag  DW_TAG_formal_parameter
TMS320C2000 Assembler PC v6.4.4 Wed Jul 08 12:49:31 2015

Tools Copyright (c) 1996-2015 Texas Instruments Incorporated
C:\Users\grant\AppData\Local\Temp\0448010                            PAGE    9

     389                      .dwattr $C$DW$76, DW_AT_type(*$C$DW$T$301)
     390                      .dwendtag $C$DW$74
     391              
     392              
     393              $C$DW$77        .dwtag  DW_TAG_subprogram, DW_AT_name("EST_setIq_ref_pu")
     394                      .dwattr $C$DW$77, DW_AT_TI_symbol_name("_EST_setIq_ref_pu")
     395                      .dwattr $C$DW$77, DW_AT_declaration
     396                      .dwattr $C$DW$77, DW_AT_external
     397              $C$DW$78        .dwtag  DW_TAG_formal_parameter
     398                      .dwattr $C$DW$78, DW_AT_type(*$C$DW$T$50)
     399              $C$DW$79        .dwtag  DW_TAG_formal_parameter
     400                      .dwattr $C$DW$79, DW_AT_type(*$C$DW$T$301)
     401                      .dwendtag $C$DW$77
     402              
     403                      .global _gCounter_updateGlobals
     404 00000000       _gCounter_updateGlobals:        .usect  ".ebss",1,1,0
     405              $C$DW$80        .dwtag  DW_TAG_variable, DW_AT_name("gCounter_updateGlobals")
     406                      .dwattr $C$DW$80, DW_AT_TI_symbol_name("_gCounter_updateGlobals")
     407                      .dwattr $C$DW$80, DW_AT_location[DW_OP_addr _gCounter_updateGlobals]
     408                      .dwattr $C$DW$80, DW_AT_type(*$C$DW$T$70)
     409                      .dwattr $C$DW$80, DW_AT_external
     410                      .global _Flag_Latch_softwareUpdate
     411 00000001       _Flag_Latch_softwareUpdate:     .usect  ".ebss",1,1,0
     412              $C$DW$81        .dwtag  DW_TAG_variable, DW_AT_name("Flag_Latch_softwareUpdate")
     413                      .dwattr $C$DW$81, DW_AT_TI_symbol_name("_Flag_Latch_softwareUpdate")
     414                      .dwattr $C$DW$81, DW_AT_location[DW_OP_addr _Flag_Latch_softwareUpdate]
     415                      .dwattr $C$DW$81, DW_AT_type(*$C$DW$T$73)
     416                      .dwattr $C$DW$81, DW_AT_external
     417                      .global _gLEDcnt
     418 00000002       _gLEDcnt:       .usect  ".ebss",1,1,0
     419              $C$DW$82        .dwtag  DW_TAG_variable, DW_AT_name("gLEDcnt")
     420                      .dwattr $C$DW$82, DW_AT_TI_symbol_name("_gLEDcnt")
     421                      .dwattr $C$DW$82, DW_AT_location[DW_OP_addr _gLEDcnt]
     422                      .dwattr $C$DW$82, DW_AT_type(*$C$DW$T$26)
     423                      .dwattr $C$DW$82, DW_AT_external
     424              
     425              $C$DW$83        .dwtag  DW_TAG_subprogram, DW_AT_name("CTRL_updateState")
     426                      .dwattr $C$DW$83, DW_AT_TI_symbol_name("_CTRL_updateState")
     427                      .dwattr $C$DW$83, DW_AT_type(*$C$DW$T$73)
     428                      .dwattr $C$DW$83, DW_AT_declaration
     429                      .dwattr $C$DW$83, DW_AT_external
     430              $C$DW$84        .dwtag  DW_TAG_formal_parameter
     431                      .dwattr $C$DW$84, DW_AT_type(*$C$DW$T$201)
     432                      .dwendtag $C$DW$83
     433              
     434              
     435              $C$DW$85        .dwtag  DW_TAG_subprogram, DW_AT_name("USER_getErrorCode")
     436                      .dwattr $C$DW$85, DW_AT_TI_symbol_name("_USER_getErrorCode")
     437                      .dwattr $C$DW$85, DW_AT_type(*$C$DW$T$167)
     438                      .dwattr $C$DW$85, DW_AT_declaration
     439                      .dwattr $C$DW$85, DW_AT_external
     440              $C$DW$86        .dwtag  DW_TAG_formal_parameter
     441                      .dwattr $C$DW$86, DW_AT_type(*$C$DW$T$208)
     442                      .dwendtag $C$DW$85
     443              
TMS320C2000 Assembler PC v6.4.4 Wed Jul 08 12:49:31 2015

Tools Copyright (c) 1996-2015 Texas Instruments Incorporated
C:\Users\grant\AppData\Local\Temp\0448010                            PAGE   10

     444              
     445              $C$DW$87        .dwtag  DW_TAG_subprogram, DW_AT_name("EST_doSpeedCtrl")
     446                      .dwattr $C$DW$87, DW_AT_TI_symbol_name("_EST_doSpeedCtrl")
     447                      .dwattr $C$DW$87, DW_AT_type(*$C$DW$T$73)
     448                      .dwattr $C$DW$87, DW_AT_declaration
     449                      .dwattr $C$DW$87, DW_AT_external
     450              $C$DW$88        .dwtag  DW_TAG_formal_parameter
     451                      .dwattr $C$DW$88, DW_AT_type(*$C$DW$T$50)
     452                      .dwendtag $C$DW$87
     453              
     454              
     455              $C$DW$89        .dwtag  DW_TAG_subprogram, DW_AT_name("EST_doCurrentCtrl")
     456                      .dwattr $C$DW$89, DW_AT_TI_symbol_name("_EST_doCurrentCtrl")
     457                      .dwattr $C$DW$89, DW_AT_type(*$C$DW$T$73)
     458                      .dwattr $C$DW$89, DW_AT_declaration
     459                      .dwattr $C$DW$89, DW_AT_external
     460              $C$DW$90        .dwtag  DW_TAG_formal_parameter
     461                      .dwattr $C$DW$90, DW_AT_type(*$C$DW$T$50)
     462                      .dwendtag $C$DW$89
     463              
     464              
     465              $C$DW$91        .dwtag  DW_TAG_subprogram, DW_AT_name("EST_getState")
     466                      .dwattr $C$DW$91, DW_AT_TI_symbol_name("_EST_getState")
     467                      .dwattr $C$DW$91, DW_AT_type(*$C$DW$T$165)
     468                      .dwattr $C$DW$91, DW_AT_declaration
     469                      .dwattr $C$DW$91, DW_AT_external
     470              $C$DW$92        .dwtag  DW_TAG_formal_parameter
     471                      .dwattr $C$DW$92, DW_AT_type(*$C$DW$T$50)
     472                      .dwendtag $C$DW$91
     473              
     474              
     475              $C$DW$93        .dwtag  DW_TAG_subprogram, DW_AT_name("EST_isMotorIdentified")
     476                      .dwattr $C$DW$93, DW_AT_TI_symbol_name("_EST_isMotorIdentified")
     477                      .dwattr $C$DW$93, DW_AT_type(*$C$DW$T$73)
     478                      .dwattr $C$DW$93, DW_AT_declaration
     479                      .dwattr $C$DW$93, DW_AT_external
     480              $C$DW$94        .dwtag  DW_TAG_formal_parameter
     481                      .dwattr $C$DW$94, DW_AT_type(*$C$DW$T$50)
     482                      .dwendtag $C$DW$93
     483              
     484              
     485              $C$DW$95        .dwtag  DW_TAG_subprogram, DW_AT_name("EST_getAngle_pu")
     486                      .dwattr $C$DW$95, DW_AT_TI_symbol_name("_EST_getAngle_pu")
     487                      .dwattr $C$DW$95, DW_AT_type(*$C$DW$T$35)
     488                      .dwattr $C$DW$95, DW_AT_declaration
     489                      .dwattr $C$DW$95, DW_AT_external
     490              $C$DW$96        .dwtag  DW_TAG_formal_parameter
     491                      .dwattr $C$DW$96, DW_AT_type(*$C$DW$T$50)
     492                      .dwendtag $C$DW$95
     493              
     494              
     495              $C$DW$97        .dwtag  DW_TAG_subprogram, DW_AT_name("EST_getFlux_VpHz")
     496                      .dwattr $C$DW$97, DW_AT_TI_symbol_name("_EST_getFlux_VpHz")
     497                      .dwattr $C$DW$97, DW_AT_type(*$C$DW$T$71)
     498                      .dwattr $C$DW$97, DW_AT_declaration
TMS320C2000 Assembler PC v6.4.4 Wed Jul 08 12:49:31 2015

Tools Copyright (c) 1996-2015 Texas Instruments Incorporated
C:\Users\grant\AppData\Local\Temp\0448010                            PAGE   11

     499                      .dwattr $C$DW$97, DW_AT_external
     500              $C$DW$98        .dwtag  DW_TAG_formal_parameter
     501                      .dwattr $C$DW$98, DW_AT_type(*$C$DW$T$50)
     502                      .dwendtag $C$DW$97
     503              
     504              
     505              $C$DW$99        .dwtag  DW_TAG_subprogram, DW_AT_name("EST_get_pu_to_krpm_sf")
     506                      .dwattr $C$DW$99, DW_AT_TI_symbol_name("_EST_get_pu_to_krpm_sf")
     507                      .dwattr $C$DW$99, DW_AT_type(*$C$DW$T$35)
     508                      .dwattr $C$DW$99, DW_AT_declaration
     509                      .dwattr $C$DW$99, DW_AT_external
     510              $C$DW$100       .dwtag  DW_TAG_formal_parameter
     511                      .dwattr $C$DW$100, DW_AT_type(*$C$DW$T$50)
     512                      .dwendtag $C$DW$99
     513              
     514              
     515              $C$DW$101       .dwtag  DW_TAG_subprogram, DW_AT_name("EST_getFm_pu")
     516                      .dwattr $C$DW$101, DW_AT_TI_symbol_name("_EST_getFm_pu")
     517                      .dwattr $C$DW$101, DW_AT_type(*$C$DW$T$35)
     518                      .dwattr $C$DW$101, DW_AT_declaration
     519                      .dwattr $C$DW$101, DW_AT_external
     520              $C$DW$102       .dwtag  DW_TAG_formal_parameter
     521                      .dwattr $C$DW$102, DW_AT_type(*$C$DW$T$50)
     522                      .dwendtag $C$DW$101
     523              
     524              
     525              $C$DW$103       .dwtag  DW_TAG_subprogram, DW_AT_name("_IQ24cosPU")
     526                      .dwattr $C$DW$103, DW_AT_TI_symbol_name("__IQ24cosPU")
     527                      .dwattr $C$DW$103, DW_AT_type(*$C$DW$T$12)
     528                      .dwattr $C$DW$103, DW_AT_declaration
     529                      .dwattr $C$DW$103, DW_AT_external
     530              $C$DW$104       .dwtag  DW_TAG_formal_parameter
     531                      .dwattr $C$DW$104, DW_AT_type(*$C$DW$T$12)
     532                      .dwendtag $C$DW$103
     533              
     534              
     535              $C$DW$105       .dwtag  DW_TAG_subprogram, DW_AT_name("_IQ24sinPU")
     536                      .dwattr $C$DW$105, DW_AT_TI_symbol_name("__IQ24sinPU")
     537                      .dwattr $C$DW$105, DW_AT_type(*$C$DW$T$12)
     538                      .dwattr $C$DW$105, DW_AT_declaration
     539                      .dwattr $C$DW$105, DW_AT_external
     540              $C$DW$106       .dwtag  DW_TAG_formal_parameter
     541                      .dwattr $C$DW$106, DW_AT_type(*$C$DW$T$12)
     542                      .dwendtag $C$DW$105
     543              
     544              
     545              $C$DW$107       .dwtag  DW_TAG_subprogram, DW_AT_name("EST_getRr_Ohm")
     546                      .dwattr $C$DW$107, DW_AT_TI_symbol_name("_EST_getRr_Ohm")
     547                      .dwattr $C$DW$107, DW_AT_type(*$C$DW$T$71)
     548                      .dwattr $C$DW$107, DW_AT_declaration
     549                      .dwattr $C$DW$107, DW_AT_external
     550              $C$DW$108       .dwtag  DW_TAG_formal_parameter
     551                      .dwattr $C$DW$108, DW_AT_type(*$C$DW$T$50)
     552                      .dwendtag $C$DW$107
     553              
TMS320C2000 Assembler PC v6.4.4 Wed Jul 08 12:49:31 2015

Tools Copyright (c) 1996-2015 Texas Instruments Incorporated
C:\Users\grant\AppData\Local\Temp\0448010                            PAGE   12

     554              
     555              $C$DW$109       .dwtag  DW_TAG_subprogram, DW_AT_name("EST_getOneOverDcBus_pu")
     556                      .dwattr $C$DW$109, DW_AT_TI_symbol_name("_EST_getOneOverDcBus_pu")
     557                      .dwattr $C$DW$109, DW_AT_type(*$C$DW$T$35)
     558                      .dwattr $C$DW$109, DW_AT_declaration
     559                      .dwattr $C$DW$109, DW_AT_external
     560              $C$DW$110       .dwtag  DW_TAG_formal_parameter
     561                      .dwattr $C$DW$110, DW_AT_type(*$C$DW$T$50)
     562                      .dwendtag $C$DW$109
     563              
     564              
     565              $C$DW$111       .dwtag  DW_TAG_subprogram, DW_AT_name("EST_getSpeed_krpm")
     566                      .dwattr $C$DW$111, DW_AT_TI_symbol_name("_EST_getSpeed_krpm")
     567                      .dwattr $C$DW$111, DW_AT_type(*$C$DW$T$35)
     568                      .dwattr $C$DW$111, DW_AT_declaration
     569                      .dwattr $C$DW$111, DW_AT_external
     570              $C$DW$112       .dwtag  DW_TAG_formal_parameter
     571                      .dwattr $C$DW$112, DW_AT_type(*$C$DW$T$50)
     572                      .dwendtag $C$DW$111
     573              
     574              
     575              $C$DW$113       .dwtag  DW_TAG_subprogram, DW_AT_name("EST_getRs_Ohm")
     576                      .dwattr $C$DW$113, DW_AT_TI_symbol_name("_EST_getRs_Ohm")
     577                      .dwattr $C$DW$113, DW_AT_type(*$C$DW$T$71)
     578                      .dwattr $C$DW$113, DW_AT_declaration
     579                      .dwattr $C$DW$113, DW_AT_external
     580              $C$DW$114       .dwtag  DW_TAG_formal_parameter
     581                      .dwattr $C$DW$114, DW_AT_type(*$C$DW$T$50)
     582                      .dwendtag $C$DW$113
     583              
     584              
     585              $C$DW$115       .dwtag  DW_TAG_subprogram, DW_AT_name("EST_getLs_d_H")
     586                      .dwattr $C$DW$115, DW_AT_TI_symbol_name("_EST_getLs_d_H")
     587                      .dwattr $C$DW$115, DW_AT_type(*$C$DW$T$71)
     588                      .dwattr $C$DW$115, DW_AT_declaration
     589                      .dwattr $C$DW$115, DW_AT_external
     590              $C$DW$116       .dwtag  DW_TAG_formal_parameter
     591                      .dwattr $C$DW$116, DW_AT_type(*$C$DW$T$50)
     592                      .dwendtag $C$DW$115
     593              
     594              
     595              $C$DW$117       .dwtag  DW_TAG_subprogram, DW_AT_name("EST_getIdRated")
     596                      .dwattr $C$DW$117, DW_AT_TI_symbol_name("_EST_getIdRated")
     597                      .dwattr $C$DW$117, DW_AT_type(*$C$DW$T$71)
     598                      .dwattr $C$DW$117, DW_AT_declaration
     599                      .dwattr $C$DW$117, DW_AT_external
     600              $C$DW$118       .dwtag  DW_TAG_formal_parameter
     601                      .dwattr $C$DW$118, DW_AT_type(*$C$DW$T$50)
     602                      .dwendtag $C$DW$117
     603              
     604              
     605              $C$DW$119       .dwtag  DW_TAG_subprogram, DW_AT_name("EST_getMaxCurrentSlope_pu")
     606                      .dwattr $C$DW$119, DW_AT_TI_symbol_name("_EST_getMaxCurrentSlope_pu")
     607                      .dwattr $C$DW$119, DW_AT_type(*$C$DW$T$35)
     608                      .dwattr $C$DW$119, DW_AT_declaration
TMS320C2000 Assembler PC v6.4.4 Wed Jul 08 12:49:31 2015

Tools Copyright (c) 1996-2015 Texas Instruments Incorporated
C:\Users\grant\AppData\Local\Temp\0448010                            PAGE   13

     609                      .dwattr $C$DW$119, DW_AT_external
     610              $C$DW$120       .dwtag  DW_TAG_formal_parameter
     611                      .dwattr $C$DW$120, DW_AT_type(*$C$DW$T$50)
     612                      .dwendtag $C$DW$119
     613              
     614              
     615              $C$DW$121       .dwtag  DW_TAG_subprogram, DW_AT_name("EST_getLs_q_H")
     616                      .dwattr $C$DW$121, DW_AT_TI_symbol_name("_EST_getLs_q_H")
     617                      .dwattr $C$DW$121, DW_AT_type(*$C$DW$T$71)
     618                      .dwattr $C$DW$121, DW_AT_declaration
     619                      .dwattr $C$DW$121, DW_AT_external
     620              $C$DW$122       .dwtag  DW_TAG_formal_parameter
     621                      .dwattr $C$DW$122, DW_AT_type(*$C$DW$T$50)
     622                      .dwendtag $C$DW$121
     623              
     624                      .global _controller_obj
     625 00000004       _controller_obj:        .usect  ".ebss",2,1,1
     626              $C$DW$123       .dwtag  DW_TAG_variable, DW_AT_name("controller_obj")
     627                      .dwattr $C$DW$123, DW_AT_TI_symbol_name("_controller_obj")
     628                      .dwattr $C$DW$123, DW_AT_location[DW_OP_addr _controller_obj]
     629                      .dwattr $C$DW$123, DW_AT_type(*$C$DW$T$237)
     630                      .dwattr $C$DW$123, DW_AT_external
     631              
     632              $C$DW$124       .dwtag  DW_TAG_subprogram, DW_AT_name("__IQmpy")
     633                      .dwattr $C$DW$124, DW_AT_TI_symbol_name("___IQmpy")
     634                      .dwattr $C$DW$124, DW_AT_type(*$C$DW$T$12)
     635                      .dwattr $C$DW$124, DW_AT_declaration
     636                      .dwattr $C$DW$124, DW_AT_external
     637              $C$DW$125       .dwtag  DW_TAG_formal_parameter
     638                      .dwattr $C$DW$125, DW_AT_type(*$C$DW$T$12)
     639              $C$DW$126       .dwtag  DW_TAG_formal_parameter
     640                      .dwattr $C$DW$126, DW_AT_type(*$C$DW$T$12)
     641              $C$DW$127       .dwtag  DW_TAG_formal_parameter
     642                      .dwattr $C$DW$127, DW_AT_type(*$C$DW$T$10)
     643                      .dwendtag $C$DW$124
     644              
     645                      .global _halHandle
     646 00000006       _halHandle:     .usect  ".ebss",2,1,1
     647              $C$DW$128       .dwtag  DW_TAG_variable, DW_AT_name("halHandle")
     648                      .dwattr $C$DW$128, DW_AT_TI_symbol_name("_halHandle")
     649                      .dwattr $C$DW$128, DW_AT_location[DW_OP_addr _halHandle]
     650                      .dwattr $C$DW$128, DW_AT_type(*$C$DW$T$259)
     651                      .dwattr $C$DW$128, DW_AT_external
     652                      .global _gMaxCurrentSlope
     653 00000008       _gMaxCurrentSlope:      .usect  ".ebss",2,1,1
     654              $C$DW$129       .dwtag  DW_TAG_variable, DW_AT_name("gMaxCurrentSlope")
     655                      .dwattr $C$DW$129, DW_AT_TI_symbol_name("_gMaxCurrentSlope")
     656                      .dwattr $C$DW$129, DW_AT_location[DW_OP_addr _gMaxCurrentSlope]
     657                      .dwattr $C$DW$129, DW_AT_type(*$C$DW$T$35)
     658                      .dwattr $C$DW$129, DW_AT_external
     659                      .global _gTorque_Ls_Id_Iq_pu_to_Nm_sf
     660 0000000a       _gTorque_Ls_Id_Iq_pu_to_Nm_sf:  .usect  ".ebss",2,1,1
     661              $C$DW$130       .dwtag  DW_TAG_variable, DW_AT_name("gTorque_Ls_Id_Iq_pu_to_Nm_sf")
     662                      .dwattr $C$DW$130, DW_AT_TI_symbol_name("_gTorque_Ls_Id_Iq_pu_to_Nm_sf")
     663                      .dwattr $C$DW$130, DW_AT_location[DW_OP_addr _gTorque_Ls_Id_Iq_pu_to_Nm_sf]
TMS320C2000 Assembler PC v6.4.4 Wed Jul 08 12:49:31 2015

Tools Copyright (c) 1996-2015 Texas Instruments Incorporated
C:\Users\grant\AppData\Local\Temp\0448010                            PAGE   14

     664                      .dwattr $C$DW$130, DW_AT_type(*$C$DW$T$35)
     665                      .dwattr $C$DW$130, DW_AT_external
     666                      .global _gTorque_Flux_Iq_pu_to_Nm_sf
     667 0000000c       _gTorque_Flux_Iq_pu_to_Nm_sf:   .usect  ".ebss",2,1,1
     668              $C$DW$131       .dwtag  DW_TAG_variable, DW_AT_name("gTorque_Flux_Iq_pu_to_Nm_sf")
     669                      .dwattr $C$DW$131, DW_AT_TI_symbol_name("_gTorque_Flux_Iq_pu_to_Nm_sf")
     670                      .dwattr $C$DW$131, DW_AT_location[DW_OP_addr _gTorque_Flux_Iq_pu_to_Nm_sf]
     671                      .dwattr $C$DW$131, DW_AT_type(*$C$DW$T$35)
     672                      .dwattr $C$DW$131, DW_AT_external
     673                      .global _gFlux_pu_to_Wb_sf
     674 0000000e       _gFlux_pu_to_Wb_sf:     .usect  ".ebss",2,1,1
     675              $C$DW$132       .dwtag  DW_TAG_variable, DW_AT_name("gFlux_pu_to_Wb_sf")
     676                      .dwattr $C$DW$132, DW_AT_TI_symbol_name("_gFlux_pu_to_Wb_sf")
     677                      .dwattr $C$DW$132, DW_AT_location[DW_OP_addr _gFlux_pu_to_Wb_sf]
     678                      .dwattr $C$DW$132, DW_AT_type(*$C$DW$T$35)
     679                      .dwattr $C$DW$132, DW_AT_external
     680                      .global _gFlux_pu_to_VpHz_sf
     681 00000010       _gFlux_pu_to_VpHz_sf:   .usect  ".ebss",2,1,1
     682              $C$DW$133       .dwtag  DW_TAG_variable, DW_AT_name("gFlux_pu_to_VpHz_sf")
     683                      .dwattr $C$DW$133, DW_AT_TI_symbol_name("_gFlux_pu_to_VpHz_sf")
     684                      .dwattr $C$DW$133, DW_AT_location[DW_OP_addr _gFlux_pu_to_VpHz_sf]
     685                      .dwattr $C$DW$133, DW_AT_type(*$C$DW$T$35)
     686                      .dwattr $C$DW$133, DW_AT_external
     687                      .global _clarkeHandle_V
     688 00000012       _clarkeHandle_V:        .usect  ".ebss",2,1,1
     689              $C$DW$134       .dwtag  DW_TAG_variable, DW_AT_name("clarkeHandle_V")
     690                      .dwattr $C$DW$134, DW_AT_TI_symbol_name("_clarkeHandle_V")
     691                      .dwattr $C$DW$134, DW_AT_location[DW_OP_addr _clarkeHandle_V]
     692                      .dwattr $C$DW$134, DW_AT_type(*$C$DW$T$47)
     693                      .dwattr $C$DW$134, DW_AT_external
     694                      .global _estHandle
     695 00000014       _estHandle:     .usect  ".ebss",2,1,1
     696              $C$DW$135       .dwtag  DW_TAG_variable, DW_AT_name("estHandle")
     697                      .dwattr $C$DW$135, DW_AT_TI_symbol_name("_estHandle")
     698                      .dwattr $C$DW$135, DW_AT_location[DW_OP_addr _estHandle]
     699                      .dwattr $C$DW$135, DW_AT_type(*$C$DW$T$50)
     700                      .dwattr $C$DW$135, DW_AT_external
     701                      .global _ctrlHandle
     702 00000016       _ctrlHandle:    .usect  ".ebss",2,1,1
     703              $C$DW$136       .dwtag  DW_TAG_variable, DW_AT_name("ctrlHandle")
     704                      .dwattr $C$DW$136, DW_AT_TI_symbol_name("_ctrlHandle")
     705                      .dwattr $C$DW$136, DW_AT_location[DW_OP_addr _ctrlHandle]
     706                      .dwattr $C$DW$136, DW_AT_type(*$C$DW$T$201)
     707                      .dwattr $C$DW$136, DW_AT_external
     708                      .global _clarkeHandle_I
     709 00000018       _clarkeHandle_I:        .usect  ".ebss",2,1,1
     710              $C$DW$137       .dwtag  DW_TAG_variable, DW_AT_name("clarkeHandle_I")
     711                      .dwattr $C$DW$137, DW_AT_TI_symbol_name("_clarkeHandle_I")
     712                      .dwattr $C$DW$137, DW_AT_location[DW_OP_addr _clarkeHandle_I]
     713                      .dwattr $C$DW$137, DW_AT_type(*$C$DW$T$47)
     714                      .dwattr $C$DW$137, DW_AT_external
     715                      .global _svgenHandle
     716 0000001a       _svgenHandle:   .usect  ".ebss",2,1,1
     717              $C$DW$138       .dwtag  DW_TAG_variable, DW_AT_name("svgenHandle")
     718                      .dwattr $C$DW$138, DW_AT_TI_symbol_name("_svgenHandle")
TMS320C2000 Assembler PC v6.4.4 Wed Jul 08 12:49:31 2015

Tools Copyright (c) 1996-2015 Texas Instruments Incorporated
C:\Users\grant\AppData\Local\Temp\0448010                            PAGE   15

     719                      .dwattr $C$DW$138, DW_AT_location[DW_OP_addr _svgenHandle]
     720                      .dwattr $C$DW$138, DW_AT_type(*$C$DW$T$61)
     721                      .dwattr $C$DW$138, DW_AT_external
     722                      .global _svgen
     723 0000001c       _svgen: .usect  ".ebss",2,1,1
     724              $C$DW$139       .dwtag  DW_TAG_variable, DW_AT_name("svgen")
     725                      .dwattr $C$DW$139, DW_AT_TI_symbol_name("_svgen")
     726                      .dwattr $C$DW$139, DW_AT_location[DW_OP_addr _svgen]
     727                      .dwattr $C$DW$139, DW_AT_type(*$C$DW$T$62)
     728                      .dwattr $C$DW$139, DW_AT_external
     729                      .global _iparkHandle
     730 0000001e       _iparkHandle:   .usect  ".ebss",2,1,1
     731              $C$DW$140       .dwtag  DW_TAG_variable, DW_AT_name("iparkHandle")
     732                      .dwattr $C$DW$140, DW_AT_TI_symbol_name("_iparkHandle")
     733                      .dwattr $C$DW$140, DW_AT_location[DW_OP_addr _iparkHandle]
     734                      .dwattr $C$DW$140, DW_AT_type(*$C$DW$T$58)
     735                      .dwattr $C$DW$140, DW_AT_external
     736                      .global _parkHandle
     737 00000020       _parkHandle:    .usect  ".ebss",2,1,1
     738              $C$DW$141       .dwtag  DW_TAG_variable, DW_AT_name("parkHandle")
     739                      .dwattr $C$DW$141, DW_AT_TI_symbol_name("_parkHandle")
     740                      .dwattr $C$DW$141, DW_AT_location[DW_OP_addr _parkHandle]
     741                      .dwattr $C$DW$141, DW_AT_type(*$C$DW$T$52)
     742                      .dwattr $C$DW$141, DW_AT_external
     743              
     744              $C$DW$142       .dwtag  DW_TAG_subprogram, DW_AT_name("__IQsat")
     745                      .dwattr $C$DW$142, DW_AT_TI_symbol_name("___IQsat")
     746                      .dwattr $C$DW$142, DW_AT_type(*$C$DW$T$12)
     747                      .dwattr $C$DW$142, DW_AT_declaration
     748                      .dwattr $C$DW$142, DW_AT_external
     749              $C$DW$143       .dwtag  DW_TAG_formal_parameter
     750                      .dwattr $C$DW$143, DW_AT_type(*$C$DW$T$12)
     751              $C$DW$144       .dwtag  DW_TAG_formal_parameter
     752                      .dwattr $C$DW$144, DW_AT_type(*$C$DW$T$12)
     753              $C$DW$145       .dwtag  DW_TAG_formal_parameter
     754                      .dwattr $C$DW$145, DW_AT_type(*$C$DW$T$12)
     755                      .dwendtag $C$DW$142
     756              
     757              
     758              $C$DW$146       .dwtag  DW_TAG_subprogram, DW_AT_name("USER_computeTorque_Nm")
     759                      .dwattr $C$DW$146, DW_AT_TI_symbol_name("_USER_computeTorque_Nm")
     760                      .dwattr $C$DW$146, DW_AT_type(*$C$DW$T$35)
     761                      .dwattr $C$DW$146, DW_AT_declaration
     762                      .dwattr $C$DW$146, DW_AT_external
     763              $C$DW$147       .dwtag  DW_TAG_formal_parameter
     764                      .dwattr $C$DW$147, DW_AT_type(*$C$DW$T$201)
     765              $C$DW$148       .dwtag  DW_TAG_formal_parameter
     766                      .dwattr $C$DW$148, DW_AT_type(*$C$DW$T$301)
     767              $C$DW$149       .dwtag  DW_TAG_formal_parameter
     768                      .dwattr $C$DW$149, DW_AT_type(*$C$DW$T$301)
     769                      .dwendtag $C$DW$146
     770              
     771              
     772              $C$DW$150       .dwtag  DW_TAG_subprogram, DW_AT_name("USER_computeFlux")
     773                      .dwattr $C$DW$150, DW_AT_TI_symbol_name("_USER_computeFlux")
TMS320C2000 Assembler PC v6.4.4 Wed Jul 08 12:49:31 2015

Tools Copyright (c) 1996-2015 Texas Instruments Incorporated
C:\Users\grant\AppData\Local\Temp\0448010                            PAGE   16

     774                      .dwattr $C$DW$150, DW_AT_type(*$C$DW$T$35)
     775                      .dwattr $C$DW$150, DW_AT_declaration
     776                      .dwattr $C$DW$150, DW_AT_external
     777              $C$DW$151       .dwtag  DW_TAG_formal_parameter
     778                      .dwattr $C$DW$151, DW_AT_type(*$C$DW$T$201)
     779              $C$DW$152       .dwtag  DW_TAG_formal_parameter
     780                      .dwattr $C$DW$152, DW_AT_type(*$C$DW$T$301)
     781                      .dwendtag $C$DW$150
     782              
     783              
     784              $C$DW$153       .dwtag  DW_TAG_subprogram, DW_AT_name("USER_computeFlux_pu_to_VpHz_sf")
     785                      .dwattr $C$DW$153, DW_AT_TI_symbol_name("_USER_computeFlux_pu_to_VpHz_sf")
     786                      .dwattr $C$DW$153, DW_AT_type(*$C$DW$T$35)
     787                      .dwattr $C$DW$153, DW_AT_declaration
     788                      .dwattr $C$DW$153, DW_AT_external
     789              
     790              $C$DW$154       .dwtag  DW_TAG_subprogram, DW_AT_name("USER_computeFlux_pu_to_Wb_sf")
     791                      .dwattr $C$DW$154, DW_AT_TI_symbol_name("_USER_computeFlux_pu_to_Wb_sf")
     792                      .dwattr $C$DW$154, DW_AT_type(*$C$DW$T$35)
     793                      .dwattr $C$DW$154, DW_AT_declaration
     794                      .dwattr $C$DW$154, DW_AT_external
     795              
     796              $C$DW$155       .dwtag  DW_TAG_subprogram, DW_AT_name("CTRL_initCtrl")
     797                      .dwattr $C$DW$155, DW_AT_TI_symbol_name("_CTRL_initCtrl")
     798                      .dwattr $C$DW$155, DW_AT_type(*$C$DW$T$201)
     799                      .dwattr $C$DW$155, DW_AT_declaration
     800                      .dwattr $C$DW$155, DW_AT_external
     801              $C$DW$156       .dwtag  DW_TAG_formal_parameter
     802                      .dwattr $C$DW$156, DW_AT_type(*$C$DW$T$239)
     803              $C$DW$157       .dwtag  DW_TAG_formal_parameter
     804                      .dwattr $C$DW$157, DW_AT_type(*$C$DW$T$239)
     805                      .dwendtag $C$DW$155
     806              
     807              
     808              $C$DW$158       .dwtag  DW_TAG_subprogram, DW_AT_name("PARK_init")
     809                      .dwattr $C$DW$158, DW_AT_TI_symbol_name("_PARK_init")
     810                      .dwattr $C$DW$158, DW_AT_type(*$C$DW$T$52)
     811                      .dwattr $C$DW$158, DW_AT_declaration
     812                      .dwattr $C$DW$158, DW_AT_external
     813              $C$DW$159       .dwtag  DW_TAG_formal_parameter
     814                      .dwattr $C$DW$159, DW_AT_type(*$C$DW$T$3)
     815              $C$DW$160       .dwtag  DW_TAG_formal_parameter
     816                      .dwattr $C$DW$160, DW_AT_type(*$C$DW$T$231)
     817                      .dwendtag $C$DW$158
     818              
     819              
     820              $C$DW$161       .dwtag  DW_TAG_subprogram, DW_AT_name("IPARK_init")
     821                      .dwattr $C$DW$161, DW_AT_TI_symbol_name("_IPARK_init")
     822                      .dwattr $C$DW$161, DW_AT_type(*$C$DW$T$58)
     823                      .dwattr $C$DW$161, DW_AT_declaration
     824                      .dwattr $C$DW$161, DW_AT_external
     825              $C$DW$162       .dwtag  DW_TAG_formal_parameter
     826                      .dwattr $C$DW$162, DW_AT_type(*$C$DW$T$3)
     827              $C$DW$163       .dwtag  DW_TAG_formal_parameter
     828                      .dwattr $C$DW$163, DW_AT_type(*$C$DW$T$231)
TMS320C2000 Assembler PC v6.4.4 Wed Jul 08 12:49:31 2015

Tools Copyright (c) 1996-2015 Texas Instruments Incorporated
C:\Users\grant\AppData\Local\Temp\0448010                            PAGE   17

     829                      .dwendtag $C$DW$161
     830              
     831              
     832              $C$DW$164       .dwtag  DW_TAG_subprogram, DW_AT_name("HAL_init")
     833                      .dwattr $C$DW$164, DW_AT_TI_symbol_name("_HAL_init")
     834                      .dwattr $C$DW$164, DW_AT_type(*$C$DW$T$259)
     835                      .dwattr $C$DW$164, DW_AT_declaration
     836                      .dwattr $C$DW$164, DW_AT_external
     837              $C$DW$165       .dwtag  DW_TAG_formal_parameter
     838                      .dwattr $C$DW$165, DW_AT_type(*$C$DW$T$3)
     839              $C$DW$166       .dwtag  DW_TAG_formal_parameter
     840                      .dwattr $C$DW$166, DW_AT_type(*$C$DW$T$231)
     841                      .dwendtag $C$DW$164
     842              
     843              
     844              $C$DW$167       .dwtag  DW_TAG_subprogram, DW_AT_name("CLARKE_init")
     845                      .dwattr $C$DW$167, DW_AT_TI_symbol_name("_CLARKE_init")
     846                      .dwattr $C$DW$167, DW_AT_type(*$C$DW$T$47)
     847                      .dwattr $C$DW$167, DW_AT_declaration
     848                      .dwattr $C$DW$167, DW_AT_external
     849              $C$DW$168       .dwtag  DW_TAG_formal_parameter
     850                      .dwattr $C$DW$168, DW_AT_type(*$C$DW$T$3)
     851              $C$DW$169       .dwtag  DW_TAG_formal_parameter
     852                      .dwattr $C$DW$169, DW_AT_type(*$C$DW$T$231)
     853                      .dwendtag $C$DW$167
     854              
     855              
     856              $C$DW$170       .dwtag  DW_TAG_subprogram, DW_AT_name("USER_computeTorque_Flux_Iq_pu_to_Nm_sf")
     857                      .dwattr $C$DW$170, DW_AT_TI_symbol_name("_USER_computeTorque_Flux_Iq_pu_to_Nm_sf")
     858                      .dwattr $C$DW$170, DW_AT_type(*$C$DW$T$35)
     859                      .dwattr $C$DW$170, DW_AT_declaration
     860                      .dwattr $C$DW$170, DW_AT_external
     861              
     862              $C$DW$171       .dwtag  DW_TAG_subprogram, DW_AT_name("USER_computeTorque_Ls_Id_Iq_pu_to_Nm_sf")
     863                      .dwattr $C$DW$171, DW_AT_TI_symbol_name("_USER_computeTorque_Ls_Id_Iq_pu_to_Nm_sf")
     864                      .dwattr $C$DW$171, DW_AT_type(*$C$DW$T$35)
     865                      .dwattr $C$DW$171, DW_AT_declaration
     866                      .dwattr $C$DW$171, DW_AT_external
     867              
     868              $C$DW$172       .dwtag  DW_TAG_subprogram, DW_AT_name("SVGEN_init")
     869                      .dwattr $C$DW$172, DW_AT_TI_symbol_name("_SVGEN_init")
     870                      .dwattr $C$DW$172, DW_AT_type(*$C$DW$T$61)
     871                      .dwattr $C$DW$172, DW_AT_declaration
     872                      .dwattr $C$DW$172, DW_AT_external
     873              $C$DW$173       .dwtag  DW_TAG_formal_parameter
     874                      .dwattr $C$DW$173, DW_AT_type(*$C$DW$T$3)
     875              $C$DW$174       .dwtag  DW_TAG_formal_parameter
     876                      .dwattr $C$DW$174, DW_AT_type(*$C$DW$T$231)
     877                      .dwendtag $C$DW$172
     878              
     879                      .global _ipark
     880 00000022       _ipark: .usect  ".ebss",4,1,1
     881              $C$DW$175       .dwtag  DW_TAG_variable, DW_AT_name("ipark")
     882                      .dwattr $C$DW$175, DW_AT_TI_symbol_name("_ipark")
     883                      .dwattr $C$DW$175, DW_AT_location[DW_OP_addr _ipark]
TMS320C2000 Assembler PC v6.4.4 Wed Jul 08 12:49:31 2015

Tools Copyright (c) 1996-2015 Texas Instruments Incorporated
C:\Users\grant\AppData\Local\Temp\0448010                            PAGE   18

     884                      .dwattr $C$DW$175, DW_AT_type(*$C$DW$T$59)
     885                      .dwattr $C$DW$175, DW_AT_external
     886                      .global _park
     887 00000026       _park:  .usect  ".ebss",4,1,1
     888              $C$DW$176       .dwtag  DW_TAG_variable, DW_AT_name("park")
     889                      .dwattr $C$DW$176, DW_AT_TI_symbol_name("_park")
     890                      .dwattr $C$DW$176, DW_AT_location[DW_OP_addr _park]
     891                      .dwattr $C$DW$176, DW_AT_type(*$C$DW$T$53)
     892                      .dwattr $C$DW$176, DW_AT_external
     893                      .global _gAdcBiasV
     894 0000002a       _gAdcBiasV:     .usect  ".ebss",6,1,1
     895              $C$DW$177       .dwtag  DW_TAG_variable, DW_AT_name("gAdcBiasV")
     896                      .dwattr $C$DW$177, DW_AT_TI_symbol_name("_gAdcBiasV")
     897                      .dwattr $C$DW$177, DW_AT_location[DW_OP_addr _gAdcBiasV]
     898                      .dwattr $C$DW$177, DW_AT_type(*$C$DW$T$118)
     899                      .dwattr $C$DW$177, DW_AT_external
     900                      .global _clarke_I
     901 00000030       _clarke_I:      .usect  ".ebss",6,1,1
     902              $C$DW$178       .dwtag  DW_TAG_variable, DW_AT_name("clarke_I")
     903                      .dwattr $C$DW$178, DW_AT_TI_symbol_name("_clarke_I")
     904                      .dwattr $C$DW$178, DW_AT_location[DW_OP_addr _clarke_I]
     905                      .dwattr $C$DW$178, DW_AT_type(*$C$DW$T$48)
     906                      .dwattr $C$DW$178, DW_AT_external
     907                      .global _clarke_V
     908 00000036       _clarke_V:      .usect  ".ebss",6,1,1
     909              $C$DW$179       .dwtag  DW_TAG_variable, DW_AT_name("clarke_V")
     910                      .dwattr $C$DW$179, DW_AT_TI_symbol_name("_clarke_V")
     911                      .dwattr $C$DW$179, DW_AT_location[DW_OP_addr _clarke_V]
     912                      .dwattr $C$DW$179, DW_AT_type(*$C$DW$T$48)
     913                      .dwattr $C$DW$179, DW_AT_external
     914                      .global _gPwmData
     915 00000040       _gPwmData:      .usect  ".ebss",6,1,1
     916              $C$DW$180       .dwtag  DW_TAG_variable, DW_AT_name("gPwmData")
     917                      .dwattr $C$DW$180, DW_AT_TI_symbol_name("_gPwmData")
     918                      .dwattr $C$DW$180, DW_AT_location[DW_OP_addr _gPwmData]
     919                      .dwattr $C$DW$180, DW_AT_type(*$C$DW$T$263)
     920                      .dwattr $C$DW$180, DW_AT_external
     921                      .global _gAdcBiasI
     922 00000046       _gAdcBiasI:     .usect  ".ebss",6,1,1
     923              $C$DW$181       .dwtag  DW_TAG_variable, DW_AT_name("gAdcBiasI")
     924                      .dwattr $C$DW$181, DW_AT_TI_symbol_name("_gAdcBiasI")
     925                      .dwattr $C$DW$181, DW_AT_location[DW_OP_addr _gAdcBiasI]
     926                      .dwattr $C$DW$181, DW_AT_type(*$C$DW$T$118)
     927                      .dwattr $C$DW$181, DW_AT_external
     928                      .global _gAdcData
     929 0000004c       _gAdcData:      .usect  ".ebss",14,1,1
     930              $C$DW$182       .dwtag  DW_TAG_variable, DW_AT_name("gAdcData")
     931                      .dwattr $C$DW$182, DW_AT_TI_symbol_name("_gAdcData")
     932                      .dwattr $C$DW$182, DW_AT_location[DW_OP_addr _gAdcData]
     933                      .dwattr $C$DW$182, DW_AT_type(*$C$DW$T$150)
     934                      .dwattr $C$DW$182, DW_AT_external
     935                      .global _gDrvSpi8301Vars
     936 0000005a       _gDrvSpi8301Vars:       .usect  ".ebss",24,1,0
     937              $C$DW$183       .dwtag  DW_TAG_variable, DW_AT_name("gDrvSpi8301Vars")
     938                      .dwattr $C$DW$183, DW_AT_TI_symbol_name("_gDrvSpi8301Vars")
TMS320C2000 Assembler PC v6.4.4 Wed Jul 08 12:49:31 2015

Tools Copyright (c) 1996-2015 Texas Instruments Incorporated
C:\Users\grant\AppData\Local\Temp\0448010                            PAGE   19

     939                      .dwattr $C$DW$183, DW_AT_location[DW_OP_addr _gDrvSpi8301Vars]
     940                      .dwattr $C$DW$183, DW_AT_type(*$C$DW$T$247)
     941                      .dwattr $C$DW$183, DW_AT_external
     942                      .global _gMotorVars
     943 00000080       _gMotorVars:    .usect  ".ebss",102,1,1
     944              $C$DW$184       .dwtag  DW_TAG_variable, DW_AT_name("gMotorVars")
     945                      .dwattr $C$DW$184, DW_AT_TI_symbol_name("_gMotorVars")
     946                      .dwattr $C$DW$184, DW_AT_location[DW_OP_addr _gMotorVars]
     947                      .dwattr $C$DW$184, DW_AT_type(*$C$DW$T$280)
     948                      .dwattr $C$DW$184, DW_AT_external
     949              $C$DW$185       .dwtag  DW_TAG_variable, DW_AT_name("hal")
     950                      .dwattr $C$DW$185, DW_AT_TI_symbol_name("_hal")
     951                      .dwattr $C$DW$185, DW_AT_type(*$C$DW$T$256)
     952                      .dwattr $C$DW$185, DW_AT_declaration
     953                      .dwattr $C$DW$185, DW_AT_external
     954                      .global _gUserParams
     955 00000100       _gUserParams:   .usect  ".ebss",172,1,1
     956              $C$DW$186       .dwtag  DW_TAG_variable, DW_AT_name("gUserParams")
     957                      .dwattr $C$DW$186, DW_AT_TI_symbol_name("_gUserParams")
     958                      .dwattr $C$DW$186, DW_AT_location[DW_OP_addr _gUserParams]
     959                      .dwattr $C$DW$186, DW_AT_type(*$C$DW$T$207)
     960                      .dwattr $C$DW$186, DW_AT_external
     961              ;       C:\ti\ccsv6\tools\compiler\ti-cgt-c2000_6.4.4\bin\opt2000.exe C:\\Users\\grant\\AppData\\Local\\Temp\
     962              ;       C:\ti\ccsv6\tools\compiler\ti-cgt-c2000_6.4.4\bin\ac2000.exe -@C:\\Users\\grant\\AppData\\Local\\Temp
     963 00000000               .sect   ".text"
     964                      .clink
     965                      .global _updateKpKiGains
     966              
     967              $C$DW$187       .dwtag  DW_TAG_subprogram, DW_AT_name("updateKpKiGains")
     968                      .dwattr $C$DW$187, DW_AT_low_pc(_updateKpKiGains)
     969                      .dwattr $C$DW$187, DW_AT_high_pc(0x00)
     970                      .dwattr $C$DW$187, DW_AT_TI_symbol_name("_updateKpKiGains")
     971                      .dwattr $C$DW$187, DW_AT_external
     972                      .dwattr $C$DW$187, DW_AT_TI_begin_file("../proj_lab20.c")
     973                      .dwattr $C$DW$187, DW_AT_TI_begin_line(0x2bd)
     974                      .dwattr $C$DW$187, DW_AT_TI_begin_column(0x06)
     975                      .dwattr $C$DW$187, DW_AT_TI_max_frame_size(-2)
     976                      .dwpsn  file "../proj_lab20.c",line 702,column 1,is_stmt,address _updateKpKiGains,isa 0
     977              
     978                      .dwfde $C$DW$CIE, _updateKpKiGains
     979              $C$DW$188       .dwtag  DW_TAG_formal_parameter, DW_AT_name("handle")
     980                      .dwattr $C$DW$188, DW_AT_TI_symbol_name("_handle")
     981                      .dwattr $C$DW$188, DW_AT_type(*$C$DW$T$201)
     982                      .dwattr $C$DW$188, DW_AT_location[DW_OP_reg12]
     983              
     984              ;***************************************************************
     985              ;* FNAME: _updateKpKiGains              FR SIZE:   0           *
     986              ;*                                                             *
     987              ;* FUNCTION ENVIRONMENT                                        *
     988              ;*                                                             *
     989              ;* FUNCTION PROPERTIES                                         *
     990              ;*                            0 Parameter,  0 Auto,  0 SOE     *
     991              ;***************************************************************
     992              
     993              _updateKpKiGains:
TMS320C2000 Assembler PC v6.4.4 Wed Jul 08 12:49:31 2015

Tools Copyright (c) 1996-2015 Texas Instruments Incorporated
C:\Users\grant\AppData\Local\Temp\0448010                            PAGE   20

     994              ;* AR4   assigned to _handle
     995              $C$DW$189       .dwtag  DW_TAG_variable, DW_AT_name("handle")
     996                      .dwattr $C$DW$189, DW_AT_TI_symbol_name("_handle")
     997                      .dwattr $C$DW$189, DW_AT_type(*$C$DW$T$238)
     998                      .dwattr $C$DW$189, DW_AT_location[DW_OP_reg12]
     999              ;* AL    assigned to _Ki
    1000              $C$DW$190       .dwtag  DW_TAG_variable, DW_AT_name("Ki")
    1001                      .dwattr $C$DW$190, DW_AT_TI_symbol_name("_Ki")
    1002                      .dwattr $C$DW$190, DW_AT_type(*$C$DW$T$35)
    1003                      .dwattr $C$DW$190, DW_AT_location[DW_OP_reg0]
    1004              ;* AL    assigned to _Kp
    1005              $C$DW$191       .dwtag  DW_TAG_variable, DW_AT_name("Kp")
    1006                      .dwattr $C$DW$191, DW_AT_TI_symbol_name("_Kp")
    1007                      .dwattr $C$DW$191, DW_AT_type(*$C$DW$T$35)
    1008                      .dwattr $C$DW$191, DW_AT_location[DW_OP_reg0]
    1009              ;* AL    assigned to _Ki
    1010              $C$DW$192       .dwtag  DW_TAG_variable, DW_AT_name("Ki")
    1011                      .dwattr $C$DW$192, DW_AT_TI_symbol_name("_Ki")
    1012                      .dwattr $C$DW$192, DW_AT_type(*$C$DW$T$35)
    1013                      .dwattr $C$DW$192, DW_AT_location[DW_OP_reg0]
    1014              ;* AL    assigned to _Kp
    1015              $C$DW$193       .dwtag  DW_TAG_variable, DW_AT_name("Kp")
    1016                      .dwattr $C$DW$193, DW_AT_TI_symbol_name("_Kp")
    1017                      .dwattr $C$DW$193, DW_AT_type(*$C$DW$T$35)
    1018                      .dwattr $C$DW$193, DW_AT_location[DW_OP_reg0]
    1019              ;* AL    assigned to _Ki
    1020              $C$DW$194       .dwtag  DW_TAG_variable, DW_AT_name("Ki")
    1021                      .dwattr $C$DW$194, DW_AT_TI_symbol_name("_Ki")
    1022                      .dwattr $C$DW$194, DW_AT_type(*$C$DW$T$35)
    1023                      .dwattr $C$DW$194, DW_AT_location[DW_OP_reg0]
    1024              ;* AL    assigned to _Kp
    1025              $C$DW$195       .dwtag  DW_TAG_variable, DW_AT_name("Kp")
    1026                      .dwattr $C$DW$195, DW_AT_TI_symbol_name("_Kp")
    1027                      .dwattr $C$DW$195, DW_AT_type(*$C$DW$T$35)
    1028                      .dwattr $C$DW$195, DW_AT_location[DW_OP_reg0]
    1029                      .dwcfi  cfa_offset, -2
    1030                      .dwcfi  save_reg_to_mem, 26, 0
    1031 00000000 761F-         MOVW      DP,#_gMotorVars+10    ; [CPU_U] 
         00000001 0002 
    1032                      .dwpsn  file "../proj_lab20.c",line 703,column 3,is_stmt,isa 0
    1033 00000002 920A-         MOV       AL,@_gMotorVars+10    ; [CPU_] |703| 
    1034 00000003 5203          CMPB      AL,#3                 ; [CPU_] |703| 
    1035 00000004 ED1D          BF        $C$L1,NEQ             ; [CPU_] |703| 
    1036                      ; branchcc occurs ; [] |703| 
    1037 00000005 9202-         MOV       AL,@_gMotorVars+2     ; [CPU_] |703| 
    1038 00000006 5201          CMPB      AL,#1                 ; [CPU_] |703| 
    1039 00000007 ED1A          BF        $C$L1,NEQ             ; [CPU_] |703| 
    1040                      ; branchcc occurs ; [] |703| 
    1041 00000008 761F-         MOVW      DP,#_Flag_Latch_softwareUpdate ; [CPU_U] 
         00000009 0000 
    1042 0000000a 9201-         MOV       AL,@_Flag_Latch_softwareUpdate ; [CPU_] |703| 
    1043 0000000b 5201          CMPB      AL,#1                 ; [CPU_] |703| 
    1044 0000000c EC15          BF        $C$L1,EQ              ; [CPU_] |703| 
    1045                      ; branchcc occurs ; [] |703| 
    1046 0000000d 761F-         MOVW      DP,#_gMotorVars+66    ; [CPU_U] 
TMS320C2000 Assembler PC v6.4.4 Wed Jul 08 12:49:31 2015

Tools Copyright (c) 1996-2015 Texas Instruments Incorporated
C:\Users\grant\AppData\Local\Temp\0448010                            PAGE   21

         0000000e 0003 
    1047                      .dwpsn  file "C:/ti/motorware/motorware_1_01_00_14/sw/modules/ctrl/src/32b/ctrl.h",line 1505,column 7
    1048 0000000f D0CE          MOVB      XAR0,#206             ; [CPU_] |1505| 
    1049                      .dwpsn  file "../proj_lab20.c",line 706,column 7,is_stmt,isa 0
    1050 00000010 0602-         MOVL      ACC,@_gMotorVars+66   ; [CPU_] |706| 
    1051                      .dwpsn  file "C:/ti/motorware/motorware_1_01_00_14/sw/modules/ctrl/src/32b/ctrl.h",line 1505,column 7
    1052 00000011 1E94          MOVL      *+XAR4[AR0],ACC       ; [CPU_] |1505| 
    1053                      .dwpsn  file "C:/ti/motorware/motorware_1_01_00_14/sw/modules/ctrl/src/32b/ctrl.h",line 1480,column 7
    1054 00000012 D0D4          MOVB      XAR0,#212             ; [CPU_] |1480| 
    1055                      .dwpsn  file "../proj_lab20.c",line 707,column 7,is_stmt,isa 0
    1056 00000013 0604-         MOVL      ACC,@_gMotorVars+68   ; [CPU_] |707| 
    1057                      .dwpsn  file "C:/ti/motorware/motorware_1_01_00_14/sw/modules/ctrl/src/32b/ctrl.h",line 1480,column 7
    1058 00000014 1E94          MOVL      *+XAR4[AR0],ACC       ; [CPU_] |1480| 
    1059                      .dwpsn  file "C:/ti/motorware/motorware_1_01_00_14/sw/modules/ctrl/src/32b/ctrl.h",line 1509,column 7
    1060 00000015 D0CA          MOVB      XAR0,#202             ; [CPU_] |1509| 
    1061                      .dwpsn  file "../proj_lab20.c",line 710,column 7,is_stmt,isa 0
    1062 00000016 0606-         MOVL      ACC,@_gMotorVars+70   ; [CPU_] |710| 
    1063                      .dwpsn  file "C:/ti/motorware/motorware_1_01_00_14/sw/modules/ctrl/src/32b/ctrl.h",line 1509,column 7
    1064 00000017 1E94          MOVL      *+XAR4[AR0],ACC       ; [CPU_] |1509| 
    1065                      .dwpsn  file "C:/ti/motorware/motorware_1_01_00_14/sw/modules/ctrl/src/32b/ctrl.h",line 1484,column 7
    1066 00000018 D0D0          MOVB      XAR0,#208             ; [CPU_] |1484| 
    1067                      .dwpsn  file "../proj_lab20.c",line 711,column 7,is_stmt,isa 0
    1068 00000019 0608-         MOVL      ACC,@_gMotorVars+72   ; [CPU_] |711| 
    1069                      .dwpsn  file "C:/ti/motorware/motorware_1_01_00_14/sw/modules/ctrl/src/32b/ctrl.h",line 1484,column 7
    1070 0000001a 1E94          MOVL      *+XAR4[AR0],ACC       ; [CPU_] |1484| 
    1071                      .dwpsn  file "C:/ti/motorware/motorware_1_01_00_14/sw/modules/ctrl/src/32b/ctrl.h",line 1513,column 7
    1072 0000001b D0CC          MOVB      XAR0,#204             ; [CPU_] |1513| 
    1073                      .dwpsn  file "../proj_lab20.c",line 712,column 7,is_stmt,isa 0
    1074 0000001c 0606-         MOVL      ACC,@_gMotorVars+70   ; [CPU_] |712| 
    1075                      .dwpsn  file "C:/ti/motorware/motorware_1_01_00_14/sw/modules/ctrl/src/32b/ctrl.h",line 1513,column 7
    1076 0000001d 1E94          MOVL      *+XAR4[AR0],ACC       ; [CPU_] |1513| 
    1077                      .dwpsn  file "../proj_lab20.c",line 713,column 7,is_stmt,isa 0
    1078 0000001e 0608-         MOVL      ACC,@_gMotorVars+72   ; [CPU_] |713| 
    1079                      .dwpsn  file "C:/ti/motorware/motorware_1_01_00_14/sw/modules/ctrl/src/32b/ctrl.h",line 1488,column 7
    1080 0000001f D0D2          MOVB      XAR0,#210             ; [CPU_] |1488| 
    1081 00000020 1E94          MOVL      *+XAR4[AR0],ACC       ; [CPU_] |1488| 
    1082              $C$L1:    
    1083              $C$DW$196       .dwtag  DW_TAG_TI_branch
    1084                      .dwattr $C$DW$196, DW_AT_low_pc(0x00)
    1085                      .dwattr $C$DW$196, DW_AT_TI_return
    1086 00000021 0006          LRETR     ; [CPU_] 
    1087                      ; return occurs ; [] 
    1088                      .dwattr $C$DW$187, DW_AT_TI_end_file("../proj_lab20.c")
    1089                      .dwattr $C$DW$187, DW_AT_TI_end_line(0x2cd)
    1090                      .dwattr $C$DW$187, DW_AT_TI_end_column(0x01)
    1091                      .dwendentry
    1092                      .dwendtag $C$DW$187
    1093              
    1094 00000022               .sect   ".text"
    1095                      .clink
    1096                      .global _updateGlobalVariables_motor
    1097              
    1098              $C$DW$197       .dwtag  DW_TAG_subprogram, DW_AT_name("updateGlobalVariables_motor")
    1099                      .dwattr $C$DW$197, DW_AT_low_pc(_updateGlobalVariables_motor)
    1100                      .dwattr $C$DW$197, DW_AT_high_pc(0x00)
TMS320C2000 Assembler PC v6.4.4 Wed Jul 08 12:49:31 2015

Tools Copyright (c) 1996-2015 Texas Instruments Incorporated
C:\Users\grant\AppData\Local\Temp\0448010                            PAGE   22

    1101                      .dwattr $C$DW$197, DW_AT_TI_symbol_name("_updateGlobalVariables_motor")
    1102                      .dwattr $C$DW$197, DW_AT_external
    1103                      .dwattr $C$DW$197, DW_AT_TI_begin_file("../proj_lab20.c")
    1104                      .dwattr $C$DW$197, DW_AT_TI_begin_line(0x28e)
    1105                      .dwattr $C$DW$197, DW_AT_TI_begin_column(0x06)
    1106                      .dwattr $C$DW$197, DW_AT_TI_max_frame_size(-8)
    1107                      .dwpsn  file "../proj_lab20.c",line 655,column 1,is_stmt,address _updateGlobalVariables_motor,isa 0
    1108              
    1109                      .dwfde $C$DW$CIE, _updateGlobalVariables_motor
    1110              $C$DW$198       .dwtag  DW_TAG_formal_parameter, DW_AT_name("handle")
    1111                      .dwattr $C$DW$198, DW_AT_TI_symbol_name("_handle")
    1112                      .dwattr $C$DW$198, DW_AT_type(*$C$DW$T$201)
    1113                      .dwattr $C$DW$198, DW_AT_location[DW_OP_reg12]
    1114              
    1115              ;***************************************************************
    1116              ;* FNAME: _updateGlobalVariables_motor  FR SIZE:   6           *
    1117              ;*                                                             *
    1118              ;* FUNCTION ENVIRONMENT                                        *
    1119              ;*                                                             *
    1120              ;* FUNCTION PROPERTIES                                         *
    1121              ;*                            2 Parameter,  0 Auto,  4 SOE     *
    1122              ;***************************************************************
    1123              
    1124              _updateGlobalVariables_motor:
    1125              ;* XT    assigned to $O$R2
    1126              ;* AR2   assigned to _handle
    1127              $C$DW$199       .dwtag  DW_TAG_variable, DW_AT_name("handle")
    1128                      .dwattr $C$DW$199, DW_AT_TI_symbol_name("_handle")
    1129                      .dwattr $C$DW$199, DW_AT_type(*$C$DW$T$238)
    1130                      .dwattr $C$DW$199, DW_AT_location[DW_OP_reg8]
    1131                      .dwcfi  cfa_offset, -2
    1132                      .dwcfi  save_reg_to_mem, 26, 0
    1133 00000022 B2BD          MOVL      *SP++,XAR1            ; [CPU_] 
    1134                      .dwcfi  save_reg_to_mem, 7, 2
    1135                      .dwcfi  cfa_offset, -4
    1136 00000023 AABD          MOVL      *SP++,XAR2            ; [CPU_] 
    1137                      .dwcfi  save_reg_to_mem, 9, 4
    1138                      .dwcfi  cfa_offset, -6
    1139 00000024 FE02          ADDB      SP,#2                 ; [CPU_U] 
    1140                      .dwcfi  cfa_offset, -8
    1141 00000025 86A4          MOVL      XAR2,XAR4             ; [CPU_] |655| 
    1142                      .dwpsn  file "../proj_lab20.c",line 659,column 3,is_stmt,isa 0
    1143 00000026 D018          MOVB      XAR0,#24              ; [CPU_] |659| 
    1144 00000027 8A92          MOVL      XAR4,*+XAR2[AR0]      ; [CPU_] |659| 
    1145              $C$DW$200       .dwtag  DW_TAG_TI_branch
    1146                      .dwattr $C$DW$200, DW_AT_low_pc(0x00)
    1147                      .dwattr $C$DW$200, DW_AT_name("_EST_getSpeed_krpm")
    1148                      .dwattr $C$DW$200, DW_AT_TI_call
    1149 00000028 7640!         LCR       #_EST_getSpeed_krpm   ; [CPU_] |659| 
         00000029 0000 
    1150                      ; call occurs [#_EST_getSpeed_krpm] ; [] |659| 
    1151 0000002a 761F-         MOVW      DP,#_gMotorVars+28    ; [CPU_U] 
         0000002b 0002 
    1152                      .dwpsn  file "C:/ti/motorware/motorware_1_01_00_14/sw/modules/traj/src/32b/traj.h",line 96,column 3,i
    1153 0000002c D06C          MOVB      XAR0,#108             ; [CPU_] |96| 
TMS320C2000 Assembler PC v6.4.4 Wed Jul 08 12:49:31 2015

Tools Copyright (c) 1996-2015 Texas Instruments Incorporated
C:\Users\grant\AppData\Local\Temp\0448010                            PAGE   23

    1154                      .dwpsn  file "../proj_lab20.c",line 659,column 3,is_stmt,isa 0
    1155 0000002d 1E1C-         MOVL      @_gMotorVars+28,ACC   ; [CPU_] |659| 
    1156                      .dwpsn  file "C:/ti/motorware/motorware_1_01_00_14/sw/modules/traj/src/32b/traj.h",line 96,column 3,i
    1157 0000002e 8A92          MOVL      XAR4,*+XAR2[AR0]      ; [CPU_] |96| 
    1158                      .dwpsn  file "../proj_lab20.c",line 662,column 3,is_stmt,isa 0
    1159 0000002f D018          MOVB      XAR0,#24              ; [CPU_] |662| 
    1160                      .dwpsn  file "C:/ti/motorware/motorware_1_01_00_14/sw/modules/traj/src/32b/traj.h",line 96,column 3,i
    1161 00000030 8BD4          MOVL      XAR1,*+XAR4[2]        ; [CPU_] |96| 
    1162                      .dwpsn  file "../proj_lab20.c",line 662,column 3,is_stmt,isa 0
    1163 00000031 8A92          MOVL      XAR4,*+XAR2[AR0]      ; [CPU_] |662| 
    1164              $C$DW$201       .dwtag  DW_TAG_TI_branch
    1165                      .dwattr $C$DW$201, DW_AT_low_pc(0x00)
    1166                      .dwattr $C$DW$201, DW_AT_name("_EST_get_pu_to_krpm_sf")
    1167                      .dwattr $C$DW$201, DW_AT_TI_call
    1168 00000032 7640!         LCR       #_EST_get_pu_to_krpm_sf ; [CPU_] |662| 
         00000033 0000 
    1169                      ; call occurs [#_EST_get_pu_to_krpm_sf] ; [] |662| 
    1170 00000034 761F-         MOVW      DP,#_gMotorVars+24    ; [CPU_U] 
         00000035 0002 
    1171 00000036 B2AC          MOVL      XT,XAR1               ; [CPU_] |662| 
    1172                      .dwpsn  file "../proj_lab20.c",line 665,column 3,is_stmt,isa 0
    1173 00000037 8AA2          MOVL      XAR4,XAR2             ; [CPU_] |665| 
    1174                      .dwpsn  file "../proj_lab20.c",line 662,column 3,is_stmt,isa 0
    1175 00000038 5605          IMPYL     P,XT,ACC              ; [CPU_] |662| 
         00000039 00A9 
    1176 0000003a 5663          QMPYL     ACC,XT,ACC            ; [CPU_] |662| 
         0000003b 00A9 
    1177 0000003c 56A7          LSL64     ACC:P,#8              ; [CPU_] |662| 
    1178 0000003d 1E18-         MOVL      @_gMotorVars+24,ACC   ; [CPU_] |662| 
    1179 0000003e 761F-         MOVW      DP,#_gTorque_Ls_Id_Iq_pu_to_Nm_sf ; [CPU_U] 
         0000003f 0000 
    1180                      .dwpsn  file "../proj_lab20.c",line 665,column 3,is_stmt,isa 0
    1181 00000040 060A-         MOVL      ACC,@_gTorque_Ls_Id_Iq_pu_to_Nm_sf ; [CPU_] |665| 
    1182 00000041 1E42          MOVL      *-SP[2],ACC           ; [CPU_] |665| 
    1183 00000042 060C-         MOVL      ACC,@_gTorque_Flux_Iq_pu_to_Nm_sf ; [CPU_] |665| 
    1184              $C$DW$202       .dwtag  DW_TAG_TI_branch
    1185                      .dwattr $C$DW$202, DW_AT_low_pc(0x00)
    1186                      .dwattr $C$DW$202, DW_AT_name("_USER_computeTorque_Nm")
    1187                      .dwattr $C$DW$202, DW_AT_TI_call
    1188 00000043 7640!         LCR       #_USER_computeTorque_Nm ; [CPU_] |665| 
         00000044 0000 
    1189                      ; call occurs [#_USER_computeTorque_Nm] ; [] |665| 
    1190 00000045 761F-         MOVW      DP,#_gMotorVars+38    ; [CPU_U] 
         00000046 0002 
    1191                      .dwpsn  file "../proj_lab20.c",line 668,column 3,is_stmt,isa 0
    1192 00000047 D018          MOVB      XAR0,#24              ; [CPU_] |668| 
    1193                      .dwpsn  file "../proj_lab20.c",line 665,column 3,is_stmt,isa 0
    1194 00000048 1E26-         MOVL      @_gMotorVars+38,ACC   ; [CPU_] |665| 
    1195                      .dwpsn  file "../proj_lab20.c",line 668,column 3,is_stmt,isa 0
    1196 00000049 8A92          MOVL      XAR4,*+XAR2[AR0]      ; [CPU_] |668| 
    1197              $C$DW$203       .dwtag  DW_TAG_TI_branch
    1198                      .dwattr $C$DW$203, DW_AT_low_pc(0x00)
    1199                      .dwattr $C$DW$203, DW_AT_name("_EST_getIdRated")
    1200                      .dwattr $C$DW$203, DW_AT_TI_call
    1201 0000004a 7640!         LCR       #_EST_getIdRated      ; [CPU_] |668| 
TMS320C2000 Assembler PC v6.4.4 Wed Jul 08 12:49:31 2015

Tools Copyright (c) 1996-2015 Texas Instruments Incorporated
C:\Users\grant\AppData\Local\Temp\0448010                            PAGE   24

         0000004b 0000 
    1202                      ; call occurs [#_EST_getIdRated] ; [] |668| 
    1203 0000004c 761F-         MOVW      DP,#_gMotorVars+40    ; [CPU_U] 
         0000004d 0002 
    1204                      .dwpsn  file "../proj_lab20.c",line 671,column 3,is_stmt,isa 0
    1205 0000004e D018          MOVB      XAR0,#24              ; [CPU_] |671| 
    1206                      .dwpsn  file "../proj_lab20.c",line 668,column 3,is_stmt,isa 0
    1207 0000004f 1E28-         MOVL      @_gMotorVars+40,ACC   ; [CPU_] |668| 
    1208                      .dwpsn  file "../proj_lab20.c",line 671,column 3,is_stmt,isa 0
    1209 00000050 8A92          MOVL      XAR4,*+XAR2[AR0]      ; [CPU_] |671| 
    1210              $C$DW$204       .dwtag  DW_TAG_TI_branch
    1211                      .dwattr $C$DW$204, DW_AT_low_pc(0x00)
    1212                      .dwattr $C$DW$204, DW_AT_name("_EST_getRr_Ohm")
    1213                      .dwattr $C$DW$204, DW_AT_TI_call
    1214 00000051 7640!         LCR       #_EST_getRr_Ohm       ; [CPU_] |671| 
         00000052 0000 
    1215                      ; call occurs [#_EST_getRr_Ohm] ; [] |671| 
    1216 00000053 761F-         MOVW      DP,#_gMotorVars+42    ; [CPU_U] 
         00000054 0002 
    1217                      .dwpsn  file "../proj_lab20.c",line 674,column 3,is_stmt,isa 0
    1218 00000055 D018          MOVB      XAR0,#24              ; [CPU_] |674| 
    1219                      .dwpsn  file "../proj_lab20.c",line 671,column 3,is_stmt,isa 0
    1220 00000056 1E2A-         MOVL      @_gMotorVars+42,ACC   ; [CPU_] |671| 
    1221                      .dwpsn  file "../proj_lab20.c",line 674,column 3,is_stmt,isa 0
    1222 00000057 8A92          MOVL      XAR4,*+XAR2[AR0]      ; [CPU_] |674| 
    1223              $C$DW$205       .dwtag  DW_TAG_TI_branch
    1224                      .dwattr $C$DW$205, DW_AT_low_pc(0x00)
    1225                      .dwattr $C$DW$205, DW_AT_name("_EST_getRs_Ohm")
    1226                      .dwattr $C$DW$205, DW_AT_TI_call
    1227 00000058 7640!         LCR       #_EST_getRs_Ohm       ; [CPU_] |674| 
         00000059 0000 
    1228                      ; call occurs [#_EST_getRs_Ohm] ; [] |674| 
    1229 0000005a 761F-         MOVW      DP,#_gMotorVars+44    ; [CPU_U] 
         0000005b 0002 
    1230                      .dwpsn  file "../proj_lab20.c",line 677,column 3,is_stmt,isa 0
    1231 0000005c D018          MOVB      XAR0,#24              ; [CPU_] |677| 
    1232                      .dwpsn  file "../proj_lab20.c",line 674,column 3,is_stmt,isa 0
    1233 0000005d 1E2C-         MOVL      @_gMotorVars+44,ACC   ; [CPU_] |674| 
    1234                      .dwpsn  file "../proj_lab20.c",line 677,column 3,is_stmt,isa 0
    1235 0000005e 8A92          MOVL      XAR4,*+XAR2[AR0]      ; [CPU_] |677| 
    1236              $C$DW$206       .dwtag  DW_TAG_TI_branch
    1237                      .dwattr $C$DW$206, DW_AT_low_pc(0x00)
    1238                      .dwattr $C$DW$206, DW_AT_name("_EST_getLs_d_H")
    1239                      .dwattr $C$DW$206, DW_AT_TI_call
    1240 0000005f 7640!         LCR       #_EST_getLs_d_H       ; [CPU_] |677| 
         00000060 0000 
    1241                      ; call occurs [#_EST_getLs_d_H] ; [] |677| 
    1242 00000061 761F-         MOVW      DP,#_gMotorVars+48    ; [CPU_U] 
         00000062 0002 
    1243                      .dwpsn  file "../proj_lab20.c",line 680,column 3,is_stmt,isa 0
    1244 00000063 D018          MOVB      XAR0,#24              ; [CPU_] |680| 
    1245                      .dwpsn  file "../proj_lab20.c",line 677,column 3,is_stmt,isa 0
    1246 00000064 1E30-         MOVL      @_gMotorVars+48,ACC   ; [CPU_] |677| 
    1247                      .dwpsn  file "../proj_lab20.c",line 680,column 3,is_stmt,isa 0
    1248 00000065 8A92          MOVL      XAR4,*+XAR2[AR0]      ; [CPU_] |680| 
TMS320C2000 Assembler PC v6.4.4 Wed Jul 08 12:49:31 2015

Tools Copyright (c) 1996-2015 Texas Instruments Incorporated
C:\Users\grant\AppData\Local\Temp\0448010                            PAGE   25

    1249              $C$DW$207       .dwtag  DW_TAG_TI_branch
    1250                      .dwattr $C$DW$207, DW_AT_low_pc(0x00)
    1251                      .dwattr $C$DW$207, DW_AT_name("_EST_getLs_q_H")
    1252                      .dwattr $C$DW$207, DW_AT_TI_call
    1253 00000066 7640!         LCR       #_EST_getLs_q_H       ; [CPU_] |680| 
         00000067 0000 
    1254                      ; call occurs [#_EST_getLs_q_H] ; [] |680| 
    1255 00000068 761F-         MOVW      DP,#_gMotorVars+50    ; [CPU_U] 
         00000069 0002 
    1256                      .dwpsn  file "../proj_lab20.c",line 683,column 3,is_stmt,isa 0
    1257 0000006a D018          MOVB      XAR0,#24              ; [CPU_] |683| 
    1258                      .dwpsn  file "../proj_lab20.c",line 680,column 3,is_stmt,isa 0
    1259 0000006b 1E32-         MOVL      @_gMotorVars+50,ACC   ; [CPU_] |680| 
    1260                      .dwpsn  file "../proj_lab20.c",line 683,column 3,is_stmt,isa 0
    1261 0000006c 8A92          MOVL      XAR4,*+XAR2[AR0]      ; [CPU_] |683| 
    1262              $C$DW$208       .dwtag  DW_TAG_TI_branch
    1263                      .dwattr $C$DW$208, DW_AT_low_pc(0x00)
    1264                      .dwattr $C$DW$208, DW_AT_name("_EST_getFlux_VpHz")
    1265                      .dwattr $C$DW$208, DW_AT_TI_call
    1266 0000006d 7640!         LCR       #_EST_getFlux_VpHz    ; [CPU_] |683| 
         0000006e 0000 
    1267                      ; call occurs [#_EST_getFlux_VpHz] ; [] |683| 
    1268 0000006f 761F-         MOVW      DP,#_gMotorVars+52    ; [CPU_U] 
         00000070 0002 
    1269 00000071 1E34-         MOVL      @_gMotorVars+52,ACC   ; [CPU_] |683| 
    1270                      .dwpsn  file "../proj_lab20.c",line 686,column 3,is_stmt,isa 0
    1271 00000072 8AA2          MOVL      XAR4,XAR2             ; [CPU_] |686| 
    1272 00000073 761F-         MOVW      DP,#_gFlux_pu_to_Wb_sf ; [CPU_U] 
         00000074 0000 
    1273 00000075 060E-         MOVL      ACC,@_gFlux_pu_to_Wb_sf ; [CPU_] |686| 
    1274              $C$DW$209       .dwtag  DW_TAG_TI_branch
    1275                      .dwattr $C$DW$209, DW_AT_low_pc(0x00)
    1276                      .dwattr $C$DW$209, DW_AT_name("_USER_computeFlux")
    1277                      .dwattr $C$DW$209, DW_AT_TI_call
    1278 00000076 7640!         LCR       #_USER_computeFlux    ; [CPU_] |686| 
         00000077 0000 
    1279                      ; call occurs [#_USER_computeFlux] ; [] |686| 
    1280 00000078 761F-         MOVW      DP,#_gMotorVars+36    ; [CPU_U] 
         00000079 0002 
    1281                      .dwpsn  file "../proj_lab20.c",line 692,column 3,is_stmt,isa 0
    1282 0000007a D018          MOVB      XAR0,#24              ; [CPU_] |692| 
    1283                      .dwpsn  file "../proj_lab20.c",line 686,column 3,is_stmt,isa 0
    1284 0000007b 1E24-         MOVL      @_gMotorVars+36,ACC   ; [CPU_] |686| 
    1285                      .dwpsn  file "../proj_lab20.c",line 689,column 3,is_stmt,isa 0
    1286 0000007c 92E2          MOV       AL,*+XAR2[4]          ; [CPU_] |689| 
    1287 0000007d 960A-         MOV       @_gMotorVars+10,AL    ; [CPU_] |689| 
    1288                      .dwpsn  file "../proj_lab20.c",line 692,column 3,is_stmt,isa 0
    1289 0000007e 8A92          MOVL      XAR4,*+XAR2[AR0]      ; [CPU_] |692| 
    1290              $C$DW$210       .dwtag  DW_TAG_TI_branch
    1291                      .dwattr $C$DW$210, DW_AT_low_pc(0x00)
    1292                      .dwattr $C$DW$210, DW_AT_name("_EST_getState")
    1293                      .dwattr $C$DW$210, DW_AT_TI_call
    1294 0000007f 7640!         LCR       #_EST_getState        ; [CPU_] |692| 
         00000080 0000 
    1295                      ; call occurs [#_EST_getState] ; [] |692| 
TMS320C2000 Assembler PC v6.4.4 Wed Jul 08 12:49:31 2015

Tools Copyright (c) 1996-2015 Texas Instruments Incorporated
C:\Users\grant\AppData\Local\Temp\0448010                            PAGE   26

    1296 00000081 761F-         MOVW      DP,#_gMotorVars+11    ; [CPU_U] 
         00000082 0002 
    1297 00000083 960B-         MOV       @_gMotorVars+11,AL    ; [CPU_] |692| 
    1298                      .dwpsn  file "../proj_lab20.c",line 695,column 3,is_stmt,isa 0
    1299 00000084 8F06          MOVL      XAR4,#402653          ; [CPU_U] |695| 
         00000085 24DD 
    1300 00000086 761F-         MOVW      DP,#_gAdcData+12      ; [CPU_U] 
         00000087 0001 
    1301 00000088 8718-         MOVL      XT,@_gAdcData+12      ; [CPU_] |695| 
    1302 00000089 FE82          SUBB      SP,#2                 ; [CPU_U] 
    1303                      .dwcfi  cfa_offset, -6
    1304 0000008a 86BE          MOVL      XAR2,*--SP            ; [CPU_] 
    1305                      .dwcfi  cfa_offset, -4
    1306                      .dwcfi  restore_reg, 9
    1307 0000008b 5605          IMPYL     P,XT,XAR4             ; [CPU_] |695| 
         0000008c 00A4 
    1308 0000008d 5663          QMPYL     ACC,XT,XAR4           ; [CPU_] |695| 
         0000008e 00A4 
    1309 0000008f 8BBE          MOVL      XAR1,*--SP            ; [CPU_] 
    1310                      .dwcfi  cfa_offset, -2
    1311                      .dwcfi  restore_reg, 7
    1312 00000090 56A7          LSL64     ACC:P,#8              ; [CPU_] |695| 
    1313 00000091 761F-         MOVW      DP,#_gMotorVars+82    ; [CPU_U] 
         00000092 0003 
    1314 00000093 1E12-         MOVL      @_gMotorVars+82,ACC   ; [CPU_] |695| 
    1315              $C$DW$211       .dwtag  DW_TAG_TI_branch
    1316                      .dwattr $C$DW$211, DW_AT_low_pc(0x00)
    1317                      .dwattr $C$DW$211, DW_AT_TI_return
    1318 00000094 0006          LRETR     ; [CPU_] 
    1319                      ; return occurs ; [] 
    1320                      .dwattr $C$DW$197, DW_AT_TI_end_file("../proj_lab20.c")
    1321                      .dwattr $C$DW$197, DW_AT_TI_end_line(0x2ba)
    1322                      .dwattr $C$DW$197, DW_AT_TI_end_column(0x01)
    1323                      .dwendentry
    1324                      .dwendtag $C$DW$197
    1325              
    1326 00000095               .sect   ".text"
    1327                      .clink
    1328                      .global _setupClarke_V
    1329              
    1330              $C$DW$212       .dwtag  DW_TAG_subprogram, DW_AT_name("setupClarke_V")
    1331                      .dwattr $C$DW$212, DW_AT_low_pc(_setupClarke_V)
    1332                      .dwattr $C$DW$212, DW_AT_high_pc(0x00)
    1333                      .dwattr $C$DW$212, DW_AT_TI_symbol_name("_setupClarke_V")
    1334                      .dwattr $C$DW$212, DW_AT_external
    1335                      .dwattr $C$DW$212, DW_AT_TI_begin_file("../proj_lab20.c")
    1336                      .dwattr $C$DW$212, DW_AT_TI_begin_line(0x275)
    1337                      .dwattr $C$DW$212, DW_AT_TI_begin_column(0x06)
    1338                      .dwattr $C$DW$212, DW_AT_TI_max_frame_size(-2)
    1339                      .dwpsn  file "../proj_lab20.c",line 630,column 1,is_stmt,address _setupClarke_V,isa 0
    1340              
    1341                      .dwfde $C$DW$CIE, _setupClarke_V
    1342              $C$DW$213       .dwtag  DW_TAG_formal_parameter, DW_AT_name("handle")
    1343                      .dwattr $C$DW$213, DW_AT_TI_symbol_name("_handle")
    1344                      .dwattr $C$DW$213, DW_AT_type(*$C$DW$T$47)
TMS320C2000 Assembler PC v6.4.4 Wed Jul 08 12:49:31 2015

Tools Copyright (c) 1996-2015 Texas Instruments Incorporated
C:\Users\grant\AppData\Local\Temp\0448010                            PAGE   27

    1345                      .dwattr $C$DW$213, DW_AT_location[DW_OP_reg12]
    1346              $C$DW$214       .dwtag  DW_TAG_formal_parameter, DW_AT_name("numVoltageSensors")
    1347                      .dwattr $C$DW$214, DW_AT_TI_symbol_name("_numVoltageSensors")
    1348                      .dwattr $C$DW$214, DW_AT_type(*$C$DW$T$239)
    1349                      .dwattr $C$DW$214, DW_AT_location[DW_OP_reg0]
    1350              
    1351              ;***************************************************************
    1352              ;* FNAME: _setupClarke_V                FR SIZE:   0           *
    1353              ;*                                                             *
    1354              ;* FUNCTION ENVIRONMENT                                        *
    1355              ;*                                                             *
    1356              ;* FUNCTION PROPERTIES                                         *
    1357              ;*                            0 Parameter,  0 Auto,  0 SOE     *
    1358              ;***************************************************************
    1359              
    1360              _setupClarke_V:
    1361              ;* PL    assigned to _beta_sf
    1362              $C$DW$215       .dwtag  DW_TAG_variable, DW_AT_name("beta_sf")
    1363                      .dwattr $C$DW$215, DW_AT_TI_symbol_name("_beta_sf")
    1364                      .dwattr $C$DW$215, DW_AT_type(*$C$DW$T$35)
    1365                      .dwattr $C$DW$215, DW_AT_location[DW_OP_reg2]
    1366              ;* AR6   assigned to _alpha_sf
    1367              $C$DW$216       .dwtag  DW_TAG_variable, DW_AT_name("alpha_sf")
    1368                      .dwattr $C$DW$216, DW_AT_TI_symbol_name("_alpha_sf")
    1369                      .dwattr $C$DW$216, DW_AT_type(*$C$DW$T$35)
    1370                      .dwattr $C$DW$216, DW_AT_location[DW_OP_reg16]
    1371              ;* AL    assigned to _numVoltageSensors
    1372              $C$DW$217       .dwtag  DW_TAG_variable, DW_AT_name("numVoltageSensors")
    1373                      .dwattr $C$DW$217, DW_AT_TI_symbol_name("_numVoltageSensors")
    1374                      .dwattr $C$DW$217, DW_AT_type(*$C$DW$T$239)
    1375                      .dwattr $C$DW$217, DW_AT_location[DW_OP_reg0]
    1376              ;* AR4   assigned to _handle
    1377              $C$DW$218       .dwtag  DW_TAG_variable, DW_AT_name("handle")
    1378                      .dwattr $C$DW$218, DW_AT_TI_symbol_name("_handle")
    1379                      .dwattr $C$DW$218, DW_AT_type(*$C$DW$T$229)
    1380                      .dwattr $C$DW$218, DW_AT_location[DW_OP_reg12]
    1381                      .dwcfi  cfa_offset, -2
    1382                      .dwcfi  save_reg_to_mem, 26, 0
    1383                      .dwpsn  file "../proj_lab20.c",line 635,column 3,is_stmt,isa 0
    1384 00000095 5203          CMPB      AL,#3                 ; [CPU_] |635| 
    1385 00000096 EC05          BF        $C$L2,EQ              ; [CPU_] |635| 
    1386                      ; branchcc occurs ; [] |635| 
    1387                      .dwpsn  file "../proj_lab20.c",line 643,column 7,is_stmt,isa 0
    1388 00000097 B600          MOVB      XAR7,#0               ; [CPU_] |643| 
    1389                      .dwpsn  file "../proj_lab20.c",line 642,column 7,is_stmt,isa 0
    1390 00000098 BE00          MOVB      XAR6,#0               ; [CPU_] |642| 
    1391                      .dwpsn  file "../proj_lab20.c",line 643,column 7,is_stmt,isa 0
    1392 00000099 A3A7          MOVL      P,XAR7                ; [CPU_] |643| 
    1393 0000009a 6F0A          B         $C$L3,UNC             ; [CPU_] |643| 
    1394                      ; branch occurs ; [] |643| 
    1395 0000009b       $C$L2:    
    1396                      .dwpsn  file "../proj_lab20.c",line 637,column 7,is_stmt,isa 0
    1397 0000009b 28AB          MOV       PL,#21845             ; [CPU_] |637| 
         0000009c 5555 
    1398 0000009d 28AA          MOV       PH,#85                ; [CPU_] |637| 
TMS320C2000 Assembler PC v6.4.4 Wed Jul 08 12:49:31 2015

Tools Copyright (c) 1996-2015 Texas Instruments Incorporated
C:\Users\grant\AppData\Local\Temp\0448010                            PAGE   28

         0000009e 0055 
    1399 0000009f A9A6          MOVL      XAR6,P                ; [CPU_] |637| 
    1400                      .dwpsn  file "../proj_lab20.c",line 638,column 7,is_stmt,isa 0
    1401 000000a0 28AB          MOV       PL,#52538             ; [CPU_] |638| 
         000000a1 CD3A 
    1402 000000a2 28AA          MOV       PH,#147               ; [CPU_] |638| 
         000000a3 0093 
    1403 000000a4       $C$L3:    
    1404                      .dwpsn  file "C:/ti/motorware/motorware_1_01_00_14/sw/modules/clarke/src/32b/clarke.h",line 185,colum
    1405 000000a4 C2C4          MOVL      *+XAR4[0],XAR6        ; [CPU_] |185| 
    1406                      .dwpsn  file "C:/ti/motorware/motorware_1_01_00_14/sw/modules/clarke/src/32b/clarke.h",line 186,colum
    1407 000000a5 A9D4          MOVL      *+XAR4[2],P           ; [CPU_] |186| 
    1408                      .dwpsn  file "C:/ti/motorware/motorware_1_01_00_14/sw/modules/clarke/src/32b/clarke.h",line 170,colum
    1409 000000a6 96E4          MOV       *+XAR4[4],AL          ; [CPU_] |170| 
    1410              $C$DW$219       .dwtag  DW_TAG_TI_branch
    1411                      .dwattr $C$DW$219, DW_AT_low_pc(0x00)
    1412                      .dwattr $C$DW$219, DW_AT_TI_return
    1413 000000a7 0006          LRETR     ; [CPU_] 
    1414                      ; return occurs ; [] 
    1415                      .dwattr $C$DW$212, DW_AT_TI_end_file("../proj_lab20.c")
    1416                      .dwattr $C$DW$212, DW_AT_TI_end_line(0x28b)
    1417                      .dwattr $C$DW$212, DW_AT_TI_end_column(0x01)
    1418                      .dwendentry
    1419                      .dwendtag $C$DW$212
    1420              
    1421 000000a8               .sect   ".text"
    1422                      .clink
    1423                      .global _setupClarke_I
    1424              
    1425              $C$DW$220       .dwtag  DW_TAG_subprogram, DW_AT_name("setupClarke_I")
    1426                      .dwattr $C$DW$220, DW_AT_low_pc(_setupClarke_I)
    1427                      .dwattr $C$DW$220, DW_AT_high_pc(0x00)
    1428                      .dwattr $C$DW$220, DW_AT_TI_symbol_name("_setupClarke_I")
    1429                      .dwattr $C$DW$220, DW_AT_external
    1430                      .dwattr $C$DW$220, DW_AT_TI_begin_file("../proj_lab20.c")
    1431                      .dwattr $C$DW$220, DW_AT_TI_begin_line(0x257)
    1432                      .dwattr $C$DW$220, DW_AT_TI_begin_column(0x06)
    1433                      .dwattr $C$DW$220, DW_AT_TI_max_frame_size(-2)
    1434                      .dwpsn  file "../proj_lab20.c",line 600,column 1,is_stmt,address _setupClarke_I,isa 0
    1435              
    1436                      .dwfde $C$DW$CIE, _setupClarke_I
    1437              $C$DW$221       .dwtag  DW_TAG_formal_parameter, DW_AT_name("handle")
    1438                      .dwattr $C$DW$221, DW_AT_TI_symbol_name("_handle")
    1439                      .dwattr $C$DW$221, DW_AT_type(*$C$DW$T$47)
    1440                      .dwattr $C$DW$221, DW_AT_location[DW_OP_reg12]
    1441              $C$DW$222       .dwtag  DW_TAG_formal_parameter, DW_AT_name("numCurrentSensors")
    1442                      .dwattr $C$DW$222, DW_AT_TI_symbol_name("_numCurrentSensors")
    1443                      .dwattr $C$DW$222, DW_AT_type(*$C$DW$T$239)
    1444                      .dwattr $C$DW$222, DW_AT_location[DW_OP_reg0]
    1445              
    1446              ;***************************************************************
    1447              ;* FNAME: _setupClarke_I                FR SIZE:   0           *
    1448              ;*                                                             *
    1449              ;* FUNCTION ENVIRONMENT                                        *
    1450              ;*                                                             *
TMS320C2000 Assembler PC v6.4.4 Wed Jul 08 12:49:31 2015

Tools Copyright (c) 1996-2015 Texas Instruments Incorporated
C:\Users\grant\AppData\Local\Temp\0448010                            PAGE   29

    1451              ;* FUNCTION PROPERTIES                                         *
    1452              ;*                            0 Parameter,  0 Auto,  0 SOE     *
    1453              ;***************************************************************
    1454              
    1455              _setupClarke_I:
    1456              ;* PL    assigned to _beta_sf
    1457              $C$DW$223       .dwtag  DW_TAG_variable, DW_AT_name("beta_sf")
    1458                      .dwattr $C$DW$223, DW_AT_TI_symbol_name("_beta_sf")
    1459                      .dwattr $C$DW$223, DW_AT_type(*$C$DW$T$35)
    1460                      .dwattr $C$DW$223, DW_AT_location[DW_OP_reg2]
    1461              ;* AR6   assigned to _alpha_sf
    1462              $C$DW$224       .dwtag  DW_TAG_variable, DW_AT_name("alpha_sf")
    1463                      .dwattr $C$DW$224, DW_AT_TI_symbol_name("_alpha_sf")
    1464                      .dwattr $C$DW$224, DW_AT_type(*$C$DW$T$35)
    1465                      .dwattr $C$DW$224, DW_AT_location[DW_OP_reg16]
    1466              ;* AL    assigned to _numCurrentSensors
    1467              $C$DW$225       .dwtag  DW_TAG_variable, DW_AT_name("numCurrentSensors")
    1468                      .dwattr $C$DW$225, DW_AT_TI_symbol_name("_numCurrentSensors")
    1469                      .dwattr $C$DW$225, DW_AT_type(*$C$DW$T$239)
    1470                      .dwattr $C$DW$225, DW_AT_location[DW_OP_reg0]
    1471              ;* AR4   assigned to _handle
    1472              $C$DW$226       .dwtag  DW_TAG_variable, DW_AT_name("handle")
    1473                      .dwattr $C$DW$226, DW_AT_TI_symbol_name("_handle")
    1474                      .dwattr $C$DW$226, DW_AT_type(*$C$DW$T$229)
    1475                      .dwattr $C$DW$226, DW_AT_location[DW_OP_reg12]
    1476                      .dwcfi  cfa_offset, -2
    1477                      .dwcfi  save_reg_to_mem, 26, 0
    1478                      .dwpsn  file "../proj_lab20.c",line 605,column 3,is_stmt,isa 0
    1479 000000a8 5203          CMPB      AL,#3                 ; [CPU_] |605| 
    1480 000000a9 EC0B          BF        $C$L5,EQ              ; [CPU_] |605| 
    1481                      ; branchcc occurs ; [] |605| 
    1482                      .dwpsn  file "../proj_lab20.c",line 610,column 8,is_stmt,isa 0
    1483 000000aa 5202          CMPB      AL,#2                 ; [CPU_] |610| 
    1484 000000ab EC05          BF        $C$L4,EQ              ; [CPU_] |610| 
    1485                      ; branchcc occurs ; [] |610| 
    1486                      .dwpsn  file "../proj_lab20.c",line 618,column 7,is_stmt,isa 0
    1487 000000ac B600          MOVB      XAR7,#0               ; [CPU_] |618| 
    1488                      .dwpsn  file "../proj_lab20.c",line 617,column 7,is_stmt,isa 0
    1489 000000ad BE00          MOVB      XAR6,#0               ; [CPU_] |617| 
    1490                      .dwpsn  file "../proj_lab20.c",line 618,column 7,is_stmt,isa 0
    1491 000000ae A3A7          MOVL      P,XAR7                ; [CPU_] |618| 
    1492 000000af 6F0E          B         $C$L7,UNC             ; [CPU_] |618| 
    1493                      ; branch occurs ; [] |618| 
    1494 000000b0       $C$L4:    
    1495                      .dwpsn  file "../proj_lab20.c",line 612,column 7,is_stmt,isa 0
    1496 000000b0 2BAB          MOV       PL,#0                 ; [CPU_] |612| 
    1497 000000b1 28AA          MOV       PH,#256               ; [CPU_] |612| 
         000000b2 0100 
    1498                      .dwpsn  file "../proj_lab20.c",line 614,column 5,is_stmt,isa 0
    1499 000000b3 6F05          B         $C$L6,UNC             ; [CPU_] |614| 
    1500                      ; branch occurs ; [] |614| 
    1501 000000b4       $C$L5:    
    1502                      .dwpsn  file "../proj_lab20.c",line 607,column 7,is_stmt,isa 0
    1503 000000b4 28AB          MOV       PL,#21845             ; [CPU_] |607| 
         000000b5 5555 
TMS320C2000 Assembler PC v6.4.4 Wed Jul 08 12:49:31 2015

Tools Copyright (c) 1996-2015 Texas Instruments Incorporated
C:\Users\grant\AppData\Local\Temp\0448010                            PAGE   30

    1504 000000b6 28AA          MOV       PH,#85                ; [CPU_] |607| 
         000000b7 0055 
    1505 000000b8       $C$L6:    
    1506 000000b8 A9A6          MOVL      XAR6,P                ; [CPU_] |607| 
    1507                      .dwpsn  file "../proj_lab20.c",line 608,column 7,is_stmt,isa 0
    1508 000000b9 28AB          MOV       PL,#52538             ; [CPU_] |608| 
         000000ba CD3A 
    1509 000000bb 28AA          MOV       PH,#147               ; [CPU_] |608| 
         000000bc 0093 
    1510 000000bd       $C$L7:    
    1511                      .dwpsn  file "C:/ti/motorware/motorware_1_01_00_14/sw/modules/clarke/src/32b/clarke.h",line 185,colum
    1512 000000bd C2C4          MOVL      *+XAR4[0],XAR6        ; [CPU_] |185| 
    1513                      .dwpsn  file "C:/ti/motorware/motorware_1_01_00_14/sw/modules/clarke/src/32b/clarke.h",line 186,colum
    1514 000000be A9D4          MOVL      *+XAR4[2],P           ; [CPU_] |186| 
    1515                      .dwpsn  file "C:/ti/motorware/motorware_1_01_00_14/sw/modules/clarke/src/32b/clarke.h",line 170,colum
    1516 000000bf 96E4          MOV       *+XAR4[4],AL          ; [CPU_] |170| 
    1517              $C$DW$227       .dwtag  DW_TAG_TI_branch
    1518                      .dwattr $C$DW$227, DW_AT_low_pc(0x00)
    1519                      .dwattr $C$DW$227, DW_AT_TI_return
    1520 000000c0 0006          LRETR     ; [CPU_] 
    1521                      ; return occurs ; [] 
    1522                      .dwattr $C$DW$220, DW_AT_TI_end_file("../proj_lab20.c")
    1523                      .dwattr $C$DW$220, DW_AT_TI_end_line(0x272)
    1524                      .dwattr $C$DW$220, DW_AT_TI_end_column(0x01)
    1525                      .dwendentry
    1526                      .dwendtag $C$DW$220
    1527              
    1528 00000000               .sect   ".text:retain"
    1529                      .retain
    1530                      .retainrefs
    1531                      .global _mainISR
    1532              
    1533              $C$DW$228       .dwtag  DW_TAG_subprogram, DW_AT_name("mainISR")
    1534                      .dwattr $C$DW$228, DW_AT_low_pc(_mainISR)
    1535                      .dwattr $C$DW$228, DW_AT_high_pc(0x00)
    1536                      .dwattr $C$DW$228, DW_AT_TI_symbol_name("_mainISR")
    1537                      .dwattr $C$DW$228, DW_AT_external
    1538                      .dwattr $C$DW$228, DW_AT_TI_begin_file("../proj_lab20.c")
    1539                      .dwattr $C$DW$228, DW_AT_TI_begin_line(0x1d0)
    1540                      .dwattr $C$DW$228, DW_AT_TI_begin_column(0x10)
    1541                      .dwattr $C$DW$228, DW_AT_TI_interrupt
    1542                      .dwattr $C$DW$228, DW_AT_TI_max_frame_size(-70)
    1543                      .dwpsn  file "../proj_lab20.c",line 465,column 1,is_stmt,address _mainISR,isa 0
    1544              
    1545                      .dwfde $C$DW$CIE, _mainISR
    1546              
    1547              ;***************************************************************
    1548              ;* FNAME: _mainISR                      FR SIZE:  68           *
    1549              ;*                                                             *
    1550              ;* FUNCTION ENVIRONMENT                                        *
    1551              ;*                                                             *
    1552              ;* FUNCTION PROPERTIES                                         *
    1553              ;*                           10 Parameter, 44 Auto, 14 SOE     *
    1554              ;***************************************************************
    1555              
TMS320C2000 Assembler PC v6.4.4 Wed Jul 08 12:49:31 2015

Tools Copyright (c) 1996-2015 Texas Instruments Incorporated
C:\Users\grant\AppData\Local\Temp\0448010                            PAGE   31

    1556              _mainISR:
    1557              ;* AR4   assigned to $O$C12
    1558              ;* AR4   assigned to $O$C13
    1559              ;* AL    assigned to $O$C14
    1560              ;* PL    assigned to $O$C15
    1561              ;* AR4   assigned to $O$C16
    1562              ;* AR0   assigned to $O$C17
    1563              ;* AR4   assigned to $O$C18
    1564              ;* AL    assigned to $O$C19
    1565              ;* AR4   assigned to $O$C20
    1566              ;* AL    assigned to $O$C21
    1567              ;* AR4   assigned to $O$C22
    1568              ;* AR5   assigned to $O$C23
    1569              ;* AR4   assigned to $O$C24
    1570              ;* AR4   assigned to $O$C25
    1571              ;* AL    assigned to $O$C26
    1572              ;* AR4   assigned to $O$C27
    1573              ;* AR4   assigned to $O$C28
    1574              ;* AL    assigned to $O$C29
    1575              ;* AR4   assigned to $O$C30
    1576              ;* AR1   assigned to $O$C31
    1577              ;* AR7   assigned to $O$C32
    1578              ;* AR1   assigned to $O$C33
    1579              ;* AR7   assigned to $O$U518
    1580              ;* AR5   assigned to $O$U524
    1581              ;* AR5   assigned to _obj
    1582              $C$DW$229       .dwtag  DW_TAG_variable, DW_AT_name("obj")
    1583                      .dwattr $C$DW$229, DW_AT_TI_symbol_name("_obj")
    1584                      .dwattr $C$DW$229, DW_AT_type(*$C$DW$T$257)
    1585                      .dwattr $C$DW$229, DW_AT_location[DW_OP_reg14]
    1586              ;* AR5   assigned to _alpha_sf
    1587              $C$DW$230       .dwtag  DW_TAG_variable, DW_AT_name("alpha_sf")
    1588                      .dwattr $C$DW$230, DW_AT_TI_symbol_name("_alpha_sf")
    1589                      .dwattr $C$DW$230, DW_AT_type(*$C$DW$T$35)
    1590                      .dwattr $C$DW$230, DW_AT_location[DW_OP_reg14]
    1591              ;* AR7   assigned to _beta_sf
    1592              $C$DW$231       .dwtag  DW_TAG_variable, DW_AT_name("beta_sf")
    1593                      .dwattr $C$DW$231, DW_AT_TI_symbol_name("_beta_sf")
    1594                      .dwattr $C$DW$231, DW_AT_type(*$C$DW$T$35)
    1595                      .dwattr $C$DW$231, DW_AT_location[DW_OP_reg18]
    1596              ;* AR7   assigned to _alpha_sf
    1597              $C$DW$232       .dwtag  DW_TAG_variable, DW_AT_name("alpha_sf")
    1598                      .dwattr $C$DW$232, DW_AT_TI_symbol_name("_alpha_sf")
    1599                      .dwattr $C$DW$232, DW_AT_type(*$C$DW$T$35)
    1600                      .dwattr $C$DW$232, DW_AT_location[DW_OP_reg18]
    1601              ;* AR6   assigned to _beta_sf
    1602              $C$DW$233       .dwtag  DW_TAG_variable, DW_AT_name("beta_sf")
    1603                      .dwattr $C$DW$233, DW_AT_TI_symbol_name("_beta_sf")
    1604                      .dwattr $C$DW$233, DW_AT_type(*$C$DW$T$35)
    1605                      .dwattr $C$DW$233, DW_AT_location[DW_OP_reg16]
    1606              ;* AR6   assigned to _obj
    1607              $C$DW$234       .dwtag  DW_TAG_variable, DW_AT_name("obj")
    1608                      .dwattr $C$DW$234, DW_AT_TI_symbol_name("_obj")
    1609                      .dwattr $C$DW$234, DW_AT_type(*$C$DW$T$286)
    1610                      .dwattr $C$DW$234, DW_AT_location[DW_OP_reg16]
TMS320C2000 Assembler PC v6.4.4 Wed Jul 08 12:49:31 2015

Tools Copyright (c) 1996-2015 Texas Instruments Incorporated
C:\Users\grant\AppData\Local\Temp\0448010                            PAGE   32

    1611              ;* AR5   assigned to _pOutVec
    1612              $C$DW$235       .dwtag  DW_TAG_variable, DW_AT_name("pOutVec")
    1613                      .dwattr $C$DW$235, DW_AT_TI_symbol_name("_pOutVec")
    1614                      .dwattr $C$DW$235, DW_AT_type(*$C$DW$T$272)
    1615                      .dwattr $C$DW$235, DW_AT_location[DW_OP_reg14]
    1616              ;* AR7   assigned to _sinTh
    1617              $C$DW$236       .dwtag  DW_TAG_variable, DW_AT_name("sinTh")
    1618                      .dwattr $C$DW$236, DW_AT_TI_symbol_name("_sinTh")
    1619                      .dwattr $C$DW$236, DW_AT_type(*$C$DW$T$35)
    1620                      .dwattr $C$DW$236, DW_AT_location[DW_OP_reg18]
    1621              ;* AR6   assigned to _cosTh
    1622              $C$DW$237       .dwtag  DW_TAG_variable, DW_AT_name("cosTh")
    1623                      .dwattr $C$DW$237, DW_AT_TI_symbol_name("_cosTh")
    1624                      .dwattr $C$DW$237, DW_AT_type(*$C$DW$T$35)
    1625                      .dwattr $C$DW$237, DW_AT_location[DW_OP_reg16]
    1626              $C$DW$238       .dwtag  DW_TAG_variable, DW_AT_name("value_0")
    1627                      .dwattr $C$DW$238, DW_AT_TI_symbol_name("_value_0")
    1628                      .dwattr $C$DW$238, DW_AT_type(*$C$DW$T$35)
    1629                      .dwattr $C$DW$238, DW_AT_location[DW_OP_breg20 -46]
    1630              $C$DW$239       .dwtag  DW_TAG_variable, DW_AT_name("value_1")
    1631                      .dwattr $C$DW$239, DW_AT_TI_symbol_name("_value_1")
    1632                      .dwattr $C$DW$239, DW_AT_type(*$C$DW$T$35)
    1633                      .dwattr $C$DW$239, DW_AT_location[DW_OP_breg20 -48]
    1634              ;* PL    assigned to _outMax
    1635              $C$DW$240       .dwtag  DW_TAG_variable, DW_AT_name("outMax")
    1636                      .dwattr $C$DW$240, DW_AT_TI_symbol_name("_outMax")
    1637                      .dwattr $C$DW$240, DW_AT_type(*$C$DW$T$35)
    1638                      .dwattr $C$DW$240, DW_AT_location[DW_OP_reg2]
    1639              ;* AR5   assigned to _obj
    1640              $C$DW$241       .dwtag  DW_TAG_variable, DW_AT_name("obj")
    1641                      .dwattr $C$DW$241, DW_AT_TI_symbol_name("_obj")
    1642                      .dwattr $C$DW$241, DW_AT_type(*$C$DW$T$290)
    1643                      .dwattr $C$DW$241, DW_AT_location[DW_OP_reg14]
    1644              ;* AR7   assigned to _refValue
    1645              $C$DW$242       .dwtag  DW_TAG_variable, DW_AT_name("refValue")
    1646                      .dwattr $C$DW$242, DW_AT_TI_symbol_name("_refValue")
    1647                      .dwattr $C$DW$242, DW_AT_type(*$C$DW$T$35)
    1648                      .dwattr $C$DW$242, DW_AT_location[DW_OP_reg18]
    1649              ;* AR6   assigned to _fbackValue
    1650              $C$DW$243       .dwtag  DW_TAG_variable, DW_AT_name("fbackValue")
    1651                      .dwattr $C$DW$243, DW_AT_TI_symbol_name("_fbackValue")
    1652                      .dwattr $C$DW$243, DW_AT_type(*$C$DW$T$35)
    1653                      .dwattr $C$DW$243, DW_AT_location[DW_OP_reg16]
    1654              ;* AR5   assigned to _obj
    1655              $C$DW$244       .dwtag  DW_TAG_variable, DW_AT_name("obj")
    1656                      .dwattr $C$DW$244, DW_AT_TI_symbol_name("_obj")
    1657                      .dwattr $C$DW$244, DW_AT_type(*$C$DW$T$290)
    1658                      .dwattr $C$DW$244, DW_AT_location[DW_OP_reg14]
    1659              $C$DW$245       .dwtag  DW_TAG_variable, DW_AT_name("Up")
    1660                      .dwattr $C$DW$245, DW_AT_TI_symbol_name("_Up")
    1661                      .dwattr $C$DW$245, DW_AT_type(*$C$DW$T$35)
    1662                      .dwattr $C$DW$245, DW_AT_location[DW_OP_breg20 -46]
    1663              ;* AL    assigned to _Ui
    1664              $C$DW$246       .dwtag  DW_TAG_variable, DW_AT_name("Ui")
    1665                      .dwattr $C$DW$246, DW_AT_TI_symbol_name("_Ui")
TMS320C2000 Assembler PC v6.4.4 Wed Jul 08 12:49:31 2015

Tools Copyright (c) 1996-2015 Texas Instruments Incorporated
C:\Users\grant\AppData\Local\Temp\0448010                            PAGE   33

    1666                      .dwattr $C$DW$246, DW_AT_type(*$C$DW$T$35)
    1667                      .dwattr $C$DW$246, DW_AT_location[DW_OP_reg0]
    1668              ;* AR4   assigned to _handle
    1669              $C$DW$247       .dwtag  DW_TAG_variable, DW_AT_name("handle")
    1670                      .dwattr $C$DW$247, DW_AT_TI_symbol_name("_handle")
    1671                      .dwattr $C$DW$247, DW_AT_type(*$C$DW$T$201)
    1672                      .dwattr $C$DW$247, DW_AT_location[DW_OP_reg12]
    1673              ;* AR4   assigned to _obj
    1674              $C$DW$248       .dwtag  DW_TAG_variable, DW_AT_name("obj")
    1675                      .dwattr $C$DW$248, DW_AT_TI_symbol_name("_obj")
    1676                      .dwattr $C$DW$248, DW_AT_type(*$C$DW$T$290)
    1677                      .dwattr $C$DW$248, DW_AT_location[DW_OP_reg12]
    1678              ;* AR6   assigned to _fbackValue
    1679              $C$DW$249       .dwtag  DW_TAG_variable, DW_AT_name("fbackValue")
    1680                      .dwattr $C$DW$249, DW_AT_TI_symbol_name("_fbackValue")
    1681                      .dwattr $C$DW$249, DW_AT_type(*$C$DW$T$35)
    1682                      .dwattr $C$DW$249, DW_AT_location[DW_OP_reg16]
    1683              ;* AR4   assigned to _obj
    1684              $C$DW$250       .dwtag  DW_TAG_variable, DW_AT_name("obj")
    1685                      .dwattr $C$DW$250, DW_AT_TI_symbol_name("_obj")
    1686                      .dwattr $C$DW$250, DW_AT_type(*$C$DW$T$290)
    1687                      .dwattr $C$DW$250, DW_AT_location[DW_OP_reg12]
    1688              ;* AR7   assigned to _Up
    1689              $C$DW$251       .dwtag  DW_TAG_variable, DW_AT_name("Up")
    1690                      .dwattr $C$DW$251, DW_AT_TI_symbol_name("_Up")
    1691                      .dwattr $C$DW$251, DW_AT_type(*$C$DW$T$35)
    1692                      .dwattr $C$DW$251, DW_AT_location[DW_OP_reg18]
    1693              ;* AL    assigned to _Ui
    1694              $C$DW$252       .dwtag  DW_TAG_variable, DW_AT_name("Ui")
    1695                      .dwattr $C$DW$252, DW_AT_TI_symbol_name("_Ui")
    1696                      .dwattr $C$DW$252, DW_AT_type(*$C$DW$T$35)
    1697                      .dwattr $C$DW$252, DW_AT_location[DW_OP_reg0]
    1698              ;* AR4   assigned to _obj
    1699              $C$DW$253       .dwtag  DW_TAG_variable, DW_AT_name("obj")
    1700                      .dwattr $C$DW$253, DW_AT_TI_symbol_name("_obj")
    1701                      .dwattr $C$DW$253, DW_AT_type(*$C$DW$T$290)
    1702                      .dwattr $C$DW$253, DW_AT_location[DW_OP_reg12]
    1703              ;* AR6   assigned to _refValue
    1704              $C$DW$254       .dwtag  DW_TAG_variable, DW_AT_name("refValue")
    1705                      .dwattr $C$DW$254, DW_AT_TI_symbol_name("_refValue")
    1706                      .dwattr $C$DW$254, DW_AT_type(*$C$DW$T$35)
    1707                      .dwattr $C$DW$254, DW_AT_location[DW_OP_reg16]
    1708              ;* AR7   assigned to _fbackValue
    1709              $C$DW$255       .dwtag  DW_TAG_variable, DW_AT_name("fbackValue")
    1710                      .dwattr $C$DW$255, DW_AT_TI_symbol_name("_fbackValue")
    1711                      .dwattr $C$DW$255, DW_AT_type(*$C$DW$T$35)
    1712                      .dwattr $C$DW$255, DW_AT_location[DW_OP_reg18]
    1713              ;* AR4   assigned to _obj
    1714              $C$DW$256       .dwtag  DW_TAG_variable, DW_AT_name("obj")
    1715                      .dwattr $C$DW$256, DW_AT_TI_symbol_name("_obj")
    1716                      .dwattr $C$DW$256, DW_AT_type(*$C$DW$T$290)
    1717                      .dwattr $C$DW$256, DW_AT_location[DW_OP_reg12]
    1718              ;* AR5   assigned to _Up
    1719              $C$DW$257       .dwtag  DW_TAG_variable, DW_AT_name("Up")
    1720                      .dwattr $C$DW$257, DW_AT_TI_symbol_name("_Up")
TMS320C2000 Assembler PC v6.4.4 Wed Jul 08 12:49:31 2015

Tools Copyright (c) 1996-2015 Texas Instruments Incorporated
C:\Users\grant\AppData\Local\Temp\0448010                            PAGE   34

    1721                      .dwattr $C$DW$257, DW_AT_type(*$C$DW$T$35)
    1722                      .dwattr $C$DW$257, DW_AT_location[DW_OP_reg14]
    1723              ;* AL    assigned to _Ui
    1724              $C$DW$258       .dwtag  DW_TAG_variable, DW_AT_name("Ui")
    1725                      .dwattr $C$DW$258, DW_AT_TI_symbol_name("_Ui")
    1726                      .dwattr $C$DW$258, DW_AT_type(*$C$DW$T$35)
    1727                      .dwattr $C$DW$258, DW_AT_location[DW_OP_reg0]
    1728              ;* AR3   assigned to _handle
    1729              $C$DW$259       .dwtag  DW_TAG_variable, DW_AT_name("handle")
    1730                      .dwattr $C$DW$259, DW_AT_TI_symbol_name("_handle")
    1731                      .dwattr $C$DW$259, DW_AT_type(*$C$DW$T$201)
    1732                      .dwattr $C$DW$259, DW_AT_location[DW_OP_reg10]
    1733              ;* AR3   assigned to _obj
    1734              $C$DW$260       .dwtag  DW_TAG_variable, DW_AT_name("obj")
    1735                      .dwattr $C$DW$260, DW_AT_TI_symbol_name("_obj")
    1736                      .dwattr $C$DW$260, DW_AT_type(*$C$DW$T$237)
    1737                      .dwattr $C$DW$260, DW_AT_location[DW_OP_reg10]
    1738              ;* AR7   assigned to _refValue
    1739              $C$DW$261       .dwtag  DW_TAG_variable, DW_AT_name("refValue")
    1740                      .dwattr $C$DW$261, DW_AT_TI_symbol_name("_refValue")
    1741                      .dwattr $C$DW$261, DW_AT_type(*$C$DW$T$35)
    1742                      .dwattr $C$DW$261, DW_AT_location[DW_OP_reg18]
    1743              ;* AR6   assigned to _fbackValue
    1744              $C$DW$262       .dwtag  DW_TAG_variable, DW_AT_name("fbackValue")
    1745                      .dwattr $C$DW$262, DW_AT_TI_symbol_name("_fbackValue")
    1746                      .dwattr $C$DW$262, DW_AT_type(*$C$DW$T$35)
    1747                      .dwattr $C$DW$262, DW_AT_location[DW_OP_reg16]
    1748              ;* PL    assigned to _outMax
    1749              $C$DW$263       .dwtag  DW_TAG_variable, DW_AT_name("outMax")
    1750                      .dwattr $C$DW$263, DW_AT_TI_symbol_name("_outMax")
    1751                      .dwattr $C$DW$263, DW_AT_type(*$C$DW$T$35)
    1752                      .dwattr $C$DW$263, DW_AT_location[DW_OP_reg2]
    1753              ;* AL    assigned to _outMin
    1754              $C$DW$264       .dwtag  DW_TAG_variable, DW_AT_name("outMin")
    1755                      .dwattr $C$DW$264, DW_AT_TI_symbol_name("_outMin")
    1756                      .dwattr $C$DW$264, DW_AT_type(*$C$DW$T$35)
    1757                      .dwattr $C$DW$264, DW_AT_location[DW_OP_reg0]
    1758              ;* AR1   assigned to _Kp_Id
    1759              $C$DW$265       .dwtag  DW_TAG_variable, DW_AT_name("Kp_Id")
    1760                      .dwattr $C$DW$265, DW_AT_TI_symbol_name("_Kp_Id")
    1761                      .dwattr $C$DW$265, DW_AT_type(*$C$DW$T$35)
    1762                      .dwattr $C$DW$265, DW_AT_location[DW_OP_reg6]
    1763              $C$DW$266       .dwtag  DW_TAG_variable, DW_AT_name("Kp_Iq")
    1764                      .dwattr $C$DW$266, DW_AT_TI_symbol_name("_Kp_Iq")
    1765                      .dwattr $C$DW$266, DW_AT_type(*$C$DW$T$35)
    1766                      .dwattr $C$DW$266, DW_AT_location[DW_OP_breg20 -48]
    1767              $C$DW$267       .dwtag  DW_TAG_variable, DW_AT_name("refValue")
    1768                      .dwattr $C$DW$267, DW_AT_TI_symbol_name("_refValue")
    1769                      .dwattr $C$DW$267, DW_AT_type(*$C$DW$T$35)
    1770                      .dwattr $C$DW$267, DW_AT_location[DW_OP_breg20 -12]
    1771              $C$DW$268       .dwtag  DW_TAG_variable, DW_AT_name("maxVsMag")
    1772                      .dwattr $C$DW$268, DW_AT_TI_symbol_name("_maxVsMag")
    1773                      .dwattr $C$DW$268, DW_AT_type(*$C$DW$T$35)
    1774                      .dwattr $C$DW$268, DW_AT_location[DW_OP_breg20 -50]
    1775              ;* AR4   assigned to _obj
TMS320C2000 Assembler PC v6.4.4 Wed Jul 08 12:49:31 2015

Tools Copyright (c) 1996-2015 Texas Instruments Incorporated
C:\Users\grant\AppData\Local\Temp\0448010                            PAGE   35

    1776              $C$DW$269       .dwtag  DW_TAG_variable, DW_AT_name("obj")
    1777                      .dwattr $C$DW$269, DW_AT_TI_symbol_name("_obj")
    1778                      .dwattr $C$DW$269, DW_AT_type(*$C$DW$T$266)
    1779                      .dwattr $C$DW$269, DW_AT_location[DW_OP_reg12]
    1780              ;* AR7   assigned to _sinTh
    1781              $C$DW$270       .dwtag  DW_TAG_variable, DW_AT_name("sinTh")
    1782                      .dwattr $C$DW$270, DW_AT_TI_symbol_name("_sinTh")
    1783                      .dwattr $C$DW$270, DW_AT_type(*$C$DW$T$35)
    1784                      .dwattr $C$DW$270, DW_AT_location[DW_OP_reg18]
    1785              ;* AR4   assigned to _cosTh
    1786              $C$DW$271       .dwtag  DW_TAG_variable, DW_AT_name("cosTh")
    1787                      .dwattr $C$DW$271, DW_AT_TI_symbol_name("_cosTh")
    1788                      .dwattr $C$DW$271, DW_AT_type(*$C$DW$T$35)
    1789                      .dwattr $C$DW$271, DW_AT_location[DW_OP_reg12]
    1790              ;* AR6   assigned to _Va
    1791              $C$DW$272       .dwtag  DW_TAG_variable, DW_AT_name("Va")
    1792                      .dwattr $C$DW$272, DW_AT_TI_symbol_name("_Va")
    1793                      .dwattr $C$DW$272, DW_AT_type(*$C$DW$T$35)
    1794                      .dwattr $C$DW$272, DW_AT_location[DW_OP_reg16]
    1795              ;* AR5   assigned to _Vb
    1796              $C$DW$273       .dwtag  DW_TAG_variable, DW_AT_name("Vb")
    1797                      .dwattr $C$DW$273, DW_AT_TI_symbol_name("_Vb")
    1798                      .dwattr $C$DW$273, DW_AT_type(*$C$DW$T$35)
    1799                      .dwattr $C$DW$273, DW_AT_location[DW_OP_reg14]
    1800              ;* AR7   assigned to _Vc
    1801              $C$DW$274       .dwtag  DW_TAG_variable, DW_AT_name("Vc")
    1802                      .dwattr $C$DW$274, DW_AT_TI_symbol_name("_Vc")
    1803                      .dwattr $C$DW$274, DW_AT_type(*$C$DW$T$35)
    1804                      .dwattr $C$DW$274, DW_AT_location[DW_OP_reg18]
    1805              ;* AR6   assigned to _obj
    1806              $C$DW$275       .dwtag  DW_TAG_variable, DW_AT_name("obj")
    1807                      .dwattr $C$DW$275, DW_AT_TI_symbol_name("_obj")
    1808                      .dwattr $C$DW$275, DW_AT_type(*$C$DW$T$250)
    1809                      .dwattr $C$DW$275, DW_AT_location[DW_OP_reg16]
    1810              ;* AR7   assigned to _obj
    1811              $C$DW$276       .dwtag  DW_TAG_variable, DW_AT_name("obj")
    1812                      .dwattr $C$DW$276, DW_AT_TI_symbol_name("_obj")
    1813                      .dwattr $C$DW$276, DW_AT_type(*$C$DW$T$283)
    1814                      .dwattr $C$DW$276, DW_AT_location[DW_OP_reg18]
    1815              ;* AR6   assigned to _obj
    1816              $C$DW$277       .dwtag  DW_TAG_variable, DW_AT_name("obj")
    1817                      .dwattr $C$DW$277, DW_AT_TI_symbol_name("_obj")
    1818                      .dwattr $C$DW$277, DW_AT_type(*$C$DW$T$250)
    1819                      .dwattr $C$DW$277, DW_AT_location[DW_OP_reg16]
    1820              ;* AR7   assigned to _obj
    1821              $C$DW$278       .dwtag  DW_TAG_variable, DW_AT_name("obj")
    1822                      .dwattr $C$DW$278, DW_AT_TI_symbol_name("_obj")
    1823                      .dwattr $C$DW$278, DW_AT_type(*$C$DW$T$283)
    1824                      .dwattr $C$DW$278, DW_AT_location[DW_OP_reg18]
    1825              ;* AR5   assigned to _obj
    1826              $C$DW$279       .dwtag  DW_TAG_variable, DW_AT_name("obj")
    1827                      .dwattr $C$DW$279, DW_AT_TI_symbol_name("_obj")
    1828                      .dwattr $C$DW$279, DW_AT_type(*$C$DW$T$257)
    1829                      .dwattr $C$DW$279, DW_AT_location[DW_OP_reg14]
    1830              ;* AR0   assigned to _period
TMS320C2000 Assembler PC v6.4.4 Wed Jul 08 12:49:31 2015

Tools Copyright (c) 1996-2015 Texas Instruments Incorporated
C:\Users\grant\AppData\Local\Temp\0448010                            PAGE   36

    1831              $C$DW$280       .dwtag  DW_TAG_variable, DW_AT_name("period")
    1832                      .dwattr $C$DW$280, DW_AT_TI_symbol_name("_period")
    1833                      .dwattr $C$DW$280, DW_AT_type(*$C$DW$T$35)
    1834                      .dwattr $C$DW$280, DW_AT_location[DW_OP_reg4]
    1835              $C$DW$281       .dwtag  DW_TAG_variable, DW_AT_name("flag_enableCurrentCtrl")
    1836                      .dwattr $C$DW$281, DW_AT_TI_symbol_name("_flag_enableCurrentCtrl")
    1837                      .dwattr $C$DW$281, DW_AT_type(*$C$DW$T$73)
    1838                      .dwattr $C$DW$281, DW_AT_location[DW_OP_breg20 -41]
    1839              $C$DW$282       .dwtag  DW_TAG_variable, DW_AT_name("flag_enableSpeedCtrl")
    1840                      .dwattr $C$DW$282, DW_AT_TI_symbol_name("_flag_enableSpeedCtrl")
    1841                      .dwattr $C$DW$282, DW_AT_type(*$C$DW$T$73)
    1842                      .dwattr $C$DW$282, DW_AT_location[DW_OP_breg20 -42]
    1843              $C$DW$283       .dwtag  DW_TAG_variable, DW_AT_name("ctrlState")
    1844                      .dwattr $C$DW$283, DW_AT_TI_symbol_name("_ctrlState")
    1845                      .dwattr $C$DW$283, DW_AT_type(*$C$DW$T$43)
    1846                      .dwattr $C$DW$283, DW_AT_location[DW_OP_breg20 -43]
    1847              $C$DW$284       .dwtag  DW_TAG_variable, DW_AT_name("speed_outMax_pu")
    1848                      .dwattr $C$DW$284, DW_AT_TI_symbol_name("_speed_outMax_pu")
    1849                      .dwattr $C$DW$284, DW_AT_type(*$C$DW$T$35)
    1850                      .dwattr $C$DW$284, DW_AT_location[DW_OP_breg20 -50]
    1851              ;* AR3   assigned to _speed_ref_pu
    1852              $C$DW$285       .dwtag  DW_TAG_variable, DW_AT_name("speed_ref_pu")
    1853                      .dwattr $C$DW$285, DW_AT_TI_symbol_name("_speed_ref_pu")
    1854                      .dwattr $C$DW$285, DW_AT_type(*$C$DW$T$35)
    1855                      .dwattr $C$DW$285, DW_AT_location[DW_OP_reg10]
    1856              $C$DW$286       .dwtag  DW_TAG_variable, DW_AT_name("speed_pu")
    1857                      .dwattr $C$DW$286, DW_AT_TI_symbol_name("_speed_pu")
    1858                      .dwattr $C$DW$286, DW_AT_type(*$C$DW$T$35)
    1859                      .dwattr $C$DW$286, DW_AT_location[DW_OP_breg20 -52]
    1860              $C$DW$287       .dwtag  DW_TAG_variable, DW_AT_name("angle_pu")
    1861                      .dwattr $C$DW$287, DW_AT_TI_symbol_name("_angle_pu")
    1862                      .dwattr $C$DW$287, DW_AT_type(*$C$DW$T$35)
    1863                      .dwattr $C$DW$287, DW_AT_location[DW_OP_breg20 -54]
    1864              ;* XT    assigned to _value
    1865              $C$DW$288       .dwtag  DW_TAG_variable, DW_AT_name("value")
    1866                      .dwattr $C$DW$288, DW_AT_TI_symbol_name("_value")
    1867                      .dwattr $C$DW$288, DW_AT_type(*$C$DW$T$35)
    1868                      .dwattr $C$DW$288, DW_AT_location[DW_OP_reg21]
    1869              ;* XT    assigned to _value
    1870              $C$DW$289       .dwtag  DW_TAG_variable, DW_AT_name("value")
    1871                      .dwattr $C$DW$289, DW_AT_TI_symbol_name("_value")
    1872                      .dwattr $C$DW$289, DW_AT_type(*$C$DW$T$35)
    1873                      .dwattr $C$DW$289, DW_AT_location[DW_OP_reg21]
    1874              ;* XT    assigned to _value
    1875              $C$DW$290       .dwtag  DW_TAG_variable, DW_AT_name("value")
    1876                      .dwattr $C$DW$290, DW_AT_TI_symbol_name("_value")
    1877                      .dwattr $C$DW$290, DW_AT_type(*$C$DW$T$35)
    1878                      .dwattr $C$DW$290, DW_AT_location[DW_OP_reg21]
    1879              ;* XT    assigned to _value
    1880              $C$DW$291       .dwtag  DW_TAG_variable, DW_AT_name("value")
    1881                      .dwattr $C$DW$291, DW_AT_TI_symbol_name("_value")
    1882                      .dwattr $C$DW$291, DW_AT_type(*$C$DW$T$35)
    1883                      .dwattr $C$DW$291, DW_AT_location[DW_OP_reg21]
    1884              ;* XT    assigned to _value
    1885              $C$DW$292       .dwtag  DW_TAG_variable, DW_AT_name("value")
TMS320C2000 Assembler PC v6.4.4 Wed Jul 08 12:49:31 2015

Tools Copyright (c) 1996-2015 Texas Instruments Incorporated
C:\Users\grant\AppData\Local\Temp\0448010                            PAGE   37

    1886                      .dwattr $C$DW$292, DW_AT_TI_symbol_name("_value")
    1887                      .dwattr $C$DW$292, DW_AT_type(*$C$DW$T$35)
    1888                      .dwattr $C$DW$292, DW_AT_location[DW_OP_reg21]
    1889              ;* XT    assigned to _value
    1890              $C$DW$293       .dwtag  DW_TAG_variable, DW_AT_name("value")
    1891                      .dwattr $C$DW$293, DW_AT_TI_symbol_name("_value")
    1892                      .dwattr $C$DW$293, DW_AT_type(*$C$DW$T$35)
    1893                      .dwattr $C$DW$293, DW_AT_location[DW_OP_reg21]
    1894              ;* XT    assigned to _value
    1895              $C$DW$294       .dwtag  DW_TAG_variable, DW_AT_name("value")
    1896                      .dwattr $C$DW$294, DW_AT_TI_symbol_name("_value")
    1897                      .dwattr $C$DW$294, DW_AT_type(*$C$DW$T$35)
    1898                      .dwattr $C$DW$294, DW_AT_location[DW_OP_reg21]
    1899              ;* AL    assigned to _refValue_pu
    1900              $C$DW$295       .dwtag  DW_TAG_variable, DW_AT_name("refValue_pu")
    1901                      .dwattr $C$DW$295, DW_AT_TI_symbol_name("_refValue_pu")
    1902                      .dwattr $C$DW$295, DW_AT_type(*$C$DW$T$35)
    1903                      .dwattr $C$DW$295, DW_AT_location[DW_OP_reg0]
    1904              ;* AR6   assigned to _fbackValue
    1905              $C$DW$296       .dwtag  DW_TAG_variable, DW_AT_name("fbackValue")
    1906                      .dwattr $C$DW$296, DW_AT_TI_symbol_name("_fbackValue")
    1907                      .dwattr $C$DW$296, DW_AT_type(*$C$DW$T$35)
    1908                      .dwattr $C$DW$296, DW_AT_location[DW_OP_reg16]
    1909              ;* AR7   assigned to _fbackValue
    1910              $C$DW$297       .dwtag  DW_TAG_variable, DW_AT_name("fbackValue")
    1911                      .dwattr $C$DW$297, DW_AT_TI_symbol_name("_fbackValue")
    1912                      .dwattr $C$DW$297, DW_AT_type(*$C$DW$T$35)
    1913                      .dwattr $C$DW$297, DW_AT_location[DW_OP_reg18]
    1914              ;* PL    assigned to _Vmax
    1915              $C$DW$298       .dwtag  DW_TAG_variable, DW_AT_name("Vmax")
    1916                      .dwattr $C$DW$298, DW_AT_TI_symbol_name("_Vmax")
    1917                      .dwattr $C$DW$298, DW_AT_type(*$C$DW$T$35)
    1918                      .dwattr $C$DW$298, DW_AT_location[DW_OP_reg2]
    1919              ;* XT    assigned to _Vmin
    1920              $C$DW$299       .dwtag  DW_TAG_variable, DW_AT_name("Vmin")
    1921                      .dwattr $C$DW$299, DW_AT_TI_symbol_name("_Vmin")
    1922                      .dwattr $C$DW$299, DW_AT_type(*$C$DW$T$35)
    1923                      .dwattr $C$DW$299, DW_AT_location[DW_OP_reg21]
    1924              $C$DW$300       .dwtag  DW_TAG_variable, DW_AT_name("cnt")
    1925                      .dwattr $C$DW$300, DW_AT_TI_symbol_name("_cnt")
    1926                      .dwattr $C$DW$300, DW_AT_type(*$C$DW$T$36)
    1927                      .dwattr $C$DW$300, DW_AT_location[DW_OP_breg20 -41]
    1928              $C$DW$301       .dwtag  DW_TAG_variable, DW_AT_name("cnt")
    1929                      .dwattr $C$DW$301, DW_AT_TI_symbol_name("_cnt")
    1930                      .dwattr $C$DW$301, DW_AT_type(*$C$DW$T$36)
    1931                      .dwattr $C$DW$301, DW_AT_location[DW_OP_breg20 -41]
    1932              ;* AR5   assigned to $O$v2
    1933              ;* AR6   assigned to $O$v3
    1934              ;* AR4   assigned to $O$v4
    1935              ;* AR6   assigned to $O$K43
    1936              ;* AR1   assigned to $O$K43
    1937              ;* AR4   assigned to $O$v1
    1938              ;* AR4   assigned to $O$v1
    1939              ;* AR4   assigned to $O$v1
    1940              $C$DW$302       .dwtag  DW_TAG_variable, DW_AT_name("Iab_pu")
TMS320C2000 Assembler PC v6.4.4 Wed Jul 08 12:49:31 2015

Tools Copyright (c) 1996-2015 Texas Instruments Incorporated
C:\Users\grant\AppData\Local\Temp\0448010                            PAGE   38

    1941                      .dwattr $C$DW$302, DW_AT_TI_symbol_name("_Iab_pu")
    1942                      .dwattr $C$DW$302, DW_AT_type(*$C$DW$T$72)
    1943                      .dwattr $C$DW$302, DW_AT_location[DW_OP_breg20 -24]
    1944              $C$DW$303       .dwtag  DW_TAG_variable, DW_AT_name("Vab_pu")
    1945                      .dwattr $C$DW$303, DW_AT_TI_symbol_name("_Vab_pu")
    1946                      .dwattr $C$DW$303, DW_AT_type(*$C$DW$T$72)
    1947                      .dwattr $C$DW$303, DW_AT_location[DW_OP_breg20 -28]
    1948              $C$DW$304       .dwtag  DW_TAG_variable, DW_AT_name("Vdq_out_pu")
    1949                      .dwattr $C$DW$304, DW_AT_TI_symbol_name("_Vdq_out_pu")
    1950                      .dwattr $C$DW$304, DW_AT_type(*$C$DW$T$72)
    1951                      .dwattr $C$DW$304, DW_AT_location[DW_OP_breg20 -32]
    1952              $C$DW$305       .dwtag  DW_TAG_variable, DW_AT_name("Vab_out_pu")
    1953                      .dwattr $C$DW$305, DW_AT_TI_symbol_name("_Vab_out_pu")
    1954                      .dwattr $C$DW$305, DW_AT_type(*$C$DW$T$72)
    1955                      .dwattr $C$DW$305, DW_AT_location[DW_OP_breg20 -36]
    1956              $C$DW$306       .dwtag  DW_TAG_variable, DW_AT_name("phasor")
    1957                      .dwattr $C$DW$306, DW_AT_TI_symbol_name("_phasor")
    1958                      .dwattr $C$DW$306, DW_AT_type(*$C$DW$T$72)
    1959                      .dwattr $C$DW$306, DW_AT_location[DW_OP_breg20 -40]
    1960                      .dwcfi  cfa_offset, -2
    1961                      .dwcfi  save_reg_to_mem, 26, 0
    1962 00000000 761B          ASP       ; [CPU_] 
    1963 00000001 0005          PUSH      AR1H:AR0H             ; [CPU_] 
    1964                      .dwcfi  save_reg_to_mem, 5, 2
    1965                      .dwcfi  save_reg_to_mem, 7, 3
    1966                      .dwcfi  cfa_offset, -4
    1967 00000002 ABBD          MOVL      *SP++,XT              ; [CPU_] 
    1968                      .dwcfi  save_reg_to_mem, 21, 4
    1969                      .dwcfi  save_reg_to_mem, 22, 5
    1970                      .dwcfi  cfa_offset, -6
    1971 00000003 A2BD          MOVL      *SP++,XAR3            ; [CPU_] 
    1972                      .dwcfi  save_reg_to_mem, 10, 6
    1973                      .dwcfi  save_reg_to_mem, 11, 7
    1974                      .dwcfi  cfa_offset, -8
    1975 00000004 A8BD          MOVL      *SP++,XAR4            ; [CPU_] 
    1976                      .dwcfi  save_reg_to_mem, 12, 8
    1977                      .dwcfi  save_reg_to_mem, 13, 9
    1978                      .dwcfi  cfa_offset, -10
    1979 00000005 A0BD          MOVL      *SP++,XAR5            ; [CPU_] 
    1980                      .dwcfi  save_reg_to_mem, 14, 10
    1981                      .dwcfi  save_reg_to_mem, 15, 11
    1982                      .dwcfi  cfa_offset, -12
    1983 00000006 C2BD          MOVL      *SP++,XAR6            ; [CPU_] 
    1984                      .dwcfi  save_reg_to_mem, 16, 12
    1985                      .dwcfi  save_reg_to_mem, 17, 13
    1986                      .dwcfi  cfa_offset, -14
    1987 00000007 C3BD          MOVL      *SP++,XAR7            ; [CPU_] 
    1988                      .dwcfi  save_reg_to_mem, 18, 14
    1989                      .dwcfi  save_reg_to_mem, 19, 15
    1990                      .dwcfi  cfa_offset, -16
    1991 00000008 FE36          ADDB      SP,#54                ; [CPU_U] 
    1992                      .dwcfi  cfa_offset, -70
    1993 00000009 FF69          SPM       0                     ; [CPU_] 
    1994 0000000a 2942          CLRC      PAGE0,OVM             ; [CPU_] 
    1995 0000000b 5616          CLRC      AMODE                 ; [CPU_] 
TMS320C2000 Assembler PC v6.4.4 Wed Jul 08 12:49:31 2015

Tools Copyright (c) 1996-2015 Texas Instruments Incorporated
C:\Users\grant\AppData\Local\Temp\0448010                            PAGE   39

    1996 0000000c 761F-         MOVW      DP,#_ctrlHandle       ; [CPU_U] 
         0000000d 0000 
    1997                      .dwpsn  file "../proj_lab20.c",line 468,column 20,is_stmt,isa 0
    1998 0000000e 8A16-         MOVL      XAR4,@_ctrlHandle     ; [CPU_] |468| 
    1999                      .dwpsn  file "C:/ti/motorware/motorware_1_01_00_14/sw/modules/traj/src/32b/traj.h",line 96,column 3,i
    2000 0000000f D06C          MOVB      XAR0,#108             ; [CPU_] |96| 
    2001 00000010 8394          MOVL      XAR5,*+XAR4[AR0]      ; [CPU_] |96| 
    2002 00000011 D078          MOVB      XAR0,#120             ; [CPU_] |96| 
    2003 00000012 82D5          MOVL      XAR3,*+XAR5[2]        ; [CPU_] |96| 
    2004 00000013 8394          MOVL      XAR5,*+XAR4[AR0]      ; [CPU_] |96| 
    2005 00000014 06D5          MOVL      ACC,*+XAR5[2]         ; [CPU_] |96| 
    2006                      .dwpsn  file "../proj_lab20.c",line 479,column 3,is_stmt,isa 0
    2007 00000015 0A02-         INC       @_gLEDcnt             ; [CPU_] |479| 
    2008                      .dwpsn  file "C:/ti/motorware/motorware_1_01_00_14/sw/modules/traj/src/32b/traj.h",line 96,column 3,i
    2009 00000016 1E72          MOVL      *-SP[50],ACC          ; [CPU_] |96| 
    2010                      .dwpsn  file "../proj_lab20.c",line 479,column 3,is_stmt,isa 0
    2011 00000017 9202-         MOV       AL,@_gLEDcnt          ; [CPU_] |479| 
    2012 00000018 9CFF          ADDB      AL,#-1                ; [CPU_] |479| 
    2013 00000019 1BA9          CMP       AL,#3000              ; [CPU_] |479| 
         0000001a 0BB8 
    2014 0000001b 56C9          BF        $C$L8,LOS             ; [CPU_] |479| 
         0000001c 000D 
    2015                      ; branchcc occurs ; [] |479| 
    2016                      .dwpsn  file "C:/ti/motorware/motorware_1_01_00_14/sw/modules/hal/boards/boostxldrv8301_revB/f28x/f28
    2017 0000001d 0208          MOVB      ACC,#8                ; [CPU_] |747| 
    2018 0000001e 0706-         ADDL      ACC,@_halHandle       ; [CPU_] |747| 
    2019 0000001f 8AA9          MOVL      XAR4,ACC              ; [CPU_] |747| 
    2020 00000020 9A22          MOVB      AL,#34                ; [CPU_] |747| 
    2021 00000021 8AC4          MOVL      XAR4,*+XAR4[0]        ; [CPU_] |747| 
    2022              $C$DW$307       .dwtag  DW_TAG_TI_branch
    2023                      .dwattr $C$DW$307, DW_AT_low_pc(0x00)
    2024                      .dwattr $C$DW$307, DW_AT_name("_GPIO_toggle")
    2025                      .dwattr $C$DW$307, DW_AT_TI_call
    2026 00000022 7640!         LCR       #_GPIO_toggle         ; [CPU_] |747| 
         00000023 0000 
    2027                      ; call occurs [#_GPIO_toggle] ; [] |747| 
    2028 00000024 761F-         MOVW      DP,#_gLEDcnt          ; [CPU_U] 
         00000025 0000 
    2029                      .dwpsn  file "../proj_lab20.c",line 482,column 5,is_stmt,isa 0
    2030 00000026 2B02-         MOV       @_gLEDcnt,#0          ; [CPU_] |482| 
    2031 00000027 8A16-         MOVL      XAR4,@_ctrlHandle     ; [CPU_] |482| 
    2032 00000028       $C$L8:    
    2033                      .dwpsn  file "../proj_lab20.c",line 487,column 3,is_stmt,isa 0
    2034 00000028 8306-         MOVL      XAR5,@_halHandle      ; [CPU_] |487| 
    2035                      .dwpsn  file "C:/ti/motorware/motorware_1_01_00_14/sw/drivers/adc/src/32b/f28x/f2806x/adc.h",line 584
    2036 00000029 7680          MOVL      XAR6,#26117           ; [CPU_U] |584| 
         0000002a 6605 
    2037 0000002b 06A6          MOVL      ACC,XAR6              ; [CPU_] |584| 
    2038 0000002c 07C5          ADDL      ACC,*+XAR5[0]         ; [CPU_] |584| 
    2039 0000002d 1EA6          MOVL      XAR6,ACC              ; [CPU_] |584| 
    2040                      .dwpsn  file "C:/ti/motorware/motorware_1_01_00_14/sw/drivers/pie/src/32b/f28x/f2806x/pie.h",line 797
    2041 0000002e D06C          MOVB      XAR0,#108             ; [CPU_] |797| 
    2042                      .dwpsn  file "C:/ti/motorware/motorware_1_01_00_14/sw/drivers/adc/src/32b/f28x/f2806x/adc.h",line 584
    2043 0000002f 56BF          MOVB      *+XAR6[0],#1,UNC      ; [CPU_] |584| 
         00000030 01C6 
TMS320C2000 Assembler PC v6.4.4 Wed Jul 08 12:49:31 2015

Tools Copyright (c) 1996-2015 Texas Instruments Incorporated
C:\Users\grant\AppData\Local\Temp\0448010                            PAGE   40

    2044                      .dwpsn  file "C:/ti/motorware/motorware_1_01_00_14/sw/drivers/pie/src/32b/f28x/f2806x/pie.h",line 797
    2045 00000031 C495          MOVL      XAR6,*+XAR5[AR0]      ; [CPU_] |797| 
    2046                      .dwpsn  file "C:/ti/motorware/motorware_1_01_00_14/sw/modules/hal/boards/boostxldrv8301_revB/f28x/f28
    2047 00000032 D092          MOVB      XAR0,#146             ; [CPU_] |532| 
    2048                      .dwpsn  file "C:/ti/motorware/motorware_1_01_00_14/sw/drivers/pie/src/32b/f28x/f2806x/pie.h",line 797
    2049 00000033 28CE          MOV       *+XAR6[1],#512        ; [CPU_] |797| 
         00000034 0200 
    2050                      .dwpsn  file "C:/ti/motorware/motorware_1_01_00_14/sw/drivers/adc/src/32b/f28x/f2806x/adc.h",line 697
    2051 00000035 C5C5          MOVL      XAR7,*+XAR5[0]        ; [CPU_] |697| 
    2052                      .dwpsn  file "C:/ti/motorware/motorware_1_01_00_14/sw/modules/hal/boards/boostxldrv8301_revB/f28x/f28
    2053 00000036 8B95          MOVL      XAR1,*+XAR5[AR0]      ; [CPU_] |532| 
    2054                      .dwpsn  file "C:/ti/motorware/motorware_1_01_00_14/sw/modules/hal/boards/boostxldrv8301_revB/f28x/f28
    2055 00000037 7680-         MOVL      XAR6,#_gAdcData       ; [CPU_U] |533| 
         00000038 004C 
    2056                      .dwpsn  file "C:/ti/motorware/motorware_1_01_00_14/sw/modules/hal/boards/boostxldrv8301_revB/f28x/f28
    2057 00000039 D084          MOVB      XAR0,#132             ; [CPU_] |532| 
    2058                      .dwpsn  file "C:/ti/motorware/motorware_1_01_00_14/sw/drivers/adc/src/32b/f28x/f2806x/adc.h",line 697
    2059 0000003a 0ECF          MOVU      ACC,*+XAR7[1]         ; [CPU_] |697| 
    2060 0000003b 1EAC          MOVL      XT,ACC                ; [CPU_] |697| 
    2061                      .dwpsn  file "C:/ti/motorware/motorware_1_01_00_14/sw/modules/hal/boards/boostxldrv8301_revB/f28x/f28
    2062 0000003c 5605          IMPYL     P,XT,XAR1             ; [CPU_] |532| 
         0000003d 00A1 
    2063 0000003e 5663          QMPYL     ACC,XT,XAR1           ; [CPU_] |532| 
         0000003f 00A1 
    2064 00000040 568B          ASR64     ACC:P,#12             ; [CPU_] |532| 
    2065 00000041 A9A9          MOVL      ACC,P                 ; [CPU_] |532| 
    2066 00000042 0395          SUBL      ACC,*+XAR5[AR0]       ; [CPU_] |532| 
    2067                      .dwpsn  file "C:/ti/motorware/motorware_1_01_00_14/sw/modules/hal/boards/boostxldrv8301_revB/f28x/f28
    2068 00000043 D086          MOVB      XAR0,#134             ; [CPU_] |537| 
    2069                      .dwpsn  file "C:/ti/motorware/motorware_1_01_00_14/sw/modules/hal/boards/boostxldrv8301_revB/f28x/f28
    2070 00000044 1EC6          MOVL      *+XAR6[0],ACC         ; [CPU_] |533| 
    2071                      .dwpsn  file "C:/ti/motorware/motorware_1_01_00_14/sw/drivers/adc/src/32b/f28x/f2806x/adc.h",line 697
    2072 00000045 0ED7          MOVU      ACC,*+XAR7[2]         ; [CPU_] |697| 
    2073 00000046 1EAC          MOVL      XT,ACC                ; [CPU_] |697| 
    2074                      .dwpsn  file "C:/ti/motorware/motorware_1_01_00_14/sw/modules/hal/boards/boostxldrv8301_revB/f28x/f28
    2075 00000047 5605          IMPYL     P,XT,XAR1             ; [CPU_] |537| 
         00000048 00A1 
    2076 00000049 5663          QMPYL     ACC,XT,XAR1           ; [CPU_] |537| 
         0000004a 00A1 
    2077 0000004b 568B          ASR64     ACC:P,#12             ; [CPU_] |537| 
    2078 0000004c A9A9          MOVL      ACC,P                 ; [CPU_] |537| 
    2079 0000004d 0395          SUBL      ACC,*+XAR5[AR0]       ; [CPU_] |537| 
    2080                      .dwpsn  file "C:/ti/motorware/motorware_1_01_00_14/sw/modules/hal/boards/boostxldrv8301_revB/f28x/f28
    2081 0000004e D088          MOVB      XAR0,#136             ; [CPU_] |542| 
    2082                      .dwpsn  file "C:/ti/motorware/motorware_1_01_00_14/sw/modules/hal/boards/boostxldrv8301_revB/f28x/f28
    2083 0000004f 1ED6          MOVL      *+XAR6[2],ACC         ; [CPU_] |538| 
    2084                      .dwpsn  file "C:/ti/motorware/motorware_1_01_00_14/sw/drivers/adc/src/32b/f28x/f2806x/adc.h",line 697
    2085 00000050 0EDF          MOVU      ACC,*+XAR7[3]         ; [CPU_] |697| 
    2086 00000051 1EAC          MOVL      XT,ACC                ; [CPU_] |697| 
    2087                      .dwpsn  file "C:/ti/motorware/motorware_1_01_00_14/sw/modules/hal/boards/boostxldrv8301_revB/f28x/f28
    2088 00000052 5605          IMPYL     P,XT,XAR1             ; [CPU_] |542| 
         00000053 00A1 
    2089 00000054 5663          QMPYL     ACC,XT,XAR1           ; [CPU_] |542| 
         00000055 00A1 
    2090 00000056 568B          ASR64     ACC:P,#12             ; [CPU_] |542| 
TMS320C2000 Assembler PC v6.4.4 Wed Jul 08 12:49:31 2015

Tools Copyright (c) 1996-2015 Texas Instruments Incorporated
C:\Users\grant\AppData\Local\Temp\0448010                            PAGE   41

    2091 00000057 A9A9          MOVL      ACC,P                 ; [CPU_] |542| 
    2092 00000058 0395          SUBL      ACC,*+XAR5[AR0]       ; [CPU_] |542| 
    2093                      .dwpsn  file "C:/ti/motorware/motorware_1_01_00_14/sw/modules/hal/boards/boostxldrv8301_revB/f28x/f28
    2094 00000059 D094          MOVB      XAR0,#148             ; [CPU_] |547| 
    2095                      .dwpsn  file "C:/ti/motorware/motorware_1_01_00_14/sw/modules/hal/boards/boostxldrv8301_revB/f28x/f28
    2096 0000005a 1EE6          MOVL      *+XAR6[4],ACC         ; [CPU_] |543| 
    2097                      .dwpsn  file "C:/ti/motorware/motorware_1_01_00_14/sw/modules/hal/boards/boostxldrv8301_revB/f28x/f28
    2098 0000005b 8B95          MOVL      XAR1,*+XAR5[AR0]      ; [CPU_] |547| 
    2099                      .dwpsn  file "C:/ti/motorware/motorware_1_01_00_14/sw/drivers/adc/src/32b/f28x/f2806x/adc.h",line 697
    2100 0000005c 0EE7          MOVU      ACC,*+XAR7[4]         ; [CPU_] |697| 
    2101 0000005d 1EAC          MOVL      XT,ACC                ; [CPU_] |697| 
    2102                      .dwpsn  file "C:/ti/motorware/motorware_1_01_00_14/sw/modules/hal/boards/boostxldrv8301_revB/f28x/f28
    2103 0000005e D08A          MOVB      XAR0,#138             ; [CPU_] |547| 
    2104 0000005f 5605          IMPYL     P,XT,XAR1             ; [CPU_] |547| 
         00000060 00A1 
    2105 00000061 5663          QMPYL     ACC,XT,XAR1           ; [CPU_] |547| 
         00000062 00A1 
    2106 00000063 568B          ASR64     ACC:P,#12             ; [CPU_] |547| 
    2107 00000064 A9A9          MOVL      ACC,P                 ; [CPU_] |547| 
    2108 00000065 0395          SUBL      ACC,*+XAR5[AR0]       ; [CPU_] |547| 
    2109                      .dwpsn  file "C:/ti/motorware/motorware_1_01_00_14/sw/modules/hal/boards/boostxldrv8301_revB/f28x/f28
    2110 00000066 D08C          MOVB      XAR0,#140             ; [CPU_] |552| 
    2111                      .dwpsn  file "C:/ti/motorware/motorware_1_01_00_14/sw/modules/hal/boards/boostxldrv8301_revB/f28x/f28
    2112 00000067 1EF6          MOVL      *+XAR6[6],ACC         ; [CPU_] |548| 
    2113                      .dwpsn  file "C:/ti/motorware/motorware_1_01_00_14/sw/drivers/adc/src/32b/f28x/f2806x/adc.h",line 697
    2114 00000068 0EEF          MOVU      ACC,*+XAR7[5]         ; [CPU_] |697| 
    2115 00000069 1EAC          MOVL      XT,ACC                ; [CPU_] |697| 
    2116                      .dwpsn  file "C:/ti/motorware/motorware_1_01_00_14/sw/modules/hal/boards/boostxldrv8301_revB/f28x/f28
    2117 0000006a 5605          IMPYL     P,XT,XAR1             ; [CPU_] |552| 
         0000006b 00A1 
    2118 0000006c 5663          QMPYL     ACC,XT,XAR1           ; [CPU_] |552| 
         0000006d 00A1 
    2119 0000006e 568B          ASR64     ACC:P,#12             ; [CPU_] |552| 
    2120 0000006f A9A9          MOVL      ACC,P                 ; [CPU_] |552| 
    2121 00000070 0395          SUBL      ACC,*+XAR5[AR0]       ; [CPU_] |552| 
    2122                      .dwpsn  file "C:/ti/motorware/motorware_1_01_00_14/sw/modules/hal/boards/boostxldrv8301_revB/f28x/f28
    2123 00000071 D008          MOVB      XAR0,#8               ; [CPU_] |553| 
    2124 00000072 1E96          MOVL      *+XAR6[AR0],ACC       ; [CPU_] |553| 
    2125                      .dwpsn  file "C:/ti/motorware/motorware_1_01_00_14/sw/modules/hal/boards/boostxldrv8301_revB/f28x/f28
    2126 00000073 D08E          MOVB      XAR0,#142             ; [CPU_] |557| 
    2127                      .dwpsn  file "C:/ti/motorware/motorware_1_01_00_14/sw/drivers/adc/src/32b/f28x/f2806x/adc.h",line 697
    2128 00000074 0EF7          MOVU      ACC,*+XAR7[6]         ; [CPU_] |697| 
    2129 00000075 1EAC          MOVL      XT,ACC                ; [CPU_] |697| 
    2130                      .dwpsn  file "C:/ti/motorware/motorware_1_01_00_14/sw/modules/hal/boards/boostxldrv8301_revB/f28x/f28
    2131 00000076 5605          IMPYL     P,XT,XAR1             ; [CPU_] |557| 
         00000077 00A1 
    2132 00000078 5663          QMPYL     ACC,XT,XAR1           ; [CPU_] |557| 
         00000079 00A1 
    2133 0000007a 568B          ASR64     ACC:P,#12             ; [CPU_] |557| 
    2134 0000007b A9A9          MOVL      ACC,P                 ; [CPU_] |557| 
    2135 0000007c 0395          SUBL      ACC,*+XAR5[AR0]       ; [CPU_] |557| 
    2136                      .dwpsn  file "C:/ti/motorware/motorware_1_01_00_14/sw/modules/hal/boards/boostxldrv8301_revB/f28x/f28
    2137 0000007d D00A          MOVB      XAR0,#10              ; [CPU_] |558| 
    2138 0000007e 1E96          MOVL      *+XAR6[AR0],ACC       ; [CPU_] |558| 
    2139                      .dwpsn  file "C:/ti/motorware/motorware_1_01_00_14/sw/modules/hal/boards/boostxldrv8301_revB/f28x/f28
TMS320C2000 Assembler PC v6.4.4 Wed Jul 08 12:49:31 2015

Tools Copyright (c) 1996-2015 Texas Instruments Incorporated
C:\Users\grant\AppData\Local\Temp\0448010                            PAGE   42

    2140 0000007f D00C          MOVB      XAR0,#12              ; [CPU_] |563| 
    2141                      .dwpsn  file "C:/ti/motorware/motorware_1_01_00_14/sw/drivers/adc/src/32b/f28x/f2806x/adc.h",line 697
    2142 00000080 0EFF          MOVU      ACC,*+XAR7[7]         ; [CPU_] |697| 
    2143 00000081 1EAC          MOVL      XT,ACC                ; [CPU_] |697| 
    2144                      .dwpsn  file "C:/ti/motorware/motorware_1_01_00_14/sw/modules/hal/boards/boostxldrv8301_revB/f28x/f28
    2145 00000082 5605          IMPYL     P,XT,XAR1             ; [CPU_] |562| 
         00000083 00A1 
    2146 00000084 5663          QMPYL     ACC,XT,XAR1           ; [CPU_] |562| 
         00000085 00A1 
    2147 00000086 568B          ASR64     ACC:P,#12             ; [CPU_] |562| 
    2148                      .dwpsn  file "C:/ti/motorware/motorware_1_01_00_14/sw/modules/hal/boards/boostxldrv8301_revB/f28x/f28
    2149 00000087 A996          MOVL      *+XAR6[AR0],P         ; [CPU_] |563| 
    2150                      .dwpsn  file "../proj_lab20.c",line 498,column 5,is_stmt,isa 0
    2151 00000088 D09C          MOVB      XAR0,#156             ; [CPU_] |498| 
    2152 00000089 9294          MOV       AL,*+XAR4[AR0]        ; [CPU_] |498| 
    2153 0000008a D0ED          MOVB      XAR0,#237             ; [CPU_] |498| 
    2154 0000008b 5494          CMP       AL,*+XAR4[AR0]        ; [CPU_] |498| 
    2155 0000008c 56C6          BF        $C$L31,HI             ; [CPU_] |498| 
         0000008d 02E3 
    2156                      ; branchcc occurs ; [] |498| 
    2157                      .dwpsn  file "C:/ti/motorware/motorware_1_01_00_14/sw/modules/ctrl/src/32b/ctrl.h",line 771,column 3,
    2158 0000008e 92E4          MOV       AL,*+XAR4[4]          ; [CPU_] |771| 
    2159                      .dwpsn  file "C:/ti/motorware/motorware_1_01_00_14/sw/modules/ctrl/src/32b/ctrl.h",line 1087,column 3
    2160 0000008f D0ED          MOVB      XAR0,#237             ; [CPU_] |1087| 
    2161                      .dwpsn  file "C:/ti/motorware/motorware_1_01_00_14/sw/modules/ctrl/src/32b/ctrl.h",line 771,column 3,
    2162 00000090 966B          MOV       *-SP[43],AL           ; [CPU_] |771| 
    2163                      .dwpsn  file "C:/ti/motorware/motorware_1_01_00_14/sw/modules/ctrl/src/32b/ctrl.h",line 1087,column 3
    2164 00000091 56BF          MOVB      *+XAR4[AR0],#1,UNC    ; [CPU_] |1087| 
         00000092 0194 
    2165                      .dwpsn  file "C:/ti/motorware/motorware_1_01_00_14/sw/modules/clarke/src/32b/clarke.h",line 125,colum
    2166 00000093 8A18-         MOVL      XAR4,@_clarkeHandle_I ; [CPU_] |125| 
    2167 00000094 83C4          MOVL      XAR5,*+XAR4[0]        ; [CPU_] |125| 
    2168                      .dwpsn  file "C:/ti/motorware/motorware_1_01_00_14/sw/modules/clarke/src/32b/clarke.h",line 126,colum
    2169 00000095 C5D4          MOVL      XAR7,*+XAR4[2]        ; [CPU_] |126| 
    2170                      .dwpsn  file "C:/ti/motorware/motorware_1_01_00_14/sw/modules/clarke/src/32b/clarke.h",line 129,colum
    2171 00000096 92E4          MOV       AL,*+XAR4[4]          ; [CPU_] |129| 
    2172 00000097 5203          CMPB      AL,#3                 ; [CPU_] |129| 
    2173 00000098 EC0E          BF        $C$L9,EQ              ; [CPU_] |129| 
    2174                      ; branchcc occurs ; [] |129| 
    2175                      .dwpsn  file "C:/ti/motorware/motorware_1_01_00_14/sw/modules/clarke/src/32b/clarke.h",line 134,colum
    2176 00000099 5202          CMPB      AL,#2                 ; [CPU_] |134| 
    2177 0000009a ED22          BF        $C$L11,NEQ            ; [CPU_] |134| 
    2178                      ; branchcc occurs ; [] |134| 
    2179                      .dwpsn  file "C:/ti/motorware/motorware_1_01_00_14/sw/modules/clarke/src/32b/clarke.h",line 136,colum
    2180 0000009b 87C6          MOVL      XT,*+XAR6[0]          ; [CPU_] |136| 
    2181 0000009c 5605          IMPYL     P,XT,XAR5             ; [CPU_] |136| 
         0000009d 00A5 
    2182 0000009e 5663          QMPYL     ACC,XT,XAR5           ; [CPU_] |136| 
         0000009f 00A5 
    2183 000000a0 56A7          LSL64     ACC:P,#8              ; [CPU_] |136| 
    2184 000000a1 1E58          MOVL      *-SP[24],ACC          ; [CPU_] |136| 
    2185                      .dwpsn  file "C:/ti/motorware/motorware_1_01_00_14/sw/modules/clarke/src/32b/clarke.h",line 137,colum
    2186 000000a2 06D6          MOVL      ACC,*+XAR6[2]         ; [CPU_] |137| 
    2187 000000a3 FF30          LSL       ACC,1                 ; [CPU_] |137| 
    2188 000000a4 07C6          ADDL      ACC,*+XAR6[0]         ; [CPU_] |137| 
TMS320C2000 Assembler PC v6.4.4 Wed Jul 08 12:49:31 2015

Tools Copyright (c) 1996-2015 Texas Instruments Incorporated
C:\Users\grant\AppData\Local\Temp\0448010                            PAGE   43

    2189 000000a5 6F10          B         $C$L10,UNC            ; [CPU_] |137| 
    2190                      ; branch occurs ; [] |137| 
    2191 000000a6       $C$L9:    
    2192                      .dwpsn  file "C:/ti/motorware/motorware_1_01_00_14/sw/modules/clarke/src/32b/clarke.h",line 131,colum
    2193 000000a6 8F00-         MOVL      XAR4,#_gAdcData       ; [CPU_U] |131| 
         000000a7 004C 
    2194 000000a8 06C4          MOVL      ACC,*+XAR4[0]         ; [CPU_] |131| 
    2195 000000a9 FF30          LSL       ACC,1                 ; [CPU_] |131| 
    2196 000000aa 03D4          SUBL      ACC,*+XAR4[2]         ; [CPU_] |131| 
    2197 000000ab 03E4          SUBL      ACC,*+XAR4[4]         ; [CPU_] |131| 
    2198 000000ac 1EAC          MOVL      XT,ACC                ; [CPU_] |131| 
    2199 000000ad 5605          IMPYL     P,XT,XAR5             ; [CPU_] |131| 
         000000ae 00A5 
    2200 000000af 5663          QMPYL     ACC,XT,XAR5           ; [CPU_] |131| 
         000000b0 00A5 
    2201 000000b1 56A7          LSL64     ACC:P,#8              ; [CPU_] |131| 
    2202 000000b2 1E58          MOVL      *-SP[24],ACC          ; [CPU_] |131| 
    2203                      .dwpsn  file "C:/ti/motorware/motorware_1_01_00_14/sw/modules/clarke/src/32b/clarke.h",line 132,colum
    2204 000000b3 06D4          MOVL      ACC,*+XAR4[2]         ; [CPU_] |132| 
    2205 000000b4 03E4          SUBL      ACC,*+XAR4[4]         ; [CPU_] |132| 
    2206 000000b5       $C$L10:    
    2207 000000b5 1EAC          MOVL      XT,ACC                ; [CPU_] |132| 
    2208 000000b6 5605          IMPYL     P,XT,XAR7             ; [CPU_] |132| 
         000000b7 00A7 
    2209 000000b8 5663          QMPYL     ACC,XT,XAR7           ; [CPU_] |132| 
         000000b9 00A7 
    2210 000000ba 56A7          LSL64     ACC:P,#8              ; [CPU_] |132| 
    2211 000000bb 1E56          MOVL      *-SP[22],ACC          ; [CPU_] |132| 
    2212 000000bc       $C$L11:    
    2213                      .dwpsn  file "C:/ti/motorware/motorware_1_01_00_14/sw/modules/clarke/src/32b/clarke.h",line 125,colum
    2214 000000bc 8A12-         MOVL      XAR4,@_clarkeHandle_V ; [CPU_] |125| 
    2215                      .dwpsn  file "C:/ti/motorware/motorware_1_01_00_14/sw/modules/clarke/src/32b/clarke.h",line 129,colum
    2216 000000bd 92E4          MOV       AL,*+XAR4[4]          ; [CPU_] |129| 
    2217                      .dwpsn  file "C:/ti/motorware/motorware_1_01_00_14/sw/modules/clarke/src/32b/clarke.h",line 125,colum
    2218 000000be C5C4          MOVL      XAR7,*+XAR4[0]        ; [CPU_] |125| 
    2219                      .dwpsn  file "C:/ti/motorware/motorware_1_01_00_14/sw/modules/clarke/src/32b/clarke.h",line 126,colum
    2220 000000bf C4D4          MOVL      XAR6,*+XAR4[2]        ; [CPU_] |126| 
    2221                      .dwpsn  file "C:/ti/motorware/motorware_1_01_00_14/sw/modules/clarke/src/32b/clarke.h",line 129,colum
    2222 000000c0 5203          CMPB      AL,#3                 ; [CPU_] |129| 
    2223 000000c1 EC11          BF        $C$L12,EQ             ; [CPU_] |129| 
    2224                      ; branchcc occurs ; [] |129| 
    2225                      .dwpsn  file "C:/ti/motorware/motorware_1_01_00_14/sw/modules/clarke/src/32b/clarke.h",line 134,colum
    2226 000000c2 5202          CMPB      AL,#2                 ; [CPU_] |134| 
    2227 000000c3 ED29          BF        $C$L14,NEQ            ; [CPU_] |134| 
    2228                      ; branchcc occurs ; [] |134| 
    2229                      .dwpsn  file "C:/ti/motorware/motorware_1_01_00_14/sw/modules/clarke/src/32b/clarke.h",line 136,colum
    2230 000000c4 8F00-         MOVL      XAR4,#_gAdcData       ; [CPU_U] |136| 
         000000c5 004C 
    2231 000000c6 87F4          MOVL      XT,*+XAR4[6]          ; [CPU_] |136| 
    2232                      .dwpsn  file "C:/ti/motorware/motorware_1_01_00_14/sw/modules/clarke/src/32b/clarke.h",line 137,colum
    2233 000000c7 D008          MOVB      XAR0,#8               ; [CPU_] |137| 
    2234                      .dwpsn  file "C:/ti/motorware/motorware_1_01_00_14/sw/modules/clarke/src/32b/clarke.h",line 136,colum
    2235 000000c8 5605          IMPYL     P,XT,XAR7             ; [CPU_] |136| 
         000000c9 00A7 
    2236 000000ca 5663          QMPYL     ACC,XT,XAR7           ; [CPU_] |136| 
TMS320C2000 Assembler PC v6.4.4 Wed Jul 08 12:49:31 2015

Tools Copyright (c) 1996-2015 Texas Instruments Incorporated
C:\Users\grant\AppData\Local\Temp\0448010                            PAGE   44

         000000cb 00A7 
    2237 000000cc 56A7          LSL64     ACC:P,#8              ; [CPU_] |136| 
    2238 000000cd 1E5C          MOVL      *-SP[28],ACC          ; [CPU_] |136| 
    2239                      .dwpsn  file "C:/ti/motorware/motorware_1_01_00_14/sw/modules/clarke/src/32b/clarke.h",line 137,colum
    2240 000000ce 0694          MOVL      ACC,*+XAR4[AR0]       ; [CPU_] |137| 
    2241 000000cf FF30          LSL       ACC,1                 ; [CPU_] |137| 
    2242 000000d0 07F4          ADDL      ACC,*+XAR4[6]         ; [CPU_] |137| 
    2243 000000d1 6F14          B         $C$L13,UNC            ; [CPU_] |137| 
    2244                      ; branch occurs ; [] |137| 
    2245 000000d2       $C$L12:    
    2246                      .dwpsn  file "C:/ti/motorware/motorware_1_01_00_14/sw/modules/clarke/src/32b/clarke.h",line 131,colum
    2247 000000d2 8F00-         MOVL      XAR4,#_gAdcData       ; [CPU_U] |131| 
         000000d3 004C 
    2248 000000d4 D008          MOVB      XAR0,#8               ; [CPU_] |131| 
    2249 000000d5 06F4          MOVL      ACC,*+XAR4[6]         ; [CPU_] |131| 
    2250                      .dwpsn  file "C:/ti/motorware/motorware_1_01_00_14/sw/modules/clarke/src/32b/clarke.h",line 132,colum
    2251 000000d6 D108          MOVB      XAR1,#8               ; [CPU_] |132| 
    2252                      .dwpsn  file "C:/ti/motorware/motorware_1_01_00_14/sw/modules/clarke/src/32b/clarke.h",line 131,colum
    2253 000000d7 FF30          LSL       ACC,1                 ; [CPU_] |131| 
    2254 000000d8 0394          SUBL      ACC,*+XAR4[AR0]       ; [CPU_] |131| 
    2255 000000d9 D00A          MOVB      XAR0,#10              ; [CPU_] |131| 
    2256 000000da 0394          SUBL      ACC,*+XAR4[AR0]       ; [CPU_] |131| 
    2257 000000db 1EAC          MOVL      XT,ACC                ; [CPU_] |131| 
    2258                      .dwpsn  file "C:/ti/motorware/motorware_1_01_00_14/sw/modules/clarke/src/32b/clarke.h",line 132,colum
    2259 000000dc D00A          MOVB      XAR0,#10              ; [CPU_] |132| 
    2260                      .dwpsn  file "C:/ti/motorware/motorware_1_01_00_14/sw/modules/clarke/src/32b/clarke.h",line 131,colum
    2261 000000dd 5605          IMPYL     P,XT,XAR7             ; [CPU_] |131| 
         000000de 00A7 
    2262 000000df 5663          QMPYL     ACC,XT,XAR7           ; [CPU_] |131| 
         000000e0 00A7 
    2263 000000e1 56A7          LSL64     ACC:P,#8              ; [CPU_] |131| 
    2264 000000e2 1E5C          MOVL      *-SP[28],ACC          ; [CPU_] |131| 
    2265                      .dwpsn  file "C:/ti/motorware/motorware_1_01_00_14/sw/modules/clarke/src/32b/clarke.h",line 132,colum
    2266 000000e3 069C          MOVL      ACC,*+XAR4[AR1]       ; [CPU_] |132| 
    2267 000000e4 0394          SUBL      ACC,*+XAR4[AR0]       ; [CPU_] |132| 
    2268 000000e5       $C$L13:    
    2269 000000e5 1EAC          MOVL      XT,ACC                ; [CPU_] |132| 
    2270 000000e6 5605          IMPYL     P,XT,XAR6             ; [CPU_] |132| 
         000000e7 00A6 
    2271 000000e8 5663          QMPYL     ACC,XT,XAR6           ; [CPU_] |132| 
         000000e9 00A6 
    2272 000000ea 56A7          LSL64     ACC:P,#8              ; [CPU_] |132| 
    2273 000000eb 1E5A          MOVL      *-SP[26],ACC          ; [CPU_] |132| 
    2274 000000ec       $C$L14:    
    2275                      .dwpsn  file "../proj_lab20.c",line 520,column 9,is_stmt,isa 0
    2276 000000ec 5CAD          MOVZ      AR4,SP                ; [CPU_] |520| 
    2277 000000ed 5DAD          MOVZ      AR5,SP                ; [CPU_] |520| 
    2278 000000ee 8D40-         MOVL      XAR1,#_gAdcData       ; [CPU_U] |520| 
         000000ef 004C 
    2279 000000f0 D00C          MOVB      XAR0,#12              ; [CPU_] |520| 
    2280 000000f1 DC9C          SUBB      XAR4,#28              ; [CPU_U] |520| 
    2281 000000f2 0EA4          MOVU      ACC,AR4               ; [CPU_] |520| 
    2282 000000f3 DD98          SUBB      XAR5,#24              ; [CPU_U] |520| 
    2283 000000f4 1E42          MOVL      *-SP[2],ACC           ; [CPU_] |520| 
    2284 000000f5 8A14-         MOVL      XAR4,@_estHandle      ; [CPU_] |520| 
TMS320C2000 Assembler PC v6.4.4 Wed Jul 08 12:49:31 2015

Tools Copyright (c) 1996-2015 Texas Instruments Incorporated
C:\Users\grant\AppData\Local\Temp\0448010                            PAGE   45

    2285 000000f6 5DA5          MOVZ      AR5,AR5               ; [CPU_] |520| 
    2286 000000f7 A244          MOVL      *-SP[4],XAR3          ; [CPU_] |520| 
    2287 000000f8 0691          MOVL      ACC,*+XAR1[AR0]       ; [CPU_] |520| 
    2288              $C$DW$308       .dwtag  DW_TAG_TI_branch
    2289                      .dwattr $C$DW$308, DW_AT_low_pc(0x00)
    2290                      .dwattr $C$DW$308, DW_AT_name("_EST_run")
    2291                      .dwattr $C$DW$308, DW_AT_TI_call
    2292 000000f9 7640!         LCR       #_EST_run             ; [CPU_] |520| 
         000000fa 0000 
    2293                      ; call occurs [#_EST_run] ; [] |520| 
    2294 000000fb 761F-         MOVW      DP,#_estHandle        ; [CPU_U] 
         000000fc 0000 
    2295                      .dwpsn  file "../proj_lab20.c",line 526,column 9,is_stmt,isa 0
    2296 000000fd 8A14-         MOVL      XAR4,@_estHandle      ; [CPU_] |526| 
    2297              $C$DW$309       .dwtag  DW_TAG_TI_branch
    2298                      .dwattr $C$DW$309, DW_AT_low_pc(0x00)
    2299                      .dwattr $C$DW$309, DW_AT_name("_EST_doSpeedCtrl")
    2300                      .dwattr $C$DW$309, DW_AT_TI_call
    2301 000000fe 7640!         LCR       #_EST_doSpeedCtrl     ; [CPU_] |526| 
         000000ff 0000 
    2302                      ; call occurs [#_EST_doSpeedCtrl] ; [] |526| 
    2303 00000100 761F-         MOVW      DP,#_estHandle        ; [CPU_U] 
         00000101 0000 
    2304 00000102 966A          MOV       *-SP[42],AL           ; [CPU_] |526| 
    2305                      .dwpsn  file "../proj_lab20.c",line 527,column 9,is_stmt,isa 0
    2306 00000103 8A14-         MOVL      XAR4,@_estHandle      ; [CPU_] |527| 
    2307              $C$DW$310       .dwtag  DW_TAG_TI_branch
    2308                      .dwattr $C$DW$310, DW_AT_low_pc(0x00)
    2309                      .dwattr $C$DW$310, DW_AT_name("_EST_doCurrentCtrl")
    2310                      .dwattr $C$DW$310, DW_AT_TI_call
    2311 00000104 7640!         LCR       #_EST_doCurrentCtrl   ; [CPU_] |527| 
         00000105 0000 
    2312                      ; call occurs [#_EST_doCurrentCtrl] ; [] |527| 
    2313 00000106 761F-         MOVW      DP,#_estHandle        ; [CPU_U] 
         00000107 0000 
    2314 00000108 9669          MOV       *-SP[41],AL           ; [CPU_] |527| 
    2315                      .dwpsn  file "../proj_lab20.c",line 531,column 7,is_stmt,isa 0
    2316 00000109 8A14-         MOVL      XAR4,@_estHandle      ; [CPU_] |531| 
    2317              $C$DW$311       .dwtag  DW_TAG_TI_branch
    2318                      .dwattr $C$DW$311, DW_AT_low_pc(0x00)
    2319                      .dwattr $C$DW$311, DW_AT_name("_EST_getAngle_pu")
    2320                      .dwattr $C$DW$311, DW_AT_TI_call
    2321 0000010a 7640!         LCR       #_EST_getAngle_pu     ; [CPU_] |531| 
         0000010b 0000 
    2322                      ; call occurs [#_EST_getAngle_pu] ; [] |531| 
    2323 0000010c 761F-         MOVW      DP,#_estHandle        ; [CPU_U] 
         0000010d 0000 
    2324 0000010e 1E76          MOVL      *-SP[54],ACC          ; [CPU_] |531| 
    2325                      .dwpsn  file "../proj_lab20.c",line 532,column 7,is_stmt,isa 0
    2326 0000010f 8A14-         MOVL      XAR4,@_estHandle      ; [CPU_] |532| 
    2327              $C$DW$312       .dwtag  DW_TAG_TI_branch
    2328                      .dwattr $C$DW$312, DW_AT_low_pc(0x00)
    2329                      .dwattr $C$DW$312, DW_AT_name("_EST_getFm_pu")
    2330                      .dwattr $C$DW$312, DW_AT_TI_call
    2331 00000110 7640!         LCR       #_EST_getFm_pu        ; [CPU_] |532| 
TMS320C2000 Assembler PC v6.4.4 Wed Jul 08 12:49:31 2015

Tools Copyright (c) 1996-2015 Texas Instruments Incorporated
C:\Users\grant\AppData\Local\Temp\0448010                            PAGE   46

         00000111 0000 
    2332                      ; call occurs [#_EST_getFm_pu] ; [] |532| 
    2333 00000112 1E74          MOVL      *-SP[52],ACC          ; [CPU_] |532| 
    2334 00000113 0676          MOVL      ACC,*-SP[54]          ; [CPU_] |532| 
    2335                      .dwpsn  file "C:/ti/motorware/motorware_1_01_00_14/sw/modules/ctrl/src/32b/ctrl.h",line 2043,column 3
    2336              $C$DW$313       .dwtag  DW_TAG_TI_branch
    2337                      .dwattr $C$DW$313, DW_AT_low_pc(0x00)
    2338                      .dwattr $C$DW$313, DW_AT_name("__IQ24cosPU")
    2339                      .dwattr $C$DW$313, DW_AT_TI_call
    2340 00000114 7640!         LCR       #__IQ24cosPU          ; [CPU_] |2043| 
         00000115 0000 
    2341                      ; call occurs [#__IQ24cosPU] ; [] |2043| 
    2342 00000116 1E68          MOVL      *-SP[40],ACC          ; [CPU_] |2043| 
    2343 00000117 0676          MOVL      ACC,*-SP[54]          ; [CPU_] |2043| 
    2344                      .dwpsn  file "C:/ti/motorware/motorware_1_01_00_14/sw/modules/ctrl/src/32b/ctrl.h",line 2044,column 3
    2345              $C$DW$314       .dwtag  DW_TAG_TI_branch
    2346                      .dwattr $C$DW$314, DW_AT_low_pc(0x00)
    2347                      .dwattr $C$DW$314, DW_AT_name("__IQ24sinPU")
    2348                      .dwattr $C$DW$314, DW_AT_TI_call
    2349 00000118 7640!         LCR       #__IQ24sinPU          ; [CPU_] |2044| 
         00000119 0000 
    2350                      ; call occurs [#__IQ24sinPU] ; [] |2044| 
    2351 0000011a 761F-         MOVW      DP,#_parkHandle       ; [CPU_U] 
         0000011b 0000 
    2352                      .dwpsn  file "../proj_lab20.c",line 538,column 7,is_stmt,isa 0
    2353 0000011c C420-         MOVL      XAR6,@_parkHandle     ; [CPU_] |538| 
    2354                      .dwpsn  file "C:/ti/motorware/motorware_1_01_00_14/sw/modules/ctrl/src/32b/ctrl.h",line 2044,column 3
    2355 0000011d 1E66          MOVL      *-SP[38],ACC          ; [CPU_] |2044| 
    2356                      .dwpsn  file "C:/ti/motorware/motorware_1_01_00_14/sw/modules/park/src/32b/park.h",line 175,column 3,
    2357 0000011e 0668          MOVL      ACC,*-SP[40]          ; [CPU_] |175| 
    2358 0000011f 1ED6          MOVL      *+XAR6[2],ACC         ; [CPU_] |175| 
    2359                      .dwpsn  file "C:/ti/motorware/motorware_1_01_00_14/sw/modules/park/src/32b/park.h",line 176,column 3,
    2360 00000120 0666          MOVL      ACC,*-SP[38]          ; [CPU_] |176| 
    2361 00000121 1EC6          MOVL      *+XAR6[0],ACC         ; [CPU_] |176| 
    2362                      .dwpsn  file "../proj_lab20.c",line 541,column 7,is_stmt,isa 0
    2363 00000122 8A16-         MOVL      XAR4,@_ctrlHandle     ; [CPU_] |541| 
    2364                      .dwpsn  file "C:/ti/motorware/motorware_1_01_00_14/sw/modules/park/src/32b/park.h",line 141,column 13
    2365 00000123 C5C6          MOVL      XAR7,*+XAR6[0]        ; [CPU_] |141| 
    2366                      .dwpsn  file "../proj_lab20.c",line 541,column 7,is_stmt,isa 0
    2367 00000124 A8A9          MOVL      ACC,XAR4              ; [CPU_] |541| 
    2368 00000125 09B4          ADDB      ACC,#180              ; [CPU_] |541| 
    2369 00000126 83A9          MOVL      XAR5,ACC              ; [CPU_] |541| 
    2370                      .dwpsn  file "C:/ti/motorware/motorware_1_01_00_14/sw/modules/park/src/32b/park.h",line 142,column 13
    2371 00000127 C4D6          MOVL      XAR6,*+XAR6[2]        ; [CPU_] |142| 
    2372                      .dwpsn  file "C:/ti/motorware/motorware_1_01_00_14/sw/modules/park/src/32b/park.h",line 144,column 15
    2373 00000128 0658          MOVL      ACC,*-SP[24]          ; [CPU_] |144| 
    2374 00000129 1E6E          MOVL      *-SP[46],ACC          ; [CPU_] |144| 
    2375                      .dwpsn  file "C:/ti/motorware/motorware_1_01_00_14/sw/modules/park/src/32b/park.h",line 145,column 15
    2376 0000012a 0656          MOVL      ACC,*-SP[22]          ; [CPU_] |145| 
    2377 0000012b 876E          MOVL      XT,*-SP[46]           ; [CPU_] |145| 
    2378 0000012c 1E70          MOVL      *-SP[48],ACC          ; [CPU_] |145| 
    2379                      .dwpsn  file "C:/ti/motorware/motorware_1_01_00_14/sw/modules/park/src/32b/park.h",line 148,column 3,
    2380 0000012d 5605          IMPYL     P,XT,XAR6             ; [CPU_] |148| 
         0000012e 00A6 
    2381 0000012f 5663          QMPYL     ACC,XT,XAR6           ; [CPU_] |148| 
TMS320C2000 Assembler PC v6.4.4 Wed Jul 08 12:49:31 2015

Tools Copyright (c) 1996-2015 Texas Instruments Incorporated
C:\Users\grant\AppData\Local\Temp\0448010                            PAGE   47

         00000130 00A6 
    2382 00000131 56A7          LSL64     ACC:P,#8              ; [CPU_] |148| 
    2383 00000132 8770          MOVL      XT,*-SP[48]           ; [CPU_] |148| 
    2384 00000133 8EA9          MOVL      XAR0,ACC              ; [CPU_] |148| 
    2385 00000134 5605          IMPYL     P,XT,XAR7             ; [CPU_] |148| 
         00000135 00A7 
    2386 00000136 5663          QMPYL     ACC,XT,XAR7           ; [CPU_] |148| 
         00000137 00A7 
    2387 00000138 56A7          LSL64     ACC:P,#8              ; [CPU_] |148| 
    2388 00000139 07A0          ADDL      ACC,XAR0              ; [CPU_] |148| 
    2389 0000013a D0B2          MOVB      XAR0,#178             ; [CPU_] |148| 
    2390 0000013b 1E94          MOVL      *+XAR4[AR0],ACC       ; [CPU_] |148| 
    2391                      .dwpsn  file "../proj_lab20.c",line 544,column 7,is_stmt,isa 0
    2392 0000013c D060          MOVB      XAR0,#96              ; [CPU_] |544| 
    2393                      .dwpsn  file "C:/ti/motorware/motorware_1_01_00_14/sw/modules/park/src/32b/park.h",line 148,column 3,
    2394 0000013d 876E          MOVL      XT,*-SP[46]           ; [CPU_] |148| 
    2395                      .dwpsn  file "C:/ti/motorware/motorware_1_01_00_14/sw/modules/park/src/32b/park.h",line 149,column 3,
    2396 0000013e 5605          IMPYL     P,XT,XAR7             ; [CPU_] |149| 
         0000013f 00A7 
    2397 00000140 5663          QMPYL     ACC,XT,XAR7           ; [CPU_] |149| 
         00000141 00A7 
    2398 00000142 56A7          LSL64     ACC:P,#8              ; [CPU_] |149| 
    2399 00000143 8770          MOVL      XT,*-SP[48]           ; [CPU_] |149| 
    2400 00000144 1EA7          MOVL      XAR7,ACC              ; [CPU_] |149| 
    2401 00000145 5605          IMPYL     P,XT,XAR6             ; [CPU_] |149| 
         00000146 00A6 
    2402 00000147 5663          QMPYL     ACC,XT,XAR6           ; [CPU_] |149| 
         00000148 00A6 
    2403 00000149 56A7          LSL64     ACC:P,#8              ; [CPU_] |149| 
    2404 0000014a 03A7          SUBL      ACC,XAR7              ; [CPU_] |149| 
    2405 0000014b 1EC5          MOVL      *+XAR5[0],ACC         ; [CPU_] |149| 
    2406                      .dwpsn  file "../proj_lab20.c",line 544,column 7,is_stmt,isa 0
    2407 0000014c C494          MOVL      XAR6,*+XAR4[AR0]      ; [CPU_] |544| 
    2408 0000014d 5DAD          MOVZ      AR5,SP                ; [CPU_] |544| 
    2409 0000014e 06D6          MOVL      ACC,*+XAR6[2]         ; [CPU_] |544| 
    2410                      .dwpsn  file "../proj_lab20.c",line 550,column 7,is_stmt,isa 0
    2411 0000014f 88AD          MOVZ      AR6,SP                ; [CPU_] |550| 
    2412                      .dwpsn  file "../proj_lab20.c",line 544,column 7,is_stmt,isa 0
    2413 00000150 DD90          SUBB      XAR5,#16              ; [CPU_U] |544| 
    2414 00000151 5DA5          MOVZ      AR5,AR5               ; [CPU_] |544| 
    2415                      .dwpsn  file "../proj_lab20.c",line 550,column 7,is_stmt,isa 0
    2416 00000152 DE94          SUBB      XAR6,#20              ; [CPU_U] |550| 
    2417                      .dwpsn  file "../proj_lab20.c",line 544,column 7,is_stmt,isa 0
    2418 00000153 1EC5          MOVL      *+XAR5[0],ACC         ; [CPU_] |544| 
    2419                      .dwpsn  file "../proj_lab20.c",line 545,column 7,is_stmt,isa 0
    2420 00000154 0200          MOVB      ACC,#0                ; [CPU_] |545| 
    2421 00000155 1E4E          MOVL      *-SP[14],ACC          ; [CPU_] |545| 
    2422                      .dwpsn  file "../proj_lab20.c",line 547,column 7,is_stmt,isa 0
    2423 00000156 1E54          MOVL      *-SP[20],ACC          ; [CPU_] |547| 
    2424                      .dwpsn  file "../proj_lab20.c",line 548,column 7,is_stmt,isa 0
    2425 00000157 1E52          MOVL      *-SP[18],ACC          ; [CPU_] |548| 
    2426                      .dwpsn  file "../proj_lab20.c",line 550,column 7,is_stmt,isa 0
    2427 00000158 0674          MOVL      ACC,*-SP[52]          ; [CPU_] |550| 
    2428 00000159 A242          MOVL      *-SP[2],XAR3          ; [CPU_] |550| 
    2429 0000015a 1E44          MOVL      *-SP[4],ACC           ; [CPU_] |550| 
TMS320C2000 Assembler PC v6.4.4 Wed Jul 08 12:49:31 2015

Tools Copyright (c) 1996-2015 Texas Instruments Incorporated
C:\Users\grant\AppData\Local\Temp\0448010                            PAGE   48

    2430 0000015b 0672          MOVL      ACC,*-SP[50]          ; [CPU_] |550| 
    2431 0000015c 1E46          MOVL      *-SP[6],ACC           ; [CPU_] |550| 
    2432 0000015d 0EA6          MOVU      ACC,AR6               ; [CPU_] |550| 
    2433 0000015e 1E48          MOVL      *-SP[8],ACC           ; [CPU_] |550| 
    2434 0000015f 926A          MOV       AL,*-SP[42]           ; [CPU_] |550| 
    2435 00000160 9649          MOV       *-SP[9],AL            ; [CPU_] |550| 
    2436 00000161 9269          MOV       AL,*-SP[41]           ; [CPU_] |550| 
    2437 00000162 964A          MOV       *-SP[10],AL           ; [CPU_] |550| 
    2438 00000163 0676          MOVL      ACC,*-SP[54]          ; [CPU_] |550| 
    2439              $C$DW$315       .dwtag  DW_TAG_TI_branch
    2440                      .dwattr $C$DW$315, DW_AT_low_pc(0x00)
    2441                      .dwattr $C$DW$315, DW_AT_name("_CTRL_setup_user")
    2442                      .dwattr $C$DW$315, DW_AT_TI_call
    2443 00000164 7640!         LCR       #_CTRL_setup_user     ; [CPU_] |550| 
         00000165 0000 
    2444                      ; call occurs [#_CTRL_setup_user] ; [] |550| 
    2445 00000166 926B          MOV       AL,*-SP[43]           ; [CPU_] |550| 
    2446                      .dwpsn  file "../proj_lab20.c",line 561,column 7,is_stmt,isa 0
    2447 00000167 5203          CMPB      AL,#3                 ; [CPU_] |561| 
    2448 00000168 EC75          BF        $C$L19,EQ             ; [CPU_] |561| 
    2449                      ; branchcc occurs ; [] |561| 
    2450                      .dwpsn  file "../proj_lab20.c",line 578,column 12,is_stmt,isa 0
    2451 00000169 5202          CMPB      AL,#2                 ; [CPU_] |578| 
    2452 0000016a 56C0          BF        $C$L32,NEQ            ; [CPU_] |578| 
         0000016b 0209 
    2453                      ; branchcc occurs ; [] |578| 
    2454 0000016c 761F-         MOVW      DP,#_halHandle        ; [CPU_U] 
         0000016d 0000 
    2455 0000016e 2901          CLRC      SXM                   ; [CPU_] 
    2456                      .dwpsn  file "C:/ti/motorware/motorware_1_01_00_14/sw/modules/hal/boards/boostxldrv8301_revB/f28x/f28
    2457 0000016f 8306-         MOVL      XAR5,@_halHandle      ; [CPU_] |205| 
    2458                      .dwpsn  file "C:/ti/motorware/motorware_1_01_00_14/sw/modules/hal/boards/boostxldrv8301_revB/f28x/f28
    2459 00000170 9A00          MOVB      AL,#0                 ; [CPU_] |209| 
    2460 00000171 9669          MOV       *-SP[41],AL           ; [CPU_] |209| 
    2461 00000172       $C$L15:    
    2462                      .dwpsn  file "C:/ti/motorware/motorware_1_01_00_14/sw/modules/hal/boards/boostxldrv8301_revB/f28x/f28
    2463 00000172 D096          MOVB      XAR0,#150             ; [CPU_] |209| 
    2464 00000173 5495          CMP       AL,*+XAR5[AR0]        ; [CPU_] |209| 
    2465 00000174 56C8          BF        $C$L18,LO             ; [CPU_] |209| 
         00000175 003D 
    2466                      ; branchcc occurs ; [] |209| 
    2467                      .dwpsn  file "C:/ti/motorware/motorware_1_01_00_14/sw/modules/hal/boards/boostxldrv8301_revB/f28x/f28
    2468 00000176 9A00          MOVB      AL,#0                 ; [CPU_] |216| 
    2469 00000177 2901          CLRC      SXM                   ; [CPU_] 
    2470 00000178 9669          MOV       *-SP[41],AL           ; [CPU_] |216| 
    2471 00000179       $C$L16:    
    2472                      .dwpsn  file "C:/ti/motorware/motorware_1_01_00_14/sw/modules/hal/boards/boostxldrv8301_revB/f28x/f28
    2473 00000179 D097          MOVB      XAR0,#151             ; [CPU_] |216| 
    2474 0000017a 5495          CMP       AL,*+XAR5[AR0]        ; [CPU_] |216| 
    2475 0000017b 56C8          BF        $C$L17,LO             ; [CPU_] |216| 
         0000017c 000A 
    2476                      ; branchcc occurs ; [] |216| 
    2477                      .dwpsn  file "C:/ti/motorware/motorware_1_01_00_14/sw/modules/ctrl/src/32b/ctrl.h",line 2097,column 3
    2478 0000017d 8F00-         MOVL      XAR4,#_gPwmData       ; [CPU_U] |2097| 
         0000017e 0040 
TMS320C2000 Assembler PC v6.4.4 Wed Jul 08 12:49:31 2015

Tools Copyright (c) 1996-2015 Texas Instruments Incorporated
C:\Users\grant\AppData\Local\Temp\0448010                            PAGE   49

    2479 0000017f 0200          MOVB      ACC,#0                ; [CPU_] |2097| 
    2480 00000180 1EC4          MOVL      *+XAR4[0],ACC         ; [CPU_] |2097| 
    2481                      .dwpsn  file "C:/ti/motorware/motorware_1_01_00_14/sw/modules/ctrl/src/32b/ctrl.h",line 2098,column 3
    2482 00000181 1ED4          MOVL      *+XAR4[2],ACC         ; [CPU_] |2098| 
    2483                      .dwpsn  file "C:/ti/motorware/motorware_1_01_00_14/sw/modules/ctrl/src/32b/ctrl.h",line 2099,column 3
    2484 00000182 1EE4          MOVL      *+XAR4[4],ACC         ; [CPU_] |2099| 
    2485                      .dwpsn  file "C:/ti/motorware/motorware_1_01_00_14/sw/modules/ctrl/src/32b/ctrl.h",line 2101,column 3
    2486 00000183 FFEF          B         $C$L32,UNC            ; [CPU_] |2101| 
         00000184 01F0 
    2487                      ; branch occurs ; [] |2101| 
    2488 00000185       $C$L17:    
    2489                      .dwpsn  file "C:/ti/motorware/motorware_1_01_00_14/sw/modules/offset/src/32b/offset.h",line 139,colum
    2490 00000185 8AA5          MOVL      XAR4,XAR5             ; [CPU_] |139| 
    2491 00000186 5603          MOV       ACC,AL << 1           ; [CPU_] |139| 
         00000187 01A9 
    2492 00000188 5601          ADDL      XAR4,ACC              ; [CPU_] |139| 
         00000189 00A4 
    2493 0000018a D03A          MOVB      XAR0,#58              ; [CPU_] |139| 
    2494 0000018b C594          MOVL      XAR7,*+XAR4[AR0]      ; [CPU_] |139| 
    2495                      .dwpsn  file "C:/ti/motorware/motorware_1_01_00_14/sw/modules/filter/src/32b/filter_fo.h",line 201,co
    2496 0000018c 8AA1          MOVL      XAR4,XAR1             ; [CPU_] |201| 
    2497                      .dwpsn  file "C:/ti/motorware/motorware_1_01_00_14/sw/modules/filter/src/32b/filter_fo.h",line 191,co
    2498 0000018d D00C          MOVB      XAR0,#12              ; [CPU_] |191| 
    2499 0000018e C497          MOVL      XAR6,*+XAR7[AR0]      ; [CPU_] |191| 
    2500                      .dwpsn  file "C:/ti/motorware/motorware_1_01_00_14/sw/modules/filter/src/32b/filter_fo.h",line 201,co
    2501 0000018f 5601          ADDL      XAR4,ACC              ; [CPU_] |201| 
         00000190 00A4 
    2502 00000191 87D6          MOVL      XT,*+XAR6[2]          ; [CPU_] |201| 
    2503 00000192 5605          IMPYL     P,XT,*+XAR4[6]        ; [CPU_] |201| 
         00000193 00F4 
    2504 00000194 5663          QMPYL     ACC,XT,*+XAR4[6]      ; [CPU_] |201| 
         00000195 00F4 
    2505 00000196 56A7          LSL64     ACC:P,#8              ; [CPU_] |201| 
    2506 00000197 87E6          MOVL      XT,*+XAR6[4]          ; [CPU_] |201| 
    2507 00000198 8EA9          MOVL      XAR0,ACC              ; [CPU_] |201| 
    2508 00000199 5605          IMPYL     P,XT,*+XAR6[6]        ; [CPU_] |201| 
         0000019a 00F6 
    2509 0000019b 5663          QMPYL     ACC,XT,*+XAR6[6]      ; [CPU_] |201| 
         0000019c 00F6 
    2510 0000019d 56A7          LSL64     ACC:P,#8              ; [CPU_] |201| 
    2511 0000019e 87C6          MOVL      XT,*+XAR6[0]          ; [CPU_] |201| 
    2512 0000019f 07A0          ADDL      ACC,XAR0              ; [CPU_] |201| 
    2513 000001a0 82A9          MOVL      XAR3,ACC              ; [CPU_] |201| 
    2514 000001a1 D008          MOVB      XAR0,#8               ; [CPU_] |201| 
    2515 000001a2 5605          IMPYL     P,XT,*+XAR6[AR0]      ; [CPU_] |201| 
         000001a3 0096 
    2516 000001a4 5663          QMPYL     ACC,XT,*+XAR6[AR0]    ; [CPU_] |201| 
         000001a5 0096 
    2517 000001a6 56A7          LSL64     ACC:P,#8              ; [CPU_] |201| 
    2518 000001a7 5641          SUBL      XAR3,ACC              ; [CPU_] |201| 
         000001a8 00A3 
    2519                      .dwpsn  file "C:/ti/motorware/motorware_1_01_00_14/sw/modules/filter/src/32b/filter_fo.h",line 206,co
    2520 000001a9 A3F4          MOVL      P,*+XAR4[6]           ; [CPU_] |206| 
    2521                      .dwpsn  file "C:/ti/motorware/motorware_1_01_00_14/sw/modules/filter/src/32b/filter_fo.h",line 207,co
    2522 000001aa D008          MOVB      XAR0,#8               ; [CPU_] |207| 
TMS320C2000 Assembler PC v6.4.4 Wed Jul 08 12:49:31 2015

Tools Copyright (c) 1996-2015 Texas Instruments Incorporated
C:\Users\grant\AppData\Local\Temp\0448010                            PAGE   50

    2523                      .dwpsn  file "C:/ti/motorware/motorware_1_01_00_14/sw/modules/filter/src/32b/filter_fo.h",line 206,co
    2524 000001ab A9F6          MOVL      *+XAR6[6],P           ; [CPU_] |206| 
    2525                      .dwpsn  file "C:/ti/motorware/motorware_1_01_00_14/sw/modules/filter/src/32b/filter_fo.h",line 207,co
    2526 000001ac A296          MOVL      *+XAR6[AR0],XAR3      ; [CPU_] |207| 
    2527                      .dwpsn  file "C:/ti/motorware/motorware_1_01_00_14/sw/modules/offset/src/32b/offset.h",line 141,colum
    2528 000001ad A2C7          MOVL      *+XAR7[0],XAR3        ; [CPU_] |141| 
    2529                      .dwpsn  file "C:/ti/motorware/motorware_1_01_00_14/sw/modules/hal/boards/boostxldrv8301_revB/f28x/f28
    2530 000001ae 0A69          INC       *-SP[41]              ; [CPU_] |216| 
    2531                      .dwpsn  file "C:/ti/motorware/motorware_1_01_00_14/sw/modules/offset/src/32b/offset.h",line 141,colum
    2532 000001af 9269          MOV       AL,*-SP[41]           ; [CPU_] |141| 
    2533                      .dwpsn  file "C:/ti/motorware/motorware_1_01_00_14/sw/modules/hal/boards/boostxldrv8301_revB/f28x/f28
    2534 000001b0 6FC9          B         $C$L16,UNC            ; [CPU_] |216| 
    2535                      ; branch occurs ; [] |216| 
    2536 000001b1       $C$L18:    
    2537                      .dwpsn  file "C:/ti/motorware/motorware_1_01_00_14/sw/modules/offset/src/32b/offset.h",line 139,colum
    2538 000001b1 8AA5          MOVL      XAR4,XAR5             ; [CPU_] |139| 
    2539 000001b2 5603          MOV       ACC,AL << 1           ; [CPU_] |139| 
         000001b3 01A9 
    2540 000001b4 5601          ADDL      XAR4,ACC              ; [CPU_] |139| 
         000001b5 00A4 
    2541 000001b6 D00A          MOVB      XAR0,#10              ; [CPU_] |139| 
    2542 000001b7 C594          MOVL      XAR7,*+XAR4[AR0]      ; [CPU_] |139| 
    2543                      .dwpsn  file "C:/ti/motorware/motorware_1_01_00_14/sw/modules/filter/src/32b/filter_fo.h",line 201,co
    2544 000001b8 8AA1          MOVL      XAR4,XAR1             ; [CPU_] |201| 
    2545                      .dwpsn  file "C:/ti/motorware/motorware_1_01_00_14/sw/modules/filter/src/32b/filter_fo.h",line 191,co
    2546 000001b9 D00C          MOVB      XAR0,#12              ; [CPU_] |191| 
    2547 000001ba C497          MOVL      XAR6,*+XAR7[AR0]      ; [CPU_] |191| 
    2548                      .dwpsn  file "C:/ti/motorware/motorware_1_01_00_14/sw/modules/filter/src/32b/filter_fo.h",line 201,co
    2549 000001bb 5601          ADDL      XAR4,ACC              ; [CPU_] |201| 
         000001bc 00A4 
    2550 000001bd 87D6          MOVL      XT,*+XAR6[2]          ; [CPU_] |201| 
    2551 000001be 5605          IMPYL     P,XT,*+XAR4[0]        ; [CPU_] |201| 
         000001bf 00C4 
    2552 000001c0 5663          QMPYL     ACC,XT,*+XAR4[0]      ; [CPU_] |201| 
         000001c1 00C4 
    2553 000001c2 56A7          LSL64     ACC:P,#8              ; [CPU_] |201| 
    2554 000001c3 87E6          MOVL      XT,*+XAR6[4]          ; [CPU_] |201| 
    2555 000001c4 8EA9          MOVL      XAR0,ACC              ; [CPU_] |201| 
    2556 000001c5 5605          IMPYL     P,XT,*+XAR6[6]        ; [CPU_] |201| 
         000001c6 00F6 
    2557 000001c7 5663          QMPYL     ACC,XT,*+XAR6[6]      ; [CPU_] |201| 
         000001c8 00F6 
    2558 000001c9 56A7          LSL64     ACC:P,#8              ; [CPU_] |201| 
    2559 000001ca 87C6          MOVL      XT,*+XAR6[0]          ; [CPU_] |201| 
    2560 000001cb 07A0          ADDL      ACC,XAR0              ; [CPU_] |201| 
    2561 000001cc 82A9          MOVL      XAR3,ACC              ; [CPU_] |201| 
    2562 000001cd D008          MOVB      XAR0,#8               ; [CPU_] |201| 
    2563 000001ce 5605          IMPYL     P,XT,*+XAR6[AR0]      ; [CPU_] |201| 
         000001cf 0096 
    2564 000001d0 5663          QMPYL     ACC,XT,*+XAR6[AR0]    ; [CPU_] |201| 
         000001d1 0096 
    2565 000001d2 56A7          LSL64     ACC:P,#8              ; [CPU_] |201| 
    2566 000001d3 5641          SUBL      XAR3,ACC              ; [CPU_] |201| 
         000001d4 00A3 
    2567                      .dwpsn  file "C:/ti/motorware/motorware_1_01_00_14/sw/modules/filter/src/32b/filter_fo.h",line 206,co
TMS320C2000 Assembler PC v6.4.4 Wed Jul 08 12:49:31 2015

Tools Copyright (c) 1996-2015 Texas Instruments Incorporated
C:\Users\grant\AppData\Local\Temp\0448010                            PAGE   51

    2568 000001d5 A3C4          MOVL      P,*+XAR4[0]           ; [CPU_] |206| 
    2569                      .dwpsn  file "C:/ti/motorware/motorware_1_01_00_14/sw/modules/filter/src/32b/filter_fo.h",line 207,co
    2570 000001d6 D008          MOVB      XAR0,#8               ; [CPU_] |207| 
    2571                      .dwpsn  file "C:/ti/motorware/motorware_1_01_00_14/sw/modules/filter/src/32b/filter_fo.h",line 206,co
    2572 000001d7 A9F6          MOVL      *+XAR6[6],P           ; [CPU_] |206| 
    2573                      .dwpsn  file "C:/ti/motorware/motorware_1_01_00_14/sw/modules/filter/src/32b/filter_fo.h",line 207,co
    2574 000001d8 A296          MOVL      *+XAR6[AR0],XAR3      ; [CPU_] |207| 
    2575                      .dwpsn  file "C:/ti/motorware/motorware_1_01_00_14/sw/modules/offset/src/32b/offset.h",line 141,colum
    2576 000001d9 A2C7          MOVL      *+XAR7[0],XAR3        ; [CPU_] |141| 
    2577                      .dwpsn  file "C:/ti/motorware/motorware_1_01_00_14/sw/modules/hal/boards/boostxldrv8301_revB/f28x/f28
    2578 000001da 0A69          INC       *-SP[41]              ; [CPU_] |209| 
    2579                      .dwpsn  file "C:/ti/motorware/motorware_1_01_00_14/sw/modules/offset/src/32b/offset.h",line 141,colum
    2580 000001db 9269          MOV       AL,*-SP[41]           ; [CPU_] |141| 
    2581                      .dwpsn  file "C:/ti/motorware/motorware_1_01_00_14/sw/modules/hal/boards/boostxldrv8301_revB/f28x/f28
    2582 000001dc 6F96          B         $C$L15,UNC            ; [CPU_] |209| 
    2583                      ; branch occurs ; [] |209| 
    2584 000001dd       $C$L19:    
    2585 000001dd 761F-         MOVW      DP,#_ctrlHandle       ; [CPU_U] 
         000001de 0000 
    2586                      .dwpsn  file "../proj_lab20.c",line 564,column 9,is_stmt,isa 0
    2587 000001df 8A16-         MOVL      XAR4,@_ctrlHandle     ; [CPU_] |564| 
    2588 000001e0 82A4          MOVL      XAR3,XAR4             ; [CPU_] |564| 
    2589                      .dwpsn  file "C:/ti/motorware/motorware_1_01_00_14/sw/modules/ctrl/src/32b/ctrl.h",line 263,column 3,
    2590 000001e1 D0F4          MOVB      XAR0,#244             ; [CPU_] |263| 
    2591 000001e2 9293          MOV       AL,*+XAR3[AR0]        ; [CPU_] |263| 
    2592 000001e3 EC49          BF        $C$L20,EQ             ; [CPU_] |263| 
    2593                      ; branchcc occurs ; [] |263| 
    2594                      .dwpsn  file "C:/ti/motorware/motorware_1_01_00_14/sw/modules/ctrl/src/32b/ctrl.h",line 2075,column 3
    2595 000001e4 D09E          MOVB      XAR0,#158             ; [CPU_] |2075| 
    2596 000001e5 9293          MOV       AL,*+XAR3[AR0]        ; [CPU_] |2075| 
    2597 000001e6 D0EE          MOVB      XAR0,#238             ; [CPU_] |2075| 
    2598 000001e7 5493          CMP       AL,*+XAR3[AR0]        ; [CPU_] |2075| 
    2599 000001e8 56C6          BF        $C$L21,HI             ; [CPU_] |2075| 
         000001e9 004A 
    2600                      ; branchcc occurs ; [] |2075| 
    2601                      .dwpsn  file "C:/ti/motorware/motorware_1_01_00_14/sw/modules/ctrl/src/32b/ctrl.h",line 672,column 3,
    2602 000001ea A2A9          MOVL      ACC,XAR3              ; [CPU_] |672| 
    2603 000001eb FF18          ADD       ACC,#1 << 8           ; [CPU_] |672| 
         000001ec 0001 
    2604 000001ed 83A9          MOVL      XAR5,ACC              ; [CPU_] |672| 
    2605                      .dwpsn  file "C:/ti/motorware/motorware_1_01_00_14/sw/modules/ctrl/src/32b/ctrl.h",line 197,column 3,
    2606 000001ee A2A9          MOVL      ACC,XAR3              ; [CPU_] |197| 
    2607                      .dwpsn  file "C:/ti/motorware/motorware_1_01_00_14/sw/modules/ctrl/src/32b/ctrl.h",line 672,column 3,
    2608 000001ef C5C5          MOVL      XAR7,*+XAR5[0]        ; [CPU_] |672| 
    2609                      .dwpsn  file "C:/ti/motorware/motorware_1_01_00_14/sw/modules/ctrl/src/32b/ctrl.h",line 197,column 3,
    2610 000001f0 FF11          ADD       ACC,#129 << 1         ; [CPU_] |197| 
         000001f1 0081 
    2611 000001f2 83A9          MOVL      XAR5,ACC              ; [CPU_] |197| 
    2612                      .dwpsn  file "C:/ti/motorware/motorware_1_01_00_14/sw/modules/ctrl/src/32b/ctrl.h",line 760,column 3,
    2613 000001f3 A2A9          MOVL      ACC,XAR3              ; [CPU_] |760| 
    2614                      .dwpsn  file "C:/ti/motorware/motorware_1_01_00_14/sw/modules/ctrl/src/32b/ctrl.h",line 197,column 3,
    2615 000001f4 C4C5          MOVL      XAR6,*+XAR5[0]        ; [CPU_] |197| 
    2616                      .dwpsn  file "C:/ti/motorware/motorware_1_01_00_14/sw/modules/ctrl/src/32b/ctrl.h",line 760,column 3,
    2617 000001f5 FF12          ADD       ACC,#65 << 2          ; [CPU_] |760| 
         000001f6 0041 
TMS320C2000 Assembler PC v6.4.4 Wed Jul 08 12:49:31 2015

Tools Copyright (c) 1996-2015 Texas Instruments Incorporated
C:\Users\grant\AppData\Local\Temp\0448010                            PAGE   52

    2618 000001f7 83A9          MOVL      XAR5,ACC              ; [CPU_] |760| 
    2619                      .dwpsn  file "C:/ti/motorware/motorware_1_01_00_14/sw/modules/ctrl/src/32b/ctrl.h",line 1099,column 3
    2620 000001f8 D0EE          MOVB      XAR0,#238             ; [CPU_] |1099| 
    2621                      .dwpsn  file "C:/ti/motorware/motorware_1_01_00_14/sw/modules/ctrl/src/32b/ctrl.h",line 760,column 3,
    2622 000001f9 A3C5          MOVL      P,*+XAR5[0]           ; [CPU_] |760| 
    2623                      .dwpsn  file "C:/ti/motorware/motorware_1_01_00_14/sw/modules/ctrl/src/32b/ctrl.h",line 1099,column 3
    2624 000001fa 2B93          MOV       *+XAR3[AR0],#0        ; [CPU_] |1099| 
    2625                      .dwpsn  file "C:/ti/motorware/motorware_1_01_00_14/sw/modules/pid/src/32b/pid.h",line 358,column 16,i
    2626 000001fb D044          MOVB      XAR0,#68              ; [CPU_] |358| 
    2627 000001fc 8393          MOVL      XAR5,*+XAR3[AR0]      ; [CPU_] |358| 
    2628                      .dwpsn  file "C:/ti/motorware/motorware_1_01_00_14/sw/modules/ctrl/src/32b/ctrl.h",line 2526,column 1
    2629 000001fd A9A9          MOVL      ACC,P                 ; [CPU_] |2526| 
    2630 000001fe FF54          NEG       ACC                   ; [CPU_] |2526| 
    2631                      .dwpsn  file "C:/ti/motorware/motorware_1_01_00_14/sw/modules/pid/src/32b/pid.h",line 360,column 3,is
    2632 000001ff D00C          MOVB      XAR0,#12              ; [CPU_] |360| 
    2633 00000200 1E95          MOVL      *+XAR5[AR0],ACC       ; [CPU_] |360| 
    2634                      .dwpsn  file "C:/ti/motorware/motorware_1_01_00_14/sw/modules/pid/src/32b/pid.h",line 361,column 3,is
    2635 00000201 D00E          MOVB      XAR0,#14              ; [CPU_] |361| 
    2636                      .dwpsn  file "C:/ti/motorware/motorware_1_01_00_14/sw/modules/pid/src/32b/pid.h",line 270,column 3,is
    2637 00000202 06A7          MOVL      ACC,XAR7              ; [CPU_] |270| 
    2638                      .dwpsn  file "C:/ti/motorware/motorware_1_01_00_14/sw/modules/pid/src/32b/pid.h",line 361,column 3,is
    2639 00000203 A995          MOVL      *+XAR5[AR0],P         ; [CPU_] |361| 
    2640                      .dwpsn  file "C:/ti/motorware/motorware_1_01_00_14/sw/modules/pid/src/32b/pid.h",line 262,column 16,i
    2641 00000204 D044          MOVB      XAR0,#68              ; [CPU_] |262| 
    2642 00000205 8393          MOVL      XAR5,*+XAR3[AR0]      ; [CPU_] |262| 
    2643                      .dwpsn  file "C:/ti/motorware/motorware_1_01_00_14/sw/modules/pid/src/32b/pid.h",line 270,column 3,is
    2644 00000206 03A6          SUBL      ACC,XAR6              ; [CPU_] |270| 
    2645 00000207 8EA9          MOVL      XAR0,ACC              ; [CPU_] |270| 
    2646                      .dwpsn  file "C:/ti/motorware/motorware_1_01_00_14/sw/modules/pid/src/32b/pid.h",line 271,column 3,is
    2647 00000208 D10E          MOVB      XAR1,#14              ; [CPU_] |271| 
    2648                      .dwpsn  file "C:/ti/motorware/motorware_1_01_00_14/sw/modules/pid/src/32b/pid.h",line 270,column 3,is
    2649 00000209 87C5          MOVL      XT,*+XAR5[0]          ; [CPU_] |270| 
    2650 0000020a 5663          QMPYL     ACC,XT,XAR0           ; [CPU_] |270| 
         0000020b 00A0 
    2651 0000020c 5605          IMPYL     P,XT,XAR0             ; [CPU_] |270| 
         0000020d 00A0 
    2652 0000020e 56A7          LSL64     ACC:P,#8              ; [CPU_] |270| 
    2653 0000020f 1E6E          MOVL      *-SP[46],ACC          ; [CPU_] |270| 
    2654                      .dwpsn  file "C:/ti/motorware/motorware_1_01_00_14/sw/modules/pid/src/32b/pid.h",line 271,column 3,is
    2655 00000210 87D5          MOVL      XT,*+XAR5[2]          ; [CPU_] |271| 
    2656 00000211 5605          IMPYL     P,XT,XAR0             ; [CPU_] |271| 
         00000212 00A0 
    2657 00000213 5663          QMPYL     ACC,XT,XAR0           ; [CPU_] |271| 
         00000214 00A0 
    2658 00000215 D00C          MOVB      XAR0,#12              ; [CPU_] |271| 
    2659 00000216 56A7          LSL64     ACC:P,#8              ; [CPU_] |271| 
    2660 00000217 07F5          ADDL      ACC,*+XAR5[6]         ; [CPU_] |271| 
    2661 00000218 5650          MINL      ACC,*+XAR5[AR1]       ; [CPU_] |271| 
         00000219 009D 
    2662 0000021a 5661          MAXL      ACC,*+XAR5[AR0]       ; [CPU_] |271| 
         0000021b 0095 
    2663                      .dwpsn  file "C:/ti/motorware/motorware_1_01_00_14/sw/modules/pid/src/32b/pid.h",line 274,column 3,is
    2664 0000021c D008          MOVB      XAR0,#8               ; [CPU_] |274| 
    2665                      .dwpsn  file "C:/ti/motorware/motorware_1_01_00_14/sw/modules/pid/src/32b/pid.h",line 273,column 3,is
    2666 0000021d 1EF5          MOVL      *+XAR5[6],ACC         ; [CPU_] |273| 
TMS320C2000 Assembler PC v6.4.4 Wed Jul 08 12:49:31 2015

Tools Copyright (c) 1996-2015 Texas Instruments Incorporated
C:\Users\grant\AppData\Local\Temp\0448010                            PAGE   53

    2667                      .dwpsn  file "C:/ti/motorware/motorware_1_01_00_14/sw/modules/pid/src/32b/pid.h",line 274,column 3,is
    2668 0000021e C395          MOVL      *+XAR5[AR0],XAR7      ; [CPU_] |274| 
    2669                      .dwpsn  file "C:/ti/motorware/motorware_1_01_00_14/sw/modules/pid/src/32b/pid.h",line 275,column 3,is
    2670 0000021f D00A          MOVB      XAR0,#10              ; [CPU_] |275| 
    2671 00000220 C295          MOVL      *+XAR5[AR0],XAR6      ; [CPU_] |275| 
    2672                      .dwpsn  file "C:/ti/motorware/motorware_1_01_00_14/sw/modules/pid/src/32b/pid.h",line 277,column 3,is
    2673 00000221 C46E          MOVL      XAR6,*-SP[46]         ; [CPU_] |277| 
    2674 00000222 D10E          MOVB      XAR1,#14              ; [CPU_] |277| 
    2675 00000223 D00C          MOVB      XAR0,#12              ; [CPU_] |277| 
    2676 00000224 07A6          ADDL      ACC,XAR6              ; [CPU_] |277| 
    2677 00000225 5650          MINL      ACC,*+XAR5[AR1]       ; [CPU_] |277| 
         00000226 009D 
    2678 00000227 5661          MAXL      ACC,*+XAR5[AR0]       ; [CPU_] |277| 
         00000228 0095 
    2679 00000229 D0E4          MOVB      XAR0,#228             ; [CPU_] |277| 
    2680 0000022a 1E93          MOVL      *+XAR3[AR0],ACC       ; [CPU_] |277| 
    2681                      .dwpsn  file "C:/ti/motorware/motorware_1_01_00_14/sw/modules/pid/src/32b/pid.h",line 279,column 3,is
    2682 0000022b 6F07          B         $C$L21,UNC            ; [CPU_] |279| 
    2683                      ; branch occurs ; [] |279| 
    2684 0000022c       $C$L20:    
    2685                      .dwpsn  file "C:/ti/motorware/motorware_1_01_00_14/sw/modules/ctrl/src/32b/ctrl.h",line 1439,column 3
    2686 0000022c D0E4          MOVB      XAR0,#228             ; [CPU_] |1439| 
    2687 0000022d 0200          MOVB      ACC,#0                ; [CPU_] |1439| 
    2688 0000022e 1E93          MOVL      *+XAR3[AR0],ACC       ; [CPU_] |1439| 
    2689                      .dwpsn  file "C:/ti/motorware/motorware_1_01_00_14/sw/modules/pid/src/32b/pid.h",line 413,column 3,is
    2690 0000022f D044          MOVB      XAR0,#68              ; [CPU_] |413| 
    2691 00000230 8393          MOVL      XAR5,*+XAR3[AR0]      ; [CPU_] |413| 
    2692 00000231 1EF5          MOVL      *+XAR5[6],ACC         ; [CPU_] |413| 
    2693 00000232       $C$L21:    
    2694                      .dwpsn  file "C:/ti/motorware/motorware_1_01_00_14/sw/modules/ctrl/src/32b/ctrl.h",line 219,column 3,
    2695 00000232 A2A9          MOVL      ACC,XAR3              ; [CPU_] |219| 
    2696 00000233 FF11          ADD       ACC,#131 << 1         ; [CPU_] |219| 
         00000234 0083 
    2697 00000235 83A9          MOVL      XAR5,ACC              ; [CPU_] |219| 
    2698 00000236 92C5          MOV       AL,*+XAR5[0]          ; [CPU_] |219| 
    2699 00000237 56C1          BF        $C$L26,EQ             ; [CPU_] |219| 
         00000238 00CD 
    2700                      ; branchcc occurs ; [] |219| 
    2701 00000239 D09D          MOVB      XAR0,#157             ; [CPU_] |219| 
    2702 0000023a 9293          MOV       AL,*+XAR3[AR0]        ; [CPU_] |219| 
    2703 0000023b D0EC          MOVB      XAR0,#236             ; [CPU_] |219| 
    2704 0000023c 5493          CMP       AL,*+XAR3[AR0]        ; [CPU_] |219| 
    2705 0000023d 56C6          BF        $C$L26,HI             ; [CPU_] |219| 
         0000023e 00C7 
    2706                      ; branchcc occurs ; [] |219| 
    2707                      .dwpsn  file "C:/ti/motorware/motorware_1_01_00_14/sw/modules/ctrl/src/32b/ctrl.h",line 517,column 3,
    2708 0000023f D0CA          MOVB      XAR0,#202             ; [CPU_] |517| 
    2709 00000240 8B93          MOVL      XAR1,*+XAR3[AR0]      ; [CPU_] |517| 
    2710 00000241 D0CC          MOVB      XAR0,#204             ; [CPU_] |517| 
    2711 00000242 0693          MOVL      ACC,*+XAR3[AR0]       ; [CPU_] |517| 
    2712                      .dwpsn  file "C:/ti/motorware/motorware_1_01_00_14/sw/modules/ctrl/src/32b/ctrl.h",line 545,column 3,
    2713 00000243 D0A8          MOVB      XAR0,#168             ; [CPU_] |545| 
    2714                      .dwpsn  file "C:/ti/motorware/motorware_1_01_00_14/sw/modules/ctrl/src/32b/ctrl.h",line 517,column 3,
    2715 00000244 1E70          MOVL      *-SP[48],ACC          ; [CPU_] |517| 
    2716                      .dwpsn  file "C:/ti/motorware/motorware_1_01_00_14/sw/modules/ctrl/src/32b/ctrl.h",line 545,column 3,
TMS320C2000 Assembler PC v6.4.4 Wed Jul 08 12:49:31 2015

Tools Copyright (c) 1996-2015 Texas Instruments Incorporated
C:\Users\grant\AppData\Local\Temp\0448010                            PAGE   54

    2717 00000245 0693          MOVL      ACC,*+XAR3[AR0]       ; [CPU_] |545| 
    2718                      .dwpsn  file "C:/ti/motorware/motorware_1_01_00_14/sw/modules/ctrl/src/32b/ctrl.h",line 1075,column 3
    2719 00000246 D0EC          MOVB      XAR0,#236             ; [CPU_] |1075| 
    2720                      .dwpsn  file "C:/ti/motorware/motorware_1_01_00_14/sw/modules/ctrl/src/32b/ctrl.h",line 545,column 3,
    2721 00000247 1E72          MOVL      *-SP[50],ACC          ; [CPU_] |545| 
    2722                      .dwpsn  file "C:/ti/motorware/motorware_1_01_00_14/sw/modules/ctrl/src/32b/ctrl.h",line 1075,column 3
    2723 00000248 2B93          MOV       *+XAR3[AR0],#0        ; [CPU_] |1075| 
    2724                      .dwpsn  file "C:/ti/motorware/motorware_1_01_00_14/sw/modules/ctrl/src/32b/ctrl.h",line 230,column 3,
    2725 00000249 D0F1          MOVB      XAR0,#241             ; [CPU_] |230| 
    2726 0000024a 9293          MOV       AL,*+XAR3[AR0]        ; [CPU_] |230| 
    2727 0000024b EC0C          BF        $C$L22,EQ             ; [CPU_] |230| 
    2728                      ; branchcc occurs ; [] |230| 
    2729                      .dwpsn  file "C:/ti/motorware/motorware_1_01_00_14/sw/modules/ctrl/src/32b/ctrl.h",line 2567,column 6
    2730 0000024c D018          MOVB      XAR0,#24              ; [CPU_] |2567| 
    2731 0000024d 8A93          MOVL      XAR4,*+XAR3[AR0]      ; [CPU_] |2567| 
    2732              $C$DW$316       .dwtag  DW_TAG_TI_branch
    2733                      .dwattr $C$DW$316, DW_AT_low_pc(0x00)
    2734                      .dwattr $C$DW$316, DW_AT_name("_EST_getOneOverDcBus_pu")
    2735                      .dwattr $C$DW$316, DW_AT_TI_call
    2736 0000024e 7640!         LCR       #_EST_getOneOverDcBus_pu ; [CPU_] |2567| 
         0000024f 0000 
    2737                      ; call occurs [#_EST_getOneOverDcBus_pu] ; [] |2567| 
    2738 00000250 B2AC          MOVL      XT,XAR1               ; [CPU_] |2567| 
    2739 00000251 5605          IMPYL     P,XT,ACC              ; [CPU_] |2567| 
         00000252 00A9 
    2740 00000253 5663          QMPYL     ACC,XT,ACC            ; [CPU_] |2567| 
         00000254 00A9 
    2741 00000255 56A7          LSL64     ACC:P,#8              ; [CPU_] |2567| 
    2742 00000256 8BA9          MOVL      XAR1,ACC              ; [CPU_] |2567| 
    2743 00000257       $C$L22:    
    2744                      .dwpsn  file "C:/ti/motorware/motorware_1_01_00_14/sw/modules/pid/src/32b/pid.h",line 346,column 3,is
    2745 00000257 D020          MOVB      XAR0,#32              ; [CPU_] |346| 
    2746 00000258 8A93          MOVL      XAR4,*+XAR3[AR0]      ; [CPU_] |346| 
    2747                      .dwpsn  file "C:/ti/motorware/motorware_1_01_00_14/sw/modules/ctrl/src/32b/ctrl.h",line 2573,column 5
    2748 00000259 A2A9          MOVL      ACC,XAR3              ; [CPU_] |2573| 
    2749                      .dwpsn  file "C:/ti/motorware/motorware_1_01_00_14/sw/modules/ctrl/src/32b/ctrl.h",line 655,column 5,
    2750 0000025a D0F4          MOVB      XAR0,#244             ; [CPU_] |655| 
    2751                      .dwpsn  file "C:/ti/motorware/motorware_1_01_00_14/sw/modules/ctrl/src/32b/ctrl.h",line 2573,column 5
    2752 0000025b 09E2          ADDB      ACC,#226              ; [CPU_] |2573| 
    2753                      .dwpsn  file "C:/ti/motorware/motorware_1_01_00_14/sw/modules/pid/src/32b/pid.h",line 346,column 3,is
    2754 0000025c B2C4          MOVL      *+XAR4[0],XAR1        ; [CPU_] |346| 
    2755                      .dwpsn  file "C:/ti/motorware/motorware_1_01_00_14/sw/modules/ctrl/src/32b/ctrl.h",line 2573,column 5
    2756 0000025d 8AA9          MOVL      XAR4,ACC              ; [CPU_] |2573| 
    2757                      .dwpsn  file "C:/ti/motorware/motorware_1_01_00_14/sw/modules/ctrl/src/32b/ctrl.h",line 655,column 5,
    2758 0000025e 9293          MOV       AL,*+XAR3[AR0]        ; [CPU_] |655| 
    2759 0000025f EC05          BF        $C$L23,EQ             ; [CPU_] |655| 
    2760                      ; branchcc occurs ; [] |655| 
    2761 00000260 D014          MOVB      XAR0,#20              ; [CPU_] |655| 
    2762 00000261 0694          MOVL      ACC,*+XAR4[AR0]       ; [CPU_] |655| 
    2763 00000262 07C4          ADDL      ACC,*+XAR4[0]         ; [CPU_] |655| 
    2764 00000263 6F03          B         $C$L24,UNC            ; [CPU_] |655| 
    2765                      ; branch occurs ; [] |655| 
    2766 00000264       $C$L23:    
    2767 00000264 D0F6          MOVB      XAR0,#246             ; [CPU_] |655| 
    2768 00000265 0693          MOVL      ACC,*+XAR3[AR0]       ; [CPU_] |655| 
TMS320C2000 Assembler PC v6.4.4 Wed Jul 08 12:49:31 2015

Tools Copyright (c) 1996-2015 Texas Instruments Incorporated
C:\Users\grant\AppData\Local\Temp\0448010                            PAGE   55

    2769 00000266       $C$L24:    
    2770                      .dwpsn  file "C:/ti/motorware/motorware_1_01_00_14/sw/modules/ctrl/src/32b/ctrl.h",line 2576,column 5
    2771 00000266 5DAD          MOVZ      AR5,SP                ; [CPU_] |2576| 
    2772                      .dwpsn  file "C:/ti/motorware/motorware_1_01_00_14/sw/modules/ctrl/src/32b/ctrl.h",line 662,column 3,
    2773 00000267 1E4C          MOVL      *-SP[12],ACC          ; [CPU_] |662| 
    2774                      .dwpsn  file "C:/ti/motorware/motorware_1_01_00_14/sw/modules/ctrl/src/32b/ctrl.h",line 2576,column 5
    2775 00000268 D018          MOVB      XAR0,#24              ; [CPU_] |2576| 
    2776 00000269 8A93          MOVL      XAR4,*+XAR3[AR0]      ; [CPU_] |2576| 
    2777 0000026a DD8C          SUBB      XAR5,#12              ; [CPU_U] |2576| 
    2778 0000026b 5DA5          MOVZ      AR5,AR5               ; [CPU_] |2576| 
    2779              $C$DW$317       .dwtag  DW_TAG_TI_branch
    2780                      .dwattr $C$DW$317, DW_AT_low_pc(0x00)
    2781                      .dwattr $C$DW$317, DW_AT_name("_EST_updateId_ref_pu")
    2782                      .dwattr $C$DW$317, DW_AT_TI_call
    2783 0000026c 7640!         LCR       #_EST_updateId_ref_pu ; [CPU_] |2576| 
         0000026d 0000 
    2784                      ; call occurs [#_EST_updateId_ref_pu] ; [] |2576| 
    2785                      .dwpsn  file "C:/ti/motorware/motorware_1_01_00_14/sw/modules/ctrl/src/32b/ctrl.h",line 329,column 3,
    2786 0000026e D0B2          MOVB      XAR0,#178             ; [CPU_] |329| 
    2787                      .dwpsn  file "C:/ti/motorware/motorware_1_01_00_14/sw/modules/pid/src/32b/pid.h",line 358,column 16,i
    2788 0000026f C572          MOVL      XAR7,*-SP[50]         ; [CPU_] |358| 
    2789                      .dwpsn  file "C:/ti/motorware/motorware_1_01_00_14/sw/modules/ctrl/src/32b/ctrl.h",line 329,column 3,
    2790 00000270 C493          MOVL      XAR6,*+XAR3[AR0]      ; [CPU_] |329| 
    2791                      .dwpsn  file "C:/ti/motorware/motorware_1_01_00_14/sw/modules/pid/src/32b/pid.h",line 358,column 16,i
    2792 00000271 D020          MOVB      XAR0,#32              ; [CPU_] |358| 
    2793 00000272 8A93          MOVL      XAR4,*+XAR3[AR0]      ; [CPU_] |358| 
    2794                      .dwpsn  file "C:/ti/motorware/motorware_1_01_00_14/sw/modules/pid/src/32b/pid.h",line 360,column 3,is
    2795 00000273 06A7          MOVL      ACC,XAR7              ; [CPU_] |360| 
    2796 00000274 D00C          MOVB      XAR0,#12              ; [CPU_] |360| 
    2797 00000275 FF54          NEG       ACC                   ; [CPU_] |360| 
    2798 00000276 1E6E          MOVL      *-SP[46],ACC          ; [CPU_] |360| 
    2799 00000277 1E94          MOVL      *+XAR4[AR0],ACC       ; [CPU_] |360| 
    2800                      .dwpsn  file "C:/ti/motorware/motorware_1_01_00_14/sw/modules/pid/src/32b/pid.h",line 361,column 3,is
    2801 00000278 D00E          MOVB      XAR0,#14              ; [CPU_] |361| 
    2802 00000279 C394          MOVL      *+XAR4[AR0],XAR7      ; [CPU_] |361| 
    2803                      .dwpsn  file "C:/ti/motorware/motorware_1_01_00_14/sw/modules/pid/src/32b/pid.h",line 233,column 16,i
    2804 0000027a D020          MOVB      XAR0,#32              ; [CPU_] |233| 
    2805 0000027b 8A93          MOVL      XAR4,*+XAR3[AR0]      ; [CPU_] |233| 
    2806                      .dwpsn  file "C:/ti/motorware/motorware_1_01_00_14/sw/modules/pid/src/32b/pid.h",line 242,column 3,is
    2807 0000027c 064C          MOVL      ACC,*-SP[12]          ; [CPU_] |242| 
    2808 0000027d 03A6          SUBL      ACC,XAR6              ; [CPU_] |242| 
    2809 0000027e 87C4          MOVL      XT,*+XAR4[0]          ; [CPU_] |242| 
    2810 0000027f 5605          IMPYL     P,XT,ACC              ; [CPU_] |242| 
         00000280 00A9 
    2811 00000281 5663          QMPYL     ACC,XT,ACC            ; [CPU_] |242| 
         00000282 00A9 
    2812 00000283 56A7          LSL64     ACC:P,#8              ; [CPU_] |242| 
    2813 00000284 1EA7          MOVL      XAR7,ACC              ; [CPU_] |242| 
    2814                      .dwpsn  file "C:/ti/motorware/motorware_1_01_00_14/sw/modules/pid/src/32b/pid.h",line 243,column 3,is
    2815 00000285 87D4          MOVL      XT,*+XAR4[2]          ; [CPU_] |243| 
    2816 00000286 D10E          MOVB      XAR1,#14              ; [CPU_] |243| 
    2817 00000287 D00C          MOVB      XAR0,#12              ; [CPU_] |243| 
    2818 00000288 5605          IMPYL     P,XT,XAR7             ; [CPU_] |243| 
         00000289 00A7 
    2819 0000028a 5663          QMPYL     ACC,XT,XAR7           ; [CPU_] |243| 
TMS320C2000 Assembler PC v6.4.4 Wed Jul 08 12:49:31 2015

Tools Copyright (c) 1996-2015 Texas Instruments Incorporated
C:\Users\grant\AppData\Local\Temp\0448010                            PAGE   56

         0000028b 00A7 
    2820 0000028c 56A7          LSL64     ACC:P,#8              ; [CPU_] |243| 
    2821 0000028d 07F4          ADDL      ACC,*+XAR4[6]         ; [CPU_] |243| 
    2822 0000028e 5650          MINL      ACC,*+XAR4[AR1]       ; [CPU_] |243| 
         0000028f 009C 
    2823                      .dwpsn  file "C:/ti/motorware/motorware_1_01_00_14/sw/modules/pid/src/32b/pid.h",line 249,column 3,is
    2824 00000290 D10E          MOVB      XAR1,#14              ; [CPU_] |249| 
    2825                      .dwpsn  file "C:/ti/motorware/motorware_1_01_00_14/sw/modules/pid/src/32b/pid.h",line 243,column 3,is
    2826 00000291 5661          MAXL      ACC,*+XAR4[AR0]       ; [CPU_] |243| 
         00000292 0094 
    2827                      .dwpsn  file "C:/ti/motorware/motorware_1_01_00_14/sw/modules/pid/src/32b/pid.h",line 246,column 3,is
    2828 00000293 D008          MOVB      XAR0,#8               ; [CPU_] |246| 
    2829                      .dwpsn  file "C:/ti/motorware/motorware_1_01_00_14/sw/modules/pid/src/32b/pid.h",line 245,column 3,is
    2830 00000294 1EF4          MOVL      *+XAR4[6],ACC         ; [CPU_] |245| 
    2831                      .dwpsn  file "C:/ti/motorware/motorware_1_01_00_14/sw/modules/pid/src/32b/pid.h",line 246,column 3,is
    2832 00000295 A34C          MOVL      P,*-SP[12]            ; [CPU_] |246| 
    2833                      .dwpsn  file "C:/ti/motorware/motorware_1_01_00_14/sw/modules/pid/src/32b/pid.h",line 249,column 3,is
    2834 00000296 07A7          ADDL      ACC,XAR7              ; [CPU_] |249| 
    2835                      .dwpsn  file "C:/ti/motorware/motorware_1_01_00_14/sw/modules/pid/src/32b/pid.h",line 246,column 3,is
    2836 00000297 A994          MOVL      *+XAR4[AR0],P         ; [CPU_] |246| 
    2837                      .dwpsn  file "C:/ti/motorware/motorware_1_01_00_14/sw/modules/pid/src/32b/pid.h",line 247,column 3,is
    2838 00000298 D00A          MOVB      XAR0,#10              ; [CPU_] |247| 
    2839 00000299 C294          MOVL      *+XAR4[AR0],XAR6      ; [CPU_] |247| 
    2840                      .dwpsn  file "C:/ti/motorware/motorware_1_01_00_14/sw/modules/pid/src/32b/pid.h",line 249,column 3,is
    2841 0000029a D00C          MOVB      XAR0,#12              ; [CPU_] |249| 
    2842 0000029b 5650          MINL      ACC,*+XAR4[AR1]       ; [CPU_] |249| 
         0000029c 009C 
    2843 0000029d 5661          MAXL      ACC,*+XAR4[AR0]       ; [CPU_] |249| 
         0000029e 0094 
    2844 0000029f D0C0          MOVB      XAR0,#192             ; [CPU_] |249| 
    2845 000002a0 1E93          MOVL      *+XAR3[AR0],ACC       ; [CPU_] |249| 
    2846                      .dwpsn  file "C:/ti/motorware/motorware_1_01_00_14/sw/modules/ctrl/src/32b/ctrl.h",line 2591,column 5
    2847 000002a1 064C          MOVL      ACC,*-SP[12]          ; [CPU_] |2591| 
    2848 000002a2 D018          MOVB      XAR0,#24              ; [CPU_] |2591| 
    2849 000002a3 8A93          MOVL      XAR4,*+XAR3[AR0]      ; [CPU_] |2591| 
    2850              $C$DW$318       .dwtag  DW_TAG_TI_branch
    2851                      .dwattr $C$DW$318, DW_AT_low_pc(0x00)
    2852                      .dwattr $C$DW$318, DW_AT_name("_EST_setId_ref_pu")
    2853                      .dwattr $C$DW$318, DW_AT_TI_call
    2854 000002a4 7640!         LCR       #_EST_setId_ref_pu    ; [CPU_] |2591| 
         000002a5 0000 
    2855                      ; call occurs [#_EST_setId_ref_pu] ; [] |2591| 
    2856                      .dwpsn  file "C:/ti/motorware/motorware_1_01_00_14/sw/modules/ctrl/src/32b/ctrl.h",line 230,column 3,
    2857 000002a6 D0F1          MOVB      XAR0,#241             ; [CPU_] |230| 
    2858 000002a7 9293          MOV       AL,*+XAR3[AR0]        ; [CPU_] |230| 
    2859 000002a8 EC0C          BF        $C$L25,EQ             ; [CPU_] |230| 
    2860                      ; branchcc occurs ; [] |230| 
    2861                      .dwpsn  file "C:/ti/motorware/motorware_1_01_00_14/sw/modules/ctrl/src/32b/ctrl.h",line 2600,column 6
    2862 000002a9 D018          MOVB      XAR0,#24              ; [CPU_] |2600| 
    2863 000002aa 8A93          MOVL      XAR4,*+XAR3[AR0]      ; [CPU_] |2600| 
    2864              $C$DW$319       .dwtag  DW_TAG_TI_branch
    2865                      .dwattr $C$DW$319, DW_AT_low_pc(0x00)
    2866                      .dwattr $C$DW$319, DW_AT_name("_EST_getOneOverDcBus_pu")
    2867                      .dwattr $C$DW$319, DW_AT_TI_call
    2868 000002ab 7640!         LCR       #_EST_getOneOverDcBus_pu ; [CPU_] |2600| 
TMS320C2000 Assembler PC v6.4.4 Wed Jul 08 12:49:31 2015

Tools Copyright (c) 1996-2015 Texas Instruments Incorporated
C:\Users\grant\AppData\Local\Temp\0448010                            PAGE   57

         000002ac 0000 
    2869                      ; call occurs [#_EST_getOneOverDcBus_pu] ; [] |2600| 
    2870 000002ad 8770          MOVL      XT,*-SP[48]           ; [CPU_] |2600| 
    2871 000002ae 5605          IMPYL     P,XT,ACC              ; [CPU_] |2600| 
         000002af 00A9 
    2872 000002b0 5663          QMPYL     ACC,XT,ACC            ; [CPU_] |2600| 
         000002b1 00A9 
    2873 000002b2 56A7          LSL64     ACC:P,#8              ; [CPU_] |2600| 
    2874 000002b3 1E70          MOVL      *-SP[48],ACC          ; [CPU_] |2600| 
    2875 000002b4       $C$L25:    
    2876                      .dwpsn  file "C:/ti/motorware/motorware_1_01_00_14/sw/modules/pid/src/32b/pid.h",line 346,column 3,is
    2877 000002b4 D032          MOVB      XAR0,#50              ; [CPU_] |346| 
    2878 000002b5 8A93          MOVL      XAR4,*+XAR3[AR0]      ; [CPU_] |346| 
    2879 000002b6 0670          MOVL      ACC,*-SP[48]          ; [CPU_] |346| 
    2880                      .dwpsn  file "C:/ti/motorware/motorware_1_01_00_14/sw/modules/ctrl/src/32b/ctrl.h",line 428,column 3,
    2881 000002b7 D1F8          MOVB      XAR1,#248             ; [CPU_] |428| 
    2882 000002b8 D0E4          MOVB      XAR0,#228             ; [CPU_] |428| 
    2883                      .dwpsn  file "C:/ti/motorware/motorware_1_01_00_14/sw/modules/pid/src/32b/pid.h",line 346,column 3,is
    2884 000002b9 1EC4          MOVL      *+XAR4[0],ACC         ; [CPU_] |346| 
    2885                      .dwpsn  file "C:/ti/motorware/motorware_1_01_00_14/sw/modules/ctrl/src/32b/ctrl.h",line 428,column 3,
    2886 000002ba 069B          MOVL      ACC,*+XAR3[AR1]       ; [CPU_] |428| 
    2887 000002bb 0793          ADDL      ACC,*+XAR3[AR0]       ; [CPU_] |428| 
    2888                      .dwpsn  file "C:/ti/motorware/motorware_1_01_00_14/sw/modules/ctrl/src/32b/ctrl.h",line 396,column 3,
    2889 000002bc D0B4          MOVB      XAR0,#180             ; [CPU_] |396| 
    2890                      .dwpsn  file "C:/ti/motorware/motorware_1_01_00_14/sw/modules/ctrl/src/32b/ctrl.h",line 428,column 3,
    2891 000002bd 1E4C          MOVL      *-SP[12],ACC          ; [CPU_] |428| 
    2892                      .dwpsn  file "C:/ti/motorware/motorware_1_01_00_14/sw/modules/ctrl/src/32b/ctrl.h",line 396,column 3,
    2893 000002be C593          MOVL      XAR7,*+XAR3[AR0]      ; [CPU_] |396| 
    2894                      .dwpsn  file "C:/ti/motorware/motorware_1_01_00_14/sw/modules/pid/src/32b/pid.h",line 358,column 16,i
    2895 000002bf D032          MOVB      XAR0,#50              ; [CPU_] |358| 
    2896 000002c0 8A93          MOVL      XAR4,*+XAR3[AR0]      ; [CPU_] |358| 
    2897                      .dwpsn  file "C:/ti/motorware/motorware_1_01_00_14/sw/modules/pid/src/32b/pid.h",line 360,column 3,is
    2898 000002c1 066E          MOVL      ACC,*-SP[46]          ; [CPU_] |360| 
    2899 000002c2 D00C          MOVB      XAR0,#12              ; [CPU_] |360| 
    2900 000002c3 1E94          MOVL      *+XAR4[AR0],ACC       ; [CPU_] |360| 
    2901                      .dwpsn  file "C:/ti/motorware/motorware_1_01_00_14/sw/modules/pid/src/32b/pid.h",line 361,column 3,is
    2902 000002c4 D00E          MOVB      XAR0,#14              ; [CPU_] |361| 
    2903 000002c5 0672          MOVL      ACC,*-SP[50]          ; [CPU_] |361| 
    2904 000002c6 1E94          MOVL      *+XAR4[AR0],ACC       ; [CPU_] |361| 
    2905                      .dwpsn  file "C:/ti/motorware/motorware_1_01_00_14/sw/modules/ctrl/src/32b/ctrl.h",line 2618,column 5
    2906 000002c7 C44C          MOVL      XAR6,*-SP[12]         ; [CPU_] |2618| 
    2907                      .dwpsn  file "C:/ti/motorware/motorware_1_01_00_14/sw/modules/pid/src/32b/pid.h",line 233,column 16,i
    2908 000002c8 D032          MOVB      XAR0,#50              ; [CPU_] |233| 
    2909 000002c9 8A93          MOVL      XAR4,*+XAR3[AR0]      ; [CPU_] |233| 
    2910                      .dwpsn  file "C:/ti/motorware/motorware_1_01_00_14/sw/modules/pid/src/32b/pid.h",line 242,column 3,is
    2911 000002ca 06A6          MOVL      ACC,XAR6              ; [CPU_] |242| 
    2912 000002cb 87C4          MOVL      XT,*+XAR4[0]          ; [CPU_] |242| 
    2913 000002cc 03A7          SUBL      ACC,XAR7              ; [CPU_] |242| 
    2914 000002cd 5605          IMPYL     P,XT,ACC              ; [CPU_] |242| 
         000002ce 00A9 
    2915 000002cf 5663          QMPYL     ACC,XT,ACC            ; [CPU_] |242| 
         000002d0 00A9 
    2916 000002d1 56A7          LSL64     ACC:P,#8              ; [CPU_] |242| 
    2917 000002d2 83A9          MOVL      XAR5,ACC              ; [CPU_] |242| 
    2918                      .dwpsn  file "C:/ti/motorware/motorware_1_01_00_14/sw/modules/pid/src/32b/pid.h",line 243,column 3,is
TMS320C2000 Assembler PC v6.4.4 Wed Jul 08 12:49:31 2015

Tools Copyright (c) 1996-2015 Texas Instruments Incorporated
C:\Users\grant\AppData\Local\Temp\0448010                            PAGE   58

    2919 000002d3 D10E          MOVB      XAR1,#14              ; [CPU_] |243| 
    2920 000002d4 D00C          MOVB      XAR0,#12              ; [CPU_] |243| 
    2921 000002d5 87D4          MOVL      XT,*+XAR4[2]          ; [CPU_] |243| 
    2922 000002d6 5605          IMPYL     P,XT,XAR5             ; [CPU_] |243| 
         000002d7 00A5 
    2923 000002d8 5663          QMPYL     ACC,XT,XAR5           ; [CPU_] |243| 
         000002d9 00A5 
    2924 000002da 56A7          LSL64     ACC:P,#8              ; [CPU_] |243| 
    2925 000002db 07F4          ADDL      ACC,*+XAR4[6]         ; [CPU_] |243| 
    2926 000002dc 5650          MINL      ACC,*+XAR4[AR1]       ; [CPU_] |243| 
         000002dd 009C 
    2927                      .dwpsn  file "C:/ti/motorware/motorware_1_01_00_14/sw/modules/pid/src/32b/pid.h",line 249,column 3,is
    2928 000002de D10E          MOVB      XAR1,#14              ; [CPU_] |249| 
    2929                      .dwpsn  file "C:/ti/motorware/motorware_1_01_00_14/sw/modules/pid/src/32b/pid.h",line 243,column 3,is
    2930 000002df 5661          MAXL      ACC,*+XAR4[AR0]       ; [CPU_] |243| 
         000002e0 0094 
    2931                      .dwpsn  file "C:/ti/motorware/motorware_1_01_00_14/sw/modules/pid/src/32b/pid.h",line 246,column 3,is
    2932 000002e1 D008          MOVB      XAR0,#8               ; [CPU_] |246| 
    2933                      .dwpsn  file "C:/ti/motorware/motorware_1_01_00_14/sw/modules/pid/src/32b/pid.h",line 245,column 3,is
    2934 000002e2 1EF4          MOVL      *+XAR4[6],ACC         ; [CPU_] |245| 
    2935                      .dwpsn  file "C:/ti/motorware/motorware_1_01_00_14/sw/modules/pid/src/32b/pid.h",line 249,column 3,is
    2936 000002e3 07A5          ADDL      ACC,XAR5              ; [CPU_] |249| 
    2937                      .dwpsn  file "C:/ti/motorware/motorware_1_01_00_14/sw/modules/pid/src/32b/pid.h",line 246,column 3,is
    2938 000002e4 C294          MOVL      *+XAR4[AR0],XAR6      ; [CPU_] |246| 
    2939                      .dwpsn  file "C:/ti/motorware/motorware_1_01_00_14/sw/modules/pid/src/32b/pid.h",line 247,column 3,is
    2940 000002e5 D00A          MOVB      XAR0,#10              ; [CPU_] |247| 
    2941 000002e6 C394          MOVL      *+XAR4[AR0],XAR7      ; [CPU_] |247| 
    2942                      .dwpsn  file "C:/ti/motorware/motorware_1_01_00_14/sw/modules/pid/src/32b/pid.h",line 249,column 3,is
    2943 000002e7 D00C          MOVB      XAR0,#12              ; [CPU_] |249| 
    2944 000002e8 5650          MINL      ACC,*+XAR4[AR1]       ; [CPU_] |249| 
         000002e9 009C 
    2945 000002ea 5661          MAXL      ACC,*+XAR4[AR0]       ; [CPU_] |249| 
         000002eb 0094 
    2946 000002ec D0C2          MOVB      XAR0,#194             ; [CPU_] |249| 
    2947 000002ed 1E93          MOVL      *+XAR3[AR0],ACC       ; [CPU_] |249| 
    2948                      .dwpsn  file "C:/ti/motorware/motorware_1_01_00_14/sw/modules/ctrl/src/32b/ctrl.h",line 2621,column 5
    2949 000002ee D018          MOVB      XAR0,#24              ; [CPU_] |2621| 
    2950 000002ef 06A6          MOVL      ACC,XAR6              ; [CPU_] |2621| 
    2951 000002f0 8A93          MOVL      XAR4,*+XAR3[AR0]      ; [CPU_] |2621| 
    2952              $C$DW$320       .dwtag  DW_TAG_TI_branch
    2953                      .dwattr $C$DW$320, DW_AT_low_pc(0x00)
    2954                      .dwattr $C$DW$320, DW_AT_name("_EST_setIq_ref_pu")
    2955                      .dwattr $C$DW$320, DW_AT_TI_call
    2956 000002f1 7640!         LCR       #_EST_setIq_ref_pu    ; [CPU_] |2621| 
         000002f2 0000 
    2957                      ; call occurs [#_EST_setIq_ref_pu] ; [] |2621| 
    2958                      .dwpsn  file "C:/ti/motorware/motorware_1_01_00_14/sw/modules/ctrl/src/32b/ctrl.h",line 85,column 3,i
    2959 000002f3 A2A9          MOVL      ACC,XAR3              ; [CPU_] |85| 
    2960 000002f4 09C0          ADDB      ACC,#192              ; [CPU_] |85| 
    2961 000002f5 8AA9          MOVL      XAR4,ACC              ; [CPU_] |85| 
    2962 000002f6 D0FA          MOVB      XAR0,#250             ; [CPU_] |85| 
    2963 000002f7 0693          MOVL      ACC,*+XAR3[AR0]       ; [CPU_] |85| 
    2964 000002f8 5601          ADDL      *+XAR4[0],ACC         ; [CPU_] |85| 
         000002f9 00C4 
    2965                      .dwpsn  file "C:/ti/motorware/motorware_1_01_00_14/sw/modules/ctrl/src/32b/ctrl.h",line 86,column 3,i
TMS320C2000 Assembler PC v6.4.4 Wed Jul 08 12:49:31 2015

Tools Copyright (c) 1996-2015 Texas Instruments Incorporated
C:\Users\grant\AppData\Local\Temp\0448010                            PAGE   59

    2966 000002fa A2A9          MOVL      ACC,XAR3              ; [CPU_] |86| 
    2967 000002fb 09C2          ADDB      ACC,#194              ; [CPU_] |86| 
    2968 000002fc 8AA9          MOVL      XAR4,ACC              ; [CPU_] |86| 
    2969 000002fd D0FC          MOVB      XAR0,#252             ; [CPU_] |86| 
    2970 000002fe 761F-         MOVW      DP,#_ctrlHandle       ; [CPU_U] 
         000002ff 0000 
    2971 00000300 0693          MOVL      ACC,*+XAR3[AR0]       ; [CPU_] |86| 
    2972 00000301 5601          ADDL      *+XAR4[0],ACC         ; [CPU_] |86| 
         00000302 00C4 
    2973                      .dwpsn  file "C:/ti/motorware/motorware_1_01_00_14/sw/modules/ctrl/src/32b/ctrl.h",line 88,column 3,i
    2974 00000303 8A16-         MOVL      XAR4,@_ctrlHandle     ; [CPU_] |88| 
    2975 00000304       $C$L26:    
    2976                      .dwpsn  file "../proj_lab20.c",line 567,column 9,is_stmt,isa 0
    2977 00000304 5DAD          MOVZ      AR5,SP                ; [CPU_] |567| 
    2978 00000305 DDA0          SUBB      XAR5,#32              ; [CPU_U] |567| 
    2979 00000306 5DA5          MOVZ      AR5,AR5               ; [CPU_] |567| 
    2980              $C$DW$321       .dwtag  DW_TAG_TI_branch
    2981                      .dwattr $C$DW$321, DW_AT_low_pc(0x00)
    2982                      .dwattr $C$DW$321, DW_AT_name("_CTRL_getVdq_out_pu")
    2983                      .dwattr $C$DW$321, DW_AT_TI_call
    2984 00000307 7640!         LCR       #_CTRL_getVdq_out_pu  ; [CPU_] |567| 
         00000308 0000 
    2985                      ; call occurs [#_CTRL_getVdq_out_pu] ; [] |567| 
    2986 00000309 761F-         MOVW      DP,#_iparkHandle      ; [CPU_U] 
         0000030a 0000 
    2987                      .dwpsn  file "../proj_lab20.c",line 570,column 9,is_stmt,isa 0
    2988 0000030b 8A1E-         MOVL      XAR4,@_iparkHandle    ; [CPU_] |570| 
    2989                      .dwpsn  file "C:/ti/motorware/motorware_1_01_00_14/sw/modules/ipark/src/32b/ipark.h",line 175,column 
    2990 0000030c 0668          MOVL      ACC,*-SP[40]          ; [CPU_] |175| 
    2991 0000030d 1ED4          MOVL      *+XAR4[2],ACC         ; [CPU_] |175| 
    2992                      .dwpsn  file "C:/ti/motorware/motorware_1_01_00_14/sw/modules/ipark/src/32b/ipark.h",line 176,column 
    2993 0000030e 0666          MOVL      ACC,*-SP[38]          ; [CPU_] |176| 
    2994 0000030f 1EC4          MOVL      *+XAR4[0],ACC         ; [CPU_] |176| 
    2995                      .dwpsn  file "C:/ti/motorware/motorware_1_01_00_14/sw/modules/ipark/src/32b/ipark.h",line 141,column 
    2996 00000310 C5C4          MOVL      XAR7,*+XAR4[0]        ; [CPU_] |141| 
    2997                      .dwpsn  file "C:/ti/motorware/motorware_1_01_00_14/sw/modules/ipark/src/32b/ipark.h",line 148,column 
    2998 00000311 875E          MOVL      XT,*-SP[30]           ; [CPU_] |148| 
    2999 00000312 3B01          SETC      SXM                   ; [CPU_] 
    3000 00000313 5605          IMPYL     P,XT,XAR7             ; [CPU_] |148| 
         00000314 00A7 
    3001 00000315 5663          QMPYL     ACC,XT,XAR7           ; [CPU_] |148| 
         00000316 00A7 
    3002                      .dwpsn  file "C:/ti/motorware/motorware_1_01_00_14/sw/modules/ipark/src/32b/ipark.h",line 142,column 
    3003 00000317 8AD4          MOVL      XAR4,*+XAR4[2]        ; [CPU_] |142| 
    3004                      .dwpsn  file "C:/ti/motorware/motorware_1_01_00_14/sw/modules/ipark/src/32b/ipark.h",line 148,column 
    3005 00000318 56A7          LSL64     ACC:P,#8              ; [CPU_] |148| 
    3006 00000319 8760          MOVL      XT,*-SP[32]           ; [CPU_] |148| 
    3007 0000031a 1EA6          MOVL      XAR6,ACC              ; [CPU_] |148| 
    3008 0000031b 5605          IMPYL     P,XT,XAR4             ; [CPU_] |148| 
         0000031c 00A4 
    3009 0000031d 5663          QMPYL     ACC,XT,XAR4           ; [CPU_] |148| 
         0000031e 00A4 
    3010 0000031f 56A7          LSL64     ACC:P,#8              ; [CPU_] |148| 
    3011                      .dwpsn  file "C:/ti/motorware/motorware_1_01_00_14/sw/modules/ipark/src/32b/ipark.h",line 149,column 
    3012 00000320 875E          MOVL      XT,*-SP[30]           ; [CPU_] |149| 
TMS320C2000 Assembler PC v6.4.4 Wed Jul 08 12:49:31 2015

Tools Copyright (c) 1996-2015 Texas Instruments Incorporated
C:\Users\grant\AppData\Local\Temp\0448010                            PAGE   60

    3013                      .dwpsn  file "C:/ti/motorware/motorware_1_01_00_14/sw/modules/ipark/src/32b/ipark.h",line 148,column 
    3014 00000321 03A6          SUBL      ACC,XAR6              ; [CPU_] |148| 
    3015                      .dwpsn  file "C:/ti/motorware/motorware_1_01_00_14/sw/modules/ipark/src/32b/ipark.h",line 149,column 
    3016 00000322 5605          IMPYL     P,XT,XAR4             ; [CPU_] |149| 
         00000323 00A4 
    3017                      .dwpsn  file "C:/ti/motorware/motorware_1_01_00_14/sw/modules/ipark/src/32b/ipark.h",line 148,column 
    3018 00000324 1E64          MOVL      *-SP[36],ACC          ; [CPU_] |148| 
    3019                      .dwpsn  file "C:/ti/motorware/motorware_1_01_00_14/sw/modules/ipark/src/32b/ipark.h",line 149,column 
    3020 00000325 5663          QMPYL     ACC,XT,XAR4           ; [CPU_] |149| 
         00000326 00A4 
    3021 00000327 56A7          LSL64     ACC:P,#8              ; [CPU_] |149| 
    3022 00000328 8760          MOVL      XT,*-SP[32]           ; [CPU_] |149| 
    3023 00000329 1EA6          MOVL      XAR6,ACC              ; [CPU_] |149| 
    3024 0000032a 5605          IMPYL     P,XT,XAR7             ; [CPU_] |149| 
         0000032b 00A7 
    3025 0000032c 5663          QMPYL     ACC,XT,XAR7           ; [CPU_] |149| 
         0000032d 00A7 
    3026 0000032e 56A7          LSL64     ACC:P,#8              ; [CPU_] |149| 
    3027 0000032f 07A6          ADDL      ACC,XAR6              ; [CPU_] |149| 
    3028 00000330 1E62          MOVL      *-SP[34],ACC          ; [CPU_] |149| 
    3029                      .dwpsn  file "C:/ti/motorware/motorware_1_01_00_14/sw/modules/svgen/src/32b/svgen.h",line 133,column 
    3030 00000331 28A9          MOV       AL,#46039             ; [CPU_] |133| 
         00000332 B3D7 
    3031 00000333 9BDD          MOV       AH,#221               ; [CPU_] |133| 
    3032 00000334 1EAC          MOVL      XT,ACC                ; [CPU_] |133| 
    3033                      .dwpsn  file "C:/ti/motorware/motorware_1_01_00_14/sw/modules/svgen/src/32b/svgen.h",line 132,column 
    3034 00000335 C464          MOVL      XAR6,*-SP[36]         ; [CPU_] |132| 
    3035                      .dwpsn  file "C:/ti/motorware/motorware_1_01_00_14/sw/modules/svgen/src/32b/svgen.h",line 133,column 
    3036 00000336 5605          IMPYL     P,XT,*-SP[34]         ; [CPU_] |133| 
         00000337 0062 
    3037 00000338 5663          QMPYL     ACC,XT,*-SP[34]       ; [CPU_] |133| 
         00000339 0062 
    3038 0000033a 56A7          LSL64     ACC:P,#8              ; [CPU_] |133| 
    3039 0000033b 8AA9          MOVL      XAR4,ACC              ; [CPU_] |133| 
    3040 0000033c 06A6          MOVL      ACC,XAR6              ; [CPU_] |133| 
    3041 0000033d FF40          SFR       ACC,1                 ; [CPU_] |133| 
    3042 0000033e FF54          NEG       ACC                   ; [CPU_] |133| 
    3043 0000033f FF5A          MOVL      P,ACC                 ; [CPU_] |133| 
    3044 00000340 A8A9          MOVL      ACC,XAR4              ; [CPU_] |133| 
    3045 00000341 07AB          ADDL      ACC,P                 ; [CPU_] |133| 
    3046 00000342 83A9          MOVL      XAR5,ACC              ; [CPU_] |133| 
    3047                      .dwpsn  file "C:/ti/motorware/motorware_1_01_00_14/sw/modules/svgen/src/32b/svgen.h",line 134,column 
    3048 00000343 565D          SUBUL     P,XAR4                ; [CPU_] |134| 
         00000344 00A4 
    3049 00000345 A9A7          MOVL      XAR7,P                ; [CPU_] |134| 
    3050                      .dwpsn  file "C:/ti/motorware/motorware_1_01_00_14/sw/modules/svgen/src/32b/svgen.h",line 140,column 
    3051 00000346 0FA6          CMPL      ACC,XAR6              ; [CPU_] |140| 
    3052 00000347 56C4          BF        $C$L27,LT             ; [CPU_] |140| 
         00000348 0005 
    3053                      ; branchcc occurs ; [] |140| 
    3054 00000349 A0AB          MOVL      P,XAR5                ; [CPU_] 
    3055                      .dwpsn  file "C:/ti/motorware/motorware_1_01_00_14/sw/modules/svgen/src/32b/svgen.h",line 148,column 
    3056 0000034a 87A6          MOVL      XT,XAR6               ; [CPU_] |148| 
    3057 0000034b 6F03          B         $C$L28,UNC            ; [CPU_] |148| 
    3058                      ; branch occurs ; [] |148| 
TMS320C2000 Assembler PC v6.4.4 Wed Jul 08 12:49:31 2015

Tools Copyright (c) 1996-2015 Texas Instruments Incorporated
C:\Users\grant\AppData\Local\Temp\0448010                            PAGE   61

    3059 0000034c       $C$L27:    
    3060                      .dwpsn  file "C:/ti/motorware/motorware_1_01_00_14/sw/modules/svgen/src/32b/svgen.h",line 142,column 
    3061 0000034c A3A6          MOVL      P,XAR6                ; [CPU_] |142| 
    3062 0000034d A0AC          MOVL      XT,XAR5               ; [CPU_] |142| 
    3063 0000034e       $C$L28:    
    3064 0000034e A9A9          MOVL      ACC,P                 ; [CPU_] 
    3065                      .dwpsn  file "C:/ti/motorware/motorware_1_01_00_14/sw/modules/svgen/src/32b/svgen.h",line 151,column 
    3066 0000034f 0FA7          CMPL      ACC,XAR7              ; [CPU_] |151| 
    3067 00000350 56C4          BF        $C$L29,LT             ; [CPU_] |151| 
         00000351 0008 
    3068                      ; branchcc occurs ; [] |151| 
    3069 00000352 ABA9          MOVL      ACC,XT                ; [CPU_] 
    3070                      .dwpsn  file "C:/ti/motorware/motorware_1_01_00_14/sw/modules/svgen/src/32b/svgen.h",line 155,column 
    3071 00000353 0FA7          CMPL      ACC,XAR7              ; [CPU_] |155| 
    3072 00000354 56C5          BF        $C$L30,LEQ            ; [CPU_] |155| 
         00000355 0005 
    3073                      ; branchcc occurs ; [] |155| 
    3074                      .dwpsn  file "C:/ti/motorware/motorware_1_01_00_14/sw/modules/svgen/src/32b/svgen.h",line 157,column 
    3075 00000356 87A7          MOVL      XT,XAR7               ; [CPU_] |157| 
    3076 00000357 6F02          B         $C$L30,UNC            ; [CPU_] |157| 
    3077                      ; branch occurs ; [] |157| 
    3078 00000358       $C$L29:    
    3079                      .dwpsn  file "C:/ti/motorware/motorware_1_01_00_14/sw/modules/svgen/src/32b/svgen.h",line 153,column 
    3080 00000358 A3A7          MOVL      P,XAR7                ; [CPU_] |153| 
    3081 00000359       $C$L30:    
    3082                      .dwpsn  file "C:/ti/motorware/motorware_1_01_00_14/sw/modules/svgen/src/32b/svgen.h",line 163,column 
    3083 00000359 A9A9          MOVL      ACC,P                 ; [CPU_] |163| 
    3084 0000035a 5601          ADDL      XT,ACC                ; [CPU_] |163| 
         0000035b 00AC 
    3085 0000035c 9A00          MOV       AL,#0                 ; [CPU_] |163| 
    3086 0000035d 9B80          MOV       AH,#128               ; [CPU_] |163| 
    3087 0000035e 5605          IMPYL     P,XT,ACC              ; [CPU_] |163| 
         0000035f 00A9 
    3088 00000360 5663          QMPYL     ACC,XT,ACC            ; [CPU_] |163| 
         00000361 00A9 
    3089 00000362 56A7          LSL64     ACC:P,#8              ; [CPU_] |163| 
    3090 00000363 5641          SUBL      XAR6,ACC              ; [CPU_] |163| 
         00000364 00A6 
    3091                      .dwpsn  file "C:/ti/motorware/motorware_1_01_00_14/sw/modules/svgen/src/32b/svgen.h",line 164,column 
    3092 00000365 5641          SUBL      XAR5,ACC              ; [CPU_] |164| 
         00000366 00A5 
    3093                      .dwpsn  file "C:/ti/motorware/motorware_1_01_00_14/sw/modules/svgen/src/32b/svgen.h",line 165,column 
    3094 00000367 5641          SUBL      XAR7,ACC              ; [CPU_] |165| 
         00000368 00A7 
    3095                      .dwpsn  file "C:/ti/motorware/motorware_1_01_00_14/sw/modules/svgen/src/32b/svgen.h",line 163,column 
    3096 00000369 8F00-         MOVL      XAR4,#_gPwmData       ; [CPU_U] |163| 
         0000036a 0040 
    3097 0000036b C2C4          MOVL      *+XAR4[0],XAR6        ; [CPU_] |163| 
    3098                      .dwpsn  file "C:/ti/motorware/motorware_1_01_00_14/sw/modules/svgen/src/32b/svgen.h",line 164,column 
    3099 0000036c A0D4          MOVL      *+XAR4[2],XAR5        ; [CPU_] |164| 
    3100                      .dwpsn  file "C:/ti/motorware/motorware_1_01_00_14/sw/modules/svgen/src/32b/svgen.h",line 165,column 
    3101 0000036d C3E4          MOVL      *+XAR4[4],XAR7        ; [CPU_] |165| 
    3102                      .dwpsn  file "C:/ti/motorware/motorware_1_01_00_14/sw/modules/svgen/src/32b/svgen.h",line 167,column 
    3103 0000036e 6F05          B         $C$L32,UNC            ; [CPU_] |167| 
    3104                      ; branch occurs ; [] |167| 
TMS320C2000 Assembler PC v6.4.4 Wed Jul 08 12:49:31 2015

Tools Copyright (c) 1996-2015 Texas Instruments Incorporated
C:\Users\grant\AppData\Local\Temp\0448010                            PAGE   62

    3105 0000036f       $C$L31:    
    3106                      .dwpsn  file "C:/ti/motorware/motorware_1_01_00_14/sw/modules/ctrl/src/32b/ctrl.h",line 977,column 3,
    3107 0000036f A8A9          MOVL      ACC,XAR4              ; [CPU_] |977| 
    3108 00000370 09ED          ADDB      ACC,#237              ; [CPU_] |977| 
    3109 00000371 8AA9          MOVL      XAR4,ACC              ; [CPU_] |977| 
    3110 00000372 0AC4          INC       *+XAR4[0]             ; [CPU_] |977| 
    3111 00000373       $C$L32:    
    3112 00000373 0270          MOVB      ACC,#112              ; [CPU_] 
    3113 00000374 761F-         MOVW      DP,#_halHandle        ; [CPU_U] 
         00000375 0000 
    3114 00000376 8F40-         MOVL      XAR5,#_gPwmData       ; [CPU_U] 
         00000377 0040 
    3115 00000378 BE02          MOVB      XAR6,#2               ; [CPU_] 
    3116 00000379 0706-         ADDL      ACC,@_halHandle       ; [CPU_] 
    3117 0000037a 1EA7          MOVL      XAR7,ACC              ; [CPU_] 
    3118 0000037b 3B01          SETC      SXM                   ; [CPU_] 
    3119 0000037c       $C$L33:    
    3120                      .dwpsn  file "C:/ti/motorware/motorware_1_01_00_14/sw/drivers/pwm/src/32b/f28x/f2806x/pwm.h",line 172
    3121 0000037c FF2F          MOV       ACC,#-512 << 15       ; [CPU_] |1724| 
         0000037d FE00 
    3122 0000037e 8785          MOVL      XT,*XAR5++            ; [CPU_] |1724| 
    3123                      .dwpsn  file "C:/ti/motorware/motorware_1_01_00_14/sw/modules/hal/boards/boostxldrv8301_revB/f28x/f28
    3124 0000037f 8A87          MOVL      XAR4,*XAR7++          ; [CPU_] |1059| 
    3125                      .dwpsn  file "C:/ti/motorware/motorware_1_01_00_14/sw/drivers/pwm/src/32b/f28x/f2806x/pwm.h",line 172
    3126 00000380 5605          IMPYL     P,XT,ACC              ; [CPU_] |1724| 
         00000381 00A9 
    3127 00000382 5663          QMPYL     ACC,XT,ACC            ; [CPU_] |1724| 
         00000383 00A9 
    3128 00000384 56A7          LSL64     ACC:P,#8              ; [CPU_] |1724| 
    3129 00000385 2BAB          MOV       PL,#0                 ; [CPU_] |1724| 
    3130 00000386 28AA          MOV       PH,#256               ; [CPU_] |1724| 
         00000387 0100 
    3131 00000388 A9A3          MOVL      XAR3,P                ; [CPU_] |1724| 
    3132                      .dwpsn  file "C:/ti/motorware/motorware_1_01_00_14/sw/modules/hal/boards/boostxldrv8301_revB/f28x/f28
    3133 00000389 58EC          MOVZ      AR0,*+XAR4[5]         ; [CPU_] |1059| 
    3134                      .dwpsn  file "C:/ti/motorware/motorware_1_01_00_14/sw/drivers/pwm/src/32b/f28x/f2806x/pwm.h",line 172
    3135 0000038a 2BAB          MOV       PL,#0                 ; [CPU_] |1724| 
    3136 0000038b 28AA          MOV       PH,#65280             ; [CPU_] |1724| 
         0000038c FF00 
    3137 0000038d 5650          MINL      ACC,XAR3              ; [CPU_] |1724| 
         0000038e 00A3 
    3138 0000038f 5661          MAXL      ACC,P                 ; [CPU_] |1724| 
         00000390 00AB 
    3139 00000391 FF1F          ADD       ACC,#512 << 15        ; [CPU_] |1724| 
         00000392 0200 
    3140 00000393 1EAC          MOVL      XT,ACC                ; [CPU_] |1724| 
    3141 00000394 9A00          MOV       AL,#0                 ; [CPU_] |1724| 
    3142 00000395 9B80          MOV       AH,#128               ; [CPU_] |1724| 
    3143 00000396 5605          IMPYL     P,XT,ACC              ; [CPU_] |1724| 
         00000397 00A9 
    3144 00000398 5663          QMPYL     ACC,XT,ACC            ; [CPU_] |1724| 
         00000399 00A9 
    3145 0000039a 56A7          LSL64     ACC:P,#8              ; [CPU_] |1724| 
    3146 0000039b 1EAC          MOVL      XT,ACC                ; [CPU_] |1724| 
    3147 0000039c 5605          IMPYL     P,XT,XAR0             ; [CPU_] |1724| 
TMS320C2000 Assembler PC v6.4.4 Wed Jul 08 12:49:31 2015

Tools Copyright (c) 1996-2015 Texas Instruments Incorporated
C:\Users\grant\AppData\Local\Temp\0448010                            PAGE   63

         0000039d 00A0 
    3148 0000039e 5663          QMPYL     ACC,XT,XAR0           ; [CPU_] |1724| 
         0000039f 00A0 
    3149 000003a0 56A7          LSL64     ACC:P,#8              ; [CPU_] |1724| 
    3150 000003a1 3100          MOV       P,#0                  ; [CPU_] |1724| 
    3151 000003a2 5650          MINL      ACC,XAR0              ; [CPU_] |1724| 
         000003a3 00A0 
    3152 000003a4 D009          MOVB      XAR0,#9               ; [CPU_] |1724| 
    3153 000003a5 5661          MAXL      ACC,P                 ; [CPU_] |1724| 
         000003a6 00AB 
    3154 000003a7 9694          MOV       *+XAR4[AR0],AL        ; [CPU_] |1724| 
    3155                      .dwpsn  file "C:/ti/motorware/motorware_1_01_00_14/sw/modules/hal/boards/boostxldrv8301_revB/f28x/f28
    3156 000003a8 000E          BANZ      $C$L33,AR6--          ; [CPU_] |1056| 
         000003a9 FFD4 
    3157                      ; branchcc occurs ; [] |1056| 
    3158 000003aa FEB6          SUBB      SP,#54                ; [CPU_U] 
    3159                      .dwcfi  cfa_offset, -16
    3160 000003ab C5BE          MOVL      XAR7,*--SP            ; [CPU_] 
    3161                      .dwcfi  cfa_offset, -14
    3162                      .dwcfi  restore_reg, 18
    3163 000003ac C4BE          MOVL      XAR6,*--SP            ; [CPU_] 
    3164                      .dwcfi  cfa_offset, -12
    3165                      .dwcfi  restore_reg, 16
    3166 000003ad 83BE          MOVL      XAR5,*--SP            ; [CPU_] 
    3167                      .dwcfi  cfa_offset, -10
    3168                      .dwcfi  restore_reg, 14
    3169 000003ae 8ABE          MOVL      XAR4,*--SP            ; [CPU_] 
    3170                      .dwcfi  cfa_offset, -8
    3171                      .dwcfi  restore_reg, 12
    3172 000003af 82BE          MOVL      XAR3,*--SP            ; [CPU_] 
    3173                      .dwcfi  cfa_offset, -6
    3174                      .dwcfi  restore_reg, 10
    3175 000003b0 87BE          MOVL      XT,*--SP              ; [CPU_] 
    3176                      .dwcfi  cfa_offset, -4
    3177                      .dwcfi  restore_reg, 22
    3178                      .dwcfi  restore_reg, 21
    3179 000003b1 0003          POP       AR1H:AR0H             ; [CPU_] 
    3180                      .dwcfi  cfa_offset, -2
    3181                      .dwcfi  restore_reg, 5
    3182                      .dwcfi  restore_reg, 7
    3183 000003b2 7617          NASP      ; [CPU_] 
    3184              $C$DW$322       .dwtag  DW_TAG_TI_branch
    3185                      .dwattr $C$DW$322, DW_AT_low_pc(0x00)
    3186                      .dwattr $C$DW$322, DW_AT_TI_return
    3187 000003b3 7602          IRET      ; [CPU_] 
    3188                      ; return occurs ; [] 
    3189                      .dwattr $C$DW$228, DW_AT_TI_end_file("../proj_lab20.c")
    3190                      .dwattr $C$DW$228, DW_AT_TI_end_line(0x254)
    3191                      .dwattr $C$DW$228, DW_AT_TI_end_column(0x01)
    3192                      .dwendentry
    3193                      .dwendtag $C$DW$228
    3194              
    3195 000000c1               .sect   ".text"
    3196                      .clink
    3197                      .global _main
TMS320C2000 Assembler PC v6.4.4 Wed Jul 08 12:49:31 2015

Tools Copyright (c) 1996-2015 Texas Instruments Incorporated
C:\Users\grant\AppData\Local\Temp\0448010                            PAGE   64

    3198              
    3199              $C$DW$323       .dwtag  DW_TAG_subprogram, DW_AT_name("main")
    3200                      .dwattr $C$DW$323, DW_AT_low_pc(_main)
    3201                      .dwattr $C$DW$323, DW_AT_high_pc(0x00)
    3202                      .dwattr $C$DW$323, DW_AT_TI_symbol_name("_main")
    3203                      .dwattr $C$DW$323, DW_AT_external
    3204                      .dwattr $C$DW$323, DW_AT_TI_begin_file("../proj_lab20.c")
    3205                      .dwattr $C$DW$323, DW_AT_TI_begin_line(0x88)
    3206                      .dwattr $C$DW$323, DW_AT_TI_begin_column(0x06)
    3207                      .dwattr $C$DW$323, DW_AT_TI_max_frame_size(-16)
    3208                      .dwpsn  file "../proj_lab20.c",line 137,column 1,is_stmt,address _main,isa 0
    3209              
    3210                      .dwfde $C$DW$CIE, _main
    3211              
    3212              ;***************************************************************
    3213              ;* FNAME: _main                         FR SIZE:  14           *
    3214              ;*                                                             *
    3215              ;* FUNCTION ENVIRONMENT                                        *
    3216              ;*                                                             *
    3217              ;* FUNCTION PROPERTIES                                         *
    3218              ;*                            0 Parameter,  8 Auto,  6 SOE     *
    3219              ;***************************************************************
    3220              
    3221              _main:
    3222              ;* AR5   assigned to $O$C12
    3223              ;* AR5   assigned to $O$C13
    3224              ;* AR7   assigned to $O$C14
    3225              ;* AR6   assigned to $O$C15
    3226              ;* XT    assigned to $O$C16
    3227              ;* AR6   assigned to $O$C17
    3228              ;* XT    assigned to $O$C18
    3229              ;* AR6   assigned to $O$C19
    3230              ;* AR0   assigned to $O$U102
    3231              ;* AR0   assigned to $O$U113
    3232              ;* AR0   assigned to $O$U163
    3233              ;* AR0   assigned to $O$U170
    3234              ;* AR3   assigned to $O$K57
    3235              ;* AR5   assigned to _obj
    3236              $C$DW$324       .dwtag  DW_TAG_variable, DW_AT_name("obj")
    3237                      .dwattr $C$DW$324, DW_AT_TI_symbol_name("_obj")
    3238                      .dwattr $C$DW$324, DW_AT_type(*$C$DW$T$257)
    3239                      .dwattr $C$DW$324, DW_AT_location[DW_OP_reg14]
    3240              ;* AL    assigned to _state
    3241              $C$DW$325       .dwtag  DW_TAG_variable, DW_AT_name("state")
    3242                      .dwattr $C$DW$325, DW_AT_TI_symbol_name("_state")
    3243                      .dwattr $C$DW$325, DW_AT_type(*$C$DW$T$73)
    3244                      .dwattr $C$DW$325, DW_AT_location[DW_OP_reg0]
    3245              ;* AL    assigned to _state
    3246              $C$DW$326       .dwtag  DW_TAG_variable, DW_AT_name("state")
    3247                      .dwattr $C$DW$326, DW_AT_TI_symbol_name("_state")
    3248                      .dwattr $C$DW$326, DW_AT_type(*$C$DW$T$73)
    3249                      .dwattr $C$DW$326, DW_AT_location[DW_OP_reg0]
    3250              ;* AR4   assigned to _obj
    3251              $C$DW$327       .dwtag  DW_TAG_variable, DW_AT_name("obj")
    3252                      .dwattr $C$DW$327, DW_AT_TI_symbol_name("_obj")
TMS320C2000 Assembler PC v6.4.4 Wed Jul 08 12:49:31 2015

Tools Copyright (c) 1996-2015 Texas Instruments Incorporated
C:\Users\grant\AppData\Local\Temp\0448010                            PAGE   65

    3253                      .dwattr $C$DW$327, DW_AT_type(*$C$DW$T$257)
    3254                      .dwattr $C$DW$327, DW_AT_location[DW_OP_reg12]
    3255              ;* AH    assigned to _state
    3256              $C$DW$328       .dwtag  DW_TAG_variable, DW_AT_name("state")
    3257                      .dwattr $C$DW$328, DW_AT_TI_symbol_name("_state")
    3258                      .dwattr $C$DW$328, DW_AT_type(*$C$DW$T$73)
    3259                      .dwattr $C$DW$328, DW_AT_location[DW_OP_reg1]
    3260              ;* AR4   assigned to _obj
    3261              $C$DW$329       .dwtag  DW_TAG_variable, DW_AT_name("obj")
    3262                      .dwattr $C$DW$329, DW_AT_TI_symbol_name("_obj")
    3263                      .dwattr $C$DW$329, DW_AT_type(*$C$DW$T$257)
    3264                      .dwattr $C$DW$329, DW_AT_location[DW_OP_reg12]
    3265              ;* AR4   assigned to _handle
    3266              $C$DW$330       .dwtag  DW_TAG_variable, DW_AT_name("handle")
    3267                      .dwattr $C$DW$330, DW_AT_TI_symbol_name("_handle")
    3268                      .dwattr $C$DW$330, DW_AT_type(*$C$DW$T$259)
    3269                      .dwattr $C$DW$330, DW_AT_location[DW_OP_reg12]
    3270              ;* AR2   assigned to _obj
    3271              $C$DW$331       .dwtag  DW_TAG_variable, DW_AT_name("obj")
    3272                      .dwattr $C$DW$331, DW_AT_TI_symbol_name("_obj")
    3273                      .dwattr $C$DW$331, DW_AT_type(*$C$DW$T$257)
    3274                      .dwattr $C$DW$331, DW_AT_location[DW_OP_reg8]
    3275              ;* AR4   assigned to _obj
    3276              $C$DW$332       .dwtag  DW_TAG_variable, DW_AT_name("obj")
    3277                      .dwattr $C$DW$332, DW_AT_TI_symbol_name("_obj")
    3278                      .dwattr $C$DW$332, DW_AT_type(*$C$DW$T$257)
    3279                      .dwattr $C$DW$332, DW_AT_location[DW_OP_reg12]
    3280              ;* AL    assigned to _maxAccel_pu
    3281              $C$DW$333       .dwtag  DW_TAG_variable, DW_AT_name("maxAccel_pu")
    3282                      .dwattr $C$DW$333, DW_AT_TI_symbol_name("_maxAccel_pu")
    3283                      .dwattr $C$DW$333, DW_AT_type(*$C$DW$T$35)
    3284                      .dwattr $C$DW$333, DW_AT_location[DW_OP_reg0]
    3285              ;* AR6   assigned to _state
    3286              $C$DW$334       .dwtag  DW_TAG_variable, DW_AT_name("state")
    3287                      .dwattr $C$DW$334, DW_AT_TI_symbol_name("_state")
    3288                      .dwattr $C$DW$334, DW_AT_type(*$C$DW$T$73)
    3289                      .dwattr $C$DW$334, DW_AT_location[DW_OP_reg16]
    3290              ;* AR4   assigned to _obj
    3291              $C$DW$335       .dwtag  DW_TAG_variable, DW_AT_name("obj")
    3292                      .dwattr $C$DW$335, DW_AT_TI_symbol_name("_obj")
    3293                      .dwattr $C$DW$335, DW_AT_type(*$C$DW$T$257)
    3294                      .dwattr $C$DW$335, DW_AT_location[DW_OP_reg12]
    3295              $C$DW$336       .dwtag  DW_TAG_variable, DW_AT_name("ctrlState")
    3296                      .dwattr $C$DW$336, DW_AT_TI_symbol_name("_ctrlState")
    3297                      .dwattr $C$DW$336, DW_AT_type(*$C$DW$T$43)
    3298                      .dwattr $C$DW$336, DW_AT_location[DW_OP_breg20 -5]
    3299              ;* AL    assigned to _flag_ctrlStateChanged
    3300              $C$DW$337       .dwtag  DW_TAG_variable, DW_AT_name("flag_ctrlStateChanged")
    3301                      .dwattr $C$DW$337, DW_AT_TI_symbol_name("_flag_ctrlStateChanged")
    3302                      .dwattr $C$DW$337, DW_AT_type(*$C$DW$T$73)
    3303                      .dwattr $C$DW$337, DW_AT_location[DW_OP_reg0]
    3304              ;* AR1   assigned to _obj
    3305              $C$DW$338       .dwtag  DW_TAG_variable, DW_AT_name("obj")
    3306                      .dwattr $C$DW$338, DW_AT_TI_symbol_name("_obj")
    3307                      .dwattr $C$DW$338, DW_AT_type(*$C$DW$T$237)
TMS320C2000 Assembler PC v6.4.4 Wed Jul 08 12:49:31 2015

Tools Copyright (c) 1996-2015 Texas Instruments Incorporated
C:\Users\grant\AppData\Local\Temp\0448010                            PAGE   66

    3308                      .dwattr $C$DW$338, DW_AT_location[DW_OP_reg6]
    3309              $C$DW$339       .dwtag  DW_TAG_variable, DW_AT_name("cnt")
    3310                      .dwattr $C$DW$339, DW_AT_TI_symbol_name("_cnt")
    3311                      .dwattr $C$DW$339, DW_AT_type(*$C$DW$T$36)
    3312                      .dwattr $C$DW$339, DW_AT_location[DW_OP_breg20 -6]
    3313              $C$DW$340       .dwtag  DW_TAG_variable, DW_AT_name("cnt")
    3314                      .dwattr $C$DW$340, DW_AT_TI_symbol_name("_cnt")
    3315                      .dwattr $C$DW$340, DW_AT_type(*$C$DW$T$36)
    3316                      .dwattr $C$DW$340, DW_AT_location[DW_OP_breg20 -6]
    3317              ;* AL    assigned to _bias
    3318              $C$DW$341       .dwtag  DW_TAG_variable, DW_AT_name("bias")
    3319                      .dwattr $C$DW$341, DW_AT_TI_symbol_name("_bias")
    3320                      .dwattr $C$DW$341, DW_AT_type(*$C$DW$T$35)
    3321                      .dwattr $C$DW$341, DW_AT_location[DW_OP_reg0]
    3322              ;* AL    assigned to _bias
    3323              $C$DW$342       .dwtag  DW_TAG_variable, DW_AT_name("bias")
    3324                      .dwattr $C$DW$342, DW_AT_TI_symbol_name("_bias")
    3325                      .dwattr $C$DW$342, DW_AT_type(*$C$DW$T$35)
    3326                      .dwattr $C$DW$342, DW_AT_location[DW_OP_reg0]
    3327              ;* AR1   assigned to $O$K7
    3328              ;* AR2   assigned to $O$K7
    3329              ;* AR2   assigned to $O$K7
    3330              ;* AR1   assigned to $O$K7
    3331              ;* AR7   assigned to $O$U104
    3332              ;* AR7   assigned to $O$U104
    3333              ;* AR7   assigned to $O$U160
    3334              ;* AR7   assigned to $O$U160
    3335              ;* AR4   assigned to $O$v1
    3336              ;* AR4   assigned to $O$v1
    3337              ;* AR5   assigned to $O$v1
    3338              ;* AR4   assigned to $O$v1
    3339              ;* AR1   assigned to $O$v1
    3340              ;* AR4   assigned to $O$v2
    3341              ;* AR4   assigned to $O$v2
    3342              ;* AR4   assigned to $O$v2
    3343              ;* AR4   assigned to $O$v2
    3344              $C$DW$343       .dwtag  DW_TAG_variable, DW_AT_name("version")
    3345                      .dwattr $C$DW$343, DW_AT_TI_symbol_name("_version")
    3346                      .dwattr $C$DW$343, DW_AT_type(*$C$DW$T$41)
    3347                      .dwattr $C$DW$343, DW_AT_location[DW_OP_breg20 -4]
    3348                      .dwcfi  cfa_offset, -2
    3349                      .dwcfi  save_reg_to_mem, 26, 0
    3350 000000c1 B2BD          MOVL      *SP++,XAR1            ; [CPU_] 
    3351                      .dwcfi  save_reg_to_mem, 7, 2
    3352                      .dwcfi  cfa_offset, -4
    3353 000000c2 AABD          MOVL      *SP++,XAR2            ; [CPU_] 
    3354                      .dwcfi  save_reg_to_mem, 9, 4
    3355                      .dwcfi  cfa_offset, -6
    3356 000000c3 A2BD          MOVL      *SP++,XAR3            ; [CPU_] 
    3357                      .dwcfi  save_reg_to_mem, 11, 6
    3358                      .dwcfi  cfa_offset, -8
    3359 000000c4 FE08          ADDB      SP,#8                 ; [CPU_U] 
    3360                      .dwcfi  cfa_offset, -16
    3361                      .dwpsn  file "../proj_lab20.c",line 154,column 3,is_stmt,isa 0
    3362 000000c5 8F00!         MOVL      XAR4,#_hal            ; [CPU_U] |154| 
TMS320C2000 Assembler PC v6.4.4 Wed Jul 08 12:49:31 2015

Tools Copyright (c) 1996-2015 Texas Instruments Incorporated
C:\Users\grant\AppData\Local\Temp\0448010                            PAGE   67

         000000c6 0000 
    3363 000000c7 02A6          MOVB      ACC,#166              ; [CPU_] |154| 
    3364              $C$DW$344       .dwtag  DW_TAG_TI_branch
    3365                      .dwattr $C$DW$344, DW_AT_low_pc(0x00)
    3366                      .dwattr $C$DW$344, DW_AT_name("_HAL_init")
    3367                      .dwattr $C$DW$344, DW_AT_TI_call
    3368 000000c8 7640!         LCR       #_HAL_init            ; [CPU_] |154| 
         000000c9 0000 
    3369                      ; call occurs [#_HAL_init] ; [] |154| 
    3370                      .dwpsn  file "../proj_lab20.c",line 158,column 3,is_stmt,isa 0
    3371 000000ca 8D40-         MOVL      XAR1,#_gUserParams    ; [CPU_U] |158| 
         000000cb 0100 
    3372 000000cc 761F-         MOVW      DP,#_halHandle        ; [CPU_U] 
         000000cd 0000 
    3373 000000ce B248          MOVL      *-SP[8],XAR1          ; [CPU_] |158| 
    3374                      .dwpsn  file "../proj_lab20.c",line 154,column 3,is_stmt,isa 0
    3375 000000cf A806-         MOVL      @_halHandle,XAR4      ; [CPU_] |154| 
    3376                      .dwpsn  file "../proj_lab20.c",line 158,column 3,is_stmt,isa 0
    3377 000000d0 8AA1          MOVL      XAR4,XAR1             ; [CPU_] |158| 
    3378              $C$DW$345       .dwtag  DW_TAG_TI_branch
    3379                      .dwattr $C$DW$345, DW_AT_low_pc(0x00)
    3380                      .dwattr $C$DW$345, DW_AT_name("_USER_checkForErrors")
    3381                      .dwattr $C$DW$345, DW_AT_TI_call
    3382 000000d1 7640!         LCR       #_USER_checkForErrors ; [CPU_] |158| 
         000000d2 0000 
    3383                      ; call occurs [#_USER_checkForErrors] ; [] |158| 
    3384                      .dwpsn  file "../proj_lab20.c",line 162,column 3,is_stmt,isa 0
    3385 000000d3 8AA1          MOVL      XAR4,XAR1             ; [CPU_] |162| 
    3386              $C$DW$346       .dwtag  DW_TAG_TI_branch
    3387                      .dwattr $C$DW$346, DW_AT_low_pc(0x00)
    3388                      .dwattr $C$DW$346, DW_AT_name("_USER_getErrorCode")
    3389                      .dwattr $C$DW$346, DW_AT_TI_call
    3390 000000d4 7640!         LCR       #_USER_getErrorCode   ; [CPU_] |162| 
         000000d5 0000 
    3391                      ; call occurs [#_USER_getErrorCode] ; [] |162| 
    3392 000000d6 8D40-         MOVL      XAR1,#_gMotorVars     ; [CPU_U] |162| 
         000000d7 0080 
    3393 000000d8 D00C          MOVB      XAR0,#12              ; [CPU_] |162| 
    3394 000000d9 9691          MOV       *+XAR1[AR0],AL        ; [CPU_] |162| 
    3395                      .dwpsn  file "../proj_lab20.c",line 166,column 3,is_stmt,isa 0
    3396 000000da D00C          MOVB      XAR0,#12              ; [CPU_] |166| 
    3397 000000db 9291          MOV       AL,*+XAR1[AR0]        ; [CPU_] |166| 
    3398 000000dc 56C0          BF        $C$L56,NEQ            ; [CPU_] |166| 
         000000dd 0272 
    3399                      ; branchcc occurs ; [] |166| 
    3400 000000de 8648          MOVL      XAR2,*-SP[8]          ; [CPU_] 
    3401                      .dwpsn  file "../proj_lab20.c",line 176,column 3,is_stmt,isa 0
    3402 000000df 8AA2          MOVL      XAR4,XAR2             ; [CPU_] |176| 
    3403              $C$DW$347       .dwtag  DW_TAG_TI_branch
    3404                      .dwattr $C$DW$347, DW_AT_low_pc(0x00)
    3405                      .dwattr $C$DW$347, DW_AT_name("_USER_setParams")
    3406                      .dwattr $C$DW$347, DW_AT_TI_call
    3407 000000e0 7640!         LCR       #_USER_setParams      ; [CPU_] |176| 
         000000e1 0000 
    3408                      ; call occurs [#_USER_setParams] ; [] |176| 
TMS320C2000 Assembler PC v6.4.4 Wed Jul 08 12:49:31 2015

Tools Copyright (c) 1996-2015 Texas Instruments Incorporated
C:\Users\grant\AppData\Local\Temp\0448010                            PAGE   68

    3409 000000e2 761F-         MOVW      DP,#_halHandle        ; [CPU_U] 
         000000e3 0000 
    3410                      .dwpsn  file "../proj_lab20.c",line 180,column 3,is_stmt,isa 0
    3411 000000e4 8A06-         MOVL      XAR4,@_halHandle      ; [CPU_] |180| 
    3412 000000e5 83A2          MOVL      XAR5,XAR2             ; [CPU_] |180| 
    3413              $C$DW$348       .dwtag  DW_TAG_TI_branch
    3414                      .dwattr $C$DW$348, DW_AT_low_pc(0x00)
    3415                      .dwattr $C$DW$348, DW_AT_name("_HAL_setParams")
    3416                      .dwattr $C$DW$348, DW_AT_TI_call
    3417 000000e6 7640!         LCR       #_HAL_setParams       ; [CPU_] |180| 
         000000e7 0000 
    3418                      ; call occurs [#_HAL_setParams] ; [] |180| 
    3419                      .dwpsn  file "../proj_lab20.c",line 185,column 3,is_stmt,isa 0
    3420 000000e8 9A00          MOVB      AL,#0                 ; [CPU_] |185| 
    3421 000000e9 9B00          MOVB      AH,#0                 ; [CPU_] |185| 
    3422              $C$DW$349       .dwtag  DW_TAG_TI_branch
    3423                      .dwattr $C$DW$349, DW_AT_low_pc(0x00)
    3424                      .dwattr $C$DW$349, DW_AT_name("_CTRL_initCtrl")
    3425                      .dwattr $C$DW$349, DW_AT_TI_call
    3426 000000ea 7640!         LCR       #_CTRL_initCtrl       ; [CPU_] |185| 
         000000eb 0000 
    3427                      ; call occurs [#_CTRL_initCtrl] ; [] |185| 
    3428                      .dwpsn  file "../proj_lab20.c",line 196,column 5,is_stmt,isa 0
    3429 000000ec 5DAD          MOVZ      AR5,SP                ; [CPU_] |196| 
    3430 000000ed 761F-         MOVW      DP,#_ctrlHandle       ; [CPU_U] 
         000000ee 0000 
    3431                      .dwpsn  file "../proj_lab20.c",line 185,column 3,is_stmt,isa 0
    3432 000000ef A816-         MOVL      @_ctrlHandle,XAR4     ; [CPU_] |185| 
    3433                      .dwpsn  file "../proj_lab20.c",line 186,column 3,is_stmt,isa 0
    3434 000000f0 A804-         MOVL      @_controller_obj,XAR4 ; [CPU_] |186| 
    3435                      .dwpsn  file "../proj_lab20.c",line 196,column 5,is_stmt,isa 0
    3436 000000f1 DD84          SUBB      XAR5,#4               ; [CPU_U] |196| 
    3437 000000f2 5DA5          MOVZ      AR5,AR5               ; [CPU_] |196| 
    3438              $C$DW$350       .dwtag  DW_TAG_TI_branch
    3439                      .dwattr $C$DW$350, DW_AT_low_pc(0x00)
    3440                      .dwattr $C$DW$350, DW_AT_name("_CTRL_getVersion")
    3441                      .dwattr $C$DW$350, DW_AT_TI_call
    3442 000000f3 7640!         LCR       #_CTRL_getVersion     ; [CPU_] |196| 
         000000f4 0000 
    3443                      ; call occurs [#_CTRL_getVersion] ; [] |196| 
    3444                      .dwpsn  file "../proj_lab20.c",line 198,column 5,is_stmt,isa 0
    3445 000000f5 5DAD          MOVZ      AR5,SP                ; [CPU_] |198| 
    3446 000000f6 D90D          ADDB      XAR1,#13              ; [CPU_] |198| 
    3447 000000f7 0204          MOVB      ACC,#4                ; [CPU_] |198| 
    3448 000000f8 8AA1          MOVL      XAR4,XAR1             ; [CPU_] |198| 
    3449 000000f9 DD84          SUBB      XAR5,#4               ; [CPU_U] |198| 
    3450 000000fa 5DA5          MOVZ      AR5,AR5               ; [CPU_] |198| 
    3451              $C$DW$351       .dwtag  DW_TAG_TI_branch
    3452                      .dwattr $C$DW$351, DW_AT_low_pc(0x00)
    3453                      .dwattr $C$DW$351, DW_AT_name("_memcpy")
    3454                      .dwattr $C$DW$351, DW_AT_TI_call
    3455 000000fb 7640!         LCR       #_memcpy              ; [CPU_] |198| 
         000000fc 0000 
    3456                      ; call occurs [#_memcpy] ; [] |198| 
    3457 000000fd 761F-         MOVW      DP,#_ctrlHandle       ; [CPU_U] 
TMS320C2000 Assembler PC v6.4.4 Wed Jul 08 12:49:31 2015

Tools Copyright (c) 1996-2015 Texas Instruments Incorporated
C:\Users\grant\AppData\Local\Temp\0448010                            PAGE   69

         000000fe 0000 
    3458                      .dwpsn  file "../proj_lab20.c",line 203,column 3,is_stmt,isa 0
    3459 000000ff 8A16-         MOVL      XAR4,@_ctrlHandle     ; [CPU_] |203| 
    3460 00000100 83A2          MOVL      XAR5,XAR2             ; [CPU_] |203| 
    3461              $C$DW$352       .dwtag  DW_TAG_TI_branch
    3462                      .dwattr $C$DW$352, DW_AT_low_pc(0x00)
    3463                      .dwattr $C$DW$352, DW_AT_name("_CTRL_setParams")
    3464                      .dwattr $C$DW$352, DW_AT_TI_call
    3465 00000101 7640!         LCR       #_CTRL_setParams      ; [CPU_] |203| 
         00000102 0000 
    3466                      ; call occurs [#_CTRL_setParams] ; [] |203| 
    3467                      .dwpsn  file "../proj_lab20.c",line 207,column 3,is_stmt,isa 0
    3468 00000103 8F00-         MOVL      XAR4,#_clarke_I       ; [CPU_U] |207| 
         00000104 0030 
    3469 00000105 0206          MOVB      ACC,#6                ; [CPU_] |207| 
    3470              $C$DW$353       .dwtag  DW_TAG_TI_branch
    3471                      .dwattr $C$DW$353, DW_AT_low_pc(0x00)
    3472                      .dwattr $C$DW$353, DW_AT_name("_CLARKE_init")
    3473                      .dwattr $C$DW$353, DW_AT_TI_call
    3474 00000106 7640!         LCR       #_CLARKE_init         ; [CPU_] |207| 
         00000107 0000 
    3475                      ; call occurs [#_CLARKE_init] ; [] |207| 
    3476 00000108 761F-         MOVW      DP,#_clarkeHandle_I   ; [CPU_U] 
         00000109 0000 
    3477                      .dwpsn  file "../proj_lab20.c",line 208,column 3,is_stmt,isa 0
    3478 0000010a 0206          MOVB      ACC,#6                ; [CPU_] |208| 
    3479                      .dwpsn  file "../proj_lab20.c",line 207,column 3,is_stmt,isa 0
    3480 0000010b A818-         MOVL      @_clarkeHandle_I,XAR4 ; [CPU_] |207| 
    3481                      .dwpsn  file "../proj_lab20.c",line 208,column 3,is_stmt,isa 0
    3482 0000010c 8F00-         MOVL      XAR4,#_clarke_V       ; [CPU_U] |208| 
         0000010d 0036 
    3483              $C$DW$354       .dwtag  DW_TAG_TI_branch
    3484                      .dwattr $C$DW$354, DW_AT_low_pc(0x00)
    3485                      .dwattr $C$DW$354, DW_AT_name("_CLARKE_init")
    3486                      .dwattr $C$DW$354, DW_AT_TI_call
    3487 0000010e 7640!         LCR       #_CLARKE_init         ; [CPU_] |208| 
         0000010f 0000 
    3488                      ; call occurs [#_CLARKE_init] ; [] |208| 
    3489 00000110 761F-         MOVW      DP,#_clarkeHandle_V   ; [CPU_U] 
         00000111 0000 
    3490                      .dwpsn  file "../proj_lab20.c",line 212,column 3,is_stmt,isa 0
    3491 00000112 D00B          MOVB      XAR0,#11              ; [CPU_] |212| 
    3492                      .dwpsn  file "../proj_lab20.c",line 208,column 3,is_stmt,isa 0
    3493 00000113 A812-         MOVL      @_clarkeHandle_V,XAR4 ; [CPU_] |208| 
    3494                      .dwpsn  file "../proj_lab20.c",line 212,column 3,is_stmt,isa 0
    3495 00000114 8A18-         MOVL      XAR4,@_clarkeHandle_I ; [CPU_] |212| 
    3496 00000115 9292          MOV       AL,*+XAR2[AR0]        ; [CPU_] |212| 
    3497              $C$DW$355       .dwtag  DW_TAG_TI_branch
    3498                      .dwattr $C$DW$355, DW_AT_low_pc(0x00)
    3499                      .dwattr $C$DW$355, DW_AT_name("_setupClarke_I")
    3500                      .dwattr $C$DW$355, DW_AT_TI_call
    3501 00000116 7640'         LCR       #_setupClarke_I       ; [CPU_] |212| 
         00000117 00A8 
    3502                      ; call occurs [#_setupClarke_I] ; [] |212| 
    3503                      .dwpsn  file "../proj_lab20.c",line 216,column 3,is_stmt,isa 0
TMS320C2000 Assembler PC v6.4.4 Wed Jul 08 12:49:31 2015

Tools Copyright (c) 1996-2015 Texas Instruments Incorporated
C:\Users\grant\AppData\Local\Temp\0448010                            PAGE   70

    3504 00000118 D00C          MOVB      XAR0,#12              ; [CPU_] |216| 
    3505 00000119 8A12-         MOVL      XAR4,@_clarkeHandle_V ; [CPU_] |216| 
    3506 0000011a 9292          MOV       AL,*+XAR2[AR0]        ; [CPU_] |216| 
    3507              $C$DW$356       .dwtag  DW_TAG_TI_branch
    3508                      .dwattr $C$DW$356, DW_AT_low_pc(0x00)
    3509                      .dwattr $C$DW$356, DW_AT_name("_setupClarke_V")
    3510                      .dwattr $C$DW$356, DW_AT_TI_call
    3511 0000011b 7640'         LCR       #_setupClarke_V       ; [CPU_] |216| 
         0000011c 0095 
    3512                      ; call occurs [#_setupClarke_V] ; [] |216| 
    3513                      .dwpsn  file "../proj_lab20.c",line 220,column 3,is_stmt,isa 0
    3514 0000011d 0218          MOVB      ACC,#24               ; [CPU_] |220| 
    3515 0000011e 0704-         ADDL      ACC,@_controller_obj  ; [CPU_] |220| 
    3516 0000011f 8AA9          MOVL      XAR4,ACC              ; [CPU_] |220| 
    3517 00000120 06C4          MOVL      ACC,*+XAR4[0]         ; [CPU_] |220| 
    3518 00000121 1E14-         MOVL      @_estHandle,ACC       ; [CPU_] |220| 
    3519                      .dwpsn  file "../proj_lab20.c",line 227,column 3,is_stmt,isa 0
    3520 00000122 8F00-         MOVL      XAR4,#_ipark          ; [CPU_U] |227| 
         00000123 0022 
    3521 00000124 0204          MOVB      ACC,#4                ; [CPU_] |227| 
    3522              $C$DW$357       .dwtag  DW_TAG_TI_branch
    3523                      .dwattr $C$DW$357, DW_AT_low_pc(0x00)
    3524                      .dwattr $C$DW$357, DW_AT_name("_IPARK_init")
    3525                      .dwattr $C$DW$357, DW_AT_TI_call
    3526 00000125 7640!         LCR       #_IPARK_init          ; [CPU_] |227| 
         00000126 0000 
    3527                      ; call occurs [#_IPARK_init] ; [] |227| 
    3528 00000127 761F-         MOVW      DP,#_iparkHandle      ; [CPU_U] 
         00000128 0000 
    3529 00000129 A81E-         MOVL      @_iparkHandle,XAR4    ; [CPU_] |227| 
    3530                      .dwpsn  file "../proj_lab20.c",line 231,column 3,is_stmt,isa 0
    3531 0000012a 0204          MOVB      ACC,#4                ; [CPU_] |231| 
    3532 0000012b 8F00-         MOVL      XAR4,#_park           ; [CPU_U] |231| 
         0000012c 0026 
    3533              $C$DW$358       .dwtag  DW_TAG_TI_branch
    3534                      .dwattr $C$DW$358, DW_AT_low_pc(0x00)
    3535                      .dwattr $C$DW$358, DW_AT_name("_PARK_init")
    3536                      .dwattr $C$DW$358, DW_AT_TI_call
    3537 0000012d 7640!         LCR       #_PARK_init           ; [CPU_] |231| 
         0000012e 0000 
    3538                      ; call occurs [#_PARK_init] ; [] |231| 
    3539 0000012f 761F-         MOVW      DP,#_parkHandle       ; [CPU_U] 
         00000130 0000 
    3540                      .dwpsn  file "../proj_lab20.c",line 235,column 3,is_stmt,isa 0
    3541 00000131 0202          MOVB      ACC,#2                ; [CPU_] |235| 
    3542                      .dwpsn  file "../proj_lab20.c",line 231,column 3,is_stmt,isa 0
    3543 00000132 A820-         MOVL      @_parkHandle,XAR4     ; [CPU_] |231| 
    3544                      .dwpsn  file "../proj_lab20.c",line 235,column 3,is_stmt,isa 0
    3545 00000133 8F00-         MOVL      XAR4,#_svgen          ; [CPU_U] |235| 
         00000134 001C 
    3546              $C$DW$359       .dwtag  DW_TAG_TI_branch
    3547                      .dwattr $C$DW$359, DW_AT_low_pc(0x00)
    3548                      .dwattr $C$DW$359, DW_AT_name("_SVGEN_init")
    3549                      .dwattr $C$DW$359, DW_AT_TI_call
    3550 00000135 7640!         LCR       #_SVGEN_init          ; [CPU_] |235| 
TMS320C2000 Assembler PC v6.4.4 Wed Jul 08 12:49:31 2015

Tools Copyright (c) 1996-2015 Texas Instruments Incorporated
C:\Users\grant\AppData\Local\Temp\0448010                            PAGE   71

         00000136 0000 
    3551                      ; call occurs [#_SVGEN_init] ; [] |235| 
    3552 00000137 761F-         MOVW      DP,#_svgenHandle      ; [CPU_U] 
         00000138 0000 
    3553 00000139 A81A-         MOVL      @_svgenHandle,XAR4    ; [CPU_] |235| 
    3554                      .dwpsn  file "../proj_lab20.c",line 239,column 3,is_stmt,isa 0
    3555 0000013a 8A06-         MOVL      XAR4,@_halHandle      ; [CPU_] |239| 
    3556              $C$DW$360       .dwtag  DW_TAG_TI_branch
    3557                      .dwattr $C$DW$360, DW_AT_low_pc(0x00)
    3558                      .dwattr $C$DW$360, DW_AT_name("_HAL_setupFaults")
    3559                      .dwattr $C$DW$360, DW_AT_TI_call
    3560 0000013b 7640!         LCR       #_HAL_setupFaults     ; [CPU_] |239| 
         0000013c 0000 
    3561                      ; call occurs [#_HAL_setupFaults] ; [] |239| 
    3562 0000013d 761F-         MOVW      DP,#_halHandle        ; [CPU_U] 
         0000013e 0000 
    3563                      .dwpsn  file "../proj_lab20.c",line 243,column 3,is_stmt,isa 0
    3564 0000013f 8A06-         MOVL      XAR4,@_halHandle      ; [CPU_] |243| 
    3565 00000140 7622   EALLOW
    3566                      .dwpsn  file "C:/ti/motorware/motorware_1_01_00_14/sw/modules/hal/boards/boostxldrv8301_revB/f28x/f28
    3567 00000141 D06C          MOVB      XAR0,#108             ; [CPU_] |505| 
    3568 00000142 02F0          MOVB      ACC,#240              ; [CPU_] |505| 
    3569 00000143 0794          ADDL      ACC,*+XAR4[AR0]       ; [CPU_] |505| 
    3570 00000144 83A9          MOVL      XAR5,ACC              ; [CPU_] |505| 
    3571 00000145 7680+         MOVL      XAR6,#_mainISR        ; [CPU_U] |505| 
         00000146 0000 
    3572 00000147 C2C5          MOVL      *+XAR5[0],XAR6        ; [CPU_] |505| 
    3573 00000148 761A   EDIS
    3574 00000149 FF69          SPM       #0                    ; [CPU_] 
    3575                      .dwpsn  file "../proj_lab20.c",line 247,column 3,is_stmt,isa 0
    3576              $C$DW$361       .dwtag  DW_TAG_TI_branch
    3577                      .dwattr $C$DW$361, DW_AT_low_pc(0x00)
    3578                      .dwattr $C$DW$361, DW_AT_name("_HAL_enableAdcInts")
    3579                      .dwattr $C$DW$361, DW_AT_TI_call
    3580 0000014a 7640!         LCR       #_HAL_enableAdcInts   ; [CPU_] |247| 
         0000014b 0000 
    3581                      ; call occurs [#_HAL_enableAdcInts] ; [] |247| 
    3582 0000014c 761F-         MOVW      DP,#_halHandle        ; [CPU_U] 
         0000014d 0000 
    3583                      .dwpsn  file "../proj_lab20.c",line 251,column 3,is_stmt,isa 0
    3584 0000014e 8A06-         MOVL      XAR4,@_halHandle      ; [CPU_] |251| 
    3585              $C$DW$362       .dwtag  DW_TAG_TI_branch
    3586                      .dwattr $C$DW$362, DW_AT_low_pc(0x00)
    3587                      .dwattr $C$DW$362, DW_AT_name("_HAL_enableGlobalInts")
    3588                      .dwattr $C$DW$362, DW_AT_TI_call
    3589 0000014f 7640!         LCR       #_HAL_enableGlobalInts ; [CPU_] |251| 
         00000150 0000 
    3590                      ; call occurs [#_HAL_enableGlobalInts] ; [] |251| 
    3591 00000151 761F-         MOVW      DP,#_halHandle        ; [CPU_U] 
         00000152 0000 
    3592                      .dwpsn  file "../proj_lab20.c",line 255,column 3,is_stmt,isa 0
    3593 00000153 8A06-         MOVL      XAR4,@_halHandle      ; [CPU_] |255| 
    3594              $C$DW$363       .dwtag  DW_TAG_TI_branch
    3595                      .dwattr $C$DW$363, DW_AT_low_pc(0x00)
    3596                      .dwattr $C$DW$363, DW_AT_name("_HAL_enableDebugInt")
TMS320C2000 Assembler PC v6.4.4 Wed Jul 08 12:49:31 2015

Tools Copyright (c) 1996-2015 Texas Instruments Incorporated
C:\Users\grant\AppData\Local\Temp\0448010                            PAGE   72

    3597                      .dwattr $C$DW$363, DW_AT_TI_call
    3598 00000154 7640!         LCR       #_HAL_enableDebugInt  ; [CPU_] |255| 
         00000155 0000 
    3599                      ; call occurs [#_HAL_enableDebugInt] ; [] |255| 
    3600 00000156 761F-         MOVW      DP,#_halHandle        ; [CPU_U] 
         00000157 0000 
    3601                      .dwpsn  file "../proj_lab20.c",line 259,column 3,is_stmt,isa 0
    3602 00000158 8A06-         MOVL      XAR4,@_halHandle      ; [CPU_] |259| 
    3603                      .dwpsn  file "C:/ti/motorware/motorware_1_01_00_14/sw/modules/hal/boards/boostxldrv8301_revB/f28x/f28
    3604 00000159 83A4          MOVL      XAR5,XAR4             ; [CPU_] |263| 
    3605 0000015a DD72          ADDB      XAR5,#114             ; [CPU_] |263| 
    3606 0000015b 7622   EALLOW
    3607                      .dwpsn  file "C:/ti/motorware/motorware_1_01_00_14/sw/drivers/pwm/src/32b/f28x/f2806x/pwm.h",line 157
    3608 0000015c D070          MOVB      XAR0,#112             ; [CPU_] |1574| 
    3609 0000015d 0218          MOVB      ACC,#24               ; [CPU_] |1574| 
    3610 0000015e 0794          ADDL      ACC,*+XAR4[AR0]       ; [CPU_] |1574| 
    3611 0000015f 1EA6          MOVL      XAR6,ACC              ; [CPU_] |1574| 
    3612 00000160 1AC6          OR        *+XAR6[0],#0x0004     ; [CPU_] |1574| 
         00000161 0004 
    3613 00000162 761A   EDIS
    3614 00000163 7622   EALLOW
    3615 00000164 0218          MOVB      ACC,#24               ; [CPU_] |1574| 
    3616 00000165 07C5          ADDL      ACC,*+XAR5[0]         ; [CPU_] |1574| 
    3617 00000166 1EA6          MOVL      XAR6,ACC              ; [CPU_] |1574| 
    3618 00000167 1AC6          OR        *+XAR6[0],#0x0004     ; [CPU_] |1574| 
         00000168 0004 
    3619 00000169 761A   EDIS
    3620 0000016a 7622   EALLOW
    3621 0000016b 0218          MOVB      ACC,#24               ; [CPU_] |1574| 
    3622 0000016c 07D5          ADDL      ACC,*+XAR5[2]         ; [CPU_] |1574| 
    3623 0000016d 83A9          MOVL      XAR5,ACC              ; [CPU_] |1574| 
    3624 0000016e 1AC5          OR        *+XAR5[0],#0x0004     ; [CPU_] |1574| 
         0000016f 0004 
    3625 00000170 761A   EDIS
    3626 00000171 FF69          SPM       #0                    ; [CPU_] 
    3627                      .dwpsn  file "../proj_lab20.c",line 264,column 3,is_stmt,isa 0
    3628              $C$DW$364       .dwtag  DW_TAG_TI_branch
    3629                      .dwattr $C$DW$364, DW_AT_low_pc(0x00)
    3630                      .dwattr $C$DW$364, DW_AT_name("_HAL_enableDrv")
    3631                      .dwattr $C$DW$364, DW_AT_TI_call
    3632 00000172 7640!         LCR       #_HAL_enableDrv       ; [CPU_] |264| 
         00000173 0000 
    3633                      ; call occurs [#_HAL_enableDrv] ; [] |264| 
    3634                      .dwpsn  file "../proj_lab20.c",line 266,column 3,is_stmt,isa 0
    3635 00000174 8DC0-         MOVL      XAR3,#_gDrvSpi8301Vars ; [CPU_U] |266| 
         00000175 005A 
    3636 00000176 761F-         MOVW      DP,#_halHandle        ; [CPU_U] 
         00000177 0000 
    3637 00000178 83A3          MOVL      XAR5,XAR3             ; [CPU_] |266| 
    3638 00000179 8A06-         MOVL      XAR4,@_halHandle      ; [CPU_] |266| 
    3639              $C$DW$365       .dwtag  DW_TAG_TI_branch
    3640                      .dwattr $C$DW$365, DW_AT_low_pc(0x00)
    3641                      .dwattr $C$DW$365, DW_AT_name("_HAL_setupDrvSpi")
    3642                      .dwattr $C$DW$365, DW_AT_TI_call
    3643 0000017a 7640!         LCR       #_HAL_setupDrvSpi     ; [CPU_] |266| 
TMS320C2000 Assembler PC v6.4.4 Wed Jul 08 12:49:31 2015

Tools Copyright (c) 1996-2015 Texas Instruments Incorporated
C:\Users\grant\AppData\Local\Temp\0448010                            PAGE   73

         0000017b 0000 
    3644                      ; call occurs [#_HAL_setupDrvSpi] ; [] |266| 
    3645 0000017c 761F-         MOVW      DP,#_ctrlHandle       ; [CPU_U] 
         0000017d 0000 
    3646                      .dwpsn  file "C:/ti/motorware/motorware_1_01_00_14/sw/modules/ctrl/src/32b/ctrl.h",line 1246,column 3
    3647 0000017e 02F1          MOVB      ACC,#241              ; [CPU_] |1246| 
    3648 0000017f 0716-         ADDL      ACC,@_ctrlHandle      ; [CPU_] |1246| 
    3649 00000180 8AA9          MOVL      XAR4,ACC              ; [CPU_] |1246| 
    3650 00000181 56BF          MOVB      *+XAR4[0],#1,UNC      ; [CPU_] |1246| 
         00000182 01C4 
    3651                      .dwpsn  file "../proj_lab20.c",line 275,column 3,is_stmt,isa 0
    3652              $C$DW$366       .dwtag  DW_TAG_TI_branch
    3653                      .dwattr $C$DW$366, DW_AT_low_pc(0x00)
    3654                      .dwattr $C$DW$366, DW_AT_name("_USER_computeFlux_pu_to_Wb_sf")
    3655                      .dwattr $C$DW$366, DW_AT_TI_call
    3656 00000183 7640!         LCR       #_USER_computeFlux_pu_to_Wb_sf ; [CPU_] |275| 
         00000184 0000 
    3657                      ; call occurs [#_USER_computeFlux_pu_to_Wb_sf] ; [] |275| 
    3658 00000185 761F-         MOVW      DP,#_gFlux_pu_to_Wb_sf ; [CPU_U] 
         00000186 0000 
    3659 00000187 1E0E-         MOVL      @_gFlux_pu_to_Wb_sf,ACC ; [CPU_] |275| 
    3660                      .dwpsn  file "../proj_lab20.c",line 276,column 3,is_stmt,isa 0
    3661              $C$DW$367       .dwtag  DW_TAG_TI_branch
    3662                      .dwattr $C$DW$367, DW_AT_low_pc(0x00)
    3663                      .dwattr $C$DW$367, DW_AT_name("_USER_computeFlux_pu_to_VpHz_sf")
    3664                      .dwattr $C$DW$367, DW_AT_TI_call
    3665 00000188 7640!         LCR       #_USER_computeFlux_pu_to_VpHz_sf ; [CPU_] |276| 
         00000189 0000 
    3666                      ; call occurs [#_USER_computeFlux_pu_to_VpHz_sf] ; [] |276| 
    3667 0000018a 761F-         MOVW      DP,#_gFlux_pu_to_VpHz_sf ; [CPU_U] 
         0000018b 0000 
    3668 0000018c 1E10-         MOVL      @_gFlux_pu_to_VpHz_sf,ACC ; [CPU_] |276| 
    3669                      .dwpsn  file "../proj_lab20.c",line 277,column 3,is_stmt,isa 0
    3670              $C$DW$368       .dwtag  DW_TAG_TI_branch
    3671                      .dwattr $C$DW$368, DW_AT_low_pc(0x00)
    3672                      .dwattr $C$DW$368, DW_AT_name("_USER_computeTorque_Ls_Id_Iq_pu_to_Nm_sf")
    3673                      .dwattr $C$DW$368, DW_AT_TI_call
    3674 0000018d 7640!         LCR       #_USER_computeTorque_Ls_Id_Iq_pu_to_Nm_sf ; [CPU_] |277| 
         0000018e 0000 
    3675                      ; call occurs [#_USER_computeTorque_Ls_Id_Iq_pu_to_Nm_sf] ; [] |277| 
    3676 0000018f 761F-         MOVW      DP,#_gTorque_Ls_Id_Iq_pu_to_Nm_sf ; [CPU_U] 
         00000190 0000 
    3677 00000191 1E0A-         MOVL      @_gTorque_Ls_Id_Iq_pu_to_Nm_sf,ACC ; [CPU_] |277| 
    3678                      .dwpsn  file "../proj_lab20.c",line 278,column 3,is_stmt,isa 0
    3679              $C$DW$369       .dwtag  DW_TAG_TI_branch
    3680                      .dwattr $C$DW$369, DW_AT_low_pc(0x00)
    3681                      .dwattr $C$DW$369, DW_AT_name("_USER_computeTorque_Flux_Iq_pu_to_Nm_sf")
    3682                      .dwattr $C$DW$369, DW_AT_TI_call
    3683 00000192 7640!         LCR       #_USER_computeTorque_Flux_Iq_pu_to_Nm_sf ; [CPU_] |278| 
         00000193 0000 
    3684                      ; call occurs [#_USER_computeTorque_Flux_Iq_pu_to_Nm_sf] ; [] |278| 
    3685 00000194 761F-         MOVW      DP,#_gTorque_Flux_Iq_pu_to_Nm_sf ; [CPU_U] 
         00000195 0000 
    3686 00000196 1E0C-         MOVL      @_gTorque_Flux_Iq_pu_to_Nm_sf,ACC ; [CPU_] |278| 
    3687 00000197       $C$L34:    
TMS320C2000 Assembler PC v6.4.4 Wed Jul 08 12:49:31 2015

Tools Copyright (c) 1996-2015 Texas Instruments Incorporated
C:\Users\grant\AppData\Local\Temp\0448010                            PAGE   74

    3688 00000197 761F-         MOVW      DP,#_gMotorVars       ; [CPU_U] 
         00000198 0002 
    3689                      .dwpsn  file "../proj_lab20.c",line 284,column 11,is_stmt,isa 0
    3690 00000199 9200-         MOV       AL,@_gMotorVars       ; [CPU_] |284| 
    3691 0000019a ECFD          BF        $C$L34,EQ             ; [CPU_] |284| 
    3692                      ; branchcc occurs ; [] |284| 
    3693 0000019b 761F-         MOVW      DP,#_ctrlHandle       ; [CPU_U] 
         0000019c 0000 
    3694                      .dwpsn  file "../proj_lab20.c",line 287,column 5,is_stmt,isa 0
    3695 0000019d 8B16-         MOVL      XAR1,@_ctrlHandle     ; [CPU_] |287| 
    3696                      .dwpsn  file "C:/ti/motorware/motorware_1_01_00_14/sw/modules/ctrl/src/32b/ctrl.h",line 1288,column 3
    3697 0000019e D0F4          MOVB      XAR0,#244             ; [CPU_] |1288| 
    3698 0000019f 56BF          MOVB      *+XAR1[AR0],#1,UNC    ; [CPU_] |1288| 
         000001a0 0191 
    3699                      .dwpsn  file "../proj_lab20.c",line 290,column 5,is_stmt,isa 0
    3700 000001a1 FFEF          B         $C$L55,UNC            ; [CPU_] |290| 
         000001a2 0185 
    3701                      ; branch occurs ; [] |290| 
    3702 000001a3       $C$L35:    
    3703                      .dwpsn  file "../proj_lab20.c",line 295,column 7,is_stmt,isa 0
    3704 000001a3 0A00-         INC       @_gCounter_updateGlobals ; [CPU_] |295| 
    3705                      .dwpsn  file "C:/ti/motorware/motorware_1_01_00_14/sw/modules/ctrl/src/32b/ctrl.h",line 1304,column 3
    3706 000001a4 D0F5          MOVB      XAR0,#245             ; [CPU_] |1304| 
    3707                      .dwpsn  file "../proj_lab20.c",line 298,column 7,is_stmt,isa 0
    3708 000001a5 92F2          MOV       AL,*+XAR2[6]          ; [CPU_] |298| 
    3709                      .dwpsn  file "C:/ti/motorware/motorware_1_01_00_14/sw/modules/ctrl/src/32b/ctrl.h",line 1304,column 3
    3710 000001a6 9691          MOV       *+XAR1[AR0],AL        ; [CPU_] |1304| 
    3711                      .dwpsn  file "../proj_lab20.c",line 301,column 7,is_stmt,isa 0
    3712 000001a7 D018          MOVB      XAR0,#24              ; [CPU_] |301| 
    3713 000001a8 8A91          MOVL      XAR4,*+XAR1[AR0]      ; [CPU_] |301| 
    3714 000001a9 92EA          MOV       AL,*+XAR2[5]          ; [CPU_] |301| 
    3715              $C$DW$370       .dwtag  DW_TAG_TI_branch
    3716                      .dwattr $C$DW$370, DW_AT_low_pc(0x00)
    3717                      .dwattr $C$DW$370, DW_AT_name("_EST_setFlag_enableRsRecalc")
    3718                      .dwattr $C$DW$370, DW_AT_TI_call
    3719 000001aa 7640!         LCR       #_EST_setFlag_enableRsRecalc ; [CPU_] |301| 
         000001ab 0000 
    3720                      ; call occurs [#_EST_setFlag_enableRsRecalc] ; [] |301| 
    3721 000001ac 761F-         MOVW      DP,#_ctrlHandle       ; [CPU_U] 
         000001ad 0000 
    3722                      .dwpsn  file "../proj_lab20.c",line 304,column 7,is_stmt,isa 0
    3723 000001ae 8A16-         MOVL      XAR4,@_ctrlHandle     ; [CPU_] |304| 
    3724                      .dwpsn  file "C:/ti/motorware/motorware_1_01_00_14/sw/modules/ctrl/src/32b/ctrl.h",line 1275,column 3
    3725 000001af D0F3          MOVB      XAR0,#243             ; [CPU_] |1275| 
    3726                      .dwpsn  file "../proj_lab20.c",line 304,column 7,is_stmt,isa 0
    3727 000001b0 92FA          MOV       AL,*+XAR2[7]          ; [CPU_] |304| 
    3728                      .dwpsn  file "C:/ti/motorware/motorware_1_01_00_14/sw/modules/ctrl/src/32b/ctrl.h",line 1275,column 3
    3729 000001b1 9694          MOV       *+XAR4[AR0],AL        ; [CPU_] |1275| 
    3730                      .dwpsn  file "C:/ti/motorware/motorware_1_01_00_14/sw/modules/ctrl/src/32b/ctrl.h",line 1060,column 3
    3731 000001b2 92E4          MOV       AL,*+XAR4[4]          ; [CPU_] |1060| 
    3732 000001b3 56C1          BF        $C$L50,EQ             ; [CPU_] |1060| 
         000001b4 00E1 
    3733                      ; branchcc occurs ; [] |1060| 
    3734                      .dwpsn  file "../proj_lab20.c",line 321,column 36,is_stmt,isa 0
    3735              $C$DW$371       .dwtag  DW_TAG_TI_branch
TMS320C2000 Assembler PC v6.4.4 Wed Jul 08 12:49:31 2015

Tools Copyright (c) 1996-2015 Texas Instruments Incorporated
C:\Users\grant\AppData\Local\Temp\0448010                            PAGE   75

    3736                      .dwattr $C$DW$371, DW_AT_low_pc(0x00)
    3737                      .dwattr $C$DW$371, DW_AT_name("_CTRL_updateState")
    3738                      .dwattr $C$DW$371, DW_AT_TI_call
    3739 000001b5 7640!         LCR       #_CTRL_updateState    ; [CPU_] |321| 
         000001b6 0000 
    3740                      ; call occurs [#_CTRL_updateState] ; [] |321| 
    3741 000001b7 761F-         MOVW      DP,#_ctrlHandle       ; [CPU_U] 
         000001b8 0000 
    3742                      .dwpsn  file "../proj_lab20.c",line 324,column 9,is_stmt,isa 0
    3743 000001b9 8316-         MOVL      XAR5,@_ctrlHandle     ; [CPU_] |324| 
    3744 000001ba 93CA          MOV       AH,*+XAR2[1]          ; [CPU_] |324| 
    3745                      .dwpsn  file "C:/ti/motorware/motorware_1_01_00_14/sw/modules/ctrl/src/32b/ctrl.h",line 1218,column 3
    3746 000001bb D0F0          MOVB      XAR0,#240             ; [CPU_] |1218| 
    3747                      .dwpsn  file "../proj_lab20.c",line 326,column 9,is_stmt,isa 0
    3748 000001bc 5200          CMPB      AL,#0                 ; [CPU_] |326| 
    3749                      .dwpsn  file "C:/ti/motorware/motorware_1_01_00_14/sw/modules/ctrl/src/32b/ctrl.h",line 1218,column 3
    3750 000001bd 9795          MOV       *+XAR5[AR0],AH        ; [CPU_] |1218| 
    3751                      .dwpsn  file "../proj_lab20.c",line 326,column 9,is_stmt,isa 0
    3752 000001be 56C1          BF        $C$L51,EQ             ; [CPU_] |326| 
         000001bf 00F6 
    3753                      ; branchcc occurs ; [] |326| 
    3754                      .dwpsn  file "C:/ti/motorware/motorware_1_01_00_14/sw/modules/ctrl/src/32b/ctrl.h",line 771,column 3,
    3755 000001c0 92E5          MOV       AL,*+XAR5[4]          ; [CPU_] |771| 
    3756 000001c1 9645          MOV       *-SP[5],AL            ; [CPU_] |771| 
    3757 000001c2 5202          CMPB      AL,#2                 ; [CPU_] |771| 
    3758 000001c3 56C1          BF        $C$L47,EQ             ; [CPU_] |771| 
         000001c4 00A6 
    3759                      ; branchcc occurs ; [] |771| 
    3760                      .dwpsn  file "../proj_lab20.c",line 335,column 16,is_stmt,isa 0
    3761 000001c5 5203          CMPB      AL,#3                 ; [CPU_] |335| 
    3762 000001c6 EC20          BF        $C$L36,EQ             ; [CPU_] |335| 
    3763                      ; branchcc occurs ; [] |335| 
    3764                      .dwpsn  file "../proj_lab20.c",line 370,column 16,is_stmt,isa 0
    3765 000001c7 5201          CMPB      AL,#1                 ; [CPU_] |370| 
    3766 000001c8 56C0          BF        $C$L49,NEQ            ; [CPU_] |370| 
         000001c9 00BA 
    3767                      ; branchcc occurs ; [] |370| 
    3768                      .dwpsn  file "C:/ti/motorware/motorware_1_01_00_14/sw/modules/hal/boards/boostxldrv8301_revB/f28x/f28
    3769 000001ca C406-         MOVL      XAR6,@_halHandle      ; [CPU_] |263| 
    3770 000001cb 8AA6          MOVL      XAR4,XAR6             ; [CPU_] |263| 
    3771 000001cc DC72          ADDB      XAR4,#114             ; [CPU_] |263| 
    3772 000001cd 7622   EALLOW
    3773                      .dwpsn  file "C:/ti/motorware/motorware_1_01_00_14/sw/drivers/pwm/src/32b/f28x/f2806x/pwm.h",line 157
    3774 000001ce D070          MOVB      XAR0,#112             ; [CPU_] |1574| 
    3775 000001cf 0218          MOVB      ACC,#24               ; [CPU_] |1574| 
    3776 000001d0 0796          ADDL      ACC,*+XAR6[AR0]       ; [CPU_] |1574| 
    3777 000001d1 1EA6          MOVL      XAR6,ACC              ; [CPU_] |1574| 
    3778 000001d2 1AC6          OR        *+XAR6[0],#0x0004     ; [CPU_] |1574| 
         000001d3 0004 
    3779 000001d4 761A   EDIS
    3780 000001d5 7622   EALLOW
    3781 000001d6 0218          MOVB      ACC,#24               ; [CPU_] |1574| 
    3782 000001d7 07C4          ADDL      ACC,*+XAR4[0]         ; [CPU_] |1574| 
    3783 000001d8 1EA6          MOVL      XAR6,ACC              ; [CPU_] |1574| 
    3784 000001d9 1AC6          OR        *+XAR6[0],#0x0004     ; [CPU_] |1574| 
TMS320C2000 Assembler PC v6.4.4 Wed Jul 08 12:49:31 2015

Tools Copyright (c) 1996-2015 Texas Instruments Incorporated
C:\Users\grant\AppData\Local\Temp\0448010                            PAGE   76

         000001da 0004 
    3785 000001db 761A   EDIS
    3786 000001dc 7622   EALLOW
    3787 000001dd 0218          MOVB      ACC,#24               ; [CPU_] |1574| 
    3788 000001de 07D4          ADDL      ACC,*+XAR4[2]         ; [CPU_] |1574| 
    3789 000001df 8AA9          MOVL      XAR4,ACC              ; [CPU_] |1574| 
    3790 000001e0 1AC4          OR        *+XAR4[0],#0x0004     ; [CPU_] |1574| 
         000001e1 0004 
    3791 000001e2 761A   EDIS
    3792                      .dwpsn  file "../proj_lab20.c",line 374,column 13,is_stmt,isa 0
    3793 000001e3 2BCA          MOV       *+XAR2[1],#0          ; [CPU_] |374| 
    3794 000001e4 FFEF          B         $C$L49,UNC            ; [CPU_] |374| 
         000001e5 009E 
    3795                      ; branch occurs ; [] |374| 
    3796 000001e6       $C$L36:    
    3797 000001e6 761F-         MOVW      DP,#_gMotorVars+7     ; [CPU_U] 
         000001e7 0002 
    3798                      .dwpsn  file "../proj_lab20.c",line 337,column 13,is_stmt,isa 0
    3799 000001e8 9207-         MOV       AL,@_gMotorVars+7     ; [CPU_] |337| 
    3800 000001e9 5201          CMPB      AL,#1                 ; [CPU_] |337| 
    3801 000001ea EC19          BF        $C$L39,EQ             ; [CPU_] |337| 
    3802                      ; branchcc occurs ; [] |337| 
    3803 000001eb 761F-         MOVW      DP,#_halHandle        ; [CPU_U] 
         000001ec 0000 
    3804                      .dwpsn  file "../proj_lab20.c",line 359,column 25,is_stmt,isa 0
    3805 000001ed 8A06-         MOVL      XAR4,@_halHandle      ; [CPU_] |359| 
    3806 000001ee A8A9          MOVL      ACC,XAR4              ; [CPU_] 
    3807 000001ef 0984          ADDB      ACC,#132              ; [CPU_] 
    3808 000001f0 1EA7          MOVL      XAR7,ACC              ; [CPU_] 
    3809 000001f1 BE02          MOVB      XAR6,#2               ; [CPU_] 
    3810 000001f2 8D00-         MOVL      XAR0,#_gAdcBiasI      ; [CPU_U] 
         000001f3 0046 
    3811 000001f4       $C$L37:    
    3812                      .dwpsn  file "C:/ti/motorware/motorware_1_01_00_14/sw/modules/hal/boards/boostxldrv8301_revB/f28x/f28
    3813 000001f4 0680          MOVL      ACC,*XAR0++           ; [CPU_] |689| 
    3814 000001f5 1E87          MOVL      *XAR7++,ACC           ; [CPU_] |689| 
    3815                      .dwpsn  file "../proj_lab20.c",line 359,column 25,is_stmt,isa 0
    3816 000001f6 000E          BANZ      $C$L37,AR6--          ; [CPU_] |359| 
         000001f7 FFFE 
    3817                      ; branchcc occurs ; [] |359| 
    3818 000001f8 A8A9          MOVL      ACC,XAR4              ; [CPU_] 
    3819 000001f9 098A          ADDB      ACC,#138              ; [CPU_] 
    3820 000001fa 1EA7          MOVL      XAR7,ACC              ; [CPU_] 
    3821 000001fb BE02          MOVB      XAR6,#2               ; [CPU_] 
    3822 000001fc 8D00-         MOVL      XAR0,#_gAdcBiasV      ; [CPU_U] 
         000001fd 002A 
    3823 000001fe       $C$L38:    
    3824                      .dwpsn  file "C:/ti/motorware/motorware_1_01_00_14/sw/modules/hal/boards/boostxldrv8301_revB/f28x/f28
    3825 000001fe 0680          MOVL      ACC,*XAR0++           ; [CPU_] |693| 
    3826 000001ff 1E87          MOVL      *XAR7++,ACC           ; [CPU_] |693| 
    3827                      .dwpsn  file "../proj_lab20.c",line 363,column 25,is_stmt,isa 0
    3828 00000200 000E          BANZ      $C$L38,AR6--          ; [CPU_] |363| 
         00000201 FFFE 
    3829                      ; branchcc occurs ; [] |363| 
    3830 00000202 6F52          B         $C$L46,UNC            ; [CPU_] |363| 
TMS320C2000 Assembler PC v6.4.4 Wed Jul 08 12:49:31 2015

Tools Copyright (c) 1996-2015 Texas Instruments Incorporated
C:\Users\grant\AppData\Local\Temp\0448010                            PAGE   77

    3831                      ; branch occurs ; [] |363| 
    3832 00000203       $C$L39:    
    3833 00000203 761F-         MOVW      DP,#_halHandle        ; [CPU_U] 
         00000204 0000 
    3834                      .dwpsn  file "../proj_lab20.c",line 342,column 15,is_stmt,isa 0
    3835 00000205 8A06-         MOVL      XAR4,@_halHandle      ; [CPU_] |342| 
    3836                      .dwpsn  file "C:/ti/motorware/motorware_1_01_00_14/sw/modules/hal/boards/boostxldrv8301_revB/f28x/f28
    3837 00000206 9A00          MOVB      AL,#0                 ; [CPU_] |994| 
    3838 00000207 9646          MOV       *-SP[6],AL            ; [CPU_] |994| 
    3839                      .dwpsn  file "C:/ti/motorware/motorware_1_01_00_14/sw/modules/hal/boards/boostxldrv8301_revB/f28x/f28
    3840 00000208 86A4          MOVL      XAR2,XAR4             ; [CPU_] |989| 
    3841 00000209 2901          CLRC      SXM                   ; [CPU_] 
    3842                      .dwpsn  file "C:/ti/motorware/motorware_1_01_00_14/sw/modules/hal/boards/boostxldrv8301_revB/f28x/f28
    3843 0000020a 6F14          B         $C$L41,UNC            ; [CPU_] |994| 
    3844                      ; branch occurs ; [] |994| 
    3845 0000020b       $C$L40:    
    3846                      .dwpsn  file "C:/ti/motorware/motorware_1_01_00_14/sw/modules/hal/boards/boostxldrv8301_revB/f28x/f28
    3847 0000020b 5603          MOV       ACC,AL << 1           ; [CPU_] |362| 
         0000020c 01A9 
    3848 0000020d 1EAC          MOVL      XT,ACC                ; [CPU_] |362| 
    3849                      .dwpsn  file "C:/ti/motorware/motorware_1_01_00_14/sw/modules/hal/boards/boostxldrv8301_revB/f28x/f28
    3850 0000020e C5A2          MOVL      XAR7,XAR2             ; [CPU_] |998| 
    3851                      .dwpsn  file "C:/ti/motorware/motorware_1_01_00_14/sw/modules/hal/boards/boostxldrv8301_revB/f28x/f28
    3852 0000020f A8A9          MOVL      ACC,XAR4              ; [CPU_] |362| 
    3853 00000210 07AC          ADDL      ACC,XT                ; [CPU_] |362| 
    3854 00000211 1EA6          MOVL      XAR6,ACC              ; [CPU_] |362| 
    3855                      .dwpsn  file "C:/ti/motorware/motorware_1_01_00_14/sw/modules/hal/boards/boostxldrv8301_revB/f28x/f28
    3856 00000212 ABA9          MOVL      ACC,XT                ; [CPU_] |998| 
    3857 00000213 5601          ADDL      XAR7,ACC              ; [CPU_] |998| 
         00000214 00A7 
    3858                      .dwpsn  file "C:/ti/motorware/motorware_1_01_00_14/sw/modules/hal/boards/boostxldrv8301_revB/f28x/f28
    3859 00000215 D084          MOVB      XAR0,#132             ; [CPU_] |362| 
    3860 00000216 0696          MOVL      ACC,*+XAR6[AR0]       ; [CPU_] |362| 
    3861                      .dwpsn  file "C:/ti/motorware/motorware_1_01_00_14/sw/modules/hal/boards/boostxldrv8301_revB/f28x/f28
    3862 00000217 D00A          MOVB      XAR0,#10              ; [CPU_] |998| 
    3863 00000218 C597          MOVL      XAR7,*+XAR7[AR0]      ; [CPU_] |998| 
    3864                      .dwpsn  file "C:/ti/motorware/motorware_1_01_00_14/sw/modules/hal/boards/boostxldrv8301_revB/f28x/f28
    3865 00000219 D084          MOVB      XAR0,#132             ; [CPU_] |689| 
    3866                      .dwpsn  file "C:/ti/motorware/motorware_1_01_00_14/sw/modules/hal/boards/boostxldrv8301_revB/f28x/f28
    3867 0000021a 07C7          ADDL      ACC,*+XAR7[0]         ; [CPU_] |998| 
    3868                      .dwpsn  file "C:/ti/motorware/motorware_1_01_00_14/sw/modules/hal/boards/boostxldrv8301_revB/f28x/f28
    3869 0000021b 1E96          MOVL      *+XAR6[AR0],ACC       ; [CPU_] |689| 
    3870                      .dwpsn  file "C:/ti/motorware/motorware_1_01_00_14/sw/modules/hal/boards/boostxldrv8301_revB/f28x/f28
    3871 0000021c 0A46          INC       *-SP[6]               ; [CPU_] |994| 
    3872                      .dwpsn  file "C:/ti/motorware/motorware_1_01_00_14/sw/modules/hal/boards/boostxldrv8301_revB/f28x/f28
    3873 0000021d 9246          MOV       AL,*-SP[6]            ; [CPU_] |689| 
    3874 0000021e       $C$L41:    
    3875                      .dwpsn  file "C:/ti/motorware/motorware_1_01_00_14/sw/modules/hal/boards/boostxldrv8301_revB/f28x/f28
    3876 0000021e D096          MOVB      XAR0,#150             ; [CPU_] |994| 
    3877 0000021f 5494          CMP       AL,*+XAR4[AR0]        ; [CPU_] |994| 
    3878 00000220 56C8          BF        $C$L40,LO             ; [CPU_] |994| 
         00000221 FFEB 
    3879                      ; branchcc occurs ; [] |994| 
    3880                      .dwpsn  file "C:/ti/motorware/motorware_1_01_00_14/sw/modules/hal/boards/boostxldrv8301_revB/f28x/f28
    3881 00000222 9A00          MOVB      AL,#0                 ; [CPU_] |1005| 
TMS320C2000 Assembler PC v6.4.4 Wed Jul 08 12:49:31 2015

Tools Copyright (c) 1996-2015 Texas Instruments Incorporated
C:\Users\grant\AppData\Local\Temp\0448010                            PAGE   78

    3882 00000223 9646          MOV       *-SP[6],AL            ; [CPU_] |1005| 
    3883 00000224 2901          CLRC      SXM                   ; [CPU_] 
    3884 00000225 6F14          B         $C$L43,UNC            ; [CPU_] |1005| 
    3885                      ; branch occurs ; [] |1005| 
    3886 00000226       $C$L42:    
    3887                      .dwpsn  file "C:/ti/motorware/motorware_1_01_00_14/sw/modules/hal/boards/boostxldrv8301_revB/f28x/f28
    3888 00000226 5603          MOV       ACC,AL << 1           ; [CPU_] |362| 
         00000227 01A9 
    3889 00000228 1EAC          MOVL      XT,ACC                ; [CPU_] |362| 
    3890                      .dwpsn  file "C:/ti/motorware/motorware_1_01_00_14/sw/modules/hal/boards/boostxldrv8301_revB/f28x/f28
    3891 00000229 C5A2          MOVL      XAR7,XAR2             ; [CPU_] |1009| 
    3892                      .dwpsn  file "C:/ti/motorware/motorware_1_01_00_14/sw/modules/hal/boards/boostxldrv8301_revB/f28x/f28
    3893 0000022a A8A9          MOVL      ACC,XAR4              ; [CPU_] |362| 
    3894 0000022b 07AC          ADDL      ACC,XT                ; [CPU_] |362| 
    3895 0000022c 1EA6          MOVL      XAR6,ACC              ; [CPU_] |362| 
    3896                      .dwpsn  file "C:/ti/motorware/motorware_1_01_00_14/sw/modules/hal/boards/boostxldrv8301_revB/f28x/f28
    3897 0000022d ABA9          MOVL      ACC,XT                ; [CPU_] |1009| 
    3898 0000022e 5601          ADDL      XAR7,ACC              ; [CPU_] |1009| 
         0000022f 00A7 
    3899                      .dwpsn  file "C:/ti/motorware/motorware_1_01_00_14/sw/modules/hal/boards/boostxldrv8301_revB/f28x/f28
    3900 00000230 D08A          MOVB      XAR0,#138             ; [CPU_] |362| 
    3901 00000231 0696          MOVL      ACC,*+XAR6[AR0]       ; [CPU_] |362| 
    3902                      .dwpsn  file "C:/ti/motorware/motorware_1_01_00_14/sw/modules/hal/boards/boostxldrv8301_revB/f28x/f28
    3903 00000232 D03A          MOVB      XAR0,#58              ; [CPU_] |1009| 
    3904 00000233 C597          MOVL      XAR7,*+XAR7[AR0]      ; [CPU_] |1009| 
    3905                      .dwpsn  file "C:/ti/motorware/motorware_1_01_00_14/sw/modules/hal/boards/boostxldrv8301_revB/f28x/f28
    3906 00000234 D08A          MOVB      XAR0,#138             ; [CPU_] |693| 
    3907                      .dwpsn  file "C:/ti/motorware/motorware_1_01_00_14/sw/modules/hal/boards/boostxldrv8301_revB/f28x/f28
    3908 00000235 07C7          ADDL      ACC,*+XAR7[0]         ; [CPU_] |1009| 
    3909                      .dwpsn  file "C:/ti/motorware/motorware_1_01_00_14/sw/modules/hal/boards/boostxldrv8301_revB/f28x/f28
    3910 00000236 1E96          MOVL      *+XAR6[AR0],ACC       ; [CPU_] |693| 
    3911                      .dwpsn  file "C:/ti/motorware/motorware_1_01_00_14/sw/modules/hal/boards/boostxldrv8301_revB/f28x/f28
    3912 00000237 0A46          INC       *-SP[6]               ; [CPU_] |1005| 
    3913                      .dwpsn  file "C:/ti/motorware/motorware_1_01_00_14/sw/modules/hal/boards/boostxldrv8301_revB/f28x/f28
    3914 00000238 9246          MOV       AL,*-SP[6]            ; [CPU_] |693| 
    3915 00000239       $C$L43:    
    3916                      .dwpsn  file "C:/ti/motorware/motorware_1_01_00_14/sw/modules/hal/boards/boostxldrv8301_revB/f28x/f28
    3917 00000239 D097          MOVB      XAR0,#151             ; [CPU_] |1005| 
    3918 0000023a 5494          CMP       AL,*+XAR4[AR0]        ; [CPU_] |1005| 
    3919 0000023b 56C8          BF        $C$L42,LO             ; [CPU_] |1005| 
         0000023c FFEB 
    3920                      ; branchcc occurs ; [] |1005| 
    3921 0000023d A8A9          MOVL      ACC,XAR4              ; [CPU_] 
    3922 0000023e 0984          ADDB      ACC,#132              ; [CPU_] 
    3923 0000023f 1EA7          MOVL      XAR7,ACC              ; [CPU_] 
    3924 00000240 BE02          MOVB      XAR6,#2               ; [CPU_] 
    3925 00000241 8D00-         MOVL      XAR0,#_gAdcBiasI      ; [CPU_U] 
         00000242 0046 
    3926 00000243       $C$L44:    
    3927                      .dwpsn  file "../proj_lab20.c",line 346,column 17,is_stmt,isa 0
    3928 00000243 0687          MOVL      ACC,*XAR7++           ; [CPU_] |346| 
    3929 00000244 1E80          MOVL      *XAR0++,ACC           ; [CPU_] |346| 
    3930                      .dwpsn  file "../proj_lab20.c",line 345,column 25,is_stmt,isa 0
    3931 00000245 000E          BANZ      $C$L44,AR6--          ; [CPU_] |345| 
         00000246 FFFE 
TMS320C2000 Assembler PC v6.4.4 Wed Jul 08 12:49:31 2015

Tools Copyright (c) 1996-2015 Texas Instruments Incorporated
C:\Users\grant\AppData\Local\Temp\0448010                            PAGE   79

    3932                      ; branchcc occurs ; [] |345| 
    3933 00000247 A8A9          MOVL      ACC,XAR4              ; [CPU_] 
    3934 00000248 098A          ADDB      ACC,#138              ; [CPU_] 
    3935 00000249 1EA7          MOVL      XAR7,ACC              ; [CPU_] 
    3936 0000024a BE02          MOVB      XAR6,#2               ; [CPU_] 
    3937 0000024b 8D00-         MOVL      XAR0,#_gAdcBiasV      ; [CPU_U] 
         0000024c 002A 
    3938 0000024d       $C$L45:    
    3939                      .dwpsn  file "../proj_lab20.c",line 350,column 17,is_stmt,isa 0
    3940 0000024d 0687          MOVL      ACC,*XAR7++           ; [CPU_] |350| 
    3941 0000024e 1E80          MOVL      *XAR0++,ACC           ; [CPU_] |350| 
    3942                      .dwpsn  file "../proj_lab20.c",line 349,column 25,is_stmt,isa 0
    3943 0000024f 000E          BANZ      $C$L45,AR6--          ; [CPU_] |349| 
         00000250 FFFE 
    3944                      ; branchcc occurs ; [] |349| 
    3945 00000251 761F-         MOVW      DP,#_gMotorVars+7     ; [CPU_U] 
         00000252 0002 
    3946                      .dwpsn  file "../proj_lab20.c",line 352,column 15,is_stmt,isa 0
    3947 00000253 2B07-         MOV       @_gMotorVars+7,#0     ; [CPU_] |352| 
    3948 00000254       $C$L46:    
    3949 00000254 7622   EALLOW
    3950                      .dwpsn  file "C:/ti/motorware/motorware_1_01_00_14/sw/drivers/pwm/src/32b/f28x/f2806x/pwm.h",line 969
    3951 00000255 D070          MOVB      XAR0,#112             ; [CPU_] |969| 
    3952 00000256 0217          MOVB      ACC,#23               ; [CPU_] |969| 
    3953 00000257 0794          ADDL      ACC,*+XAR4[AR0]       ; [CPU_] |969| 
    3954 00000258 1EA6          MOVL      XAR6,ACC              ; [CPU_] |969| 
    3955 00000259 56BF          MOVB      *+XAR6[0],#4,UNC      ; [CPU_] |969| 
         0000025a 04C6 
    3956 0000025b 761A   EDIS
    3957 0000025c 7622   EALLOW
    3958 0000025d D072          MOVB      XAR0,#114             ; [CPU_] |969| 
    3959 0000025e 0217          MOVB      ACC,#23               ; [CPU_] |969| 
    3960 0000025f 0794          ADDL      ACC,*+XAR4[AR0]       ; [CPU_] |969| 
    3961 00000260 1EA6          MOVL      XAR6,ACC              ; [CPU_] |969| 
    3962 00000261 56BF          MOVB      *+XAR6[0],#4,UNC      ; [CPU_] |969| 
         00000262 04C6 
    3963 00000263 761A   EDIS
    3964 00000264 7622   EALLOW
    3965 00000265 D074          MOVB      XAR0,#116             ; [CPU_] |969| 
    3966 00000266 0217          MOVB      ACC,#23               ; [CPU_] |969| 
    3967 00000267 0794          ADDL      ACC,*+XAR4[AR0]       ; [CPU_] |969| 
    3968                      .dwpsn  file "C:/ti/motorware/motorware_1_01_00_14/sw/drivers/pwm/src/32b/f28x/f2806x/pwm.h",line 973
    3969 00000268 6F16          B         $C$L48,UNC            ; [CPU_] |973| 
    3970                      ; branch occurs ; [] |973| 
    3971 00000269       $C$L47:    
    3972                      .dwpsn  file "C:/ti/motorware/motorware_1_01_00_14/sw/modules/hal/boards/boostxldrv8301_revB/f28x/f28
    3973 00000269 C506-         MOVL      XAR7,@_halHandle      ; [CPU_] |305| 
    3974 0000026a 8AA7          MOVL      XAR4,XAR7             ; [CPU_] |305| 
    3975 0000026b DC72          ADDB      XAR4,#114             ; [CPU_] |305| 
    3976 0000026c 7622   EALLOW
    3977                      .dwpsn  file "C:/ti/motorware/motorware_1_01_00_14/sw/drivers/pwm/src/32b/f28x/f2806x/pwm.h",line 969
    3978 0000026d D070          MOVB      XAR0,#112             ; [CPU_] |969| 
    3979 0000026e 0217          MOVB      ACC,#23               ; [CPU_] |969| 
    3980 0000026f 0797          ADDL      ACC,*+XAR7[AR0]       ; [CPU_] |969| 
    3981 00000270 1EA6          MOVL      XAR6,ACC              ; [CPU_] |969| 
TMS320C2000 Assembler PC v6.4.4 Wed Jul 08 12:49:31 2015

Tools Copyright (c) 1996-2015 Texas Instruments Incorporated
C:\Users\grant\AppData\Local\Temp\0448010                            PAGE   80

    3982 00000271 56BF          MOVB      *+XAR6[0],#4,UNC      ; [CPU_] |969| 
         00000272 04C6 
    3983 00000273 761A   EDIS
    3984 00000274 7622   EALLOW
    3985 00000275 0217          MOVB      ACC,#23               ; [CPU_] |969| 
    3986 00000276 07C4          ADDL      ACC,*+XAR4[0]         ; [CPU_] |969| 
    3987 00000277 1EA6          MOVL      XAR6,ACC              ; [CPU_] |969| 
    3988 00000278 56BF          MOVB      *+XAR6[0],#4,UNC      ; [CPU_] |969| 
         00000279 04C6 
    3989 0000027a 761A   EDIS
    3990 0000027b 7622   EALLOW
    3991 0000027c 0217          MOVB      ACC,#23               ; [CPU_] |969| 
    3992 0000027d 07D4          ADDL      ACC,*+XAR4[2]         ; [CPU_] |969| 
    3993 0000027e       $C$L48:    
    3994 0000027e 8AA9          MOVL      XAR4,ACC              ; [CPU_] |969| 
    3995 0000027f 56BF          MOVB      *+XAR4[0],#4,UNC      ; [CPU_] |969| 
         00000280 04C4 
    3996 00000281 761A   EDIS
    3997 00000282       $C$L49:    
    3998                      .dwpsn  file "../proj_lab20.c",line 377,column 11,is_stmt,isa 0
    3999 00000282 D0F5          MOVB      XAR0,#245             ; [CPU_] |377| 
    4000 00000283 9295          MOV       AL,*+XAR5[AR0]        ; [CPU_] |377| 
    4001 00000284 5201          CMPB      AL,#1                 ; [CPU_] |377| 
    4002 00000285 ED2F          BF        $C$L51,NEQ            ; [CPU_] |377| 
    4003                      ; branchcc occurs ; [] |377| 
    4004 00000286 9245          MOV       AL,*-SP[5]            ; [CPU_] 
    4005 00000287 5201          CMPB      AL,#1                 ; [CPU_] |377| 
    4006 00000288 56C9          BF        $C$L51,LOS            ; [CPU_] |377| 
         00000289 002C 
    4007                      ; branchcc occurs ; [] |377| 
    4008 0000028a 761F-         MOVW      DP,#_gMotorVars+16    ; [CPU_U] 
         0000028b 0002 
    4009 0000028c 9210-         MOV       AL,@_gMotorVars+16    ; [CPU_] |377| 
    4010 0000028d 5206          CMPB      AL,#6                 ; [CPU_] |377| 
    4011 0000028e ED26          BF        $C$L51,NEQ            ; [CPU_] |377| 
    4012                      ; branchcc occurs ; [] |377| 
    4013 0000028f FF69          SPM       #0                    ; [CPU_] 
    4014                      .dwpsn  file "../proj_lab20.c",line 382,column 13,is_stmt,isa 0
    4015 00000290 8AA5          MOVL      XAR4,XAR5             ; [CPU_] |382| 
    4016              $C$DW$372       .dwtag  DW_TAG_TI_branch
    4017                      .dwattr $C$DW$372, DW_AT_low_pc(0x00)
    4018                      .dwattr $C$DW$372, DW_AT_name("_USER_softwareUpdate1p6")
    4019                      .dwattr $C$DW$372, DW_AT_TI_call
    4020 00000291 7640!         LCR       #_USER_softwareUpdate1p6 ; [CPU_] |382| 
         00000292 0000 
    4021                      ; call occurs [#_USER_softwareUpdate1p6] ; [] |382| 
    4022 00000293 6F21          B         $C$L51,UNC            ; [CPU_] |382| 
    4023                      ; branch occurs ; [] |382| 
    4024 00000294       $C$L50:    
    4025                      .dwpsn  file "C:/ti/motorware/motorware_1_01_00_14/sw/modules/ctrl/src/32b/ctrl.h",line 1218,column 3
    4026 00000294 D0F0          MOVB      XAR0,#240             ; [CPU_] |1218| 
    4027 00000295 761F-         MOVW      DP,#_gMotorVars       ; [CPU_U] 
         00000296 0002 
    4028 00000297 2B94          MOV       *+XAR4[AR0],#0        ; [CPU_] |1218| 
    4029                      .dwpsn  file "../proj_lab20.c",line 313,column 9,is_stmt,isa 0
TMS320C2000 Assembler PC v6.4.4 Wed Jul 08 12:49:31 2015

Tools Copyright (c) 1996-2015 Texas Instruments Incorporated
C:\Users\grant\AppData\Local\Temp\0448010                            PAGE   81

    4030 00000298 2B00-         MOV       @_gMotorVars,#0       ; [CPU_] |313| 
    4031 00000299 761F-         MOVW      DP,#_halHandle        ; [CPU_U] 
         0000029a 0000 
    4032                      .dwpsn  file "C:/ti/motorware/motorware_1_01_00_14/sw/modules/hal/boards/boostxldrv8301_revB/f28x/f28
    4033 0000029b 8306-         MOVL      XAR5,@_halHandle      ; [CPU_] |263| 
    4034 0000029c 8AA5          MOVL      XAR4,XAR5             ; [CPU_] |263| 
    4035 0000029d DC72          ADDB      XAR4,#114             ; [CPU_] |263| 
    4036 0000029e 7622   EALLOW
    4037                      .dwpsn  file "C:/ti/motorware/motorware_1_01_00_14/sw/drivers/pwm/src/32b/f28x/f2806x/pwm.h",line 157
    4038 0000029f 0218          MOVB      ACC,#24               ; [CPU_] |1574| 
    4039 000002a0 D070          MOVB      XAR0,#112             ; [CPU_] |1574| 
    4040 000002a1 0795          ADDL      ACC,*+XAR5[AR0]       ; [CPU_] |1574| 
    4041 000002a2 83A9          MOVL      XAR5,ACC              ; [CPU_] |1574| 
    4042 000002a3 1AC5          OR        *+XAR5[0],#0x0004     ; [CPU_] |1574| 
         000002a4 0004 
    4043 000002a5 761A   EDIS
    4044 000002a6 7622   EALLOW
    4045 000002a7 0218          MOVB      ACC,#24               ; [CPU_] |1574| 
    4046 000002a8 07C4          ADDL      ACC,*+XAR4[0]         ; [CPU_] |1574| 
    4047 000002a9 83A9          MOVL      XAR5,ACC              ; [CPU_] |1574| 
    4048 000002aa 1AC5          OR        *+XAR5[0],#0x0004     ; [CPU_] |1574| 
         000002ab 0004 
    4049 000002ac 761A   EDIS
    4050 000002ad 7622   EALLOW
    4051 000002ae 0218          MOVB      ACC,#24               ; [CPU_] |1574| 
    4052 000002af 07D4          ADDL      ACC,*+XAR4[2]         ; [CPU_] |1574| 
    4053 000002b0 8AA9          MOVL      XAR4,ACC              ; [CPU_] |1574| 
    4054 000002b1 1AC4          OR        *+XAR4[0],#0x0004     ; [CPU_] |1574| 
         000002b2 0004 
    4055 000002b3 761A   EDIS
    4056 000002b4       $C$L51:    
    4057                      .dwpsn  file "../proj_lab20.c",line 388,column 7,is_stmt,isa 0
    4058 000002b4 D018          MOVB      XAR0,#24              ; [CPU_] |388| 
    4059 000002b5 FF69          SPM       #0                    ; [CPU_] 
    4060 000002b6 8A91          MOVL      XAR4,*+XAR1[AR0]      ; [CPU_] |388| 
    4061              $C$DW$373       .dwtag  DW_TAG_TI_branch
    4062                      .dwattr $C$DW$373, DW_AT_low_pc(0x00)
    4063                      .dwattr $C$DW$373, DW_AT_name("_EST_isMotorIdentified")
    4064                      .dwattr $C$DW$373, DW_AT_TI_call
    4065 000002b7 7640!         LCR       #_EST_isMotorIdentified ; [CPU_] |388| 
         000002b8 0000 
    4066                      ; call occurs [#_EST_isMotorIdentified] ; [] |388| 
    4067 000002b9 5200          CMPB      AL,#0                 ; [CPU_] |388| 
    4068 000002ba EC3A          BF        $C$L52,EQ             ; [CPU_] |388| 
    4069                      ; branchcc occurs ; [] |388| 
    4070                      .dwpsn  file "../proj_lab20.c",line 391,column 9,is_stmt,isa 0
    4071 000002bb D018          MOVB      XAR0,#24              ; [CPU_] |391| 
    4072 000002bc 761F-         MOVW      DP,#_gMaxCurrentSlope ; [CPU_U] 
         000002bd 0000 
    4073 000002be 8A91          MOVL      XAR4,*+XAR1[AR0]      ; [CPU_] |391| 
    4074 000002bf 0608-         MOVL      ACC,@_gMaxCurrentSlope ; [CPU_] |391| 
    4075              $C$DW$374       .dwtag  DW_TAG_TI_branch
    4076                      .dwattr $C$DW$374, DW_AT_low_pc(0x00)
    4077                      .dwattr $C$DW$374, DW_AT_name("_EST_setMaxCurrentSlope_pu")
    4078                      .dwattr $C$DW$374, DW_AT_TI_call
TMS320C2000 Assembler PC v6.4.4 Wed Jul 08 12:49:31 2015

Tools Copyright (c) 1996-2015 Texas Instruments Incorporated
C:\Users\grant\AppData\Local\Temp\0448010                            PAGE   82

    4079 000002c0 7640!         LCR       #_EST_setMaxCurrentSlope_pu ; [CPU_] |391| 
         000002c1 0000 
    4080                      ; call occurs [#_EST_setMaxCurrentSlope_pu] ; [] |391| 
    4081                      .dwpsn  file "../proj_lab20.c",line 392,column 9,is_stmt,isa 0
    4082 000002c2 8D80-         MOVL      XAR2,#_gMotorVars     ; [CPU_U] |392| 
         000002c3 0080 
    4083 000002c4 761F-         MOVW      DP,#_ctrlHandle       ; [CPU_U] 
         000002c5 0000 
    4084                      .dwpsn  file "../proj_lab20.c",line 395,column 9,is_stmt,isa 0
    4085 000002c6 D016          MOVB      XAR0,#22              ; [CPU_] |395| 
    4086                      .dwpsn  file "../proj_lab20.c",line 392,column 9,is_stmt,isa 0
    4087 000002c7 56BF          MOVB      *+XAR2[2],#1,UNC      ; [CPU_] |392| 
         000002c8 01D2 
    4088                      .dwpsn  file "../proj_lab20.c",line 395,column 9,is_stmt,isa 0
    4089 000002c9 8A16-         MOVL      XAR4,@_ctrlHandle     ; [CPU_] |395| 
    4090 000002ca 0692          MOVL      ACC,*+XAR2[AR0]       ; [CPU_] |395| 
    4091              $C$DW$375       .dwtag  DW_TAG_TI_branch
    4092                      .dwattr $C$DW$375, DW_AT_low_pc(0x00)
    4093                      .dwattr $C$DW$375, DW_AT_name("_CTRL_setSpd_ref_krpm")
    4094                      .dwattr $C$DW$375, DW_AT_TI_call
    4095 000002cb 7640!         LCR       #_CTRL_setSpd_ref_krpm ; [CPU_] |395| 
         000002cc 0000 
    4096                      ; call occurs [#_CTRL_setSpd_ref_krpm] ; [] |395| 
    4097 000002cd 761F-         MOVW      DP,#_ctrlHandle       ; [CPU_U] 
         000002ce 0000 
    4098                      .dwpsn  file "../proj_lab20.c",line 398,column 9,is_stmt,isa 0
    4099 000002cf D01A          MOVB      XAR0,#26              ; [CPU_] |398| 
    4100 000002d0 8F40          MOVL      XAR5,#1398            ; [CPU_U] |398| 
         000002d1 0576 
    4101 000002d2 A0AC          MOVL      XT,XAR5               ; [CPU_] |398| 
    4102 000002d3 8A16-         MOVL      XAR4,@_ctrlHandle     ; [CPU_] |398| 
    4103 000002d4 5605          IMPYL     P,XT,*+XAR2[AR0]      ; [CPU_] |398| 
         000002d5 0092 
    4104 000002d6 5663          QMPYL     ACC,XT,*+XAR2[AR0]    ; [CPU_] |398| 
         000002d7 0092 
    4105                      .dwpsn  file "C:/ti/motorware/motorware_1_01_00_14/sw/modules/ctrl/src/32b/ctrl.h",line 1560,column 3
    4106 000002d8 D076          MOVB      XAR0,#118             ; [CPU_] |1560| 
    4107                      .dwpsn  file "../proj_lab20.c",line 398,column 9,is_stmt,isa 0
    4108 000002d9 56A7          LSL64     ACC:P,#8              ; [CPU_] |398| 
    4109                      .dwpsn  file "C:/ti/motorware/motorware_1_01_00_14/sw/modules/ctrl/src/32b/ctrl.h",line 1560,column 3
    4110 000002da 1E94          MOVL      *+XAR4[AR0],ACC       ; [CPU_] |1560| 
    4111                      .dwpsn  file "../proj_lab20.c",line 399,column 9,is_stmt,isa 0
    4112 000002db 9201-         MOV       AL,@_Flag_Latch_softwareUpdate ; [CPU_] |399| 
    4113 000002dc EC24          BF        $C$L53,EQ             ; [CPU_] |399| 
    4114                      ; branchcc occurs ; [] |399| 
    4115                      .dwpsn  file "../proj_lab20.c",line 401,column 11,is_stmt,isa 0
    4116 000002dd 2B01-         MOV       @_Flag_Latch_softwareUpdate,#0 ; [CPU_] |401| 
    4117                      .dwpsn  file "../proj_lab20.c",line 403,column 11,is_stmt,isa 0
    4118              $C$DW$376       .dwtag  DW_TAG_TI_branch
    4119                      .dwattr $C$DW$376, DW_AT_low_pc(0x00)
    4120                      .dwattr $C$DW$376, DW_AT_name("_USER_calcPIgains")
    4121                      .dwattr $C$DW$376, DW_AT_TI_call
    4122 000002de 7640!         LCR       #_USER_calcPIgains    ; [CPU_] |403| 
         000002df 0000 
    4123                      ; call occurs [#_USER_calcPIgains] ; [] |403| 
TMS320C2000 Assembler PC v6.4.4 Wed Jul 08 12:49:31 2015

Tools Copyright (c) 1996-2015 Texas Instruments Incorporated
C:\Users\grant\AppData\Local\Temp\0448010                            PAGE   83

    4124 000002e0 761F-         MOVW      DP,#_ctrlHandle       ; [CPU_U] 
         000002e1 0000 
    4125                      .dwpsn  file "../proj_lab20.c",line 406,column 11,is_stmt,isa 0
    4126 000002e2 8A16-         MOVL      XAR4,@_ctrlHandle     ; [CPU_] |406| 
    4127 000002e3 D0CA          MOVB      XAR0,#202             ; [CPU_] |406| 
    4128 000002e4 0694          MOVL      ACC,*+XAR4[AR0]       ; [CPU_] |406| 
    4129 000002e5 D046          MOVB      XAR0,#70              ; [CPU_] |406| 
    4130 000002e6 1E92          MOVL      *+XAR2[AR0],ACC       ; [CPU_] |406| 
    4131                      .dwpsn  file "../proj_lab20.c",line 407,column 11,is_stmt,isa 0
    4132 000002e7 D0D0          MOVB      XAR0,#208             ; [CPU_] |407| 
    4133 000002e8 0694          MOVL      ACC,*+XAR4[AR0]       ; [CPU_] |407| 
    4134 000002e9 D048          MOVB      XAR0,#72              ; [CPU_] |407| 
    4135 000002ea 1E92          MOVL      *+XAR2[AR0],ACC       ; [CPU_] |407| 
    4136                      .dwpsn  file "../proj_lab20.c",line 410,column 11,is_stmt,isa 0
    4137 000002eb D0CE          MOVB      XAR0,#206             ; [CPU_] |410| 
    4138 000002ec 0694          MOVL      ACC,*+XAR4[AR0]       ; [CPU_] |410| 
    4139 000002ed D042          MOVB      XAR0,#66              ; [CPU_] |410| 
    4140 000002ee 1E92          MOVL      *+XAR2[AR0],ACC       ; [CPU_] |410| 
    4141                      .dwpsn  file "../proj_lab20.c",line 411,column 11,is_stmt,isa 0
    4142 000002ef D0D4          MOVB      XAR0,#212             ; [CPU_] |411| 
    4143 000002f0 0694          MOVL      ACC,*+XAR4[AR0]       ; [CPU_] |411| 
    4144 000002f1 D044          MOVB      XAR0,#68              ; [CPU_] |411| 
    4145 000002f2 1E92          MOVL      *+XAR2[AR0],ACC       ; [CPU_] |411| 
    4146 000002f3 6F0D          B         $C$L53,UNC            ; [CPU_] |411| 
    4147                      ; branch occurs ; [] |411| 
    4148 000002f4       $C$L52:    
    4149 000002f4 761F-         MOVW      DP,#_Flag_Latch_softwareUpdate ; [CPU_U] 
         000002f5 0000 
    4150                      .dwpsn  file "../proj_lab20.c",line 420,column 9,is_stmt,isa 0
    4151 000002f6 D018          MOVB      XAR0,#24              ; [CPU_] |420| 
    4152                      .dwpsn  file "../proj_lab20.c",line 417,column 9,is_stmt,isa 0
    4153 000002f7 56BF-         MOVB      @_Flag_Latch_softwareUpdate,#1,UNC ; [CPU_] |417| 
         000002f8 0101 
    4154                      .dwpsn  file "../proj_lab20.c",line 420,column 9,is_stmt,isa 0
    4155 000002f9 8A91          MOVL      XAR4,*+XAR1[AR0]      ; [CPU_] |420| 
    4156              $C$DW$377       .dwtag  DW_TAG_TI_branch
    4157                      .dwattr $C$DW$377, DW_AT_low_pc(0x00)
    4158                      .dwattr $C$DW$377, DW_AT_name("_EST_getMaxCurrentSlope_pu")
    4159                      .dwattr $C$DW$377, DW_AT_TI_call
    4160 000002fa 7640!         LCR       #_EST_getMaxCurrentSlope_pu ; [CPU_] |420| 
         000002fb 0000 
    4161                      ; call occurs [#_EST_getMaxCurrentSlope_pu] ; [] |420| 
    4162 000002fc 761F-         MOVW      DP,#_gMaxCurrentSlope ; [CPU_U] 
         000002fd 0000 
    4163 000002fe 1E08-         MOVL      @_gMaxCurrentSlope,ACC ; [CPU_] |420| 
    4164 000002ff 8A16-         MOVL      XAR4,@_ctrlHandle     ; [CPU_] |420| 
    4165 00000300       $C$L53:    
    4166                      .dwpsn  file "../proj_lab20.c",line 425,column 7,is_stmt,isa 0
    4167 00000300 9200-         MOV       AL,@_gCounter_updateGlobals ; [CPU_] |425| 
    4168 00000301 EC07          BF        $C$L54,EQ             ; [CPU_] |425| 
    4169                      ; branchcc occurs ; [] |425| 
    4170                      .dwpsn  file "../proj_lab20.c",line 428,column 9,is_stmt,isa 0
    4171 00000302 2B00-         MOV       @_gCounter_updateGlobals,#0 ; [CPU_] |428| 
    4172                      .dwpsn  file "../proj_lab20.c",line 430,column 9,is_stmt,isa 0
    4173              $C$DW$378       .dwtag  DW_TAG_TI_branch
TMS320C2000 Assembler PC v6.4.4 Wed Jul 08 12:49:31 2015

Tools Copyright (c) 1996-2015 Texas Instruments Incorporated
C:\Users\grant\AppData\Local\Temp\0448010                            PAGE   84

    4174                      .dwattr $C$DW$378, DW_AT_low_pc(0x00)
    4175                      .dwattr $C$DW$378, DW_AT_name("_updateGlobalVariables_motor")
    4176                      .dwattr $C$DW$378, DW_AT_TI_call
    4177 00000303 7640'         LCR       #_updateGlobalVariables_motor ; [CPU_] |430| 
         00000304 0022 
    4178                      ; call occurs [#_updateGlobalVariables_motor] ; [] |430| 
    4179 00000305 761F-         MOVW      DP,#_ctrlHandle       ; [CPU_U] 
         00000306 0000 
    4180 00000307 8A16-         MOVL      XAR4,@_ctrlHandle     ; [CPU_] |430| 
    4181 00000308       $C$L54:    
    4182                      .dwpsn  file "../proj_lab20.c",line 435,column 7,is_stmt,isa 0
    4183              $C$DW$379       .dwtag  DW_TAG_TI_branch
    4184                      .dwattr $C$DW$379, DW_AT_low_pc(0x00)
    4185                      .dwattr $C$DW$379, DW_AT_name("_updateKpKiGains")
    4186                      .dwattr $C$DW$379, DW_AT_TI_call
    4187 00000308 7640'         LCR       #_updateKpKiGains     ; [CPU_] |435| 
         00000309 0000 
    4188                      ; call occurs [#_updateKpKiGains] ; [] |435| 
    4189                      .dwpsn  file "../proj_lab20.c",line 438,column 7,is_stmt,isa 0
    4190 0000030a D018          MOVB      XAR0,#24              ; [CPU_] |438| 
    4191 0000030b 8A91          MOVL      XAR4,*+XAR1[AR0]      ; [CPU_] |438| 
    4192 0000030c 8D40-         MOVL      XAR1,#_gMotorVars     ; [CPU_U] |438| 
         0000030d 0080 
    4193 0000030e 92D9          MOV       AL,*+XAR1[3]          ; [CPU_] |438| 
    4194              $C$DW$380       .dwtag  DW_TAG_TI_branch
    4195                      .dwattr $C$DW$380, DW_AT_low_pc(0x00)
    4196                      .dwattr $C$DW$380, DW_AT_name("_EST_setFlag_enableForceAngle")
    4197                      .dwattr $C$DW$380, DW_AT_TI_call
    4198 0000030f 7640!         LCR       #_EST_setFlag_enableForceAngle ; [CPU_] |438| 
         00000310 0000 
    4199                      ; call occurs [#_EST_setFlag_enableForceAngle] ; [] |438| 
    4200                      .dwpsn  file "../proj_lab20.c",line 441,column 7,is_stmt,isa 0
    4201 00000311 D008          MOVB      XAR0,#8               ; [CPU_] |441| 
    4202 00000312 761F-         MOVW      DP,#_ctrlHandle       ; [CPU_U] 
         00000313 0000 
    4203                      .dwpsn  file "C:/ti/motorware/motorware_1_01_00_14/sw/modules/ctrl/src/32b/ctrl.h",line 1262,column 3
    4204 00000314 02F2          MOVB      ACC,#242              ; [CPU_] |1262| 
    4205                      .dwpsn  file "../proj_lab20.c",line 441,column 7,is_stmt,isa 0
    4206 00000315 8891          MOVZ      AR6,*+XAR1[AR0]       ; [CPU_] |441| 
    4207                      .dwpsn  file "C:/ti/motorware/motorware_1_01_00_14/sw/modules/ctrl/src/32b/ctrl.h",line 1262,column 3
    4208 00000316 0716-         ADDL      ACC,@_ctrlHandle      ; [CPU_] |1262| 
    4209 00000317 8AA9          MOVL      XAR4,ACC              ; [CPU_] |1262| 
    4210                      .dwpsn  file "../proj_lab20.c",line 444,column 7,is_stmt,isa 0
    4211 00000318 83A3          MOVL      XAR5,XAR3             ; [CPU_] |444| 
    4212                      .dwpsn  file "C:/ti/motorware/motorware_1_01_00_14/sw/modules/ctrl/src/32b/ctrl.h",line 1262,column 3
    4213 00000319 7EC4          MOV       *+XAR4[0],AR6         ; [CPU_] |1262| 
    4214                      .dwpsn  file "../proj_lab20.c",line 444,column 7,is_stmt,isa 0
    4215 0000031a 8A06-         MOVL      XAR4,@_halHandle      ; [CPU_] |444| 
    4216              $C$DW$381       .dwtag  DW_TAG_TI_branch
    4217                      .dwattr $C$DW$381, DW_AT_low_pc(0x00)
    4218                      .dwattr $C$DW$381, DW_AT_name("_HAL_writeDrvData")
    4219                      .dwattr $C$DW$381, DW_AT_TI_call
    4220 0000031b 7640!         LCR       #_HAL_writeDrvData    ; [CPU_] |444| 
         0000031c 0000 
    4221                      ; call occurs [#_HAL_writeDrvData] ; [] |444| 
TMS320C2000 Assembler PC v6.4.4 Wed Jul 08 12:49:31 2015

Tools Copyright (c) 1996-2015 Texas Instruments Incorporated
C:\Users\grant\AppData\Local\Temp\0448010                            PAGE   85

    4222 0000031d 761F-         MOVW      DP,#_halHandle        ; [CPU_U] 
         0000031e 0000 
    4223                      .dwpsn  file "../proj_lab20.c",line 446,column 7,is_stmt,isa 0
    4224 0000031f 83A3          MOVL      XAR5,XAR3             ; [CPU_] |446| 
    4225 00000320 8A06-         MOVL      XAR4,@_halHandle      ; [CPU_] |446| 
    4226              $C$DW$382       .dwtag  DW_TAG_TI_branch
    4227                      .dwattr $C$DW$382, DW_AT_low_pc(0x00)
    4228                      .dwattr $C$DW$382, DW_AT_name("_HAL_readDrvData")
    4229                      .dwattr $C$DW$382, DW_AT_TI_call
    4230 00000321 7640!         LCR       #_HAL_readDrvData     ; [CPU_] |446| 
         00000322 0000 
    4231                      ; call occurs [#_HAL_readDrvData] ; [] |446| 
    4232 00000323 761F-         MOVW      DP,#_ctrlHandle       ; [CPU_U] 
         00000324 0000 
    4233 00000325 8B16-         MOVL      XAR1,@_ctrlHandle     ; [CPU_] |446| 
    4234 00000326       $C$L55:    
    4235                      .dwpsn  file "../proj_lab20.c",line 290,column 5,is_stmt,isa 0
    4236 00000326 8D80-         MOVL      XAR2,#_gMotorVars     ; [CPU_U] |290| 
         00000327 0080 
    4237 00000328 92C2          MOV       AL,*+XAR2[0]          ; [CPU_] |290| 
    4238 00000329 56C0          BF        $C$L35,NEQ            ; [CPU_] |290| 
         0000032a FE7A 
    4239                      ; branchcc occurs ; [] |290| 
    4240                      .dwpsn  file "C:/ti/motorware/motorware_1_01_00_14/sw/modules/hal/boards/boostxldrv8301_revB/f28x/f28
    4241 0000032b 8306-         MOVL      XAR5,@_halHandle      ; [CPU_] |263| 
    4242 0000032c 8AA5          MOVL      XAR4,XAR5             ; [CPU_] |263| 
    4243 0000032d DC72          ADDB      XAR4,#114             ; [CPU_] |263| 
    4244 0000032e 7622   EALLOW
    4245                      .dwpsn  file "C:/ti/motorware/motorware_1_01_00_14/sw/drivers/pwm/src/32b/f28x/f2806x/pwm.h",line 157
    4246 0000032f D070          MOVB      XAR0,#112             ; [CPU_] |1574| 
    4247 00000330 0218          MOVB      ACC,#24               ; [CPU_] |1574| 
    4248 00000331 0795          ADDL      ACC,*+XAR5[AR0]       ; [CPU_] |1574| 
    4249 00000332 83A9          MOVL      XAR5,ACC              ; [CPU_] |1574| 
    4250 00000333 1AC5          OR        *+XAR5[0],#0x0004     ; [CPU_] |1574| 
         00000334 0004 
    4251 00000335 761A   EDIS
    4252 00000336 7622   EALLOW
    4253 00000337 0218          MOVB      ACC,#24               ; [CPU_] |1574| 
    4254 00000338 07C4          ADDL      ACC,*+XAR4[0]         ; [CPU_] |1574| 
    4255 00000339 83A9          MOVL      XAR5,ACC              ; [CPU_] |1574| 
    4256 0000033a 1AC5          OR        *+XAR5[0],#0x0004     ; [CPU_] |1574| 
         0000033b 0004 
    4257 0000033c 761A   EDIS
    4258 0000033d 7622   EALLOW
    4259 0000033e 0218          MOVB      ACC,#24               ; [CPU_] |1574| 
    4260 0000033f 07D4          ADDL      ACC,*+XAR4[2]         ; [CPU_] |1574| 
    4261 00000340 8AA9          MOVL      XAR4,ACC              ; [CPU_] |1574| 
    4262 00000341 1AC4          OR        *+XAR4[0],#0x0004     ; [CPU_] |1574| 
         00000342 0004 
    4263 00000343 761A   EDIS
    4264                      .dwpsn  file "../proj_lab20.c",line 456,column 5,is_stmt,isa 0
    4265 00000344 8348          MOVL      XAR5,*-SP[8]          ; [CPU_] |456| 
    4266 00000345 FF69          SPM       #0                    ; [CPU_] 
    4267 00000346 8AA1          MOVL      XAR4,XAR1             ; [CPU_] |456| 
    4268              $C$DW$383       .dwtag  DW_TAG_TI_branch
TMS320C2000 Assembler PC v6.4.4 Wed Jul 08 12:49:31 2015

Tools Copyright (c) 1996-2015 Texas Instruments Incorporated
C:\Users\grant\AppData\Local\Temp\0448010                            PAGE   86

    4269                      .dwattr $C$DW$383, DW_AT_low_pc(0x00)
    4270                      .dwattr $C$DW$383, DW_AT_name("_CTRL_setParams")
    4271                      .dwattr $C$DW$383, DW_AT_TI_call
    4272 00000347 7640!         LCR       #_CTRL_setParams      ; [CPU_] |456| 
         00000348 0000 
    4273                      ; call occurs [#_CTRL_setParams] ; [] |456| 
    4274 00000349 761F-         MOVW      DP,#_gMotorVars+1     ; [CPU_U] 
         0000034a 0002 
    4275                      .dwpsn  file "../proj_lab20.c",line 457,column 5,is_stmt,isa 0
    4276 0000034b 2B01-         MOV       @_gMotorVars+1,#0     ; [CPU_] |457| 
    4277                      .dwpsn  file "../proj_lab20.c",line 459,column 3,is_stmt,isa 0
    4278 0000034c FFEF          B         $C$L34,UNC            ; [CPU_] |459| 
         0000034d FE4B 
    4279                      ; branch occurs ; [] |459| 
    4280 0000034e       $C$L56:    
    4281 0000034e 761F-         MOVW      DP,#_gMotorVars       ; [CPU_U] 
         0000034f 0002 
    4282                      .dwpsn  file "../proj_lab20.c",line 170,column 11,is_stmt,isa 0
    4283 00000350 2B00-         MOV       @_gMotorVars,#0       ; [CPU_] |170| 
    4284                      .dwpsn  file "../proj_lab20.c",line 171,column 9,is_stmt,isa 0
    4285 00000351 6FFD          B         $C$L56,UNC            ; [CPU_] |171| 
    4286                      ; branch occurs ; [] |171| 
    4287                      .dwattr $C$DW$323, DW_AT_TI_end_file("../proj_lab20.c")
    4288                      .dwattr $C$DW$323, DW_AT_TI_end_line(0x1cd)
    4289                      .dwattr $C$DW$323, DW_AT_TI_end_column(0x01)
    4290                      .dwendentry
    4291                      .dwendtag $C$DW$323
    4292              
    4293              ;**************************************************************
    4294              ;* UNDEFINED EXTERNAL REFERENCES                              *
    4295              ;**************************************************************
    4296                      .global _USER_softwareUpdate1p6
    4297                      .global _USER_checkForErrors
    4298                      .global _USER_setParams
    4299                      .global _USER_calcPIgains
    4300                      .global _GPIO_toggle
    4301                      .global _HAL_enableAdcInts
    4302                      .global _HAL_enableDebugInt
    4303                      .global _CTRL_getVersion
    4304                      .global _CTRL_getVdq_out_pu
    4305                      .global _CTRL_setSpd_ref_krpm
    4306                      .global _CTRL_setParams
    4307                      .global _CTRL_setup_user
    4308                      .global _HAL_setParams
    4309                      .global _EST_setFlag_enableForceAngle
    4310                      .global _EST_setFlag_enableRsRecalc
    4311                      .global _HAL_setupFaults
    4312                      .global _EST_run
    4313                      .global _HAL_writeDrvData
    4314                      .global _HAL_setupDrvSpi
    4315                      .global _HAL_readDrvData
    4316                      .global _HAL_enableDrv
    4317                      .global _HAL_enableGlobalInts
    4318                      .global _EST_setMaxCurrentSlope_pu
    4319                      .global _EST_updateId_ref_pu
TMS320C2000 Assembler PC v6.4.4 Wed Jul 08 12:49:31 2015

Tools Copyright (c) 1996-2015 Texas Instruments Incorporated
C:\Users\grant\AppData\Local\Temp\0448010                            PAGE   87

    4320                      .global _EST_setId_ref_pu
    4321                      .global _EST_setIq_ref_pu
    4322                      .global _CTRL_updateState
    4323                      .global _USER_getErrorCode
    4324                      .global _EST_doSpeedCtrl
    4325                      .global _EST_doCurrentCtrl
    4326                      .global _EST_getState
    4327                      .global _EST_isMotorIdentified
    4328                      .global _EST_getAngle_pu
    4329                      .global _EST_getFlux_VpHz
    4330                      .global _EST_get_pu_to_krpm_sf
    4331                      .global _EST_getFm_pu
    4332                      .global __IQ24cosPU
    4333                      .global __IQ24sinPU
    4334                      .global _EST_getRr_Ohm
    4335                      .global _EST_getOneOverDcBus_pu
    4336                      .global _EST_getSpeed_krpm
    4337                      .global _EST_getRs_Ohm
    4338                      .global _EST_getLs_d_H
    4339                      .global _EST_getIdRated
    4340                      .global _EST_getMaxCurrentSlope_pu
    4341                      .global _EST_getLs_q_H
    4342                      .global _USER_computeTorque_Nm
    4343                      .global _USER_computeFlux
    4344                      .global _USER_computeFlux_pu_to_VpHz_sf
    4345                      .global _USER_computeFlux_pu_to_Wb_sf
    4346                      .global _CTRL_initCtrl
    4347                      .global _PARK_init
    4348                      .global _IPARK_init
    4349                      .global _HAL_init
    4350                      .global _CLARKE_init
    4351                      .global _USER_computeTorque_Flux_Iq_pu_to_Nm_sf
    4352                      .global _USER_computeTorque_Ls_Id_Iq_pu_to_Nm_sf
    4353                      .global _SVGEN_init
    4354                      .global _hal
    4355                      .global _memcpy
    4356              
    4357              ;***************************************************************
    4358              ;* TYPE INFORMATION                                            *
    4359              ;***************************************************************
    4360              
    4361              $C$DW$T$42      .dwtag  DW_TAG_enumeration_type
    4362                      .dwattr $C$DW$T$42, DW_AT_byte_size(0x01)
    4363              $C$DW$384       .dwtag  DW_TAG_enumerator, DW_AT_name("CTRL_State_Error"), DW_AT_const_value(0x00)
    4364              $C$DW$385       .dwtag  DW_TAG_enumerator, DW_AT_name("CTRL_State_Idle"), DW_AT_const_value(0x01)
    4365              $C$DW$386       .dwtag  DW_TAG_enumerator, DW_AT_name("CTRL_State_OffLine"), DW_AT_const_value(0x02)
    4366              $C$DW$387       .dwtag  DW_TAG_enumerator, DW_AT_name("CTRL_State_OnLine"), DW_AT_const_value(0x03)
    4367              $C$DW$388       .dwtag  DW_TAG_enumerator, DW_AT_name("CTRL_numStates"), DW_AT_const_value(0x04)
    4368                      .dwendtag $C$DW$T$42
    4369              
    4370              $C$DW$T$43      .dwtag  DW_TAG_typedef, DW_AT_name("CTRL_State_e")
    4371                      .dwattr $C$DW$T$43, DW_AT_type(*$C$DW$T$42)
    4372                      .dwattr $C$DW$T$43, DW_AT_language(DW_LANG_C)
    4373              
    4374              $C$DW$T$44      .dwtag  DW_TAG_enumeration_type
TMS320C2000 Assembler PC v6.4.4 Wed Jul 08 12:49:31 2015

Tools Copyright (c) 1996-2015 Texas Instruments Incorporated
C:\Users\grant\AppData\Local\Temp\0448010                            PAGE   88

    4375                      .dwattr $C$DW$T$44, DW_AT_byte_size(0x01)
    4376              $C$DW$389       .dwtag  DW_TAG_enumerator, DW_AT_name("CTRL_ErrorCode_NoError"), DW_AT_const_value(0x00)
    4377              $C$DW$390       .dwtag  DW_TAG_enumerator, DW_AT_name("CTRL_ErrorCode_IdClip"), DW_AT_const_value(0x01)
    4378              $C$DW$391       .dwtag  DW_TAG_enumerator, DW_AT_name("CTRL_ErrorCode_EstError"), DW_AT_const_value(0x02)
    4379              $C$DW$392       .dwtag  DW_TAG_enumerator, DW_AT_name("CTRL_numErrorCodes"), DW_AT_const_value(0x03)
    4380                      .dwendtag $C$DW$T$44
    4381              
    4382              $C$DW$T$45      .dwtag  DW_TAG_typedef, DW_AT_name("CTRL_ErrorCode_e")
    4383                      .dwattr $C$DW$T$45, DW_AT_type(*$C$DW$T$44)
    4384                      .dwattr $C$DW$T$45, DW_AT_language(DW_LANG_C)
    4385              
    4386              $C$DW$T$75      .dwtag  DW_TAG_enumeration_type
    4387                      .dwattr $C$DW$T$75, DW_AT_byte_size(0x01)
    4388              $C$DW$393       .dwtag  DW_TAG_enumerator, DW_AT_name("CTRL_TargetProc_2806x"), DW_AT_const_value(0x00)
    4389              $C$DW$394       .dwtag  DW_TAG_enumerator, DW_AT_name("CTRL_TargetProc_2805x"), DW_AT_const_value(0x01)
    4390              $C$DW$395       .dwtag  DW_TAG_enumerator, DW_AT_name("CTRL_TargetProc_2803x"), DW_AT_const_value(0x02)
    4391              $C$DW$396       .dwtag  DW_TAG_enumerator, DW_AT_name("CTRL_TargetProc_2802x"), DW_AT_const_value(0x03)
    4392              $C$DW$397       .dwtag  DW_TAG_enumerator, DW_AT_name("CTRL_TargetProc_Unknown"), DW_AT_const_value(0x04)
    4393                      .dwendtag $C$DW$T$75
    4394              
    4395              $C$DW$T$76      .dwtag  DW_TAG_typedef, DW_AT_name("CTRL_TargetProc_e")
    4396                      .dwattr $C$DW$T$76, DW_AT_type(*$C$DW$T$75)
    4397                      .dwattr $C$DW$T$76, DW_AT_language(DW_LANG_C)
    4398              
    4399              $C$DW$T$82      .dwtag  DW_TAG_enumeration_type
    4400                      .dwattr $C$DW$T$82, DW_AT_byte_size(0x01)
    4401              $C$DW$398       .dwtag  DW_TAG_enumerator, DW_AT_name("GPIO_Number_0"), DW_AT_const_value(0x00)
    4402              $C$DW$399       .dwtag  DW_TAG_enumerator, DW_AT_name("GPIO_Number_1"), DW_AT_const_value(0x01)
    4403              $C$DW$400       .dwtag  DW_TAG_enumerator, DW_AT_name("GPIO_Number_2"), DW_AT_const_value(0x02)
    4404              $C$DW$401       .dwtag  DW_TAG_enumerator, DW_AT_name("GPIO_Number_3"), DW_AT_const_value(0x03)
    4405              $C$DW$402       .dwtag  DW_TAG_enumerator, DW_AT_name("GPIO_Number_4"), DW_AT_const_value(0x04)
    4406              $C$DW$403       .dwtag  DW_TAG_enumerator, DW_AT_name("GPIO_Number_5"), DW_AT_const_value(0x05)
    4407              $C$DW$404       .dwtag  DW_TAG_enumerator, DW_AT_name("GPIO_Number_6"), DW_AT_const_value(0x06)
    4408              $C$DW$405       .dwtag  DW_TAG_enumerator, DW_AT_name("GPIO_Number_7"), DW_AT_const_value(0x07)
    4409              $C$DW$406       .dwtag  DW_TAG_enumerator, DW_AT_name("GPIO_Number_8"), DW_AT_const_value(0x08)
    4410              $C$DW$407       .dwtag  DW_TAG_enumerator, DW_AT_name("GPIO_Number_9"), DW_AT_const_value(0x09)
    4411              $C$DW$408       .dwtag  DW_TAG_enumerator, DW_AT_name("GPIO_Number_10"), DW_AT_const_value(0x0a)
    4412              $C$DW$409       .dwtag  DW_TAG_enumerator, DW_AT_name("GPIO_Number_11"), DW_AT_const_value(0x0b)
    4413              $C$DW$410       .dwtag  DW_TAG_enumerator, DW_AT_name("GPIO_Number_12"), DW_AT_const_value(0x0c)
    4414              $C$DW$411       .dwtag  DW_TAG_enumerator, DW_AT_name("GPIO_Number_13"), DW_AT_const_value(0x0d)
    4415              $C$DW$412       .dwtag  DW_TAG_enumerator, DW_AT_name("GPIO_Number_14"), DW_AT_const_value(0x0e)
    4416              $C$DW$413       .dwtag  DW_TAG_enumerator, DW_AT_name("GPIO_Number_15"), DW_AT_const_value(0x0f)
    4417              $C$DW$414       .dwtag  DW_TAG_enumerator, DW_AT_name("GPIO_Number_16"), DW_AT_const_value(0x10)
    4418              $C$DW$415       .dwtag  DW_TAG_enumerator, DW_AT_name("GPIO_Number_17"), DW_AT_const_value(0x11)
    4419              $C$DW$416       .dwtag  DW_TAG_enumerator, DW_AT_name("GPIO_Number_18"), DW_AT_const_value(0x12)
    4420              $C$DW$417       .dwtag  DW_TAG_enumerator, DW_AT_name("GPIO_Number_19"), DW_AT_const_value(0x13)
    4421              $C$DW$418       .dwtag  DW_TAG_enumerator, DW_AT_name("GPIO_Number_20"), DW_AT_const_value(0x14)
    4422              $C$DW$419       .dwtag  DW_TAG_enumerator, DW_AT_name("GPIO_Number_21"), DW_AT_const_value(0x15)
    4423              $C$DW$420       .dwtag  DW_TAG_enumerator, DW_AT_name("GPIO_Number_22"), DW_AT_const_value(0x16)
    4424              $C$DW$421       .dwtag  DW_TAG_enumerator, DW_AT_name("GPIO_Number_23"), DW_AT_const_value(0x17)
    4425              $C$DW$422       .dwtag  DW_TAG_enumerator, DW_AT_name("GPIO_Number_24"), DW_AT_const_value(0x18)
    4426              $C$DW$423       .dwtag  DW_TAG_enumerator, DW_AT_name("GPIO_Number_25"), DW_AT_const_value(0x19)
    4427              $C$DW$424       .dwtag  DW_TAG_enumerator, DW_AT_name("GPIO_Number_26"), DW_AT_const_value(0x1a)
    4428              $C$DW$425       .dwtag  DW_TAG_enumerator, DW_AT_name("GPIO_Number_27"), DW_AT_const_value(0x1b)
    4429              $C$DW$426       .dwtag  DW_TAG_enumerator, DW_AT_name("GPIO_Number_28"), DW_AT_const_value(0x1c)
TMS320C2000 Assembler PC v6.4.4 Wed Jul 08 12:49:31 2015

Tools Copyright (c) 1996-2015 Texas Instruments Incorporated
C:\Users\grant\AppData\Local\Temp\0448010                            PAGE   89

    4430              $C$DW$427       .dwtag  DW_TAG_enumerator, DW_AT_name("GPIO_Number_29"), DW_AT_const_value(0x1d)
    4431              $C$DW$428       .dwtag  DW_TAG_enumerator, DW_AT_name("GPIO_Number_30"), DW_AT_const_value(0x1e)
    4432              $C$DW$429       .dwtag  DW_TAG_enumerator, DW_AT_name("GPIO_Number_31"), DW_AT_const_value(0x1f)
    4433              $C$DW$430       .dwtag  DW_TAG_enumerator, DW_AT_name("GPIO_Number_32"), DW_AT_const_value(0x20)
    4434              $C$DW$431       .dwtag  DW_TAG_enumerator, DW_AT_name("GPIO_Number_33"), DW_AT_const_value(0x21)
    4435              $C$DW$432       .dwtag  DW_TAG_enumerator, DW_AT_name("GPIO_Number_34"), DW_AT_const_value(0x22)
    4436              $C$DW$433       .dwtag  DW_TAG_enumerator, DW_AT_name("GPIO_Number_35"), DW_AT_const_value(0x23)
    4437              $C$DW$434       .dwtag  DW_TAG_enumerator, DW_AT_name("GPIO_Number_36"), DW_AT_const_value(0x24)
    4438              $C$DW$435       .dwtag  DW_TAG_enumerator, DW_AT_name("GPIO_Number_37"), DW_AT_const_value(0x25)
    4439              $C$DW$436       .dwtag  DW_TAG_enumerator, DW_AT_name("GPIO_Number_38"), DW_AT_const_value(0x26)
    4440              $C$DW$437       .dwtag  DW_TAG_enumerator, DW_AT_name("GPIO_Number_39"), DW_AT_const_value(0x27)
    4441              $C$DW$438       .dwtag  DW_TAG_enumerator, DW_AT_name("GPIO_Number_40"), DW_AT_const_value(0x28)
    4442              $C$DW$439       .dwtag  DW_TAG_enumerator, DW_AT_name("GPIO_Number_41"), DW_AT_const_value(0x29)
    4443              $C$DW$440       .dwtag  DW_TAG_enumerator, DW_AT_name("GPIO_Number_42"), DW_AT_const_value(0x2a)
    4444              $C$DW$441       .dwtag  DW_TAG_enumerator, DW_AT_name("GPIO_Number_43"), DW_AT_const_value(0x2b)
    4445              $C$DW$442       .dwtag  DW_TAG_enumerator, DW_AT_name("GPIO_Number_44"), DW_AT_const_value(0x2c)
    4446              $C$DW$443       .dwtag  DW_TAG_enumerator, DW_AT_name("GPIO_Number_50"), DW_AT_const_value(0x32)
    4447              $C$DW$444       .dwtag  DW_TAG_enumerator, DW_AT_name("GPIO_Number_51"), DW_AT_const_value(0x33)
    4448              $C$DW$445       .dwtag  DW_TAG_enumerator, DW_AT_name("GPIO_Number_52"), DW_AT_const_value(0x34)
    4449              $C$DW$446       .dwtag  DW_TAG_enumerator, DW_AT_name("GPIO_Number_53"), DW_AT_const_value(0x35)
    4450              $C$DW$447       .dwtag  DW_TAG_enumerator, DW_AT_name("GPIO_Number_54"), DW_AT_const_value(0x36)
    4451              $C$DW$448       .dwtag  DW_TAG_enumerator, DW_AT_name("GPIO_Number_55"), DW_AT_const_value(0x37)
    4452              $C$DW$449       .dwtag  DW_TAG_enumerator, DW_AT_name("GPIO_Number_56"), DW_AT_const_value(0x38)
    4453              $C$DW$450       .dwtag  DW_TAG_enumerator, DW_AT_name("GPIO_Number_57"), DW_AT_const_value(0x39)
    4454              $C$DW$451       .dwtag  DW_TAG_enumerator, DW_AT_name("GPIO_Number_58"), DW_AT_const_value(0x3a)
    4455              $C$DW$452       .dwtag  DW_TAG_enumerator, DW_AT_name("GPIO_numGpios"), DW_AT_const_value(0x3b)
    4456                      .dwendtag $C$DW$T$82
    4457              
    4458              $C$DW$T$83      .dwtag  DW_TAG_typedef, DW_AT_name("GPIO_Number_e")
    4459                      .dwattr $C$DW$T$83, DW_AT_type(*$C$DW$T$82)
    4460                      .dwattr $C$DW$T$83, DW_AT_language(DW_LANG_C)
    4461              $C$DW$453       .dwtag  DW_TAG_TI_far_type
    4462                      .dwattr $C$DW$453, DW_AT_type(*$C$DW$T$83)
    4463              $C$DW$T$203     .dwtag  DW_TAG_const_type
    4464                      .dwattr $C$DW$T$203, DW_AT_type(*$C$DW$453)
    4465              
    4466              $C$DW$T$85      .dwtag  DW_TAG_enumeration_type
    4467                      .dwattr $C$DW$T$85, DW_AT_byte_size(0x01)
    4468              $C$DW$454       .dwtag  DW_TAG_enumerator, DW_AT_name("DRV8301_PeakCurrent_1p70_A"), DW_AT_const_value(0x00)
    4469              $C$DW$455       .dwtag  DW_TAG_enumerator, DW_AT_name("DRV8301_PeakCurrent_0p70_A"), DW_AT_const_value(0x01)
    4470              $C$DW$456       .dwtag  DW_TAG_enumerator, DW_AT_name("DRV8301_PeakCurrent_0p25_A"), DW_AT_const_value(0x02)
    4471                      .dwendtag $C$DW$T$85
    4472              
    4473              $C$DW$T$86      .dwtag  DW_TAG_typedef, DW_AT_name("DRV8301_PeakCurrent_e")
    4474                      .dwattr $C$DW$T$86, DW_AT_type(*$C$DW$T$85)
    4475                      .dwattr $C$DW$T$86, DW_AT_language(DW_LANG_C)
    4476              
    4477              $C$DW$T$87      .dwtag  DW_TAG_enumeration_type
    4478                      .dwattr $C$DW$T$87, DW_AT_byte_size(0x01)
    4479              $C$DW$457       .dwtag  DW_TAG_enumerator, DW_AT_name("DRV8301_Reset_Normal"), DW_AT_const_value(0x00)
    4480              $C$DW$458       .dwtag  DW_TAG_enumerator, DW_AT_name("DRV8301_Reset_All"), DW_AT_const_value(0x04)
    4481                      .dwendtag $C$DW$T$87
    4482              
    4483              $C$DW$T$88      .dwtag  DW_TAG_typedef, DW_AT_name("DRV8301_Reset_e")
    4484                      .dwattr $C$DW$T$88, DW_AT_type(*$C$DW$T$87)
TMS320C2000 Assembler PC v6.4.4 Wed Jul 08 12:49:31 2015

Tools Copyright (c) 1996-2015 Texas Instruments Incorporated
C:\Users\grant\AppData\Local\Temp\0448010                            PAGE   90

    4485                      .dwattr $C$DW$T$88, DW_AT_language(DW_LANG_C)
    4486              
    4487              $C$DW$T$89      .dwtag  DW_TAG_enumeration_type
    4488                      .dwattr $C$DW$T$89, DW_AT_byte_size(0x01)
    4489              $C$DW$459       .dwtag  DW_TAG_enumerator, DW_AT_name("DRV8301_PwmMode_Six_Inputs"), DW_AT_const_value(0x00)
    4490              $C$DW$460       .dwtag  DW_TAG_enumerator, DW_AT_name("DRV8301_PwmMode_Three_Inputs"), DW_AT_const_value(0x08
    4491                      .dwendtag $C$DW$T$89
    4492              
    4493              $C$DW$T$90      .dwtag  DW_TAG_typedef, DW_AT_name("DRV8301_PwmMode_e")
    4494                      .dwattr $C$DW$T$90, DW_AT_type(*$C$DW$T$89)
    4495                      .dwattr $C$DW$T$90, DW_AT_language(DW_LANG_C)
    4496              
    4497              $C$DW$T$91      .dwtag  DW_TAG_enumeration_type
    4498                      .dwattr $C$DW$T$91, DW_AT_byte_size(0x01)
    4499              $C$DW$461       .dwtag  DW_TAG_enumerator, DW_AT_name("DRV8301_OcMode_CurrentLimit"), DW_AT_const_value(0x00)
    4500              $C$DW$462       .dwtag  DW_TAG_enumerator, DW_AT_name("DRV8301_OcMode_LatchShutDown"), DW_AT_const_value(0x10
    4501              $C$DW$463       .dwtag  DW_TAG_enumerator, DW_AT_name("DRV8301_OcMode_ReportOnly"), DW_AT_const_value(0x20)
    4502              $C$DW$464       .dwtag  DW_TAG_enumerator, DW_AT_name("DRV8301_OcMode_Disabled"), DW_AT_const_value(0x30)
    4503                      .dwendtag $C$DW$T$91
    4504              
    4505              $C$DW$T$92      .dwtag  DW_TAG_typedef, DW_AT_name("DRV8301_OcMode_e")
    4506                      .dwattr $C$DW$T$92, DW_AT_type(*$C$DW$T$91)
    4507                      .dwattr $C$DW$T$92, DW_AT_language(DW_LANG_C)
    4508              
    4509              $C$DW$T$93      .dwtag  DW_TAG_enumeration_type
    4510                      .dwattr $C$DW$T$93, DW_AT_byte_size(0x01)
    4511              $C$DW$465       .dwtag  DW_TAG_enumerator, DW_AT_name("DRV8301_VdsLevel_0p060_V"), DW_AT_const_value(0x00)
    4512              $C$DW$466       .dwtag  DW_TAG_enumerator, DW_AT_name("DRV8301_VdsLevel_0p068_V"), DW_AT_const_value(0x40)
    4513              $C$DW$467       .dwtag  DW_TAG_enumerator, DW_AT_name("DRV8301_VdsLevel_0p076_V"), DW_AT_const_value(0x80)
    4514              $C$DW$468       .dwtag  DW_TAG_enumerator, DW_AT_name("DRV8301_VdsLevel_0p086_V"), DW_AT_const_value(0xc0)
    4515              $C$DW$469       .dwtag  DW_TAG_enumerator, DW_AT_name("DRV8301_VdsLevel_0p097_V"), DW_AT_const_value(0x100)
    4516              $C$DW$470       .dwtag  DW_TAG_enumerator, DW_AT_name("DRV8301_VdsLevel_0p109_V"), DW_AT_const_value(0x140)
    4517              $C$DW$471       .dwtag  DW_TAG_enumerator, DW_AT_name("DRV8301_VdsLevel_0p123_V"), DW_AT_const_value(0x180)
    4518              $C$DW$472       .dwtag  DW_TAG_enumerator, DW_AT_name("DRV8301_VdsLevel_0p138_V"), DW_AT_const_value(0x1c0)
    4519              $C$DW$473       .dwtag  DW_TAG_enumerator, DW_AT_name("DRV8301_VdsLevel_0p155_V"), DW_AT_const_value(0x200)
    4520              $C$DW$474       .dwtag  DW_TAG_enumerator, DW_AT_name("DRV8301_VdsLevel_0p175_V"), DW_AT_const_value(0x240)
    4521              $C$DW$475       .dwtag  DW_TAG_enumerator, DW_AT_name("DRV8301_VdsLevel_0p197_V"), DW_AT_const_value(0x280)
    4522              $C$DW$476       .dwtag  DW_TAG_enumerator, DW_AT_name("DRV8301_VdsLevel_0p222_V"), DW_AT_const_value(0x2c0)
    4523              $C$DW$477       .dwtag  DW_TAG_enumerator, DW_AT_name("DRV8301_VdsLevel_0p250_V"), DW_AT_const_value(0x300)
    4524              $C$DW$478       .dwtag  DW_TAG_enumerator, DW_AT_name("DRV8301_VdsLevel_0p282_V"), DW_AT_const_value(0x340)
    4525              $C$DW$479       .dwtag  DW_TAG_enumerator, DW_AT_name("DRV8301_VdsLevel_0p317_V"), DW_AT_const_value(0x380)
    4526              $C$DW$480       .dwtag  DW_TAG_enumerator, DW_AT_name("DRV8301_VdsLevel_0p358_V"), DW_AT_const_value(0x3c0)
    4527              $C$DW$481       .dwtag  DW_TAG_enumerator, DW_AT_name("DRV8301_VdsLevel_0p403_V"), DW_AT_const_value(0x400)
    4528              $C$DW$482       .dwtag  DW_TAG_enumerator, DW_AT_name("DRV8301_VdsLevel_0p454_V"), DW_AT_const_value(0x440)
    4529              $C$DW$483       .dwtag  DW_TAG_enumerator, DW_AT_name("DRV8301_VdsLevel_0p511_V"), DW_AT_const_value(0x480)
    4530              $C$DW$484       .dwtag  DW_TAG_enumerator, DW_AT_name("DRV8301_VdsLevel_0p576_V"), DW_AT_const_value(0x4c0)
    4531              $C$DW$485       .dwtag  DW_TAG_enumerator, DW_AT_name("DRV8301_VdsLevel_0p648_V"), DW_AT_const_value(0x500)
    4532              $C$DW$486       .dwtag  DW_TAG_enumerator, DW_AT_name("DRV8301_VdsLevel_0p730_V"), DW_AT_const_value(0x540)
    4533              $C$DW$487       .dwtag  DW_TAG_enumerator, DW_AT_name("DRV8301_VdsLevel_0p822_V"), DW_AT_const_value(0x580)
    4534              $C$DW$488       .dwtag  DW_TAG_enumerator, DW_AT_name("DRV8301_VdsLevel_0p926_V"), DW_AT_const_value(0x5c0)
    4535              $C$DW$489       .dwtag  DW_TAG_enumerator, DW_AT_name("DRV8301_VdsLevel_1p043_V"), DW_AT_const_value(0x600)
    4536              $C$DW$490       .dwtag  DW_TAG_enumerator, DW_AT_name("DRV8301_VdsLevel_1p175_V"), DW_AT_const_value(0x640)
    4537              $C$DW$491       .dwtag  DW_TAG_enumerator, DW_AT_name("DRV8301_VdsLevel_1p324_V"), DW_AT_const_value(0x680)
    4538              $C$DW$492       .dwtag  DW_TAG_enumerator, DW_AT_name("DRV8301_VdsLevel_1p491_V"), DW_AT_const_value(0x6c0)
    4539              $C$DW$493       .dwtag  DW_TAG_enumerator, DW_AT_name("DRV8301_VdsLevel_1p679_V"), DW_AT_const_value(0x700)
TMS320C2000 Assembler PC v6.4.4 Wed Jul 08 12:49:31 2015

Tools Copyright (c) 1996-2015 Texas Instruments Incorporated
C:\Users\grant\AppData\Local\Temp\0448010                            PAGE   91

    4540              $C$DW$494       .dwtag  DW_TAG_enumerator, DW_AT_name("DRV8301_VdsLevel_1p892_V"), DW_AT_const_value(0x740)
    4541              $C$DW$495       .dwtag  DW_TAG_enumerator, DW_AT_name("DRV8301_VdsLevel_2p131_V"), DW_AT_const_value(0x780)
    4542              $C$DW$496       .dwtag  DW_TAG_enumerator, DW_AT_name("DRV8301_VdsLevel_2p400_V"), DW_AT_const_value(0x7c0)
    4543                      .dwendtag $C$DW$T$93
    4544              
    4545              $C$DW$T$94      .dwtag  DW_TAG_typedef, DW_AT_name("DRV8301_VdsLevel_e")
    4546                      .dwattr $C$DW$T$94, DW_AT_type(*$C$DW$T$93)
    4547                      .dwattr $C$DW$T$94, DW_AT_language(DW_LANG_C)
    4548              
    4549              $C$DW$T$96      .dwtag  DW_TAG_enumeration_type
    4550                      .dwattr $C$DW$T$96, DW_AT_byte_size(0x01)
    4551              $C$DW$497       .dwtag  DW_TAG_enumerator, DW_AT_name("DRV8301_OcTwMode_Both"), DW_AT_const_value(0x00)
    4552              $C$DW$498       .dwtag  DW_TAG_enumerator, DW_AT_name("DRV8301_OcTwMode_OT_Only"), DW_AT_const_value(0x01)
    4553              $C$DW$499       .dwtag  DW_TAG_enumerator, DW_AT_name("DRV8301_OcTwMode_OC_Only"), DW_AT_const_value(0x02)
    4554                      .dwendtag $C$DW$T$96
    4555              
    4556              $C$DW$T$97      .dwtag  DW_TAG_typedef, DW_AT_name("DRV8301_OcTwMode_e")
    4557                      .dwattr $C$DW$T$97, DW_AT_type(*$C$DW$T$96)
    4558                      .dwattr $C$DW$T$97, DW_AT_language(DW_LANG_C)
    4559              
    4560              $C$DW$T$98      .dwtag  DW_TAG_enumeration_type
    4561                      .dwattr $C$DW$T$98, DW_AT_byte_size(0x01)
    4562              $C$DW$500       .dwtag  DW_TAG_enumerator, DW_AT_name("DRV8301_ShuntAmpGain_10VpV"), DW_AT_const_value(0x00)
    4563              $C$DW$501       .dwtag  DW_TAG_enumerator, DW_AT_name("DRV8301_ShuntAmpGain_20VpV"), DW_AT_const_value(0x04)
    4564              $C$DW$502       .dwtag  DW_TAG_enumerator, DW_AT_name("DRV8301_ShuntAmpGain_40VpV"), DW_AT_const_value(0x08)
    4565              $C$DW$503       .dwtag  DW_TAG_enumerator, DW_AT_name("DRV8301_ShuntAmpGain_80VpV"), DW_AT_const_value(0x0c)
    4566                      .dwendtag $C$DW$T$98
    4567              
    4568              $C$DW$T$99      .dwtag  DW_TAG_typedef, DW_AT_name("DRV8301_ShuntAmpGain_e")
    4569                      .dwattr $C$DW$T$99, DW_AT_type(*$C$DW$T$98)
    4570                      .dwattr $C$DW$T$99, DW_AT_language(DW_LANG_C)
    4571              
    4572              $C$DW$T$100     .dwtag  DW_TAG_enumeration_type
    4573                      .dwattr $C$DW$T$100, DW_AT_byte_size(0x01)
    4574              $C$DW$504       .dwtag  DW_TAG_enumerator, DW_AT_name("DRV8301_DcCalMode_Ch1_Load"), DW_AT_const_value(0x00)
    4575              $C$DW$505       .dwtag  DW_TAG_enumerator, DW_AT_name("DRV8301_DcCalMode_Ch1_NoLoad"), DW_AT_const_value(0x10
    4576              $C$DW$506       .dwtag  DW_TAG_enumerator, DW_AT_name("DRV8301_DcCalMode_Ch2_Load"), DW_AT_const_value(0x00)
    4577              $C$DW$507       .dwtag  DW_TAG_enumerator, DW_AT_name("DRV8301_DcCalMode_Ch2_NoLoad"), DW_AT_const_value(0x20
    4578                      .dwendtag $C$DW$T$100
    4579              
    4580              $C$DW$T$101     .dwtag  DW_TAG_typedef, DW_AT_name("DRV8301_DcCalMode_e")
    4581                      .dwattr $C$DW$T$101, DW_AT_type(*$C$DW$T$100)
    4582                      .dwattr $C$DW$T$101, DW_AT_language(DW_LANG_C)
    4583              
    4584              $C$DW$T$102     .dwtag  DW_TAG_enumeration_type
    4585                      .dwattr $C$DW$T$102, DW_AT_byte_size(0x01)
    4586              $C$DW$508       .dwtag  DW_TAG_enumerator, DW_AT_name("DRV8301_OcOffTimeMode_Normal"), DW_AT_const_value(0x00
    4587              $C$DW$509       .dwtag  DW_TAG_enumerator, DW_AT_name("DRV8301_OcOffTimeMode_Ctrl"), DW_AT_const_value(0x40)
    4588                      .dwendtag $C$DW$T$102
    4589              
    4590              $C$DW$T$103     .dwtag  DW_TAG_typedef, DW_AT_name("DRV8301_OcOffTimeMode_e")
    4591                      .dwattr $C$DW$T$103, DW_AT_type(*$C$DW$T$102)
    4592                      .dwattr $C$DW$T$103, DW_AT_language(DW_LANG_C)
    4593              
    4594              $C$DW$T$161     .dwtag  DW_TAG_enumeration_type
TMS320C2000 Assembler PC v6.4.4 Wed Jul 08 12:49:31 2015

Tools Copyright (c) 1996-2015 Texas Instruments Incorporated
C:\Users\grant\AppData\Local\Temp\0448010                            PAGE   92

    4595                      .dwattr $C$DW$T$161, DW_AT_byte_size(0x01)
    4596              $C$DW$510       .dwtag  DW_TAG_enumerator, DW_AT_name("MOTOR_Type_Induction"), DW_AT_const_value(0x00)
    4597              $C$DW$511       .dwtag  DW_TAG_enumerator, DW_AT_name("MOTOR_Type_Pm"), DW_AT_const_value(0x01)
    4598                      .dwendtag $C$DW$T$161
    4599              
    4600              $C$DW$T$162     .dwtag  DW_TAG_typedef, DW_AT_name("MOTOR_Type_e")
    4601                      .dwattr $C$DW$T$162, DW_AT_type(*$C$DW$T$161)
    4602                      .dwattr $C$DW$T$162, DW_AT_language(DW_LANG_C)
    4603              
    4604              $C$DW$T$164     .dwtag  DW_TAG_enumeration_type
    4605                      .dwattr $C$DW$T$164, DW_AT_byte_size(0x01)
    4606              $C$DW$512       .dwtag  DW_TAG_enumerator, DW_AT_name("EST_State_Error"), DW_AT_const_value(0x00)
    4607              $C$DW$513       .dwtag  DW_TAG_enumerator, DW_AT_name("EST_State_Idle"), DW_AT_const_value(0x01)
    4608              $C$DW$514       .dwtag  DW_TAG_enumerator, DW_AT_name("EST_State_RoverL"), DW_AT_const_value(0x02)
    4609              $C$DW$515       .dwtag  DW_TAG_enumerator, DW_AT_name("EST_State_Rs"), DW_AT_const_value(0x03)
    4610              $C$DW$516       .dwtag  DW_TAG_enumerator, DW_AT_name("EST_State_RampUp"), DW_AT_const_value(0x04)
    4611              $C$DW$517       .dwtag  DW_TAG_enumerator, DW_AT_name("EST_State_IdRated"), DW_AT_const_value(0x05)
    4612              $C$DW$518       .dwtag  DW_TAG_enumerator, DW_AT_name("EST_State_RatedFlux_OL"), DW_AT_const_value(0x06)
    4613              $C$DW$519       .dwtag  DW_TAG_enumerator, DW_AT_name("EST_State_RatedFlux"), DW_AT_const_value(0x07)
    4614              $C$DW$520       .dwtag  DW_TAG_enumerator, DW_AT_name("EST_State_RampDown"), DW_AT_const_value(0x08)
    4615              $C$DW$521       .dwtag  DW_TAG_enumerator, DW_AT_name("EST_State_LockRotor"), DW_AT_const_value(0x09)
    4616              $C$DW$522       .dwtag  DW_TAG_enumerator, DW_AT_name("EST_State_Ls"), DW_AT_const_value(0x0a)
    4617              $C$DW$523       .dwtag  DW_TAG_enumerator, DW_AT_name("EST_State_Rr"), DW_AT_const_value(0x0b)
    4618              $C$DW$524       .dwtag  DW_TAG_enumerator, DW_AT_name("EST_State_MotorIdentified"), DW_AT_const_value(0x0c)
    4619              $C$DW$525       .dwtag  DW_TAG_enumerator, DW_AT_name("EST_State_OnLine"), DW_AT_const_value(0x0d)
    4620              $C$DW$526       .dwtag  DW_TAG_enumerator, DW_AT_name("EST_numStates"), DW_AT_const_value(0x0e)
    4621                      .dwendtag $C$DW$T$164
    4622              
    4623              $C$DW$T$165     .dwtag  DW_TAG_typedef, DW_AT_name("EST_State_e")
    4624                      .dwattr $C$DW$T$165, DW_AT_type(*$C$DW$T$164)
    4625                      .dwattr $C$DW$T$165, DW_AT_language(DW_LANG_C)
    4626              
    4627              $C$DW$T$166     .dwtag  DW_TAG_enumeration_type
    4628                      .dwattr $C$DW$T$166, DW_AT_byte_size(0x01)
    4629              $C$DW$527       .dwtag  DW_TAG_enumerator, DW_AT_name("USER_ErrorCode_NoError"), DW_AT_const_value(0x00)
    4630              $C$DW$528       .dwtag  DW_TAG_enumerator, DW_AT_name("USER_ErrorCode_iqFullScaleCurrent_A_High"), DW_AT_cons
    4631              $C$DW$529       .dwtag  DW_TAG_enumerator, DW_AT_name("USER_ErrorCode_iqFullScaleCurrent_A_Low"), DW_AT_const
    4632              $C$DW$530       .dwtag  DW_TAG_enumerator, DW_AT_name("USER_ErrorCode_iqFullScaleVoltage_V_High"), DW_AT_cons
    4633              $C$DW$531       .dwtag  DW_TAG_enumerator, DW_AT_name("USER_ErrorCode_iqFullScaleVoltage_V_Low"), DW_AT_const
    4634              $C$DW$532       .dwtag  DW_TAG_enumerator, DW_AT_name("USER_ErrorCode_iqFullScaleFreq_Hz_High"), DW_AT_const_
    4635              $C$DW$533       .dwtag  DW_TAG_enumerator, DW_AT_name("USER_ErrorCode_iqFullScaleFreq_Hz_Low"), DW_AT_const_v
    4636              $C$DW$534       .dwtag  DW_TAG_enumerator, DW_AT_name("USER_ErrorCode_numPwmTicksPerIsrTick_High"), DW_AT_con
    4637              $C$DW$535       .dwtag  DW_TAG_enumerator, DW_AT_name("USER_ErrorCode_numPwmTicksPerIsrTick_Low"), DW_AT_cons
    4638              $C$DW$536       .dwtag  DW_TAG_enumerator, DW_AT_name("USER_ErrorCode_numIsrTicksPerCtrlTick_High"), DW_AT_co
    4639              $C$DW$537       .dwtag  DW_TAG_enumerator, DW_AT_name("USER_ErrorCode_numIsrTicksPerCtrlTick_Low"), DW_AT_con
    4640              $C$DW$538       .dwtag  DW_TAG_enumerator, DW_AT_name("USER_ErrorCode_numCtrlTicksPerCurrentTick_High"), DW_A
    4641              $C$DW$539       .dwtag  DW_TAG_enumerator, DW_AT_name("USER_ErrorCode_numCtrlTicksPerCurrentTick_Low"), DW_AT
    4642              $C$DW$540       .dwtag  DW_TAG_enumerator, DW_AT_name("USER_ErrorCode_numCtrlTicksPerEstTick_High"), DW_AT_co
    4643              $C$DW$541       .dwtag  DW_TAG_enumerator, DW_AT_name("USER_ErrorCode_numCtrlTicksPerEstTick_Low"), DW_AT_con
    4644              $C$DW$542       .dwtag  DW_TAG_enumerator, DW_AT_name("USER_ErrorCode_numCtrlTicksPerSpeedTick_High"), DW_AT_
    4645              $C$DW$543       .dwtag  DW_TAG_enumerator, DW_AT_name("USER_ErrorCode_numCtrlTicksPerSpeedTick_Low"), DW_AT_c
    4646              $C$DW$544       .dwtag  DW_TAG_enumerator, DW_AT_name("USER_ErrorCode_numCtrlTicksPerTrajTick_High"), DW_AT_c
    4647              $C$DW$545       .dwtag  DW_TAG_enumerator, DW_AT_name("USER_ErrorCode_numCtrlTicksPerTrajTick_Low"), DW_AT_co
    4648              $C$DW$546       .dwtag  DW_TAG_enumerator, DW_AT_name("USER_ErrorCode_numCurrentSensors_High"), DW_AT_const_v
    4649              $C$DW$547       .dwtag  DW_TAG_enumerator, DW_AT_name("USER_ErrorCode_numCurrentSensors_Low"), DW_AT_const_va
TMS320C2000 Assembler PC v6.4.4 Wed Jul 08 12:49:31 2015

Tools Copyright (c) 1996-2015 Texas Instruments Incorporated
C:\Users\grant\AppData\Local\Temp\0448010                            PAGE   93

    4650              $C$DW$548       .dwtag  DW_TAG_enumerator, DW_AT_name("USER_ErrorCode_numVoltageSensors_High"), DW_AT_const_v
    4651              $C$DW$549       .dwtag  DW_TAG_enumerator, DW_AT_name("USER_ErrorCode_numVoltageSensors_Low"), DW_AT_const_va
    4652              $C$DW$550       .dwtag  DW_TAG_enumerator, DW_AT_name("USER_ErrorCode_offsetPole_rps_High"), DW_AT_const_valu
    4653              $C$DW$551       .dwtag  DW_TAG_enumerator, DW_AT_name("USER_ErrorCode_offsetPole_rps_Low"), DW_AT_const_value
    4654              $C$DW$552       .dwtag  DW_TAG_enumerator, DW_AT_name("USER_ErrorCode_fluxPole_rps_High"), DW_AT_const_value(
    4655              $C$DW$553       .dwtag  DW_TAG_enumerator, DW_AT_name("USER_ErrorCode_fluxPole_rps_Low"), DW_AT_const_value(0
    4656              $C$DW$554       .dwtag  DW_TAG_enumerator, DW_AT_name("USER_ErrorCode_zeroSpeedLimit_High"), DW_AT_const_valu
    4657              $C$DW$555       .dwtag  DW_TAG_enumerator, DW_AT_name("USER_ErrorCode_zeroSpeedLimit_Low"), DW_AT_const_value
    4658              $C$DW$556       .dwtag  DW_TAG_enumerator, DW_AT_name("USER_ErrorCode_forceAngleFreq_Hz_High"), DW_AT_const_v
    4659              $C$DW$557       .dwtag  DW_TAG_enumerator, DW_AT_name("USER_ErrorCode_forceAngleFreq_Hz_Low"), DW_AT_const_va
    4660              $C$DW$558       .dwtag  DW_TAG_enumerator, DW_AT_name("USER_ErrorCode_maxAccel_Hzps_High"), DW_AT_const_value
    4661              $C$DW$559       .dwtag  DW_TAG_enumerator, DW_AT_name("USER_ErrorCode_maxAccel_Hzps_Low"), DW_AT_const_value(
    4662              $C$DW$560       .dwtag  DW_TAG_enumerator, DW_AT_name("USER_ErrorCode_maxAccel_est_Hzps_High"), DW_AT_const_v
    4663              $C$DW$561       .dwtag  DW_TAG_enumerator, DW_AT_name("USER_ErrorCode_maxAccel_est_Hzps_Low"), DW_AT_const_va
    4664              $C$DW$562       .dwtag  DW_TAG_enumerator, DW_AT_name("USER_ErrorCode_directionPole_rps_High"), DW_AT_const_v
    4665              $C$DW$563       .dwtag  DW_TAG_enumerator, DW_AT_name("USER_ErrorCode_directionPole_rps_Low"), DW_AT_const_va
    4666              $C$DW$564       .dwtag  DW_TAG_enumerator, DW_AT_name("USER_ErrorCode_speedPole_rps_High"), DW_AT_const_value
    4667              $C$DW$565       .dwtag  DW_TAG_enumerator, DW_AT_name("USER_ErrorCode_speedPole_rps_Low"), DW_AT_const_value(
    4668              $C$DW$566       .dwtag  DW_TAG_enumerator, DW_AT_name("USER_ErrorCode_dcBusPole_rps_High"), DW_AT_const_value
    4669              $C$DW$567       .dwtag  DW_TAG_enumerator, DW_AT_name("USER_ErrorCode_dcBusPole_rps_Low"), DW_AT_const_value(
    4670              $C$DW$568       .dwtag  DW_TAG_enumerator, DW_AT_name("USER_ErrorCode_fluxFraction_High"), DW_AT_const_value(
    4671              $C$DW$569       .dwtag  DW_TAG_enumerator, DW_AT_name("USER_ErrorCode_fluxFraction_Low"), DW_AT_const_value(0
    4672              $C$DW$570       .dwtag  DW_TAG_enumerator, DW_AT_name("USER_ErrorCode_indEst_speedMaxFraction_High"), DW_AT_c
    4673              $C$DW$571       .dwtag  DW_TAG_enumerator, DW_AT_name("USER_ErrorCode_indEst_speedMaxFraction_Low"), DW_AT_co
    4674              $C$DW$572       .dwtag  DW_TAG_enumerator, DW_AT_name("USER_ErrorCode_powerWarpGain_High"), DW_AT_const_value
    4675              $C$DW$573       .dwtag  DW_TAG_enumerator, DW_AT_name("USER_ErrorCode_powerWarpGain_Low"), DW_AT_const_value(
    4676              $C$DW$574       .dwtag  DW_TAG_enumerator, DW_AT_name("USER_ErrorCode_systemFreq_MHz_High"), DW_AT_const_valu
    4677              $C$DW$575       .dwtag  DW_TAG_enumerator, DW_AT_name("USER_ErrorCode_systemFreq_MHz_Low"), DW_AT_const_value
    4678              $C$DW$576       .dwtag  DW_TAG_enumerator, DW_AT_name("USER_ErrorCode_pwmFreq_kHz_High"), DW_AT_const_value(0
    4679              $C$DW$577       .dwtag  DW_TAG_enumerator, DW_AT_name("USER_ErrorCode_pwmFreq_kHz_Low"), DW_AT_const_value(0x
    4680              $C$DW$578       .dwtag  DW_TAG_enumerator, DW_AT_name("USER_ErrorCode_voltage_sf_High"), DW_AT_const_value(0x
    4681              $C$DW$579       .dwtag  DW_TAG_enumerator, DW_AT_name("USER_ErrorCode_voltage_sf_Low"), DW_AT_const_value(0x3
    4682              $C$DW$580       .dwtag  DW_TAG_enumerator, DW_AT_name("USER_ErrorCode_current_sf_High"), DW_AT_const_value(0x
    4683              $C$DW$581       .dwtag  DW_TAG_enumerator, DW_AT_name("USER_ErrorCode_current_sf_Low"), DW_AT_const_value(0x3
    4684              $C$DW$582       .dwtag  DW_TAG_enumerator, DW_AT_name("USER_ErrorCode_voltageFilterPole_Hz_High"), DW_AT_cons
    4685              $C$DW$583       .dwtag  DW_TAG_enumerator, DW_AT_name("USER_ErrorCode_voltageFilterPole_Hz_Low"), DW_AT_const
    4686              $C$DW$584       .dwtag  DW_TAG_enumerator, DW_AT_name("USER_ErrorCode_maxVsMag_pu_High"), DW_AT_const_value(0
    4687              $C$DW$585       .dwtag  DW_TAG_enumerator, DW_AT_name("USER_ErrorCode_maxVsMag_pu_Low"), DW_AT_const_value(0x
    4688              $C$DW$586       .dwtag  DW_TAG_enumerator, DW_AT_name("USER_ErrorCode_estKappa_High"), DW_AT_const_value(0x3b
    4689              $C$DW$587       .dwtag  DW_TAG_enumerator, DW_AT_name("USER_ErrorCode_estKappa_Low"), DW_AT_const_value(0x3c)
    4690              $C$DW$588       .dwtag  DW_TAG_enumerator, DW_AT_name("USER_ErrorCode_motor_type_Unknown"), DW_AT_const_value
    4691              $C$DW$589       .dwtag  DW_TAG_enumerator, DW_AT_name("USER_ErrorCode_motor_numPolePairs_High"), DW_AT_const_
    4692              $C$DW$590       .dwtag  DW_TAG_enumerator, DW_AT_name("USER_ErrorCode_motor_numPolePairs_Low"), DW_AT_const_v
    4693              $C$DW$591       .dwtag  DW_TAG_enumerator, DW_AT_name("USER_ErrorCode_motor_ratedFlux_High"), DW_AT_const_val
    4694              $C$DW$592       .dwtag  DW_TAG_enumerator, DW_AT_name("USER_ErrorCode_motor_ratedFlux_Low"), DW_AT_const_valu
    4695              $C$DW$593       .dwtag  DW_TAG_enumerator, DW_AT_name("USER_ErrorCode_motor_Rr_High"), DW_AT_const_value(0x42
    4696              $C$DW$594       .dwtag  DW_TAG_enumerator, DW_AT_name("USER_ErrorCode_motor_Rr_Low"), DW_AT_const_value(0x43)
    4697              $C$DW$595       .dwtag  DW_TAG_enumerator, DW_AT_name("USER_ErrorCode_motor_Rs_High"), DW_AT_const_value(0x44
    4698              $C$DW$596       .dwtag  DW_TAG_enumerator, DW_AT_name("USER_ErrorCode_motor_Rs_Low"), DW_AT_const_value(0x45)
    4699              $C$DW$597       .dwtag  DW_TAG_enumerator, DW_AT_name("USER_ErrorCode_motor_Ls_d_High"), DW_AT_const_value(0x
    4700              $C$DW$598       .dwtag  DW_TAG_enumerator, DW_AT_name("USER_ErrorCode_motor_Ls_d_Low"), DW_AT_const_value(0x4
    4701              $C$DW$599       .dwtag  DW_TAG_enumerator, DW_AT_name("USER_ErrorCode_motor_Ls_q_High"), DW_AT_const_value(0x
    4702              $C$DW$600       .dwtag  DW_TAG_enumerator, DW_AT_name("USER_ErrorCode_motor_Ls_q_Low"), DW_AT_const_value(0x4
    4703              $C$DW$601       .dwtag  DW_TAG_enumerator, DW_AT_name("USER_ErrorCode_maxCurrent_High"), DW_AT_const_value(0x
    4704              $C$DW$602       .dwtag  DW_TAG_enumerator, DW_AT_name("USER_ErrorCode_maxCurrent_Low"), DW_AT_const_value(0x4
TMS320C2000 Assembler PC v6.4.4 Wed Jul 08 12:49:31 2015

Tools Copyright (c) 1996-2015 Texas Instruments Incorporated
C:\Users\grant\AppData\Local\Temp\0448010                            PAGE   94

    4705              $C$DW$603       .dwtag  DW_TAG_enumerator, DW_AT_name("USER_ErrorCode_maxCurrent_resEst_High"), DW_AT_const_v
    4706              $C$DW$604       .dwtag  DW_TAG_enumerator, DW_AT_name("USER_ErrorCode_maxCurrent_resEst_Low"), DW_AT_const_va
    4707              $C$DW$605       .dwtag  DW_TAG_enumerator, DW_AT_name("USER_ErrorCode_maxCurrent_indEst_High"), DW_AT_const_v
    4708              $C$DW$606       .dwtag  DW_TAG_enumerator, DW_AT_name("USER_ErrorCode_maxCurrent_indEst_Low"), DW_AT_const_va
    4709              $C$DW$607       .dwtag  DW_TAG_enumerator, DW_AT_name("USER_ErrorCode_maxCurrentSlope_High"), DW_AT_const_val
    4710              $C$DW$608       .dwtag  DW_TAG_enumerator, DW_AT_name("USER_ErrorCode_maxCurrentSlope_Low"), DW_AT_const_valu
    4711              $C$DW$609       .dwtag  DW_TAG_enumerator, DW_AT_name("USER_ErrorCode_maxCurrentSlope_powerWarp_High"), DW_AT
    4712              $C$DW$610       .dwtag  DW_TAG_enumerator, DW_AT_name("USER_ErrorCode_maxCurrentSlope_powerWarp_Low"), DW_AT_
    4713              $C$DW$611       .dwtag  DW_TAG_enumerator, DW_AT_name("USER_ErrorCode_IdRated_High"), DW_AT_const_value(0x54)
    4714              $C$DW$612       .dwtag  DW_TAG_enumerator, DW_AT_name("USER_ErrorCode_IdRated_Low"), DW_AT_const_value(0x55)
    4715              $C$DW$613       .dwtag  DW_TAG_enumerator, DW_AT_name("USER_ErrorCode_IdRatedFraction_indEst_High"), DW_AT_co
    4716              $C$DW$614       .dwtag  DW_TAG_enumerator, DW_AT_name("USER_ErrorCode_IdRatedFraction_indEst_Low"), DW_AT_con
    4717              $C$DW$615       .dwtag  DW_TAG_enumerator, DW_AT_name("USER_ErrorCode_IdRatedFraction_ratedFlux_High"), DW_AT
    4718              $C$DW$616       .dwtag  DW_TAG_enumerator, DW_AT_name("USER_ErrorCode_IdRatedFraction_ratedFlux_Low"), DW_AT_
    4719              $C$DW$617       .dwtag  DW_TAG_enumerator, DW_AT_name("USER_ErrorCode_IdRated_delta_High"), DW_AT_const_value
    4720              $C$DW$618       .dwtag  DW_TAG_enumerator, DW_AT_name("USER_ErrorCode_IdRated_delta_Low"), DW_AT_const_value(
    4721              $C$DW$619       .dwtag  DW_TAG_enumerator, DW_AT_name("USER_ErrorCode_fluxEstFreq_Hz_High"), DW_AT_const_valu
    4722              $C$DW$620       .dwtag  DW_TAG_enumerator, DW_AT_name("USER_ErrorCode_fluxEstFreq_Hz_Low"), DW_AT_const_value
    4723              $C$DW$621       .dwtag  DW_TAG_enumerator, DW_AT_name("USER_ErrorCode_ctrlFreq_Hz_High"), DW_AT_const_value(0
    4724              $C$DW$622       .dwtag  DW_TAG_enumerator, DW_AT_name("USER_ErrorCode_ctrlFreq_Hz_Low"), DW_AT_const_value(0x
    4725              $C$DW$623       .dwtag  DW_TAG_enumerator, DW_AT_name("USER_ErrorCode_estFreq_Hz_High"), DW_AT_const_value(0x
    4726              $C$DW$624       .dwtag  DW_TAG_enumerator, DW_AT_name("USER_ErrorCode_estFreq_Hz_Low"), DW_AT_const_value(0x6
    4727              $C$DW$625       .dwtag  DW_TAG_enumerator, DW_AT_name("USER_ErrorCode_RoverL_estFreq_Hz_High"), DW_AT_const_v
    4728              $C$DW$626       .dwtag  DW_TAG_enumerator, DW_AT_name("USER_ErrorCode_RoverL_estFreq_Hz_Low"), DW_AT_const_va
    4729              $C$DW$627       .dwtag  DW_TAG_enumerator, DW_AT_name("USER_ErrorCode_trajFreq_Hz_High"), DW_AT_const_value(0
    4730              $C$DW$628       .dwtag  DW_TAG_enumerator, DW_AT_name("USER_ErrorCode_trajFreq_Hz_Low"), DW_AT_const_value(0x
    4731              $C$DW$629       .dwtag  DW_TAG_enumerator, DW_AT_name("USER_ErrorCode_ctrlPeriod_sec_High"), DW_AT_const_valu
    4732              $C$DW$630       .dwtag  DW_TAG_enumerator, DW_AT_name("USER_ErrorCode_ctrlPeriod_sec_Low"), DW_AT_const_value
    4733              $C$DW$631       .dwtag  DW_TAG_enumerator, DW_AT_name("USER_ErrorCode_maxNegativeIdCurrent_a_High"), DW_AT_co
    4734              $C$DW$632       .dwtag  DW_TAG_enumerator, DW_AT_name("USER_ErrorCode_maxNegativeIdCurrent_a_Low"), DW_AT_con
    4735              $C$DW$633       .dwtag  DW_TAG_enumerator, DW_AT_name("USER_numErrorCodes"), DW_AT_const_value(0x6a)
    4736                      .dwendtag $C$DW$T$166
    4737              
    4738              $C$DW$T$167     .dwtag  DW_TAG_typedef, DW_AT_name("USER_ErrorCode_e")
    4739                      .dwattr $C$DW$T$167, DW_AT_type(*$C$DW$T$166)
    4740                      .dwattr $C$DW$T$167, DW_AT_language(DW_LANG_C)
    4741              
    4742              $C$DW$T$212     .dwtag  DW_TAG_enumeration_type
    4743                      .dwattr $C$DW$T$212, DW_AT_byte_size(0x01)
    4744              $C$DW$634       .dwtag  DW_TAG_enumerator, DW_AT_name("ADC_IntNumber_1"), DW_AT_const_value(0x00)
    4745              $C$DW$635       .dwtag  DW_TAG_enumerator, DW_AT_name("ADC_IntNumber_2"), DW_AT_const_value(0x01)
    4746              $C$DW$636       .dwtag  DW_TAG_enumerator, DW_AT_name("ADC_IntNumber_3"), DW_AT_const_value(0x02)
    4747              $C$DW$637       .dwtag  DW_TAG_enumerator, DW_AT_name("ADC_IntNumber_4"), DW_AT_const_value(0x03)
    4748              $C$DW$638       .dwtag  DW_TAG_enumerator, DW_AT_name("ADC_IntNumber_5"), DW_AT_const_value(0x04)
    4749              $C$DW$639       .dwtag  DW_TAG_enumerator, DW_AT_name("ADC_IntNumber_6"), DW_AT_const_value(0x05)
    4750              $C$DW$640       .dwtag  DW_TAG_enumerator, DW_AT_name("ADC_IntNumber_7"), DW_AT_const_value(0x06)
    4751              $C$DW$641       .dwtag  DW_TAG_enumerator, DW_AT_name("ADC_IntNumber_8"), DW_AT_const_value(0x07)
    4752              $C$DW$642       .dwtag  DW_TAG_enumerator, DW_AT_name("ADC_IntNumber_9"), DW_AT_const_value(0x08)
    4753              $C$DW$643       .dwtag  DW_TAG_enumerator, DW_AT_name("ADC_IntNumber_1HP"), DW_AT_const_value(0x09)
    4754              $C$DW$644       .dwtag  DW_TAG_enumerator, DW_AT_name("ADC_IntNumber_2HP"), DW_AT_const_value(0x0a)
    4755              $C$DW$645       .dwtag  DW_TAG_enumerator, DW_AT_name("ADC_IntNumber_9HP"), DW_AT_const_value(0x0e)
    4756                      .dwendtag $C$DW$T$212
    4757              
    4758              $C$DW$T$213     .dwtag  DW_TAG_typedef, DW_AT_name("ADC_IntNumber_e")
    4759                      .dwattr $C$DW$T$213, DW_AT_type(*$C$DW$T$212)
TMS320C2000 Assembler PC v6.4.4 Wed Jul 08 12:49:31 2015

Tools Copyright (c) 1996-2015 Texas Instruments Incorporated
C:\Users\grant\AppData\Local\Temp\0448010                            PAGE   95

    4760                      .dwattr $C$DW$T$213, DW_AT_language(DW_LANG_C)
    4761              
    4762              $C$DW$T$215     .dwtag  DW_TAG_enumeration_type
    4763                      .dwattr $C$DW$T$215, DW_AT_byte_size(0x01)
    4764              $C$DW$646       .dwtag  DW_TAG_enumerator, DW_AT_name("ADC_ResultNumber_0"), DW_AT_const_value(0x00)
    4765              $C$DW$647       .dwtag  DW_TAG_enumerator, DW_AT_name("ADC_ResultNumber_1"), DW_AT_const_value(0x01)
    4766              $C$DW$648       .dwtag  DW_TAG_enumerator, DW_AT_name("ADC_ResultNumber_2"), DW_AT_const_value(0x02)
    4767              $C$DW$649       .dwtag  DW_TAG_enumerator, DW_AT_name("ADC_ResultNumber_3"), DW_AT_const_value(0x03)
    4768              $C$DW$650       .dwtag  DW_TAG_enumerator, DW_AT_name("ADC_ResultNumber_4"), DW_AT_const_value(0x04)
    4769              $C$DW$651       .dwtag  DW_TAG_enumerator, DW_AT_name("ADC_ResultNumber_5"), DW_AT_const_value(0x05)
    4770              $C$DW$652       .dwtag  DW_TAG_enumerator, DW_AT_name("ADC_ResultNumber_6"), DW_AT_const_value(0x06)
    4771              $C$DW$653       .dwtag  DW_TAG_enumerator, DW_AT_name("ADC_ResultNumber_7"), DW_AT_const_value(0x07)
    4772              $C$DW$654       .dwtag  DW_TAG_enumerator, DW_AT_name("ADC_ResultNumber_8"), DW_AT_const_value(0x08)
    4773              $C$DW$655       .dwtag  DW_TAG_enumerator, DW_AT_name("ADC_ResultNumber_9"), DW_AT_const_value(0x09)
    4774              $C$DW$656       .dwtag  DW_TAG_enumerator, DW_AT_name("ADC_ResultNumber_10"), DW_AT_const_value(0x0a)
    4775              $C$DW$657       .dwtag  DW_TAG_enumerator, DW_AT_name("ADC_ResultNumber_11"), DW_AT_const_value(0x0b)
    4776              $C$DW$658       .dwtag  DW_TAG_enumerator, DW_AT_name("ADC_ResultNumber_12"), DW_AT_const_value(0x0c)
    4777              $C$DW$659       .dwtag  DW_TAG_enumerator, DW_AT_name("ADC_ResultNumber_13"), DW_AT_const_value(0x0d)
    4778              $C$DW$660       .dwtag  DW_TAG_enumerator, DW_AT_name("ADC_ResultNumber_14"), DW_AT_const_value(0x0e)
    4779              $C$DW$661       .dwtag  DW_TAG_enumerator, DW_AT_name("ADC_ResultNumber_15"), DW_AT_const_value(0x0f)
    4780                      .dwendtag $C$DW$T$215
    4781              
    4782              $C$DW$T$216     .dwtag  DW_TAG_typedef, DW_AT_name("ADC_ResultNumber_e")
    4783                      .dwattr $C$DW$T$216, DW_AT_type(*$C$DW$T$215)
    4784                      .dwattr $C$DW$T$216, DW_AT_language(DW_LANG_C)
    4785              
    4786              $C$DW$T$218     .dwtag  DW_TAG_enumeration_type
    4787                      .dwattr $C$DW$T$218, DW_AT_byte_size(0x01)
    4788              $C$DW$662       .dwtag  DW_TAG_enumerator, DW_AT_name("PIE_GroupNumber_1"), DW_AT_const_value(0x00)
    4789              $C$DW$663       .dwtag  DW_TAG_enumerator, DW_AT_name("PIE_GroupNumber_2"), DW_AT_const_value(0x01)
    4790              $C$DW$664       .dwtag  DW_TAG_enumerator, DW_AT_name("PIE_GroupNumber_3"), DW_AT_const_value(0x02)
    4791              $C$DW$665       .dwtag  DW_TAG_enumerator, DW_AT_name("PIE_GroupNumber_4"), DW_AT_const_value(0x03)
    4792              $C$DW$666       .dwtag  DW_TAG_enumerator, DW_AT_name("PIE_GroupNumber_5"), DW_AT_const_value(0x04)
    4793              $C$DW$667       .dwtag  DW_TAG_enumerator, DW_AT_name("PIE_GroupNumber_6"), DW_AT_const_value(0x05)
    4794              $C$DW$668       .dwtag  DW_TAG_enumerator, DW_AT_name("PIE_GroupNumber_7"), DW_AT_const_value(0x06)
    4795              $C$DW$669       .dwtag  DW_TAG_enumerator, DW_AT_name("PIE_GroupNumber_8"), DW_AT_const_value(0x07)
    4796              $C$DW$670       .dwtag  DW_TAG_enumerator, DW_AT_name("PIE_GroupNumber_9"), DW_AT_const_value(0x08)
    4797              $C$DW$671       .dwtag  DW_TAG_enumerator, DW_AT_name("PIE_GroupNumber_10"), DW_AT_const_value(0x09)
    4798              $C$DW$672       .dwtag  DW_TAG_enumerator, DW_AT_name("PIE_GroupNumber_11"), DW_AT_const_value(0x0a)
    4799              $C$DW$673       .dwtag  DW_TAG_enumerator, DW_AT_name("PIE_GroupNumber_12"), DW_AT_const_value(0x0b)
    4800                      .dwendtag $C$DW$T$218
    4801              
    4802              $C$DW$T$219     .dwtag  DW_TAG_typedef, DW_AT_name("PIE_GroupNumber_e")
    4803                      .dwattr $C$DW$T$219, DW_AT_type(*$C$DW$T$218)
    4804                      .dwattr $C$DW$T$219, DW_AT_language(DW_LANG_C)
    4805              
    4806              $C$DW$T$221     .dwtag  DW_TAG_enumeration_type
    4807                      .dwattr $C$DW$T$221, DW_AT_byte_size(0x01)
    4808              $C$DW$674       .dwtag  DW_TAG_enumerator, DW_AT_name("CTRL_Type_PID_spd"), DW_AT_const_value(0x00)
    4809              $C$DW$675       .dwtag  DW_TAG_enumerator, DW_AT_name("CTRL_Type_PID_Id"), DW_AT_const_value(0x01)
    4810              $C$DW$676       .dwtag  DW_TAG_enumerator, DW_AT_name("CTRL_Type_PID_Iq"), DW_AT_const_value(0x02)
    4811                      .dwendtag $C$DW$T$221
    4812              
    4813              $C$DW$T$222     .dwtag  DW_TAG_typedef, DW_AT_name("CTRL_Type_e")
    4814                      .dwattr $C$DW$T$222, DW_AT_type(*$C$DW$T$221)
TMS320C2000 Assembler PC v6.4.4 Wed Jul 08 12:49:31 2015

Tools Copyright (c) 1996-2015 Texas Instruments Incorporated
C:\Users\grant\AppData\Local\Temp\0448010                            PAGE   96

    4815                      .dwattr $C$DW$T$222, DW_AT_language(DW_LANG_C)
    4816              
    4817              $C$DW$T$224     .dwtag  DW_TAG_enumeration_type
    4818                      .dwattr $C$DW$T$224, DW_AT_byte_size(0x01)
    4819              $C$DW$677       .dwtag  DW_TAG_enumerator, DW_AT_name("HAL_SensorType_Current"), DW_AT_const_value(0x00)
    4820              $C$DW$678       .dwtag  DW_TAG_enumerator, DW_AT_name("HAL_SensorType_Voltage"), DW_AT_const_value(0x01)
    4821                      .dwendtag $C$DW$T$224
    4822              
    4823              $C$DW$T$225     .dwtag  DW_TAG_typedef, DW_AT_name("HAL_SensorType_e")
    4824                      .dwattr $C$DW$T$225, DW_AT_type(*$C$DW$T$224)
    4825                      .dwattr $C$DW$T$225, DW_AT_language(DW_LANG_C)
    4826              
    4827              $C$DW$T$22      .dwtag  DW_TAG_union_type
    4828                      .dwattr $C$DW$T$22, DW_AT_name("U3_0")
    4829                      .dwattr $C$DW$T$22, DW_AT_declaration
    4830                      .dwendtag $C$DW$T$22
    4831              
    4832              
    4833              $C$DW$T$23      .dwtag  DW_TAG_structure_type
    4834                      .dwattr $C$DW$T$23, DW_AT_name("S3_1")
    4835                      .dwattr $C$DW$T$23, DW_AT_declaration
    4836                      .dwendtag $C$DW$T$23
    4837              
    4838              
    4839              $C$DW$T$24      .dwtag  DW_TAG_union_type
    4840                      .dwattr $C$DW$T$24, DW_AT_name("U4_2")
    4841                      .dwattr $C$DW$T$24, DW_AT_declaration
    4842                      .dwendtag $C$DW$T$24
    4843              
    4844              
    4845              $C$DW$T$25      .dwtag  DW_TAG_structure_type
    4846                      .dwattr $C$DW$T$25, DW_AT_name("S4_3")
    4847                      .dwattr $C$DW$T$25, DW_AT_declaration
    4848                      .dwendtag $C$DW$T$25
    4849              
    4850              
    4851              $C$DW$T$34      .dwtag  DW_TAG_structure_type
    4852                      .dwattr $C$DW$T$34, DW_AT_name("_ADC_Obj_")
    4853                      .dwattr $C$DW$T$34, DW_AT_byte_size(0x6650)
    4854              $C$DW$679       .dwtag  DW_TAG_member
    4855                      .dwattr $C$DW$679, DW_AT_type(*$C$DW$T$28)
    4856                      .dwattr $C$DW$679, DW_AT_name("ADCRESULT")
    4857                      .dwattr $C$DW$679, DW_AT_TI_symbol_name("_ADCRESULT")
    4858                      .dwattr $C$DW$679, DW_AT_data_member_location[DW_OP_plus_uconst 0x0]
    4859                      .dwattr $C$DW$679, DW_AT_accessibility(DW_ACCESS_public)
    4860              $C$DW$680       .dwtag  DW_TAG_member
    4861                      .dwattr $C$DW$680, DW_AT_type(*$C$DW$T$29)
    4862                      .dwattr $C$DW$680, DW_AT_name("resvd_1")
    4863                      .dwattr $C$DW$680, DW_AT_TI_symbol_name("_resvd_1")
    4864                      .dwattr $C$DW$680, DW_AT_data_member_location[DW_OP_plus_uconst 0x10]
    4865                      .dwattr $C$DW$680, DW_AT_accessibility(DW_ACCESS_public)
    4866              $C$DW$681       .dwtag  DW_TAG_member
    4867                      .dwattr $C$DW$681, DW_AT_type(*$C$DW$T$27)
    4868                      .dwattr $C$DW$681, DW_AT_name("ADCCTL1")
    4869                      .dwattr $C$DW$681, DW_AT_TI_symbol_name("_ADCCTL1")
TMS320C2000 Assembler PC v6.4.4 Wed Jul 08 12:49:31 2015

Tools Copyright (c) 1996-2015 Texas Instruments Incorporated
C:\Users\grant\AppData\Local\Temp\0448010                            PAGE   97

    4870                      .dwattr $C$DW$681, DW_AT_data_member_location[DW_OP_plus_uconst 0x6600]
    4871                      .dwattr $C$DW$681, DW_AT_accessibility(DW_ACCESS_public)
    4872              $C$DW$682       .dwtag  DW_TAG_member
    4873                      .dwattr $C$DW$682, DW_AT_type(*$C$DW$T$27)
    4874                      .dwattr $C$DW$682, DW_AT_name("ADCCTL2")
    4875                      .dwattr $C$DW$682, DW_AT_TI_symbol_name("_ADCCTL2")
    4876                      .dwattr $C$DW$682, DW_AT_data_member_location[DW_OP_plus_uconst 0x6601]
    4877                      .dwattr $C$DW$682, DW_AT_accessibility(DW_ACCESS_public)
    4878              $C$DW$683       .dwtag  DW_TAG_member
    4879                      .dwattr $C$DW$683, DW_AT_type(*$C$DW$T$30)
    4880                      .dwattr $C$DW$683, DW_AT_name("rsvd_2")
    4881                      .dwattr $C$DW$683, DW_AT_TI_symbol_name("_rsvd_2")
    4882                      .dwattr $C$DW$683, DW_AT_data_member_location[DW_OP_plus_uconst 0x6602]
    4883                      .dwattr $C$DW$683, DW_AT_accessibility(DW_ACCESS_public)
    4884              $C$DW$684       .dwtag  DW_TAG_member
    4885                      .dwattr $C$DW$684, DW_AT_type(*$C$DW$T$27)
    4886                      .dwattr $C$DW$684, DW_AT_name("ADCINTFLG")
    4887                      .dwattr $C$DW$684, DW_AT_TI_symbol_name("_ADCINTFLG")
    4888                      .dwattr $C$DW$684, DW_AT_data_member_location[DW_OP_plus_uconst 0x6604]
    4889                      .dwattr $C$DW$684, DW_AT_accessibility(DW_ACCESS_public)
    4890              $C$DW$685       .dwtag  DW_TAG_member
    4891                      .dwattr $C$DW$685, DW_AT_type(*$C$DW$T$27)
    4892                      .dwattr $C$DW$685, DW_AT_name("ADCINTFLGCLR")
    4893                      .dwattr $C$DW$685, DW_AT_TI_symbol_name("_ADCINTFLGCLR")
    4894                      .dwattr $C$DW$685, DW_AT_data_member_location[DW_OP_plus_uconst 0x6605]
    4895                      .dwattr $C$DW$685, DW_AT_accessibility(DW_ACCESS_public)
    4896              $C$DW$686       .dwtag  DW_TAG_member
    4897                      .dwattr $C$DW$686, DW_AT_type(*$C$DW$T$27)
    4898                      .dwattr $C$DW$686, DW_AT_name("ADCINTOVF")
    4899                      .dwattr $C$DW$686, DW_AT_TI_symbol_name("_ADCINTOVF")
    4900                      .dwattr $C$DW$686, DW_AT_data_member_location[DW_OP_plus_uconst 0x6606]
    4901                      .dwattr $C$DW$686, DW_AT_accessibility(DW_ACCESS_public)
    4902              $C$DW$687       .dwtag  DW_TAG_member
    4903                      .dwattr $C$DW$687, DW_AT_type(*$C$DW$T$27)
    4904                      .dwattr $C$DW$687, DW_AT_name("ADCINTOVFCLR")
    4905                      .dwattr $C$DW$687, DW_AT_TI_symbol_name("_ADCINTOVFCLR")
    4906                      .dwattr $C$DW$687, DW_AT_data_member_location[DW_OP_plus_uconst 0x6607]
    4907                      .dwattr $C$DW$687, DW_AT_accessibility(DW_ACCESS_public)
    4908              $C$DW$688       .dwtag  DW_TAG_member
    4909                      .dwattr $C$DW$688, DW_AT_type(*$C$DW$T$31)
    4910                      .dwattr $C$DW$688, DW_AT_name("INTSELxNy")
    4911                      .dwattr $C$DW$688, DW_AT_TI_symbol_name("_INTSELxNy")
    4912                      .dwattr $C$DW$688, DW_AT_data_member_location[DW_OP_plus_uconst 0x6608]
    4913                      .dwattr $C$DW$688, DW_AT_accessibility(DW_ACCESS_public)
    4914              $C$DW$689       .dwtag  DW_TAG_member
    4915                      .dwattr $C$DW$689, DW_AT_type(*$C$DW$T$32)
    4916                      .dwattr $C$DW$689, DW_AT_name("rsvd_3")
    4917                      .dwattr $C$DW$689, DW_AT_TI_symbol_name("_rsvd_3")
    4918                      .dwattr $C$DW$689, DW_AT_data_member_location[DW_OP_plus_uconst 0x660d]
    4919                      .dwattr $C$DW$689, DW_AT_accessibility(DW_ACCESS_public)
    4920              $C$DW$690       .dwtag  DW_TAG_member
    4921                      .dwattr $C$DW$690, DW_AT_type(*$C$DW$T$27)
    4922                      .dwattr $C$DW$690, DW_AT_name("SOCPRICTRL")
    4923                      .dwattr $C$DW$690, DW_AT_TI_symbol_name("_SOCPRICTRL")
    4924                      .dwattr $C$DW$690, DW_AT_data_member_location[DW_OP_plus_uconst 0x6610]
TMS320C2000 Assembler PC v6.4.4 Wed Jul 08 12:49:31 2015

Tools Copyright (c) 1996-2015 Texas Instruments Incorporated
C:\Users\grant\AppData\Local\Temp\0448010                            PAGE   98

    4925                      .dwattr $C$DW$690, DW_AT_accessibility(DW_ACCESS_public)
    4926              $C$DW$691       .dwtag  DW_TAG_member
    4927                      .dwattr $C$DW$691, DW_AT_type(*$C$DW$T$27)
    4928                      .dwattr $C$DW$691, DW_AT_name("rsvd_4")
    4929                      .dwattr $C$DW$691, DW_AT_TI_symbol_name("_rsvd_4")
    4930                      .dwattr $C$DW$691, DW_AT_data_member_location[DW_OP_plus_uconst 0x6611]
    4931                      .dwattr $C$DW$691, DW_AT_accessibility(DW_ACCESS_public)
    4932              $C$DW$692       .dwtag  DW_TAG_member
    4933                      .dwattr $C$DW$692, DW_AT_type(*$C$DW$T$27)
    4934                      .dwattr $C$DW$692, DW_AT_name("ADCSAMPLEMODE")
    4935                      .dwattr $C$DW$692, DW_AT_TI_symbol_name("_ADCSAMPLEMODE")
    4936                      .dwattr $C$DW$692, DW_AT_data_member_location[DW_OP_plus_uconst 0x6612]
    4937                      .dwattr $C$DW$692, DW_AT_accessibility(DW_ACCESS_public)
    4938              $C$DW$693       .dwtag  DW_TAG_member
    4939                      .dwattr $C$DW$693, DW_AT_type(*$C$DW$T$27)
    4940                      .dwattr $C$DW$693, DW_AT_name("rsvd_5")
    4941                      .dwattr $C$DW$693, DW_AT_TI_symbol_name("_rsvd_5")
    4942                      .dwattr $C$DW$693, DW_AT_data_member_location[DW_OP_plus_uconst 0x6613]
    4943                      .dwattr $C$DW$693, DW_AT_accessibility(DW_ACCESS_public)
    4944              $C$DW$694       .dwtag  DW_TAG_member
    4945                      .dwattr $C$DW$694, DW_AT_type(*$C$DW$T$27)
    4946                      .dwattr $C$DW$694, DW_AT_name("ADCINTSOCSEL1")
    4947                      .dwattr $C$DW$694, DW_AT_TI_symbol_name("_ADCINTSOCSEL1")
    4948                      .dwattr $C$DW$694, DW_AT_data_member_location[DW_OP_plus_uconst 0x6614]
    4949                      .dwattr $C$DW$694, DW_AT_accessibility(DW_ACCESS_public)
    4950              $C$DW$695       .dwtag  DW_TAG_member
    4951                      .dwattr $C$DW$695, DW_AT_type(*$C$DW$T$27)
    4952                      .dwattr $C$DW$695, DW_AT_name("ADCINTSOCSEL2")
    4953                      .dwattr $C$DW$695, DW_AT_TI_symbol_name("_ADCINTSOCSEL2")
    4954                      .dwattr $C$DW$695, DW_AT_data_member_location[DW_OP_plus_uconst 0x6615]
    4955                      .dwattr $C$DW$695, DW_AT_accessibility(DW_ACCESS_public)
    4956              $C$DW$696       .dwtag  DW_TAG_member
    4957                      .dwattr $C$DW$696, DW_AT_type(*$C$DW$T$30)
    4958                      .dwattr $C$DW$696, DW_AT_name("rsvd_6")
    4959                      .dwattr $C$DW$696, DW_AT_TI_symbol_name("_rsvd_6")
    4960                      .dwattr $C$DW$696, DW_AT_data_member_location[DW_OP_plus_uconst 0x6616]
    4961                      .dwattr $C$DW$696, DW_AT_accessibility(DW_ACCESS_public)
    4962              $C$DW$697       .dwtag  DW_TAG_member
    4963                      .dwattr $C$DW$697, DW_AT_type(*$C$DW$T$27)
    4964                      .dwattr $C$DW$697, DW_AT_name("ADCSOCFLG1")
    4965                      .dwattr $C$DW$697, DW_AT_TI_symbol_name("_ADCSOCFLG1")
    4966                      .dwattr $C$DW$697, DW_AT_data_member_location[DW_OP_plus_uconst 0x6618]
    4967                      .dwattr $C$DW$697, DW_AT_accessibility(DW_ACCESS_public)
    4968              $C$DW$698       .dwtag  DW_TAG_member
    4969                      .dwattr $C$DW$698, DW_AT_type(*$C$DW$T$27)
    4970                      .dwattr $C$DW$698, DW_AT_name("rsvd_7")
    4971                      .dwattr $C$DW$698, DW_AT_TI_symbol_name("_rsvd_7")
    4972                      .dwattr $C$DW$698, DW_AT_data_member_location[DW_OP_plus_uconst 0x6619]
    4973                      .dwattr $C$DW$698, DW_AT_accessibility(DW_ACCESS_public)
    4974              $C$DW$699       .dwtag  DW_TAG_member
    4975                      .dwattr $C$DW$699, DW_AT_type(*$C$DW$T$27)
    4976                      .dwattr $C$DW$699, DW_AT_name("ADCSOCFRC1")
    4977                      .dwattr $C$DW$699, DW_AT_TI_symbol_name("_ADCSOCFRC1")
    4978                      .dwattr $C$DW$699, DW_AT_data_member_location[DW_OP_plus_uconst 0x661a]
    4979                      .dwattr $C$DW$699, DW_AT_accessibility(DW_ACCESS_public)
TMS320C2000 Assembler PC v6.4.4 Wed Jul 08 12:49:31 2015

Tools Copyright (c) 1996-2015 Texas Instruments Incorporated
C:\Users\grant\AppData\Local\Temp\0448010                            PAGE   99

    4980              $C$DW$700       .dwtag  DW_TAG_member
    4981                      .dwattr $C$DW$700, DW_AT_type(*$C$DW$T$27)
    4982                      .dwattr $C$DW$700, DW_AT_name("rsvd_8")
    4983                      .dwattr $C$DW$700, DW_AT_TI_symbol_name("_rsvd_8")
    4984                      .dwattr $C$DW$700, DW_AT_data_member_location[DW_OP_plus_uconst 0x661b]
    4985                      .dwattr $C$DW$700, DW_AT_accessibility(DW_ACCESS_public)
    4986              $C$DW$701       .dwtag  DW_TAG_member
    4987                      .dwattr $C$DW$701, DW_AT_type(*$C$DW$T$27)
    4988                      .dwattr $C$DW$701, DW_AT_name("ADCSOCOVF1")
    4989                      .dwattr $C$DW$701, DW_AT_TI_symbol_name("_ADCSOCOVF1")
    4990                      .dwattr $C$DW$701, DW_AT_data_member_location[DW_OP_plus_uconst 0x661c]
    4991                      .dwattr $C$DW$701, DW_AT_accessibility(DW_ACCESS_public)
    4992              $C$DW$702       .dwtag  DW_TAG_member
    4993                      .dwattr $C$DW$702, DW_AT_type(*$C$DW$T$27)
    4994                      .dwattr $C$DW$702, DW_AT_name("rsvd_9")
    4995                      .dwattr $C$DW$702, DW_AT_TI_symbol_name("_rsvd_9")
    4996                      .dwattr $C$DW$702, DW_AT_data_member_location[DW_OP_plus_uconst 0x661d]
    4997                      .dwattr $C$DW$702, DW_AT_accessibility(DW_ACCESS_public)
    4998              $C$DW$703       .dwtag  DW_TAG_member
    4999                      .dwattr $C$DW$703, DW_AT_type(*$C$DW$T$27)
    5000                      .dwattr $C$DW$703, DW_AT_name("ADCSOCOVFCLR1")
    5001                      .dwattr $C$DW$703, DW_AT_TI_symbol_name("_ADCSOCOVFCLR1")
    5002                      .dwattr $C$DW$703, DW_AT_data_member_location[DW_OP_plus_uconst 0x661e]
    5003                      .dwattr $C$DW$703, DW_AT_accessibility(DW_ACCESS_public)
    5004              $C$DW$704       .dwtag  DW_TAG_member
    5005                      .dwattr $C$DW$704, DW_AT_type(*$C$DW$T$27)
    5006                      .dwattr $C$DW$704, DW_AT_name("rsvd_10")
    5007                      .dwattr $C$DW$704, DW_AT_TI_symbol_name("_rsvd_10")
    5008                      .dwattr $C$DW$704, DW_AT_data_member_location[DW_OP_plus_uconst 0x661f]
    5009                      .dwattr $C$DW$704, DW_AT_accessibility(DW_ACCESS_public)
    5010              $C$DW$705       .dwtag  DW_TAG_member
    5011                      .dwattr $C$DW$705, DW_AT_type(*$C$DW$T$28)
    5012                      .dwattr $C$DW$705, DW_AT_name("ADCSOCxCTL")
    5013                      .dwattr $C$DW$705, DW_AT_TI_symbol_name("_ADCSOCxCTL")
    5014                      .dwattr $C$DW$705, DW_AT_data_member_location[DW_OP_plus_uconst 0x6620]
    5015                      .dwattr $C$DW$705, DW_AT_accessibility(DW_ACCESS_public)
    5016              $C$DW$706       .dwtag  DW_TAG_member
    5017                      .dwattr $C$DW$706, DW_AT_type(*$C$DW$T$28)
    5018                      .dwattr $C$DW$706, DW_AT_name("rsvd_11")
    5019                      .dwattr $C$DW$706, DW_AT_TI_symbol_name("_rsvd_11")
    5020                      .dwattr $C$DW$706, DW_AT_data_member_location[DW_OP_plus_uconst 0x6630]
    5021                      .dwattr $C$DW$706, DW_AT_accessibility(DW_ACCESS_public)
    5022              $C$DW$707       .dwtag  DW_TAG_member
    5023                      .dwattr $C$DW$707, DW_AT_type(*$C$DW$T$27)
    5024                      .dwattr $C$DW$707, DW_AT_name("ADCREFTRIM")
    5025                      .dwattr $C$DW$707, DW_AT_TI_symbol_name("_ADCREFTRIM")
    5026                      .dwattr $C$DW$707, DW_AT_data_member_location[DW_OP_plus_uconst 0x6640]
    5027                      .dwattr $C$DW$707, DW_AT_accessibility(DW_ACCESS_public)
    5028              $C$DW$708       .dwtag  DW_TAG_member
    5029                      .dwattr $C$DW$708, DW_AT_type(*$C$DW$T$27)
    5030                      .dwattr $C$DW$708, DW_AT_name("ADCOFFTRIM")
    5031                      .dwattr $C$DW$708, DW_AT_TI_symbol_name("_ADCOFFTRIM")
    5032                      .dwattr $C$DW$708, DW_AT_data_member_location[DW_OP_plus_uconst 0x6641]
    5033                      .dwattr $C$DW$708, DW_AT_accessibility(DW_ACCESS_public)
    5034              $C$DW$709       .dwtag  DW_TAG_member
TMS320C2000 Assembler PC v6.4.4 Wed Jul 08 12:49:31 2015

Tools Copyright (c) 1996-2015 Texas Instruments Incorporated
C:\Users\grant\AppData\Local\Temp\0448010                            PAGE  100

    5035                      .dwattr $C$DW$709, DW_AT_type(*$C$DW$T$33)
    5036                      .dwattr $C$DW$709, DW_AT_name("resvd_12")
    5037                      .dwattr $C$DW$709, DW_AT_TI_symbol_name("_resvd_12")
    5038                      .dwattr $C$DW$709, DW_AT_data_member_location[DW_OP_plus_uconst 0x6642]
    5039                      .dwattr $C$DW$709, DW_AT_accessibility(DW_ACCESS_public)
    5040              $C$DW$710       .dwtag  DW_TAG_member
    5041                      .dwattr $C$DW$710, DW_AT_type(*$C$DW$T$27)
    5042                      .dwattr $C$DW$710, DW_AT_name("ADCREV")
    5043                      .dwattr $C$DW$710, DW_AT_TI_symbol_name("_ADCREV")
    5044                      .dwattr $C$DW$710, DW_AT_data_member_location[DW_OP_plus_uconst 0x664f]
    5045                      .dwattr $C$DW$710, DW_AT_accessibility(DW_ACCESS_public)
    5046                      .dwendtag $C$DW$T$34
    5047              
    5048              $C$DW$T$228     .dwtag  DW_TAG_typedef, DW_AT_name("ADC_Obj")
    5049                      .dwattr $C$DW$T$228, DW_AT_type(*$C$DW$T$34)
    5050                      .dwattr $C$DW$T$228, DW_AT_language(DW_LANG_C)
    5051              $C$DW$T$120     .dwtag  DW_TAG_pointer_type
    5052                      .dwattr $C$DW$T$120, DW_AT_type(*$C$DW$T$34)
    5053                      .dwattr $C$DW$T$120, DW_AT_address_class(0x20)
    5054              $C$DW$T$121     .dwtag  DW_TAG_typedef, DW_AT_name("ADC_Handle")
    5055                      .dwattr $C$DW$T$121, DW_AT_type(*$C$DW$T$120)
    5056                      .dwattr $C$DW$T$121, DW_AT_language(DW_LANG_C)
    5057              
    5058              $C$DW$T$37      .dwtag  DW_TAG_structure_type
    5059                      .dwattr $C$DW$T$37, DW_AT_name("_CLARKE_Obj_")
    5060                      .dwattr $C$DW$T$37, DW_AT_byte_size(0x06)
    5061              $C$DW$711       .dwtag  DW_TAG_member
    5062                      .dwattr $C$DW$711, DW_AT_type(*$C$DW$T$35)
    5063                      .dwattr $C$DW$711, DW_AT_name("alpha_sf")
    5064                      .dwattr $C$DW$711, DW_AT_TI_symbol_name("_alpha_sf")
    5065                      .dwattr $C$DW$711, DW_AT_data_member_location[DW_OP_plus_uconst 0x0]
    5066                      .dwattr $C$DW$711, DW_AT_accessibility(DW_ACCESS_public)
    5067              $C$DW$712       .dwtag  DW_TAG_member
    5068                      .dwattr $C$DW$712, DW_AT_type(*$C$DW$T$35)
    5069                      .dwattr $C$DW$712, DW_AT_name("beta_sf")
    5070                      .dwattr $C$DW$712, DW_AT_TI_symbol_name("_beta_sf")
    5071                      .dwattr $C$DW$712, DW_AT_data_member_location[DW_OP_plus_uconst 0x2]
    5072                      .dwattr $C$DW$712, DW_AT_accessibility(DW_ACCESS_public)
    5073              $C$DW$713       .dwtag  DW_TAG_member
    5074                      .dwattr $C$DW$713, DW_AT_type(*$C$DW$T$36)
    5075                      .dwattr $C$DW$713, DW_AT_name("numSensors")
    5076                      .dwattr $C$DW$713, DW_AT_TI_symbol_name("_numSensors")
    5077                      .dwattr $C$DW$713, DW_AT_data_member_location[DW_OP_plus_uconst 0x4]
    5078                      .dwattr $C$DW$713, DW_AT_accessibility(DW_ACCESS_public)
    5079                      .dwendtag $C$DW$T$37
    5080              
    5081              $C$DW$T$48      .dwtag  DW_TAG_typedef, DW_AT_name("CLARKE_Obj")
    5082                      .dwattr $C$DW$T$48, DW_AT_type(*$C$DW$T$37)
    5083                      .dwattr $C$DW$T$48, DW_AT_language(DW_LANG_C)
    5084              $C$DW$T$46      .dwtag  DW_TAG_pointer_type
    5085                      .dwattr $C$DW$T$46, DW_AT_type(*$C$DW$T$37)
    5086                      .dwattr $C$DW$T$46, DW_AT_address_class(0x20)
    5087              $C$DW$T$47      .dwtag  DW_TAG_typedef, DW_AT_name("CLARKE_Handle")
    5088                      .dwattr $C$DW$T$47, DW_AT_type(*$C$DW$T$46)
    5089                      .dwattr $C$DW$T$47, DW_AT_language(DW_LANG_C)
TMS320C2000 Assembler PC v6.4.4 Wed Jul 08 12:49:31 2015

Tools Copyright (c) 1996-2015 Texas Instruments Incorporated
C:\Users\grant\AppData\Local\Temp\0448010                            PAGE  101

    5090              $C$DW$714       .dwtag  DW_TAG_TI_far_type
    5091                      .dwattr $C$DW$714, DW_AT_type(*$C$DW$T$47)
    5092              $C$DW$T$229     .dwtag  DW_TAG_const_type
    5093                      .dwattr $C$DW$T$229, DW_AT_type(*$C$DW$714)
    5094              
    5095              $C$DW$T$39      .dwtag  DW_TAG_structure_type
    5096                      .dwattr $C$DW$T$39, DW_AT_name("_CLK_Obj_")
    5097                      .dwattr $C$DW$T$39, DW_AT_byte_size(0x11)
    5098              $C$DW$715       .dwtag  DW_TAG_member
    5099                      .dwattr $C$DW$715, DW_AT_type(*$C$DW$T$27)
    5100                      .dwattr $C$DW$715, DW_AT_name("XCLK")
    5101                      .dwattr $C$DW$715, DW_AT_TI_symbol_name("_XCLK")
    5102                      .dwattr $C$DW$715, DW_AT_data_member_location[DW_OP_plus_uconst 0x0]
    5103                      .dwattr $C$DW$715, DW_AT_accessibility(DW_ACCESS_public)
    5104              $C$DW$716       .dwtag  DW_TAG_member
    5105                      .dwattr $C$DW$716, DW_AT_type(*$C$DW$T$27)
    5106                      .dwattr $C$DW$716, DW_AT_name("rsvd_1")
    5107                      .dwattr $C$DW$716, DW_AT_TI_symbol_name("_rsvd_1")
    5108                      .dwattr $C$DW$716, DW_AT_data_member_location[DW_OP_plus_uconst 0x1]
    5109                      .dwattr $C$DW$716, DW_AT_accessibility(DW_ACCESS_public)
    5110              $C$DW$717       .dwtag  DW_TAG_member
    5111                      .dwattr $C$DW$717, DW_AT_type(*$C$DW$T$27)
    5112                      .dwattr $C$DW$717, DW_AT_name("CLKCTL")
    5113                      .dwattr $C$DW$717, DW_AT_TI_symbol_name("_CLKCTL")
    5114                      .dwattr $C$DW$717, DW_AT_data_member_location[DW_OP_plus_uconst 0x2]
    5115                      .dwattr $C$DW$717, DW_AT_accessibility(DW_ACCESS_public)
    5116              $C$DW$718       .dwtag  DW_TAG_member
    5117                      .dwattr $C$DW$718, DW_AT_type(*$C$DW$T$38)
    5118                      .dwattr $C$DW$718, DW_AT_name("rsvd_2")
    5119                      .dwattr $C$DW$718, DW_AT_TI_symbol_name("_rsvd_2")
    5120                      .dwattr $C$DW$718, DW_AT_data_member_location[DW_OP_plus_uconst 0x3]
    5121                      .dwattr $C$DW$718, DW_AT_accessibility(DW_ACCESS_public)
    5122              $C$DW$719       .dwtag  DW_TAG_member
    5123                      .dwattr $C$DW$719, DW_AT_type(*$C$DW$T$27)
    5124                      .dwattr $C$DW$719, DW_AT_name("LOSPCP")
    5125                      .dwattr $C$DW$719, DW_AT_TI_symbol_name("_LOSPCP")
    5126                      .dwattr $C$DW$719, DW_AT_data_member_location[DW_OP_plus_uconst 0xb]
    5127                      .dwattr $C$DW$719, DW_AT_accessibility(DW_ACCESS_public)
    5128              $C$DW$720       .dwtag  DW_TAG_member
    5129                      .dwattr $C$DW$720, DW_AT_type(*$C$DW$T$27)
    5130                      .dwattr $C$DW$720, DW_AT_name("PCLKCR0")
    5131                      .dwattr $C$DW$720, DW_AT_TI_symbol_name("_PCLKCR0")
    5132                      .dwattr $C$DW$720, DW_AT_data_member_location[DW_OP_plus_uconst 0xc]
    5133                      .dwattr $C$DW$720, DW_AT_accessibility(DW_ACCESS_public)
    5134              $C$DW$721       .dwtag  DW_TAG_member
    5135                      .dwattr $C$DW$721, DW_AT_type(*$C$DW$T$27)
    5136                      .dwattr $C$DW$721, DW_AT_name("PCLKCR1")
    5137                      .dwattr $C$DW$721, DW_AT_TI_symbol_name("_PCLKCR1")
    5138                      .dwattr $C$DW$721, DW_AT_data_member_location[DW_OP_plus_uconst 0xd]
    5139                      .dwattr $C$DW$721, DW_AT_accessibility(DW_ACCESS_public)
    5140              $C$DW$722       .dwtag  DW_TAG_member
    5141                      .dwattr $C$DW$722, DW_AT_type(*$C$DW$T$30)
    5142                      .dwattr $C$DW$722, DW_AT_name("rsvd_3")
    5143                      .dwattr $C$DW$722, DW_AT_TI_symbol_name("_rsvd_3")
    5144                      .dwattr $C$DW$722, DW_AT_data_member_location[DW_OP_plus_uconst 0xe]
TMS320C2000 Assembler PC v6.4.4 Wed Jul 08 12:49:31 2015

Tools Copyright (c) 1996-2015 Texas Instruments Incorporated
C:\Users\grant\AppData\Local\Temp\0448010                            PAGE  102

    5145                      .dwattr $C$DW$722, DW_AT_accessibility(DW_ACCESS_public)
    5146              $C$DW$723       .dwtag  DW_TAG_member
    5147                      .dwattr $C$DW$723, DW_AT_type(*$C$DW$T$27)
    5148                      .dwattr $C$DW$723, DW_AT_name("PCLKCR3")
    5149                      .dwattr $C$DW$723, DW_AT_TI_symbol_name("_PCLKCR3")
    5150                      .dwattr $C$DW$723, DW_AT_data_member_location[DW_OP_plus_uconst 0x10]
    5151                      .dwattr $C$DW$723, DW_AT_accessibility(DW_ACCESS_public)
    5152                      .dwendtag $C$DW$T$39
    5153              
    5154              $C$DW$T$122     .dwtag  DW_TAG_pointer_type
    5155                      .dwattr $C$DW$T$122, DW_AT_type(*$C$DW$T$39)
    5156                      .dwattr $C$DW$T$122, DW_AT_address_class(0x20)
    5157              $C$DW$T$123     .dwtag  DW_TAG_typedef, DW_AT_name("CLK_Handle")
    5158                      .dwattr $C$DW$T$123, DW_AT_type(*$C$DW$T$122)
    5159                      .dwattr $C$DW$T$123, DW_AT_language(DW_LANG_C)
    5160              
    5161              $C$DW$T$40      .dwtag  DW_TAG_structure_type
    5162                      .dwattr $C$DW$T$40, DW_AT_name("_CPU_Obj_")
    5163                      .dwattr $C$DW$T$40, DW_AT_byte_size(0x01)
    5164              $C$DW$724       .dwtag  DW_TAG_member
    5165                      .dwattr $C$DW$724, DW_AT_type(*$C$DW$T$36)
    5166                      .dwattr $C$DW$724, DW_AT_name("tmp")
    5167                      .dwattr $C$DW$724, DW_AT_TI_symbol_name("_tmp")
    5168                      .dwattr $C$DW$724, DW_AT_data_member_location[DW_OP_plus_uconst 0x0]
    5169                      .dwattr $C$DW$724, DW_AT_accessibility(DW_ACCESS_public)
    5170                      .dwendtag $C$DW$T$40
    5171              
    5172              $C$DW$T$124     .dwtag  DW_TAG_pointer_type
    5173                      .dwattr $C$DW$T$124, DW_AT_type(*$C$DW$T$40)
    5174                      .dwattr $C$DW$T$124, DW_AT_address_class(0x20)
    5175              $C$DW$T$125     .dwtag  DW_TAG_typedef, DW_AT_name("CPU_Handle")
    5176                      .dwattr $C$DW$T$125, DW_AT_type(*$C$DW$T$124)
    5177                      .dwattr $C$DW$T$125, DW_AT_language(DW_LANG_C)
    5178              
    5179              $C$DW$T$74      .dwtag  DW_TAG_structure_type
    5180                      .dwattr $C$DW$T$74, DW_AT_name("_CTRL_Obj_")
    5181                      .dwattr $C$DW$T$74, DW_AT_byte_size(0x108)
    5182              $C$DW$725       .dwtag  DW_TAG_member
    5183                      .dwattr $C$DW$725, DW_AT_type(*$C$DW$T$41)
    5184                      .dwattr $C$DW$725, DW_AT_name("version")
    5185                      .dwattr $C$DW$725, DW_AT_TI_symbol_name("_version")
    5186                      .dwattr $C$DW$725, DW_AT_data_member_location[DW_OP_plus_uconst 0x0]
    5187                      .dwattr $C$DW$725, DW_AT_accessibility(DW_ACCESS_public)
    5188              $C$DW$726       .dwtag  DW_TAG_member
    5189                      .dwattr $C$DW$726, DW_AT_type(*$C$DW$T$43)
    5190                      .dwattr $C$DW$726, DW_AT_name("state")
    5191                      .dwattr $C$DW$726, DW_AT_TI_symbol_name("_state")
    5192                      .dwattr $C$DW$726, DW_AT_data_member_location[DW_OP_plus_uconst 0x4]
    5193                      .dwattr $C$DW$726, DW_AT_accessibility(DW_ACCESS_public)
    5194              $C$DW$727       .dwtag  DW_TAG_member
    5195                      .dwattr $C$DW$727, DW_AT_type(*$C$DW$T$43)
    5196                      .dwattr $C$DW$727, DW_AT_name("prevState")
    5197                      .dwattr $C$DW$727, DW_AT_TI_symbol_name("_prevState")
    5198                      .dwattr $C$DW$727, DW_AT_data_member_location[DW_OP_plus_uconst 0x5]
    5199                      .dwattr $C$DW$727, DW_AT_accessibility(DW_ACCESS_public)
TMS320C2000 Assembler PC v6.4.4 Wed Jul 08 12:49:31 2015

Tools Copyright (c) 1996-2015 Texas Instruments Incorporated
C:\Users\grant\AppData\Local\Temp\0448010                            PAGE  103

    5200              $C$DW$728       .dwtag  DW_TAG_member
    5201                      .dwattr $C$DW$728, DW_AT_type(*$C$DW$T$45)
    5202                      .dwattr $C$DW$728, DW_AT_name("errorCode")
    5203                      .dwattr $C$DW$728, DW_AT_TI_symbol_name("_errorCode")
    5204                      .dwattr $C$DW$728, DW_AT_data_member_location[DW_OP_plus_uconst 0x6]
    5205                      .dwattr $C$DW$728, DW_AT_accessibility(DW_ACCESS_public)
    5206              $C$DW$729       .dwtag  DW_TAG_member
    5207                      .dwattr $C$DW$729, DW_AT_type(*$C$DW$T$47)
    5208                      .dwattr $C$DW$729, DW_AT_name("clarkeHandle_I")
    5209                      .dwattr $C$DW$729, DW_AT_TI_symbol_name("_clarkeHandle_I")
    5210                      .dwattr $C$DW$729, DW_AT_data_member_location[DW_OP_plus_uconst 0x8]
    5211                      .dwattr $C$DW$729, DW_AT_accessibility(DW_ACCESS_public)
    5212              $C$DW$730       .dwtag  DW_TAG_member
    5213                      .dwattr $C$DW$730, DW_AT_type(*$C$DW$T$48)
    5214                      .dwattr $C$DW$730, DW_AT_name("clarke_I")
    5215                      .dwattr $C$DW$730, DW_AT_TI_symbol_name("_clarke_I")
    5216                      .dwattr $C$DW$730, DW_AT_data_member_location[DW_OP_plus_uconst 0xa]
    5217                      .dwattr $C$DW$730, DW_AT_accessibility(DW_ACCESS_public)
    5218              $C$DW$731       .dwtag  DW_TAG_member
    5219                      .dwattr $C$DW$731, DW_AT_type(*$C$DW$T$47)
    5220                      .dwattr $C$DW$731, DW_AT_name("clarkeHandle_V")
    5221                      .dwattr $C$DW$731, DW_AT_TI_symbol_name("_clarkeHandle_V")
    5222                      .dwattr $C$DW$731, DW_AT_data_member_location[DW_OP_plus_uconst 0x10]
    5223                      .dwattr $C$DW$731, DW_AT_accessibility(DW_ACCESS_public)
    5224              $C$DW$732       .dwtag  DW_TAG_member
    5225                      .dwattr $C$DW$732, DW_AT_type(*$C$DW$T$48)
    5226                      .dwattr $C$DW$732, DW_AT_name("clarke_V")
    5227                      .dwattr $C$DW$732, DW_AT_TI_symbol_name("_clarke_V")
    5228                      .dwattr $C$DW$732, DW_AT_data_member_location[DW_OP_plus_uconst 0x12]
    5229                      .dwattr $C$DW$732, DW_AT_accessibility(DW_ACCESS_public)
    5230              $C$DW$733       .dwtag  DW_TAG_member
    5231                      .dwattr $C$DW$733, DW_AT_type(*$C$DW$T$50)
    5232                      .dwattr $C$DW$733, DW_AT_name("estHandle")
    5233                      .dwattr $C$DW$733, DW_AT_TI_symbol_name("_estHandle")
    5234                      .dwattr $C$DW$733, DW_AT_data_member_location[DW_OP_plus_uconst 0x18]
    5235                      .dwattr $C$DW$733, DW_AT_accessibility(DW_ACCESS_public)
    5236              $C$DW$734       .dwtag  DW_TAG_member
    5237                      .dwattr $C$DW$734, DW_AT_type(*$C$DW$T$52)
    5238                      .dwattr $C$DW$734, DW_AT_name("parkHandle")
    5239                      .dwattr $C$DW$734, DW_AT_TI_symbol_name("_parkHandle")
    5240                      .dwattr $C$DW$734, DW_AT_data_member_location[DW_OP_plus_uconst 0x1a]
    5241                      .dwattr $C$DW$734, DW_AT_accessibility(DW_ACCESS_public)
    5242              $C$DW$735       .dwtag  DW_TAG_member
    5243                      .dwattr $C$DW$735, DW_AT_type(*$C$DW$T$53)
    5244                      .dwattr $C$DW$735, DW_AT_name("park")
    5245                      .dwattr $C$DW$735, DW_AT_TI_symbol_name("_park")
    5246                      .dwattr $C$DW$735, DW_AT_data_member_location[DW_OP_plus_uconst 0x1c]
    5247                      .dwattr $C$DW$735, DW_AT_accessibility(DW_ACCESS_public)
    5248              $C$DW$736       .dwtag  DW_TAG_member
    5249                      .dwattr $C$DW$736, DW_AT_type(*$C$DW$T$55)
    5250                      .dwattr $C$DW$736, DW_AT_name("pidHandle_Id")
    5251                      .dwattr $C$DW$736, DW_AT_TI_symbol_name("_pidHandle_Id")
    5252                      .dwattr $C$DW$736, DW_AT_data_member_location[DW_OP_plus_uconst 0x20]
    5253                      .dwattr $C$DW$736, DW_AT_accessibility(DW_ACCESS_public)
    5254              $C$DW$737       .dwtag  DW_TAG_member
TMS320C2000 Assembler PC v6.4.4 Wed Jul 08 12:49:31 2015

Tools Copyright (c) 1996-2015 Texas Instruments Incorporated
C:\Users\grant\AppData\Local\Temp\0448010                            PAGE  104

    5255                      .dwattr $C$DW$737, DW_AT_type(*$C$DW$T$56)
    5256                      .dwattr $C$DW$737, DW_AT_name("pid_Id")
    5257                      .dwattr $C$DW$737, DW_AT_TI_symbol_name("_pid_Id")
    5258                      .dwattr $C$DW$737, DW_AT_data_member_location[DW_OP_plus_uconst 0x22]
    5259                      .dwattr $C$DW$737, DW_AT_accessibility(DW_ACCESS_public)
    5260              $C$DW$738       .dwtag  DW_TAG_member
    5261                      .dwattr $C$DW$738, DW_AT_type(*$C$DW$T$55)
    5262                      .dwattr $C$DW$738, DW_AT_name("pidHandle_Iq")
    5263                      .dwattr $C$DW$738, DW_AT_TI_symbol_name("_pidHandle_Iq")
    5264                      .dwattr $C$DW$738, DW_AT_data_member_location[DW_OP_plus_uconst 0x32]
    5265                      .dwattr $C$DW$738, DW_AT_accessibility(DW_ACCESS_public)
    5266              $C$DW$739       .dwtag  DW_TAG_member
    5267                      .dwattr $C$DW$739, DW_AT_type(*$C$DW$T$56)
    5268                      .dwattr $C$DW$739, DW_AT_name("pid_Iq")
    5269                      .dwattr $C$DW$739, DW_AT_TI_symbol_name("_pid_Iq")
    5270                      .dwattr $C$DW$739, DW_AT_data_member_location[DW_OP_plus_uconst 0x34]
    5271                      .dwattr $C$DW$739, DW_AT_accessibility(DW_ACCESS_public)
    5272              $C$DW$740       .dwtag  DW_TAG_member
    5273                      .dwattr $C$DW$740, DW_AT_type(*$C$DW$T$55)
    5274                      .dwattr $C$DW$740, DW_AT_name("pidHandle_spd")
    5275                      .dwattr $C$DW$740, DW_AT_TI_symbol_name("_pidHandle_spd")
    5276                      .dwattr $C$DW$740, DW_AT_data_member_location[DW_OP_plus_uconst 0x44]
    5277                      .dwattr $C$DW$740, DW_AT_accessibility(DW_ACCESS_public)
    5278              $C$DW$741       .dwtag  DW_TAG_member
    5279                      .dwattr $C$DW$741, DW_AT_type(*$C$DW$T$56)
    5280                      .dwattr $C$DW$741, DW_AT_name("pid_spd")
    5281                      .dwattr $C$DW$741, DW_AT_TI_symbol_name("_pid_spd")
    5282                      .dwattr $C$DW$741, DW_AT_data_member_location[DW_OP_plus_uconst 0x46]
    5283                      .dwattr $C$DW$741, DW_AT_accessibility(DW_ACCESS_public)
    5284              $C$DW$742       .dwtag  DW_TAG_member
    5285                      .dwattr $C$DW$742, DW_AT_type(*$C$DW$T$58)
    5286                      .dwattr $C$DW$742, DW_AT_name("iparkHandle")
    5287                      .dwattr $C$DW$742, DW_AT_TI_symbol_name("_iparkHandle")
    5288                      .dwattr $C$DW$742, DW_AT_data_member_location[DW_OP_plus_uconst 0x56]
    5289                      .dwattr $C$DW$742, DW_AT_accessibility(DW_ACCESS_public)
    5290              $C$DW$743       .dwtag  DW_TAG_member
    5291                      .dwattr $C$DW$743, DW_AT_type(*$C$DW$T$59)
    5292                      .dwattr $C$DW$743, DW_AT_name("ipark")
    5293                      .dwattr $C$DW$743, DW_AT_TI_symbol_name("_ipark")
    5294                      .dwattr $C$DW$743, DW_AT_data_member_location[DW_OP_plus_uconst 0x58]
    5295                      .dwattr $C$DW$743, DW_AT_accessibility(DW_ACCESS_public)
    5296              $C$DW$744       .dwtag  DW_TAG_member
    5297                      .dwattr $C$DW$744, DW_AT_type(*$C$DW$T$61)
    5298                      .dwattr $C$DW$744, DW_AT_name("svgenHandle")
    5299                      .dwattr $C$DW$744, DW_AT_TI_symbol_name("_svgenHandle")
    5300                      .dwattr $C$DW$744, DW_AT_data_member_location[DW_OP_plus_uconst 0x5c]
    5301                      .dwattr $C$DW$744, DW_AT_accessibility(DW_ACCESS_public)
    5302              $C$DW$745       .dwtag  DW_TAG_member
    5303                      .dwattr $C$DW$745, DW_AT_type(*$C$DW$T$62)
    5304                      .dwattr $C$DW$745, DW_AT_name("svgen")
    5305                      .dwattr $C$DW$745, DW_AT_TI_symbol_name("_svgen")
    5306                      .dwattr $C$DW$745, DW_AT_data_member_location[DW_OP_plus_uconst 0x5e]
    5307                      .dwattr $C$DW$745, DW_AT_accessibility(DW_ACCESS_public)
    5308              $C$DW$746       .dwtag  DW_TAG_member
    5309                      .dwattr $C$DW$746, DW_AT_type(*$C$DW$T$64)
TMS320C2000 Assembler PC v6.4.4 Wed Jul 08 12:49:31 2015

Tools Copyright (c) 1996-2015 Texas Instruments Incorporated
C:\Users\grant\AppData\Local\Temp\0448010                            PAGE  105

    5310                      .dwattr $C$DW$746, DW_AT_name("trajHandle_Id")
    5311                      .dwattr $C$DW$746, DW_AT_TI_symbol_name("_trajHandle_Id")
    5312                      .dwattr $C$DW$746, DW_AT_data_member_location[DW_OP_plus_uconst 0x60]
    5313                      .dwattr $C$DW$746, DW_AT_accessibility(DW_ACCESS_public)
    5314              $C$DW$747       .dwtag  DW_TAG_member
    5315                      .dwattr $C$DW$747, DW_AT_type(*$C$DW$T$65)
    5316                      .dwattr $C$DW$747, DW_AT_name("traj_Id")
    5317                      .dwattr $C$DW$747, DW_AT_TI_symbol_name("_traj_Id")
    5318                      .dwattr $C$DW$747, DW_AT_data_member_location[DW_OP_plus_uconst 0x62]
    5319                      .dwattr $C$DW$747, DW_AT_accessibility(DW_ACCESS_public)
    5320              $C$DW$748       .dwtag  DW_TAG_member
    5321                      .dwattr $C$DW$748, DW_AT_type(*$C$DW$T$64)
    5322                      .dwattr $C$DW$748, DW_AT_name("trajHandle_spd")
    5323                      .dwattr $C$DW$748, DW_AT_TI_symbol_name("_trajHandle_spd")
    5324                      .dwattr $C$DW$748, DW_AT_data_member_location[DW_OP_plus_uconst 0x6c]
    5325                      .dwattr $C$DW$748, DW_AT_accessibility(DW_ACCESS_public)
    5326              $C$DW$749       .dwtag  DW_TAG_member
    5327                      .dwattr $C$DW$749, DW_AT_type(*$C$DW$T$65)
    5328                      .dwattr $C$DW$749, DW_AT_name("traj_spd")
    5329                      .dwattr $C$DW$749, DW_AT_TI_symbol_name("_traj_spd")
    5330                      .dwattr $C$DW$749, DW_AT_data_member_location[DW_OP_plus_uconst 0x6e]
    5331                      .dwattr $C$DW$749, DW_AT_accessibility(DW_ACCESS_public)
    5332              $C$DW$750       .dwtag  DW_TAG_member
    5333                      .dwattr $C$DW$750, DW_AT_type(*$C$DW$T$64)
    5334                      .dwattr $C$DW$750, DW_AT_name("trajHandle_spdMax")
    5335                      .dwattr $C$DW$750, DW_AT_TI_symbol_name("_trajHandle_spdMax")
    5336                      .dwattr $C$DW$750, DW_AT_data_member_location[DW_OP_plus_uconst 0x78]
    5337                      .dwattr $C$DW$750, DW_AT_accessibility(DW_ACCESS_public)
    5338              $C$DW$751       .dwtag  DW_TAG_member
    5339                      .dwattr $C$DW$751, DW_AT_type(*$C$DW$T$65)
    5340                      .dwattr $C$DW$751, DW_AT_name("traj_spdMax")
    5341                      .dwattr $C$DW$751, DW_AT_TI_symbol_name("_traj_spdMax")
    5342                      .dwattr $C$DW$751, DW_AT_data_member_location[DW_OP_plus_uconst 0x7a]
    5343                      .dwattr $C$DW$751, DW_AT_accessibility(DW_ACCESS_public)
    5344              $C$DW$752       .dwtag  DW_TAG_member
    5345                      .dwattr $C$DW$752, DW_AT_type(*$C$DW$T$66)
    5346                      .dwattr $C$DW$752, DW_AT_name("motorParams")
    5347                      .dwattr $C$DW$752, DW_AT_TI_symbol_name("_motorParams")
    5348                      .dwattr $C$DW$752, DW_AT_data_member_location[DW_OP_plus_uconst 0x84]
    5349                      .dwattr $C$DW$752, DW_AT_accessibility(DW_ACCESS_public)
    5350              $C$DW$753       .dwtag  DW_TAG_member
    5351                      .dwattr $C$DW$753, DW_AT_type(*$C$DW$T$69)
    5352                      .dwattr $C$DW$753, DW_AT_name("waitTimes")
    5353                      .dwattr $C$DW$753, DW_AT_TI_symbol_name("_waitTimes")
    5354                      .dwattr $C$DW$753, DW_AT_data_member_location[DW_OP_plus_uconst 0x92]
    5355                      .dwattr $C$DW$753, DW_AT_accessibility(DW_ACCESS_public)
    5356              $C$DW$754       .dwtag  DW_TAG_member
    5357                      .dwattr $C$DW$754, DW_AT_type(*$C$DW$T$68)
    5358                      .dwattr $C$DW$754, DW_AT_name("counter_state")
    5359                      .dwattr $C$DW$754, DW_AT_TI_symbol_name("_counter_state")
    5360                      .dwattr $C$DW$754, DW_AT_data_member_location[DW_OP_plus_uconst 0x9a]
    5361                      .dwattr $C$DW$754, DW_AT_accessibility(DW_ACCESS_public)
    5362              $C$DW$755       .dwtag  DW_TAG_member
    5363                      .dwattr $C$DW$755, DW_AT_type(*$C$DW$T$70)
    5364                      .dwattr $C$DW$755, DW_AT_name("numIsrTicksPerCtrlTick")
TMS320C2000 Assembler PC v6.4.4 Wed Jul 08 12:49:31 2015

Tools Copyright (c) 1996-2015 Texas Instruments Incorporated
C:\Users\grant\AppData\Local\Temp\0448010                            PAGE  106

    5365                      .dwattr $C$DW$755, DW_AT_TI_symbol_name("_numIsrTicksPerCtrlTick")
    5366                      .dwattr $C$DW$755, DW_AT_data_member_location[DW_OP_plus_uconst 0x9c]
    5367                      .dwattr $C$DW$755, DW_AT_accessibility(DW_ACCESS_public)
    5368              $C$DW$756       .dwtag  DW_TAG_member
    5369                      .dwattr $C$DW$756, DW_AT_type(*$C$DW$T$70)
    5370                      .dwattr $C$DW$756, DW_AT_name("numCtrlTicksPerCurrentTick")
    5371                      .dwattr $C$DW$756, DW_AT_TI_symbol_name("_numCtrlTicksPerCurrentTick")
    5372                      .dwattr $C$DW$756, DW_AT_data_member_location[DW_OP_plus_uconst 0x9d]
    5373                      .dwattr $C$DW$756, DW_AT_accessibility(DW_ACCESS_public)
    5374              $C$DW$757       .dwtag  DW_TAG_member
    5375                      .dwattr $C$DW$757, DW_AT_type(*$C$DW$T$70)
    5376                      .dwattr $C$DW$757, DW_AT_name("numCtrlTicksPerSpeedTick")
    5377                      .dwattr $C$DW$757, DW_AT_TI_symbol_name("_numCtrlTicksPerSpeedTick")
    5378                      .dwattr $C$DW$757, DW_AT_data_member_location[DW_OP_plus_uconst 0x9e]
    5379                      .dwattr $C$DW$757, DW_AT_accessibility(DW_ACCESS_public)
    5380              $C$DW$758       .dwtag  DW_TAG_member
    5381                      .dwattr $C$DW$758, DW_AT_type(*$C$DW$T$70)
    5382                      .dwattr $C$DW$758, DW_AT_name("numCtrlTicksPerTrajTick")
    5383                      .dwattr $C$DW$758, DW_AT_TI_symbol_name("_numCtrlTicksPerTrajTick")
    5384                      .dwattr $C$DW$758, DW_AT_data_member_location[DW_OP_plus_uconst 0x9f]
    5385                      .dwattr $C$DW$758, DW_AT_accessibility(DW_ACCESS_public)
    5386              $C$DW$759       .dwtag  DW_TAG_member
    5387                      .dwattr $C$DW$759, DW_AT_type(*$C$DW$T$68)
    5388                      .dwattr $C$DW$759, DW_AT_name("ctrlFreq_Hz")
    5389                      .dwattr $C$DW$759, DW_AT_TI_symbol_name("_ctrlFreq_Hz")
    5390                      .dwattr $C$DW$759, DW_AT_data_member_location[DW_OP_plus_uconst 0xa0]
    5391                      .dwattr $C$DW$759, DW_AT_accessibility(DW_ACCESS_public)
    5392              $C$DW$760       .dwtag  DW_TAG_member
    5393                      .dwattr $C$DW$760, DW_AT_type(*$C$DW$T$68)
    5394                      .dwattr $C$DW$760, DW_AT_name("trajFreq_Hz")
    5395                      .dwattr $C$DW$760, DW_AT_TI_symbol_name("_trajFreq_Hz")
    5396                      .dwattr $C$DW$760, DW_AT_data_member_location[DW_OP_plus_uconst 0xa2]
    5397                      .dwattr $C$DW$760, DW_AT_accessibility(DW_ACCESS_public)
    5398              $C$DW$761       .dwtag  DW_TAG_member
    5399                      .dwattr $C$DW$761, DW_AT_type(*$C$DW$T$35)
    5400                      .dwattr $C$DW$761, DW_AT_name("trajPeriod_sec")
    5401                      .dwattr $C$DW$761, DW_AT_TI_symbol_name("_trajPeriod_sec")
    5402                      .dwattr $C$DW$761, DW_AT_data_member_location[DW_OP_plus_uconst 0xa4]
    5403                      .dwattr $C$DW$761, DW_AT_accessibility(DW_ACCESS_public)
    5404              $C$DW$762       .dwtag  DW_TAG_member
    5405                      .dwattr $C$DW$762, DW_AT_type(*$C$DW$T$71)
    5406                      .dwattr $C$DW$762, DW_AT_name("ctrlPeriod_sec")
    5407                      .dwattr $C$DW$762, DW_AT_TI_symbol_name("_ctrlPeriod_sec")
    5408                      .dwattr $C$DW$762, DW_AT_data_member_location[DW_OP_plus_uconst 0xa6]
    5409                      .dwattr $C$DW$762, DW_AT_accessibility(DW_ACCESS_public)
    5410              $C$DW$763       .dwtag  DW_TAG_member
    5411                      .dwattr $C$DW$763, DW_AT_type(*$C$DW$T$35)
    5412                      .dwattr $C$DW$763, DW_AT_name("maxVsMag_pu")
    5413                      .dwattr $C$DW$763, DW_AT_TI_symbol_name("_maxVsMag_pu")
    5414                      .dwattr $C$DW$763, DW_AT_data_member_location[DW_OP_plus_uconst 0xa8]
    5415                      .dwattr $C$DW$763, DW_AT_accessibility(DW_ACCESS_public)
    5416              $C$DW$764       .dwtag  DW_TAG_member
    5417                      .dwattr $C$DW$764, DW_AT_type(*$C$DW$T$72)
    5418                      .dwattr $C$DW$764, DW_AT_name("Iab_in")
    5419                      .dwattr $C$DW$764, DW_AT_TI_symbol_name("_Iab_in")
TMS320C2000 Assembler PC v6.4.4 Wed Jul 08 12:49:31 2015

Tools Copyright (c) 1996-2015 Texas Instruments Incorporated
C:\Users\grant\AppData\Local\Temp\0448010                            PAGE  107

    5420                      .dwattr $C$DW$764, DW_AT_data_member_location[DW_OP_plus_uconst 0xaa]
    5421                      .dwattr $C$DW$764, DW_AT_accessibility(DW_ACCESS_public)
    5422              $C$DW$765       .dwtag  DW_TAG_member
    5423                      .dwattr $C$DW$765, DW_AT_type(*$C$DW$T$72)
    5424                      .dwattr $C$DW$765, DW_AT_name("Iab_filt")
    5425                      .dwattr $C$DW$765, DW_AT_TI_symbol_name("_Iab_filt")
    5426                      .dwattr $C$DW$765, DW_AT_data_member_location[DW_OP_plus_uconst 0xae]
    5427                      .dwattr $C$DW$765, DW_AT_accessibility(DW_ACCESS_public)
    5428              $C$DW$766       .dwtag  DW_TAG_member
    5429                      .dwattr $C$DW$766, DW_AT_type(*$C$DW$T$72)
    5430                      .dwattr $C$DW$766, DW_AT_name("Idq_in")
    5431                      .dwattr $C$DW$766, DW_AT_TI_symbol_name("_Idq_in")
    5432                      .dwattr $C$DW$766, DW_AT_data_member_location[DW_OP_plus_uconst 0xb2]
    5433                      .dwattr $C$DW$766, DW_AT_accessibility(DW_ACCESS_public)
    5434              $C$DW$767       .dwtag  DW_TAG_member
    5435                      .dwattr $C$DW$767, DW_AT_type(*$C$DW$T$72)
    5436                      .dwattr $C$DW$767, DW_AT_name("Vab_in")
    5437                      .dwattr $C$DW$767, DW_AT_TI_symbol_name("_Vab_in")
    5438                      .dwattr $C$DW$767, DW_AT_data_member_location[DW_OP_plus_uconst 0xb6]
    5439                      .dwattr $C$DW$767, DW_AT_accessibility(DW_ACCESS_public)
    5440              $C$DW$768       .dwtag  DW_TAG_member
    5441                      .dwattr $C$DW$768, DW_AT_type(*$C$DW$T$35)
    5442                      .dwattr $C$DW$768, DW_AT_name("spd_out")
    5443                      .dwattr $C$DW$768, DW_AT_TI_symbol_name("_spd_out")
    5444                      .dwattr $C$DW$768, DW_AT_data_member_location[DW_OP_plus_uconst 0xba]
    5445                      .dwattr $C$DW$768, DW_AT_accessibility(DW_ACCESS_public)
    5446              $C$DW$769       .dwtag  DW_TAG_member
    5447                      .dwattr $C$DW$769, DW_AT_type(*$C$DW$T$72)
    5448                      .dwattr $C$DW$769, DW_AT_name("Vab_out")
    5449                      .dwattr $C$DW$769, DW_AT_TI_symbol_name("_Vab_out")
    5450                      .dwattr $C$DW$769, DW_AT_data_member_location[DW_OP_plus_uconst 0xbc]
    5451                      .dwattr $C$DW$769, DW_AT_accessibility(DW_ACCESS_public)
    5452              $C$DW$770       .dwtag  DW_TAG_member
    5453                      .dwattr $C$DW$770, DW_AT_type(*$C$DW$T$72)
    5454                      .dwattr $C$DW$770, DW_AT_name("Vdq_out")
    5455                      .dwattr $C$DW$770, DW_AT_TI_symbol_name("_Vdq_out")
    5456                      .dwattr $C$DW$770, DW_AT_data_member_location[DW_OP_plus_uconst 0xc0]
    5457                      .dwattr $C$DW$770, DW_AT_accessibility(DW_ACCESS_public)
    5458              $C$DW$771       .dwtag  DW_TAG_member
    5459                      .dwattr $C$DW$771, DW_AT_type(*$C$DW$T$71)
    5460                      .dwattr $C$DW$771, DW_AT_name("Rhf")
    5461                      .dwattr $C$DW$771, DW_AT_TI_symbol_name("_Rhf")
    5462                      .dwattr $C$DW$771, DW_AT_data_member_location[DW_OP_plus_uconst 0xc4]
    5463                      .dwattr $C$DW$771, DW_AT_accessibility(DW_ACCESS_public)
    5464              $C$DW$772       .dwtag  DW_TAG_member
    5465                      .dwattr $C$DW$772, DW_AT_type(*$C$DW$T$71)
    5466                      .dwattr $C$DW$772, DW_AT_name("Lhf")
    5467                      .dwattr $C$DW$772, DW_AT_TI_symbol_name("_Lhf")
    5468                      .dwattr $C$DW$772, DW_AT_data_member_location[DW_OP_plus_uconst 0xc6]
    5469                      .dwattr $C$DW$772, DW_AT_accessibility(DW_ACCESS_public)
    5470              $C$DW$773       .dwtag  DW_TAG_member
    5471                      .dwattr $C$DW$773, DW_AT_type(*$C$DW$T$71)
    5472                      .dwattr $C$DW$773, DW_AT_name("RoverL")
    5473                      .dwattr $C$DW$773, DW_AT_TI_symbol_name("_RoverL")
    5474                      .dwattr $C$DW$773, DW_AT_data_member_location[DW_OP_plus_uconst 0xc8]
TMS320C2000 Assembler PC v6.4.4 Wed Jul 08 12:49:31 2015

Tools Copyright (c) 1996-2015 Texas Instruments Incorporated
C:\Users\grant\AppData\Local\Temp\0448010                            PAGE  108

    5475                      .dwattr $C$DW$773, DW_AT_accessibility(DW_ACCESS_public)
    5476              $C$DW$774       .dwtag  DW_TAG_member
    5477                      .dwattr $C$DW$774, DW_AT_type(*$C$DW$T$35)
    5478                      .dwattr $C$DW$774, DW_AT_name("Kp_Id")
    5479                      .dwattr $C$DW$774, DW_AT_TI_symbol_name("_Kp_Id")
    5480                      .dwattr $C$DW$774, DW_AT_data_member_location[DW_OP_plus_uconst 0xca]
    5481                      .dwattr $C$DW$774, DW_AT_accessibility(DW_ACCESS_public)
    5482              $C$DW$775       .dwtag  DW_TAG_member
    5483                      .dwattr $C$DW$775, DW_AT_type(*$C$DW$T$35)
    5484                      .dwattr $C$DW$775, DW_AT_name("Kp_Iq")
    5485                      .dwattr $C$DW$775, DW_AT_TI_symbol_name("_Kp_Iq")
    5486                      .dwattr $C$DW$775, DW_AT_data_member_location[DW_OP_plus_uconst 0xcc]
    5487                      .dwattr $C$DW$775, DW_AT_accessibility(DW_ACCESS_public)
    5488              $C$DW$776       .dwtag  DW_TAG_member
    5489                      .dwattr $C$DW$776, DW_AT_type(*$C$DW$T$35)
    5490                      .dwattr $C$DW$776, DW_AT_name("Kp_spd")
    5491                      .dwattr $C$DW$776, DW_AT_TI_symbol_name("_Kp_spd")
    5492                      .dwattr $C$DW$776, DW_AT_data_member_location[DW_OP_plus_uconst 0xce]
    5493                      .dwattr $C$DW$776, DW_AT_accessibility(DW_ACCESS_public)
    5494              $C$DW$777       .dwtag  DW_TAG_member
    5495                      .dwattr $C$DW$777, DW_AT_type(*$C$DW$T$35)
    5496                      .dwattr $C$DW$777, DW_AT_name("Ki_Id")
    5497                      .dwattr $C$DW$777, DW_AT_TI_symbol_name("_Ki_Id")
    5498                      .dwattr $C$DW$777, DW_AT_data_member_location[DW_OP_plus_uconst 0xd0]
    5499                      .dwattr $C$DW$777, DW_AT_accessibility(DW_ACCESS_public)
    5500              $C$DW$778       .dwtag  DW_TAG_member
    5501                      .dwattr $C$DW$778, DW_AT_type(*$C$DW$T$35)
    5502                      .dwattr $C$DW$778, DW_AT_name("Ki_Iq")
    5503                      .dwattr $C$DW$778, DW_AT_TI_symbol_name("_Ki_Iq")
    5504                      .dwattr $C$DW$778, DW_AT_data_member_location[DW_OP_plus_uconst 0xd2]
    5505                      .dwattr $C$DW$778, DW_AT_accessibility(DW_ACCESS_public)
    5506              $C$DW$779       .dwtag  DW_TAG_member
    5507                      .dwattr $C$DW$779, DW_AT_type(*$C$DW$T$35)
    5508                      .dwattr $C$DW$779, DW_AT_name("Ki_spd")
    5509                      .dwattr $C$DW$779, DW_AT_TI_symbol_name("_Ki_spd")
    5510                      .dwattr $C$DW$779, DW_AT_data_member_location[DW_OP_plus_uconst 0xd4]
    5511                      .dwattr $C$DW$779, DW_AT_accessibility(DW_ACCESS_public)
    5512              $C$DW$780       .dwtag  DW_TAG_member
    5513                      .dwattr $C$DW$780, DW_AT_type(*$C$DW$T$35)
    5514                      .dwattr $C$DW$780, DW_AT_name("Kd_Id")
    5515                      .dwattr $C$DW$780, DW_AT_TI_symbol_name("_Kd_Id")
    5516                      .dwattr $C$DW$780, DW_AT_data_member_location[DW_OP_plus_uconst 0xd6]
    5517                      .dwattr $C$DW$780, DW_AT_accessibility(DW_ACCESS_public)
    5518              $C$DW$781       .dwtag  DW_TAG_member
    5519                      .dwattr $C$DW$781, DW_AT_type(*$C$DW$T$35)
    5520                      .dwattr $C$DW$781, DW_AT_name("Kd_Iq")
    5521                      .dwattr $C$DW$781, DW_AT_TI_symbol_name("_Kd_Iq")
    5522                      .dwattr $C$DW$781, DW_AT_data_member_location[DW_OP_plus_uconst 0xd8]
    5523                      .dwattr $C$DW$781, DW_AT_accessibility(DW_ACCESS_public)
    5524              $C$DW$782       .dwtag  DW_TAG_member
    5525                      .dwattr $C$DW$782, DW_AT_type(*$C$DW$T$35)
    5526                      .dwattr $C$DW$782, DW_AT_name("Kd_spd")
    5527                      .dwattr $C$DW$782, DW_AT_TI_symbol_name("_Kd_spd")
    5528                      .dwattr $C$DW$782, DW_AT_data_member_location[DW_OP_plus_uconst 0xda]
    5529                      .dwattr $C$DW$782, DW_AT_accessibility(DW_ACCESS_public)
TMS320C2000 Assembler PC v6.4.4 Wed Jul 08 12:49:31 2015

Tools Copyright (c) 1996-2015 Texas Instruments Incorporated
C:\Users\grant\AppData\Local\Temp\0448010                            PAGE  109

    5530              $C$DW$783       .dwtag  DW_TAG_member
    5531                      .dwattr $C$DW$783, DW_AT_type(*$C$DW$T$35)
    5532                      .dwattr $C$DW$783, DW_AT_name("Ui_Id")
    5533                      .dwattr $C$DW$783, DW_AT_TI_symbol_name("_Ui_Id")
    5534                      .dwattr $C$DW$783, DW_AT_data_member_location[DW_OP_plus_uconst 0xdc]
    5535                      .dwattr $C$DW$783, DW_AT_accessibility(DW_ACCESS_public)
    5536              $C$DW$784       .dwtag  DW_TAG_member
    5537                      .dwattr $C$DW$784, DW_AT_type(*$C$DW$T$35)
    5538                      .dwattr $C$DW$784, DW_AT_name("Ui_Iq")
    5539                      .dwattr $C$DW$784, DW_AT_TI_symbol_name("_Ui_Iq")
    5540                      .dwattr $C$DW$784, DW_AT_data_member_location[DW_OP_plus_uconst 0xde]
    5541                      .dwattr $C$DW$784, DW_AT_accessibility(DW_ACCESS_public)
    5542              $C$DW$785       .dwtag  DW_TAG_member
    5543                      .dwattr $C$DW$785, DW_AT_type(*$C$DW$T$35)
    5544                      .dwattr $C$DW$785, DW_AT_name("Ui_spd")
    5545                      .dwattr $C$DW$785, DW_AT_TI_symbol_name("_Ui_spd")
    5546                      .dwattr $C$DW$785, DW_AT_data_member_location[DW_OP_plus_uconst 0xe0]
    5547                      .dwattr $C$DW$785, DW_AT_accessibility(DW_ACCESS_public)
    5548              $C$DW$786       .dwtag  DW_TAG_member
    5549                      .dwattr $C$DW$786, DW_AT_type(*$C$DW$T$72)
    5550                      .dwattr $C$DW$786, DW_AT_name("Idq_ref")
    5551                      .dwattr $C$DW$786, DW_AT_TI_symbol_name("_Idq_ref")
    5552                      .dwattr $C$DW$786, DW_AT_data_member_location[DW_OP_plus_uconst 0xe2]
    5553                      .dwattr $C$DW$786, DW_AT_accessibility(DW_ACCESS_public)
    5554              $C$DW$787       .dwtag  DW_TAG_member
    5555                      .dwattr $C$DW$787, DW_AT_type(*$C$DW$T$35)
    5556                      .dwattr $C$DW$787, DW_AT_name("IdRated")
    5557                      .dwattr $C$DW$787, DW_AT_TI_symbol_name("_IdRated")
    5558                      .dwattr $C$DW$787, DW_AT_data_member_location[DW_OP_plus_uconst 0xe6]
    5559                      .dwattr $C$DW$787, DW_AT_accessibility(DW_ACCESS_public)
    5560              $C$DW$788       .dwtag  DW_TAG_member
    5561                      .dwattr $C$DW$788, DW_AT_type(*$C$DW$T$35)
    5562                      .dwattr $C$DW$788, DW_AT_name("spd_ref")
    5563                      .dwattr $C$DW$788, DW_AT_TI_symbol_name("_spd_ref")
    5564                      .dwattr $C$DW$788, DW_AT_data_member_location[DW_OP_plus_uconst 0xe8]
    5565                      .dwattr $C$DW$788, DW_AT_accessibility(DW_ACCESS_public)
    5566              $C$DW$789       .dwtag  DW_TAG_member
    5567                      .dwattr $C$DW$789, DW_AT_type(*$C$DW$T$35)
    5568                      .dwattr $C$DW$789, DW_AT_name("spd_max")
    5569                      .dwattr $C$DW$789, DW_AT_TI_symbol_name("_spd_max")
    5570                      .dwattr $C$DW$789, DW_AT_data_member_location[DW_OP_plus_uconst 0xea]
    5571                      .dwattr $C$DW$789, DW_AT_accessibility(DW_ACCESS_public)
    5572              $C$DW$790       .dwtag  DW_TAG_member
    5573                      .dwattr $C$DW$790, DW_AT_type(*$C$DW$T$70)
    5574                      .dwattr $C$DW$790, DW_AT_name("counter_current")
    5575                      .dwattr $C$DW$790, DW_AT_TI_symbol_name("_counter_current")
    5576                      .dwattr $C$DW$790, DW_AT_data_member_location[DW_OP_plus_uconst 0xec]
    5577                      .dwattr $C$DW$790, DW_AT_accessibility(DW_ACCESS_public)
    5578              $C$DW$791       .dwtag  DW_TAG_member
    5579                      .dwattr $C$DW$791, DW_AT_type(*$C$DW$T$70)
    5580                      .dwattr $C$DW$791, DW_AT_name("counter_isr")
    5581                      .dwattr $C$DW$791, DW_AT_TI_symbol_name("_counter_isr")
    5582                      .dwattr $C$DW$791, DW_AT_data_member_location[DW_OP_plus_uconst 0xed]
    5583                      .dwattr $C$DW$791, DW_AT_accessibility(DW_ACCESS_public)
    5584              $C$DW$792       .dwtag  DW_TAG_member
TMS320C2000 Assembler PC v6.4.4 Wed Jul 08 12:49:31 2015

Tools Copyright (c) 1996-2015 Texas Instruments Incorporated
C:\Users\grant\AppData\Local\Temp\0448010                            PAGE  110

    5585                      .dwattr $C$DW$792, DW_AT_type(*$C$DW$T$70)
    5586                      .dwattr $C$DW$792, DW_AT_name("counter_speed")
    5587                      .dwattr $C$DW$792, DW_AT_TI_symbol_name("_counter_speed")
    5588                      .dwattr $C$DW$792, DW_AT_data_member_location[DW_OP_plus_uconst 0xee]
    5589                      .dwattr $C$DW$792, DW_AT_accessibility(DW_ACCESS_public)
    5590              $C$DW$793       .dwtag  DW_TAG_member
    5591                      .dwattr $C$DW$793, DW_AT_type(*$C$DW$T$70)
    5592                      .dwattr $C$DW$793, DW_AT_name("counter_traj")
    5593                      .dwattr $C$DW$793, DW_AT_TI_symbol_name("_counter_traj")
    5594                      .dwattr $C$DW$793, DW_AT_data_member_location[DW_OP_plus_uconst 0xef]
    5595                      .dwattr $C$DW$793, DW_AT_accessibility(DW_ACCESS_public)
    5596              $C$DW$794       .dwtag  DW_TAG_member
    5597                      .dwattr $C$DW$794, DW_AT_type(*$C$DW$T$73)
    5598                      .dwattr $C$DW$794, DW_AT_name("flag_enableCtrl")
    5599                      .dwattr $C$DW$794, DW_AT_TI_symbol_name("_flag_enableCtrl")
    5600                      .dwattr $C$DW$794, DW_AT_data_member_location[DW_OP_plus_uconst 0xf0]
    5601                      .dwattr $C$DW$794, DW_AT_accessibility(DW_ACCESS_public)
    5602              $C$DW$795       .dwtag  DW_TAG_member
    5603                      .dwattr $C$DW$795, DW_AT_type(*$C$DW$T$73)
    5604                      .dwattr $C$DW$795, DW_AT_name("flag_enableDcBusComp")
    5605                      .dwattr $C$DW$795, DW_AT_TI_symbol_name("_flag_enableDcBusComp")
    5606                      .dwattr $C$DW$795, DW_AT_data_member_location[DW_OP_plus_uconst 0xf1]
    5607                      .dwattr $C$DW$795, DW_AT_accessibility(DW_ACCESS_public)
    5608              $C$DW$796       .dwtag  DW_TAG_member
    5609                      .dwattr $C$DW$796, DW_AT_type(*$C$DW$T$73)
    5610                      .dwattr $C$DW$796, DW_AT_name("flag_enablePowerWarp")
    5611                      .dwattr $C$DW$796, DW_AT_TI_symbol_name("_flag_enablePowerWarp")
    5612                      .dwattr $C$DW$796, DW_AT_data_member_location[DW_OP_plus_uconst 0xf2]
    5613                      .dwattr $C$DW$796, DW_AT_accessibility(DW_ACCESS_public)
    5614              $C$DW$797       .dwtag  DW_TAG_member
    5615                      .dwattr $C$DW$797, DW_AT_type(*$C$DW$T$73)
    5616                      .dwattr $C$DW$797, DW_AT_name("flag_enableOffset")
    5617                      .dwattr $C$DW$797, DW_AT_TI_symbol_name("_flag_enableOffset")
    5618                      .dwattr $C$DW$797, DW_AT_data_member_location[DW_OP_plus_uconst 0xf3]
    5619                      .dwattr $C$DW$797, DW_AT_accessibility(DW_ACCESS_public)
    5620              $C$DW$798       .dwtag  DW_TAG_member
    5621                      .dwattr $C$DW$798, DW_AT_type(*$C$DW$T$73)
    5622                      .dwattr $C$DW$798, DW_AT_name("flag_enableSpeedCtrl")
    5623                      .dwattr $C$DW$798, DW_AT_TI_symbol_name("_flag_enableSpeedCtrl")
    5624                      .dwattr $C$DW$798, DW_AT_data_member_location[DW_OP_plus_uconst 0xf4]
    5625                      .dwattr $C$DW$798, DW_AT_accessibility(DW_ACCESS_public)
    5626              $C$DW$799       .dwtag  DW_TAG_member
    5627                      .dwattr $C$DW$799, DW_AT_type(*$C$DW$T$73)
    5628                      .dwattr $C$DW$799, DW_AT_name("flag_enableUserMotorParams")
    5629                      .dwattr $C$DW$799, DW_AT_TI_symbol_name("_flag_enableUserMotorParams")
    5630                      .dwattr $C$DW$799, DW_AT_data_member_location[DW_OP_plus_uconst 0xf5]
    5631                      .dwattr $C$DW$799, DW_AT_accessibility(DW_ACCESS_public)
    5632              $C$DW$800       .dwtag  DW_TAG_member
    5633                      .dwattr $C$DW$800, DW_AT_type(*$C$DW$T$72)
    5634                      .dwattr $C$DW$800, DW_AT_name("Idq_offset_pu")
    5635                      .dwattr $C$DW$800, DW_AT_TI_symbol_name("_Idq_offset_pu")
    5636                      .dwattr $C$DW$800, DW_AT_data_member_location[DW_OP_plus_uconst 0xf6]
    5637                      .dwattr $C$DW$800, DW_AT_accessibility(DW_ACCESS_public)
    5638              $C$DW$801       .dwtag  DW_TAG_member
    5639                      .dwattr $C$DW$801, DW_AT_type(*$C$DW$T$72)
TMS320C2000 Assembler PC v6.4.4 Wed Jul 08 12:49:31 2015

Tools Copyright (c) 1996-2015 Texas Instruments Incorporated
C:\Users\grant\AppData\Local\Temp\0448010                            PAGE  111

    5640                      .dwattr $C$DW$801, DW_AT_name("Vdq_offset_pu")
    5641                      .dwattr $C$DW$801, DW_AT_TI_symbol_name("_Vdq_offset_pu")
    5642                      .dwattr $C$DW$801, DW_AT_data_member_location[DW_OP_plus_uconst 0xfa]
    5643                      .dwattr $C$DW$801, DW_AT_accessibility(DW_ACCESS_public)
    5644              $C$DW$802       .dwtag  DW_TAG_member
    5645                      .dwattr $C$DW$802, DW_AT_type(*$C$DW$T$35)
    5646                      .dwattr $C$DW$802, DW_AT_name("angle_pu")
    5647                      .dwattr $C$DW$802, DW_AT_TI_symbol_name("_angle_pu")
    5648                      .dwattr $C$DW$802, DW_AT_data_member_location[DW_OP_plus_uconst 0xfe]
    5649                      .dwattr $C$DW$802, DW_AT_accessibility(DW_ACCESS_public)
    5650              $C$DW$803       .dwtag  DW_TAG_member
    5651                      .dwattr $C$DW$803, DW_AT_type(*$C$DW$T$35)
    5652                      .dwattr $C$DW$803, DW_AT_name("speed_ref_pu")
    5653                      .dwattr $C$DW$803, DW_AT_TI_symbol_name("_speed_ref_pu")
    5654                      .dwattr $C$DW$803, DW_AT_data_member_location[DW_OP_plus_uconst 0x100]
    5655                      .dwattr $C$DW$803, DW_AT_accessibility(DW_ACCESS_public)
    5656              $C$DW$804       .dwtag  DW_TAG_member
    5657                      .dwattr $C$DW$804, DW_AT_type(*$C$DW$T$35)
    5658                      .dwattr $C$DW$804, DW_AT_name("speed_fb_pu")
    5659                      .dwattr $C$DW$804, DW_AT_TI_symbol_name("_speed_fb_pu")
    5660                      .dwattr $C$DW$804, DW_AT_data_member_location[DW_OP_plus_uconst 0x102]
    5661                      .dwattr $C$DW$804, DW_AT_accessibility(DW_ACCESS_public)
    5662              $C$DW$805       .dwtag  DW_TAG_member
    5663                      .dwattr $C$DW$805, DW_AT_type(*$C$DW$T$35)
    5664                      .dwattr $C$DW$805, DW_AT_name("speed_outMax_pu")
    5665                      .dwattr $C$DW$805, DW_AT_TI_symbol_name("_speed_outMax_pu")
    5666                      .dwattr $C$DW$805, DW_AT_data_member_location[DW_OP_plus_uconst 0x104]
    5667                      .dwattr $C$DW$805, DW_AT_accessibility(DW_ACCESS_public)
    5668              $C$DW$806       .dwtag  DW_TAG_member
    5669                      .dwattr $C$DW$806, DW_AT_type(*$C$DW$T$73)
    5670                      .dwattr $C$DW$806, DW_AT_name("flag_enableCurrentCtrl")
    5671                      .dwattr $C$DW$806, DW_AT_TI_symbol_name("_flag_enableCurrentCtrl")
    5672                      .dwattr $C$DW$806, DW_AT_data_member_location[DW_OP_plus_uconst 0x106]
    5673                      .dwattr $C$DW$806, DW_AT_accessibility(DW_ACCESS_public)
    5674                      .dwendtag $C$DW$T$74
    5675              
    5676              $C$DW$T$236     .dwtag  DW_TAG_typedef, DW_AT_name("CTRL_Obj")
    5677                      .dwattr $C$DW$T$236, DW_AT_type(*$C$DW$T$74)
    5678                      .dwattr $C$DW$T$236, DW_AT_language(DW_LANG_C)
    5679              $C$DW$T$237     .dwtag  DW_TAG_pointer_type
    5680                      .dwattr $C$DW$T$237, DW_AT_type(*$C$DW$T$236)
    5681                      .dwattr $C$DW$T$237, DW_AT_address_class(0x20)
    5682              $C$DW$T$200     .dwtag  DW_TAG_pointer_type
    5683                      .dwattr $C$DW$T$200, DW_AT_type(*$C$DW$T$74)
    5684                      .dwattr $C$DW$T$200, DW_AT_address_class(0x20)
    5685              $C$DW$T$201     .dwtag  DW_TAG_typedef, DW_AT_name("CTRL_Handle")
    5686                      .dwattr $C$DW$T$201, DW_AT_type(*$C$DW$T$200)
    5687                      .dwattr $C$DW$T$201, DW_AT_language(DW_LANG_C)
    5688              $C$DW$807       .dwtag  DW_TAG_TI_far_type
    5689                      .dwattr $C$DW$807, DW_AT_type(*$C$DW$T$201)
    5690              $C$DW$T$238     .dwtag  DW_TAG_const_type
    5691                      .dwattr $C$DW$T$238, DW_AT_type(*$C$DW$807)
    5692              
    5693              $C$DW$T$77      .dwtag  DW_TAG_structure_type
    5694                      .dwattr $C$DW$T$77, DW_AT_name("_CTRL_Version_")
TMS320C2000 Assembler PC v6.4.4 Wed Jul 08 12:49:31 2015

Tools Copyright (c) 1996-2015 Texas Instruments Incorporated
C:\Users\grant\AppData\Local\Temp\0448010                            PAGE  112

    5695                      .dwattr $C$DW$T$77, DW_AT_byte_size(0x04)
    5696              $C$DW$808       .dwtag  DW_TAG_member
    5697                      .dwattr $C$DW$808, DW_AT_type(*$C$DW$T$26)
    5698                      .dwattr $C$DW$808, DW_AT_name("rsvd")
    5699                      .dwattr $C$DW$808, DW_AT_TI_symbol_name("_rsvd")
    5700                      .dwattr $C$DW$808, DW_AT_data_member_location[DW_OP_plus_uconst 0x0]
    5701                      .dwattr $C$DW$808, DW_AT_accessibility(DW_ACCESS_public)
    5702              $C$DW$809       .dwtag  DW_TAG_member
    5703                      .dwattr $C$DW$809, DW_AT_type(*$C$DW$T$76)
    5704                      .dwattr $C$DW$809, DW_AT_name("targetProc")
    5705                      .dwattr $C$DW$809, DW_AT_TI_symbol_name("_targetProc")
    5706                      .dwattr $C$DW$809, DW_AT_data_member_location[DW_OP_plus_uconst 0x1]
    5707                      .dwattr $C$DW$809, DW_AT_accessibility(DW_ACCESS_public)
    5708              $C$DW$810       .dwtag  DW_TAG_member
    5709                      .dwattr $C$DW$810, DW_AT_type(*$C$DW$T$26)
    5710                      .dwattr $C$DW$810, DW_AT_name("major")
    5711                      .dwattr $C$DW$810, DW_AT_TI_symbol_name("_major")
    5712                      .dwattr $C$DW$810, DW_AT_data_member_location[DW_OP_plus_uconst 0x2]
    5713                      .dwattr $C$DW$810, DW_AT_accessibility(DW_ACCESS_public)
    5714              $C$DW$811       .dwtag  DW_TAG_member
    5715                      .dwattr $C$DW$811, DW_AT_type(*$C$DW$T$26)
    5716                      .dwattr $C$DW$811, DW_AT_name("minor")
    5717                      .dwattr $C$DW$811, DW_AT_TI_symbol_name("_minor")
    5718                      .dwattr $C$DW$811, DW_AT_data_member_location[DW_OP_plus_uconst 0x3]
    5719                      .dwattr $C$DW$811, DW_AT_accessibility(DW_ACCESS_public)
    5720                      .dwendtag $C$DW$T$77
    5721              
    5722              $C$DW$T$41      .dwtag  DW_TAG_typedef, DW_AT_name("CTRL_Version")
    5723                      .dwattr $C$DW$T$41, DW_AT_type(*$C$DW$T$77)
    5724                      .dwattr $C$DW$T$41, DW_AT_language(DW_LANG_C)
    5725              $C$DW$T$244     .dwtag  DW_TAG_pointer_type
    5726                      .dwattr $C$DW$T$244, DW_AT_type(*$C$DW$T$41)
    5727                      .dwattr $C$DW$T$244, DW_AT_address_class(0x20)
    5728              
    5729              $C$DW$T$84      .dwtag  DW_TAG_structure_type
    5730                      .dwattr $C$DW$T$84, DW_AT_name("_DRV8301_Obj_")
    5731                      .dwattr $C$DW$T$84, DW_AT_byte_size(0x08)
    5732              $C$DW$812       .dwtag  DW_TAG_member
    5733                      .dwattr $C$DW$812, DW_AT_type(*$C$DW$T$79)
    5734                      .dwattr $C$DW$812, DW_AT_name("spiHandle")
    5735                      .dwattr $C$DW$812, DW_AT_TI_symbol_name("_spiHandle")
    5736                      .dwattr $C$DW$812, DW_AT_data_member_location[DW_OP_plus_uconst 0x0]
    5737                      .dwattr $C$DW$812, DW_AT_accessibility(DW_ACCESS_public)
    5738              $C$DW$813       .dwtag  DW_TAG_member
    5739                      .dwattr $C$DW$813, DW_AT_type(*$C$DW$T$81)
    5740                      .dwattr $C$DW$813, DW_AT_name("gpioHandle")
    5741                      .dwattr $C$DW$813, DW_AT_TI_symbol_name("_gpioHandle")
    5742                      .dwattr $C$DW$813, DW_AT_data_member_location[DW_OP_plus_uconst 0x2]
    5743                      .dwattr $C$DW$813, DW_AT_accessibility(DW_ACCESS_public)
    5744              $C$DW$814       .dwtag  DW_TAG_member
    5745                      .dwattr $C$DW$814, DW_AT_type(*$C$DW$T$83)
    5746                      .dwattr $C$DW$814, DW_AT_name("gpioNumber")
    5747                      .dwattr $C$DW$814, DW_AT_TI_symbol_name("_gpioNumber")
    5748                      .dwattr $C$DW$814, DW_AT_data_member_location[DW_OP_plus_uconst 0x4]
    5749                      .dwattr $C$DW$814, DW_AT_accessibility(DW_ACCESS_public)
TMS320C2000 Assembler PC v6.4.4 Wed Jul 08 12:49:31 2015

Tools Copyright (c) 1996-2015 Texas Instruments Incorporated
C:\Users\grant\AppData\Local\Temp\0448010                            PAGE  113

    5750              $C$DW$815       .dwtag  DW_TAG_member
    5751                      .dwattr $C$DW$815, DW_AT_type(*$C$DW$T$73)
    5752                      .dwattr $C$DW$815, DW_AT_name("RxTimeOut")
    5753                      .dwattr $C$DW$815, DW_AT_TI_symbol_name("_RxTimeOut")
    5754                      .dwattr $C$DW$815, DW_AT_data_member_location[DW_OP_plus_uconst 0x5]
    5755                      .dwattr $C$DW$815, DW_AT_accessibility(DW_ACCESS_public)
    5756              $C$DW$816       .dwtag  DW_TAG_member
    5757                      .dwattr $C$DW$816, DW_AT_type(*$C$DW$T$73)
    5758                      .dwattr $C$DW$816, DW_AT_name("enableTimeOut")
    5759                      .dwattr $C$DW$816, DW_AT_TI_symbol_name("_enableTimeOut")
    5760                      .dwattr $C$DW$816, DW_AT_data_member_location[DW_OP_plus_uconst 0x6]
    5761                      .dwattr $C$DW$816, DW_AT_accessibility(DW_ACCESS_public)
    5762                      .dwendtag $C$DW$T$84
    5763              
    5764              $C$DW$T$153     .dwtag  DW_TAG_typedef, DW_AT_name("DRV8301_Obj")
    5765                      .dwattr $C$DW$T$153, DW_AT_type(*$C$DW$T$84)
    5766                      .dwattr $C$DW$T$153, DW_AT_language(DW_LANG_C)
    5767              $C$DW$T$151     .dwtag  DW_TAG_pointer_type
    5768                      .dwattr $C$DW$T$151, DW_AT_type(*$C$DW$T$84)
    5769                      .dwattr $C$DW$T$151, DW_AT_address_class(0x20)
    5770              $C$DW$T$152     .dwtag  DW_TAG_typedef, DW_AT_name("DRV8301_Handle")
    5771                      .dwattr $C$DW$T$152, DW_AT_type(*$C$DW$T$151)
    5772                      .dwattr $C$DW$T$152, DW_AT_language(DW_LANG_C)
    5773              
    5774              $C$DW$T$95      .dwtag  DW_TAG_structure_type
    5775                      .dwattr $C$DW$T$95, DW_AT_name("_DRV_SPI_8301_CTRL1_t_")
    5776                      .dwattr $C$DW$T$95, DW_AT_byte_size(0x05)
    5777              $C$DW$817       .dwtag  DW_TAG_member
    5778                      .dwattr $C$DW$817, DW_AT_type(*$C$DW$T$86)
    5779                      .dwattr $C$DW$817, DW_AT_name("DRV8301_CURRENT")
    5780                      .dwattr $C$DW$817, DW_AT_TI_symbol_name("_DRV8301_CURRENT")
    5781                      .dwattr $C$DW$817, DW_AT_data_member_location[DW_OP_plus_uconst 0x0]
    5782                      .dwattr $C$DW$817, DW_AT_accessibility(DW_ACCESS_public)
    5783              $C$DW$818       .dwtag  DW_TAG_member
    5784                      .dwattr $C$DW$818, DW_AT_type(*$C$DW$T$88)
    5785                      .dwattr $C$DW$818, DW_AT_name("DRV8301_RESET")
    5786                      .dwattr $C$DW$818, DW_AT_TI_symbol_name("_DRV8301_RESET")
    5787                      .dwattr $C$DW$818, DW_AT_data_member_location[DW_OP_plus_uconst 0x1]
    5788                      .dwattr $C$DW$818, DW_AT_accessibility(DW_ACCESS_public)
    5789              $C$DW$819       .dwtag  DW_TAG_member
    5790                      .dwattr $C$DW$819, DW_AT_type(*$C$DW$T$90)
    5791                      .dwattr $C$DW$819, DW_AT_name("PWM_MODE")
    5792                      .dwattr $C$DW$819, DW_AT_TI_symbol_name("_PWM_MODE")
    5793                      .dwattr $C$DW$819, DW_AT_data_member_location[DW_OP_plus_uconst 0x2]
    5794                      .dwattr $C$DW$819, DW_AT_accessibility(DW_ACCESS_public)
    5795              $C$DW$820       .dwtag  DW_TAG_member
    5796                      .dwattr $C$DW$820, DW_AT_type(*$C$DW$T$92)
    5797                      .dwattr $C$DW$820, DW_AT_name("OC_MODE")
    5798                      .dwattr $C$DW$820, DW_AT_TI_symbol_name("_OC_MODE")
    5799                      .dwattr $C$DW$820, DW_AT_data_member_location[DW_OP_plus_uconst 0x3]
    5800                      .dwattr $C$DW$820, DW_AT_accessibility(DW_ACCESS_public)
    5801              $C$DW$821       .dwtag  DW_TAG_member
    5802                      .dwattr $C$DW$821, DW_AT_type(*$C$DW$T$94)
    5803                      .dwattr $C$DW$821, DW_AT_name("OC_ADJ_SET")
    5804                      .dwattr $C$DW$821, DW_AT_TI_symbol_name("_OC_ADJ_SET")
TMS320C2000 Assembler PC v6.4.4 Wed Jul 08 12:49:31 2015

Tools Copyright (c) 1996-2015 Texas Instruments Incorporated
C:\Users\grant\AppData\Local\Temp\0448010                            PAGE  114

    5805                      .dwattr $C$DW$821, DW_AT_data_member_location[DW_OP_plus_uconst 0x4]
    5806                      .dwattr $C$DW$821, DW_AT_accessibility(DW_ACCESS_public)
    5807                      .dwendtag $C$DW$T$95
    5808              
    5809              $C$DW$T$109     .dwtag  DW_TAG_typedef, DW_AT_name("DRV_SPI_8301_CTRL1_t_")
    5810                      .dwattr $C$DW$T$109, DW_AT_type(*$C$DW$T$95)
    5811                      .dwattr $C$DW$T$109, DW_AT_language(DW_LANG_C)
    5812              
    5813              $C$DW$T$104     .dwtag  DW_TAG_structure_type
    5814                      .dwattr $C$DW$T$104, DW_AT_name("_DRV_SPI_8301_CTRL2_t_")
    5815                      .dwattr $C$DW$T$104, DW_AT_byte_size(0x04)
    5816              $C$DW$822       .dwtag  DW_TAG_member
    5817                      .dwattr $C$DW$822, DW_AT_type(*$C$DW$T$97)
    5818                      .dwattr $C$DW$822, DW_AT_name("OCTW_SET")
    5819                      .dwattr $C$DW$822, DW_AT_TI_symbol_name("_OCTW_SET")
    5820                      .dwattr $C$DW$822, DW_AT_data_member_location[DW_OP_plus_uconst 0x0]
    5821                      .dwattr $C$DW$822, DW_AT_accessibility(DW_ACCESS_public)
    5822              $C$DW$823       .dwtag  DW_TAG_member
    5823                      .dwattr $C$DW$823, DW_AT_type(*$C$DW$T$99)
    5824                      .dwattr $C$DW$823, DW_AT_name("GAIN")
    5825                      .dwattr $C$DW$823, DW_AT_TI_symbol_name("_GAIN")
    5826                      .dwattr $C$DW$823, DW_AT_data_member_location[DW_OP_plus_uconst 0x1]
    5827                      .dwattr $C$DW$823, DW_AT_accessibility(DW_ACCESS_public)
    5828              $C$DW$824       .dwtag  DW_TAG_member
    5829                      .dwattr $C$DW$824, DW_AT_type(*$C$DW$T$101)
    5830                      .dwattr $C$DW$824, DW_AT_name("DC_CAL_CH1p2")
    5831                      .dwattr $C$DW$824, DW_AT_TI_symbol_name("_DC_CAL_CH1p2")
    5832                      .dwattr $C$DW$824, DW_AT_data_member_location[DW_OP_plus_uconst 0x2]
    5833                      .dwattr $C$DW$824, DW_AT_accessibility(DW_ACCESS_public)
    5834              $C$DW$825       .dwtag  DW_TAG_member
    5835                      .dwattr $C$DW$825, DW_AT_type(*$C$DW$T$103)
    5836                      .dwattr $C$DW$825, DW_AT_name("OC_TOFF")
    5837                      .dwattr $C$DW$825, DW_AT_TI_symbol_name("_OC_TOFF")
    5838                      .dwattr $C$DW$825, DW_AT_data_member_location[DW_OP_plus_uconst 0x3]
    5839                      .dwattr $C$DW$825, DW_AT_accessibility(DW_ACCESS_public)
    5840                      .dwendtag $C$DW$T$104
    5841              
    5842              $C$DW$T$110     .dwtag  DW_TAG_typedef, DW_AT_name("DRV_SPI_8301_CTRL2_t_")
    5843                      .dwattr $C$DW$T$110, DW_AT_type(*$C$DW$T$104)
    5844                      .dwattr $C$DW$T$110, DW_AT_language(DW_LANG_C)
    5845              
    5846              $C$DW$T$105     .dwtag  DW_TAG_structure_type
    5847                      .dwattr $C$DW$T$105, DW_AT_name("_DRV_SPI_8301_Stat1_t_")
    5848                      .dwattr $C$DW$T$105, DW_AT_byte_size(0x0b)
    5849              $C$DW$826       .dwtag  DW_TAG_member
    5850                      .dwattr $C$DW$826, DW_AT_type(*$C$DW$T$73)
    5851                      .dwattr $C$DW$826, DW_AT_name("FAULT")
    5852                      .dwattr $C$DW$826, DW_AT_TI_symbol_name("_FAULT")
    5853                      .dwattr $C$DW$826, DW_AT_data_member_location[DW_OP_plus_uconst 0x0]
    5854                      .dwattr $C$DW$826, DW_AT_accessibility(DW_ACCESS_public)
    5855              $C$DW$827       .dwtag  DW_TAG_member
    5856                      .dwattr $C$DW$827, DW_AT_type(*$C$DW$T$73)
    5857                      .dwattr $C$DW$827, DW_AT_name("GVDD_UV")
    5858                      .dwattr $C$DW$827, DW_AT_TI_symbol_name("_GVDD_UV")
    5859                      .dwattr $C$DW$827, DW_AT_data_member_location[DW_OP_plus_uconst 0x1]
TMS320C2000 Assembler PC v6.4.4 Wed Jul 08 12:49:31 2015

Tools Copyright (c) 1996-2015 Texas Instruments Incorporated
C:\Users\grant\AppData\Local\Temp\0448010                            PAGE  115

    5860                      .dwattr $C$DW$827, DW_AT_accessibility(DW_ACCESS_public)
    5861              $C$DW$828       .dwtag  DW_TAG_member
    5862                      .dwattr $C$DW$828, DW_AT_type(*$C$DW$T$73)
    5863                      .dwattr $C$DW$828, DW_AT_name("PVDD_UV")
    5864                      .dwattr $C$DW$828, DW_AT_TI_symbol_name("_PVDD_UV")
    5865                      .dwattr $C$DW$828, DW_AT_data_member_location[DW_OP_plus_uconst 0x2]
    5866                      .dwattr $C$DW$828, DW_AT_accessibility(DW_ACCESS_public)
    5867              $C$DW$829       .dwtag  DW_TAG_member
    5868                      .dwattr $C$DW$829, DW_AT_type(*$C$DW$T$73)
    5869                      .dwattr $C$DW$829, DW_AT_name("OTSD")
    5870                      .dwattr $C$DW$829, DW_AT_TI_symbol_name("_OTSD")
    5871                      .dwattr $C$DW$829, DW_AT_data_member_location[DW_OP_plus_uconst 0x3]
    5872                      .dwattr $C$DW$829, DW_AT_accessibility(DW_ACCESS_public)
    5873              $C$DW$830       .dwtag  DW_TAG_member
    5874                      .dwattr $C$DW$830, DW_AT_type(*$C$DW$T$73)
    5875                      .dwattr $C$DW$830, DW_AT_name("OTW")
    5876                      .dwattr $C$DW$830, DW_AT_TI_symbol_name("_OTW")
    5877                      .dwattr $C$DW$830, DW_AT_data_member_location[DW_OP_plus_uconst 0x4]
    5878                      .dwattr $C$DW$830, DW_AT_accessibility(DW_ACCESS_public)
    5879              $C$DW$831       .dwtag  DW_TAG_member
    5880                      .dwattr $C$DW$831, DW_AT_type(*$C$DW$T$73)
    5881                      .dwattr $C$DW$831, DW_AT_name("FETHA_OC")
    5882                      .dwattr $C$DW$831, DW_AT_TI_symbol_name("_FETHA_OC")
    5883                      .dwattr $C$DW$831, DW_AT_data_member_location[DW_OP_plus_uconst 0x5]
    5884                      .dwattr $C$DW$831, DW_AT_accessibility(DW_ACCESS_public)
    5885              $C$DW$832       .dwtag  DW_TAG_member
    5886                      .dwattr $C$DW$832, DW_AT_type(*$C$DW$T$73)
    5887                      .dwattr $C$DW$832, DW_AT_name("FETLA_OC")
    5888                      .dwattr $C$DW$832, DW_AT_TI_symbol_name("_FETLA_OC")
    5889                      .dwattr $C$DW$832, DW_AT_data_member_location[DW_OP_plus_uconst 0x6]
    5890                      .dwattr $C$DW$832, DW_AT_accessibility(DW_ACCESS_public)
    5891              $C$DW$833       .dwtag  DW_TAG_member
    5892                      .dwattr $C$DW$833, DW_AT_type(*$C$DW$T$73)
    5893                      .dwattr $C$DW$833, DW_AT_name("FETHB_OC")
    5894                      .dwattr $C$DW$833, DW_AT_TI_symbol_name("_FETHB_OC")
    5895                      .dwattr $C$DW$833, DW_AT_data_member_location[DW_OP_plus_uconst 0x7]
    5896                      .dwattr $C$DW$833, DW_AT_accessibility(DW_ACCESS_public)
    5897              $C$DW$834       .dwtag  DW_TAG_member
    5898                      .dwattr $C$DW$834, DW_AT_type(*$C$DW$T$73)
    5899                      .dwattr $C$DW$834, DW_AT_name("FETLB_OC")
    5900                      .dwattr $C$DW$834, DW_AT_TI_symbol_name("_FETLB_OC")
    5901                      .dwattr $C$DW$834, DW_AT_data_member_location[DW_OP_plus_uconst 0x8]
    5902                      .dwattr $C$DW$834, DW_AT_accessibility(DW_ACCESS_public)
    5903              $C$DW$835       .dwtag  DW_TAG_member
    5904                      .dwattr $C$DW$835, DW_AT_type(*$C$DW$T$73)
    5905                      .dwattr $C$DW$835, DW_AT_name("FETHC_OC")
    5906                      .dwattr $C$DW$835, DW_AT_TI_symbol_name("_FETHC_OC")
    5907                      .dwattr $C$DW$835, DW_AT_data_member_location[DW_OP_plus_uconst 0x9]
    5908                      .dwattr $C$DW$835, DW_AT_accessibility(DW_ACCESS_public)
    5909              $C$DW$836       .dwtag  DW_TAG_member
    5910                      .dwattr $C$DW$836, DW_AT_type(*$C$DW$T$73)
    5911                      .dwattr $C$DW$836, DW_AT_name("FETLC_OC")
    5912                      .dwattr $C$DW$836, DW_AT_TI_symbol_name("_FETLC_OC")
    5913                      .dwattr $C$DW$836, DW_AT_data_member_location[DW_OP_plus_uconst 0xa]
    5914                      .dwattr $C$DW$836, DW_AT_accessibility(DW_ACCESS_public)
TMS320C2000 Assembler PC v6.4.4 Wed Jul 08 12:49:31 2015

Tools Copyright (c) 1996-2015 Texas Instruments Incorporated
C:\Users\grant\AppData\Local\Temp\0448010                            PAGE  116

    5915                      .dwendtag $C$DW$T$105
    5916              
    5917              $C$DW$T$107     .dwtag  DW_TAG_typedef, DW_AT_name("DRV_SPI_8301_Stat1_t_")
    5918                      .dwattr $C$DW$T$107, DW_AT_type(*$C$DW$T$105)
    5919                      .dwattr $C$DW$T$107, DW_AT_language(DW_LANG_C)
    5920              
    5921              $C$DW$T$106     .dwtag  DW_TAG_structure_type
    5922                      .dwattr $C$DW$T$106, DW_AT_name("_DRV_SPI_8301_Stat2_t_")
    5923                      .dwattr $C$DW$T$106, DW_AT_byte_size(0x02)
    5924              $C$DW$837       .dwtag  DW_TAG_member
    5925                      .dwattr $C$DW$837, DW_AT_type(*$C$DW$T$73)
    5926                      .dwattr $C$DW$837, DW_AT_name("GVDD_OV")
    5927                      .dwattr $C$DW$837, DW_AT_TI_symbol_name("_GVDD_OV")
    5928                      .dwattr $C$DW$837, DW_AT_data_member_location[DW_OP_plus_uconst 0x0]
    5929                      .dwattr $C$DW$837, DW_AT_accessibility(DW_ACCESS_public)
    5930              $C$DW$838       .dwtag  DW_TAG_member
    5931                      .dwattr $C$DW$838, DW_AT_type(*$C$DW$T$26)
    5932                      .dwattr $C$DW$838, DW_AT_name("DeviceID")
    5933                      .dwattr $C$DW$838, DW_AT_TI_symbol_name("_DeviceID")
    5934                      .dwattr $C$DW$838, DW_AT_data_member_location[DW_OP_plus_uconst 0x1]
    5935                      .dwattr $C$DW$838, DW_AT_accessibility(DW_ACCESS_public)
    5936                      .dwendtag $C$DW$T$106
    5937              
    5938              $C$DW$T$108     .dwtag  DW_TAG_typedef, DW_AT_name("DRV_SPI_8301_Stat2_t_")
    5939                      .dwattr $C$DW$T$108, DW_AT_type(*$C$DW$T$106)
    5940                      .dwattr $C$DW$T$108, DW_AT_language(DW_LANG_C)
    5941              
    5942              $C$DW$T$111     .dwtag  DW_TAG_structure_type
    5943                      .dwattr $C$DW$T$111, DW_AT_name("_DRV_SPI_8301_Vars_t_")
    5944                      .dwattr $C$DW$T$111, DW_AT_byte_size(0x18)
    5945              $C$DW$839       .dwtag  DW_TAG_member
    5946                      .dwattr $C$DW$839, DW_AT_type(*$C$DW$T$107)
    5947                      .dwattr $C$DW$839, DW_AT_name("Stat_Reg_1")
    5948                      .dwattr $C$DW$839, DW_AT_TI_symbol_name("_Stat_Reg_1")
    5949                      .dwattr $C$DW$839, DW_AT_data_member_location[DW_OP_plus_uconst 0x0]
    5950                      .dwattr $C$DW$839, DW_AT_accessibility(DW_ACCESS_public)
    5951              $C$DW$840       .dwtag  DW_TAG_member
    5952                      .dwattr $C$DW$840, DW_AT_type(*$C$DW$T$108)
    5953                      .dwattr $C$DW$840, DW_AT_name("Stat_Reg_2")
    5954                      .dwattr $C$DW$840, DW_AT_TI_symbol_name("_Stat_Reg_2")
    5955                      .dwattr $C$DW$840, DW_AT_data_member_location[DW_OP_plus_uconst 0xb]
    5956                      .dwattr $C$DW$840, DW_AT_accessibility(DW_ACCESS_public)
    5957              $C$DW$841       .dwtag  DW_TAG_member
    5958                      .dwattr $C$DW$841, DW_AT_type(*$C$DW$T$109)
    5959                      .dwattr $C$DW$841, DW_AT_name("Ctrl_Reg_1")
    5960                      .dwattr $C$DW$841, DW_AT_TI_symbol_name("_Ctrl_Reg_1")
    5961                      .dwattr $C$DW$841, DW_AT_data_member_location[DW_OP_plus_uconst 0xd]
    5962                      .dwattr $C$DW$841, DW_AT_accessibility(DW_ACCESS_public)
    5963              $C$DW$842       .dwtag  DW_TAG_member
    5964                      .dwattr $C$DW$842, DW_AT_type(*$C$DW$T$110)
    5965                      .dwattr $C$DW$842, DW_AT_name("Ctrl_Reg_2")
    5966                      .dwattr $C$DW$842, DW_AT_TI_symbol_name("_Ctrl_Reg_2")
    5967                      .dwattr $C$DW$842, DW_AT_data_member_location[DW_OP_plus_uconst 0x12]
    5968                      .dwattr $C$DW$842, DW_AT_accessibility(DW_ACCESS_public)
    5969              $C$DW$843       .dwtag  DW_TAG_member
TMS320C2000 Assembler PC v6.4.4 Wed Jul 08 12:49:31 2015

Tools Copyright (c) 1996-2015 Texas Instruments Incorporated
C:\Users\grant\AppData\Local\Temp\0448010                            PAGE  117

    5970                      .dwattr $C$DW$843, DW_AT_type(*$C$DW$T$73)
    5971                      .dwattr $C$DW$843, DW_AT_name("SndCmd")
    5972                      .dwattr $C$DW$843, DW_AT_TI_symbol_name("_SndCmd")
    5973                      .dwattr $C$DW$843, DW_AT_data_member_location[DW_OP_plus_uconst 0x16]
    5974                      .dwattr $C$DW$843, DW_AT_accessibility(DW_ACCESS_public)
    5975              $C$DW$844       .dwtag  DW_TAG_member
    5976                      .dwattr $C$DW$844, DW_AT_type(*$C$DW$T$73)
    5977                      .dwattr $C$DW$844, DW_AT_name("RcvCmd")
    5978                      .dwattr $C$DW$844, DW_AT_TI_symbol_name("_RcvCmd")
    5979                      .dwattr $C$DW$844, DW_AT_data_member_location[DW_OP_plus_uconst 0x17]
    5980                      .dwattr $C$DW$844, DW_AT_accessibility(DW_ACCESS_public)
    5981                      .dwendtag $C$DW$T$111
    5982              
    5983              $C$DW$T$247     .dwtag  DW_TAG_typedef, DW_AT_name("DRV_SPI_8301_Vars_t")
    5984                      .dwattr $C$DW$T$247, DW_AT_type(*$C$DW$T$111)
    5985                      .dwattr $C$DW$T$247, DW_AT_language(DW_LANG_C)
    5986              $C$DW$T$248     .dwtag  DW_TAG_pointer_type
    5987                      .dwattr $C$DW$T$248, DW_AT_type(*$C$DW$T$247)
    5988                      .dwattr $C$DW$T$248, DW_AT_address_class(0x20)
    5989              
    5990              $C$DW$T$19      .dwtag  DW_TAG_structure_type
    5991                      .dwattr $C$DW$T$19, DW_AT_name("_EST_Obj_")
    5992                      .dwattr $C$DW$T$19, DW_AT_declaration
    5993                      .dwendtag $C$DW$T$19
    5994              
    5995              $C$DW$T$49      .dwtag  DW_TAG_pointer_type
    5996                      .dwattr $C$DW$T$49, DW_AT_type(*$C$DW$T$19)
    5997                      .dwattr $C$DW$T$49, DW_AT_address_class(0x20)
    5998              $C$DW$T$50      .dwtag  DW_TAG_typedef, DW_AT_name("EST_Handle")
    5999                      .dwattr $C$DW$T$50, DW_AT_type(*$C$DW$T$49)
    6000                      .dwattr $C$DW$T$50, DW_AT_language(DW_LANG_C)
    6001              
    6002              $C$DW$T$112     .dwtag  DW_TAG_structure_type
    6003                      .dwattr $C$DW$T$112, DW_AT_name("_FILTER_FO_")
    6004                      .dwattr $C$DW$T$112, DW_AT_byte_size(0x0a)
    6005              $C$DW$845       .dwtag  DW_TAG_member
    6006                      .dwattr $C$DW$845, DW_AT_type(*$C$DW$T$35)
    6007                      .dwattr $C$DW$845, DW_AT_name("a1")
    6008                      .dwattr $C$DW$845, DW_AT_TI_symbol_name("_a1")
    6009                      .dwattr $C$DW$845, DW_AT_data_member_location[DW_OP_plus_uconst 0x0]
    6010                      .dwattr $C$DW$845, DW_AT_accessibility(DW_ACCESS_public)
    6011              $C$DW$846       .dwtag  DW_TAG_member
    6012                      .dwattr $C$DW$846, DW_AT_type(*$C$DW$T$35)
    6013                      .dwattr $C$DW$846, DW_AT_name("b0")
    6014                      .dwattr $C$DW$846, DW_AT_TI_symbol_name("_b0")
    6015                      .dwattr $C$DW$846, DW_AT_data_member_location[DW_OP_plus_uconst 0x2]
    6016                      .dwattr $C$DW$846, DW_AT_accessibility(DW_ACCESS_public)
    6017              $C$DW$847       .dwtag  DW_TAG_member
    6018                      .dwattr $C$DW$847, DW_AT_type(*$C$DW$T$35)
    6019                      .dwattr $C$DW$847, DW_AT_name("b1")
    6020                      .dwattr $C$DW$847, DW_AT_TI_symbol_name("_b1")
    6021                      .dwattr $C$DW$847, DW_AT_data_member_location[DW_OP_plus_uconst 0x4]
    6022                      .dwattr $C$DW$847, DW_AT_accessibility(DW_ACCESS_public)
    6023              $C$DW$848       .dwtag  DW_TAG_member
    6024                      .dwattr $C$DW$848, DW_AT_type(*$C$DW$T$35)
TMS320C2000 Assembler PC v6.4.4 Wed Jul 08 12:49:31 2015

Tools Copyright (c) 1996-2015 Texas Instruments Incorporated
C:\Users\grant\AppData\Local\Temp\0448010                            PAGE  118

    6025                      .dwattr $C$DW$848, DW_AT_name("x1")
    6026                      .dwattr $C$DW$848, DW_AT_TI_symbol_name("_x1")
    6027                      .dwattr $C$DW$848, DW_AT_data_member_location[DW_OP_plus_uconst 0x6]
    6028                      .dwattr $C$DW$848, DW_AT_accessibility(DW_ACCESS_public)
    6029              $C$DW$849       .dwtag  DW_TAG_member
    6030                      .dwattr $C$DW$849, DW_AT_type(*$C$DW$T$35)
    6031                      .dwattr $C$DW$849, DW_AT_name("y1")
    6032                      .dwattr $C$DW$849, DW_AT_TI_symbol_name("_y1")
    6033                      .dwattr $C$DW$849, DW_AT_data_member_location[DW_OP_plus_uconst 0x8]
    6034                      .dwattr $C$DW$849, DW_AT_accessibility(DW_ACCESS_public)
    6035                      .dwendtag $C$DW$T$112
    6036              
    6037              $C$DW$T$169     .dwtag  DW_TAG_typedef, DW_AT_name("FILTER_FO_Obj")
    6038                      .dwattr $C$DW$T$169, DW_AT_type(*$C$DW$T$112)
    6039                      .dwattr $C$DW$T$169, DW_AT_language(DW_LANG_C)
    6040              $C$DW$T$250     .dwtag  DW_TAG_pointer_type
    6041                      .dwattr $C$DW$T$250, DW_AT_type(*$C$DW$T$169)
    6042                      .dwattr $C$DW$T$250, DW_AT_address_class(0x20)
    6043              
    6044              $C$DW$T$20      .dwtag  DW_TAG_structure_type
    6045                      .dwattr $C$DW$T$20, DW_AT_name("_FILTER_FO_Obj_")
    6046                      .dwattr $C$DW$T$20, DW_AT_declaration
    6047                      .dwendtag $C$DW$T$20
    6048              
    6049              $C$DW$T$170     .dwtag  DW_TAG_pointer_type
    6050                      .dwattr $C$DW$T$170, DW_AT_type(*$C$DW$T$20)
    6051                      .dwattr $C$DW$T$170, DW_AT_address_class(0x20)
    6052              $C$DW$T$171     .dwtag  DW_TAG_typedef, DW_AT_name("FILTER_FO_Handle")
    6053                      .dwattr $C$DW$T$171, DW_AT_type(*$C$DW$T$170)
    6054                      .dwattr $C$DW$T$171, DW_AT_language(DW_LANG_C)
    6055              
    6056              $C$DW$T$113     .dwtag  DW_TAG_structure_type
    6057                      .dwattr $C$DW$T$113, DW_AT_name("_FLASH_Obj_")
    6058                      .dwattr $C$DW$T$113, DW_AT_byte_size(0x08)
    6059              $C$DW$850       .dwtag  DW_TAG_member
    6060                      .dwattr $C$DW$850, DW_AT_type(*$C$DW$T$27)
    6061                      .dwattr $C$DW$850, DW_AT_name("FOPT")
    6062                      .dwattr $C$DW$850, DW_AT_TI_symbol_name("_FOPT")
    6063                      .dwattr $C$DW$850, DW_AT_data_member_location[DW_OP_plus_uconst 0x0]
    6064                      .dwattr $C$DW$850, DW_AT_accessibility(DW_ACCESS_public)
    6065              $C$DW$851       .dwtag  DW_TAG_member
    6066                      .dwattr $C$DW$851, DW_AT_type(*$C$DW$T$27)
    6067                      .dwattr $C$DW$851, DW_AT_name("rsvd_1")
    6068                      .dwattr $C$DW$851, DW_AT_TI_symbol_name("_rsvd_1")
    6069                      .dwattr $C$DW$851, DW_AT_data_member_location[DW_OP_plus_uconst 0x1]
    6070                      .dwattr $C$DW$851, DW_AT_accessibility(DW_ACCESS_public)
    6071              $C$DW$852       .dwtag  DW_TAG_member
    6072                      .dwattr $C$DW$852, DW_AT_type(*$C$DW$T$27)
    6073                      .dwattr $C$DW$852, DW_AT_name("FPWR")
    6074                      .dwattr $C$DW$852, DW_AT_TI_symbol_name("_FPWR")
    6075                      .dwattr $C$DW$852, DW_AT_data_member_location[DW_OP_plus_uconst 0x2]
    6076                      .dwattr $C$DW$852, DW_AT_accessibility(DW_ACCESS_public)
    6077              $C$DW$853       .dwtag  DW_TAG_member
    6078                      .dwattr $C$DW$853, DW_AT_type(*$C$DW$T$27)
    6079                      .dwattr $C$DW$853, DW_AT_name("FSTATUS")
TMS320C2000 Assembler PC v6.4.4 Wed Jul 08 12:49:31 2015

Tools Copyright (c) 1996-2015 Texas Instruments Incorporated
C:\Users\grant\AppData\Local\Temp\0448010                            PAGE  119

    6080                      .dwattr $C$DW$853, DW_AT_TI_symbol_name("_FSTATUS")
    6081                      .dwattr $C$DW$853, DW_AT_data_member_location[DW_OP_plus_uconst 0x3]
    6082                      .dwattr $C$DW$853, DW_AT_accessibility(DW_ACCESS_public)
    6083              $C$DW$854       .dwtag  DW_TAG_member
    6084                      .dwattr $C$DW$854, DW_AT_type(*$C$DW$T$27)
    6085                      .dwattr $C$DW$854, DW_AT_name("FSTDBYWAIT")
    6086                      .dwattr $C$DW$854, DW_AT_TI_symbol_name("_FSTDBYWAIT")
    6087                      .dwattr $C$DW$854, DW_AT_data_member_location[DW_OP_plus_uconst 0x4]
    6088                      .dwattr $C$DW$854, DW_AT_accessibility(DW_ACCESS_public)
    6089              $C$DW$855       .dwtag  DW_TAG_member
    6090                      .dwattr $C$DW$855, DW_AT_type(*$C$DW$T$27)
    6091                      .dwattr $C$DW$855, DW_AT_name("FACTIVEWAIT")
    6092                      .dwattr $C$DW$855, DW_AT_TI_symbol_name("_FACTIVEWAIT")
    6093                      .dwattr $C$DW$855, DW_AT_data_member_location[DW_OP_plus_uconst 0x5]
    6094                      .dwattr $C$DW$855, DW_AT_accessibility(DW_ACCESS_public)
    6095              $C$DW$856       .dwtag  DW_TAG_member
    6096                      .dwattr $C$DW$856, DW_AT_type(*$C$DW$T$27)
    6097                      .dwattr $C$DW$856, DW_AT_name("FBANKWAIT")
    6098                      .dwattr $C$DW$856, DW_AT_TI_symbol_name("_FBANKWAIT")
    6099                      .dwattr $C$DW$856, DW_AT_data_member_location[DW_OP_plus_uconst 0x6]
    6100                      .dwattr $C$DW$856, DW_AT_accessibility(DW_ACCESS_public)
    6101              $C$DW$857       .dwtag  DW_TAG_member
    6102                      .dwattr $C$DW$857, DW_AT_type(*$C$DW$T$27)
    6103                      .dwattr $C$DW$857, DW_AT_name("FOTPWAIT")
    6104                      .dwattr $C$DW$857, DW_AT_TI_symbol_name("_FOTPWAIT")
    6105                      .dwattr $C$DW$857, DW_AT_data_member_location[DW_OP_plus_uconst 0x7]
    6106                      .dwattr $C$DW$857, DW_AT_accessibility(DW_ACCESS_public)
    6107                      .dwendtag $C$DW$T$113
    6108              
    6109              $C$DW$T$126     .dwtag  DW_TAG_pointer_type
    6110                      .dwattr $C$DW$T$126, DW_AT_type(*$C$DW$T$113)
    6111                      .dwattr $C$DW$T$126, DW_AT_address_class(0x20)
    6112              $C$DW$T$127     .dwtag  DW_TAG_typedef, DW_AT_name("FLASH_Handle")
    6113                      .dwattr $C$DW$T$127, DW_AT_type(*$C$DW$T$126)
    6114                      .dwattr $C$DW$T$127, DW_AT_language(DW_LANG_C)
    6115              
    6116              $C$DW$T$117     .dwtag  DW_TAG_structure_type
    6117                      .dwattr $C$DW$T$117, DW_AT_name("_GPIO_Obj_")
    6118                      .dwattr $C$DW$T$117, DW_AT_byte_size(0x6a)
    6119              $C$DW$858       .dwtag  DW_TAG_member
    6120                      .dwattr $C$DW$858, DW_AT_type(*$C$DW$T$114)
    6121                      .dwattr $C$DW$858, DW_AT_name("GPACTRL")
    6122                      .dwattr $C$DW$858, DW_AT_TI_symbol_name("_GPACTRL")
    6123                      .dwattr $C$DW$858, DW_AT_data_member_location[DW_OP_plus_uconst 0x0]
    6124                      .dwattr $C$DW$858, DW_AT_accessibility(DW_ACCESS_public)
    6125              $C$DW$859       .dwtag  DW_TAG_member
    6126                      .dwattr $C$DW$859, DW_AT_type(*$C$DW$T$114)
    6127                      .dwattr $C$DW$859, DW_AT_name("GPAQSEL1")
    6128                      .dwattr $C$DW$859, DW_AT_TI_symbol_name("_GPAQSEL1")
    6129                      .dwattr $C$DW$859, DW_AT_data_member_location[DW_OP_plus_uconst 0x2]
    6130                      .dwattr $C$DW$859, DW_AT_accessibility(DW_ACCESS_public)
    6131              $C$DW$860       .dwtag  DW_TAG_member
    6132                      .dwattr $C$DW$860, DW_AT_type(*$C$DW$T$114)
    6133                      .dwattr $C$DW$860, DW_AT_name("GPAQSEL2")
    6134                      .dwattr $C$DW$860, DW_AT_TI_symbol_name("_GPAQSEL2")
TMS320C2000 Assembler PC v6.4.4 Wed Jul 08 12:49:31 2015

Tools Copyright (c) 1996-2015 Texas Instruments Incorporated
C:\Users\grant\AppData\Local\Temp\0448010                            PAGE  120

    6135                      .dwattr $C$DW$860, DW_AT_data_member_location[DW_OP_plus_uconst 0x4]
    6136                      .dwattr $C$DW$860, DW_AT_accessibility(DW_ACCESS_public)
    6137              $C$DW$861       .dwtag  DW_TAG_member
    6138                      .dwattr $C$DW$861, DW_AT_type(*$C$DW$T$114)
    6139                      .dwattr $C$DW$861, DW_AT_name("GPAMUX1")
    6140                      .dwattr $C$DW$861, DW_AT_TI_symbol_name("_GPAMUX1")
    6141                      .dwattr $C$DW$861, DW_AT_data_member_location[DW_OP_plus_uconst 0x6]
    6142                      .dwattr $C$DW$861, DW_AT_accessibility(DW_ACCESS_public)
    6143              $C$DW$862       .dwtag  DW_TAG_member
    6144                      .dwattr $C$DW$862, DW_AT_type(*$C$DW$T$114)
    6145                      .dwattr $C$DW$862, DW_AT_name("GPAMUX2")
    6146                      .dwattr $C$DW$862, DW_AT_TI_symbol_name("_GPAMUX2")
    6147                      .dwattr $C$DW$862, DW_AT_data_member_location[DW_OP_plus_uconst 0x8]
    6148                      .dwattr $C$DW$862, DW_AT_accessibility(DW_ACCESS_public)
    6149              $C$DW$863       .dwtag  DW_TAG_member
    6150                      .dwattr $C$DW$863, DW_AT_type(*$C$DW$T$114)
    6151                      .dwattr $C$DW$863, DW_AT_name("GPADIR")
    6152                      .dwattr $C$DW$863, DW_AT_TI_symbol_name("_GPADIR")
    6153                      .dwattr $C$DW$863, DW_AT_data_member_location[DW_OP_plus_uconst 0xa]
    6154                      .dwattr $C$DW$863, DW_AT_accessibility(DW_ACCESS_public)
    6155              $C$DW$864       .dwtag  DW_TAG_member
    6156                      .dwattr $C$DW$864, DW_AT_type(*$C$DW$T$114)
    6157                      .dwattr $C$DW$864, DW_AT_name("GPAPUD")
    6158                      .dwattr $C$DW$864, DW_AT_TI_symbol_name("_GPAPUD")
    6159                      .dwattr $C$DW$864, DW_AT_data_member_location[DW_OP_plus_uconst 0xc]
    6160                      .dwattr $C$DW$864, DW_AT_accessibility(DW_ACCESS_public)
    6161              $C$DW$865       .dwtag  DW_TAG_member
    6162                      .dwattr $C$DW$865, DW_AT_type(*$C$DW$T$30)
    6163                      .dwattr $C$DW$865, DW_AT_name("rsvd_1")
    6164                      .dwattr $C$DW$865, DW_AT_TI_symbol_name("_rsvd_1")
    6165                      .dwattr $C$DW$865, DW_AT_data_member_location[DW_OP_plus_uconst 0xe]
    6166                      .dwattr $C$DW$865, DW_AT_accessibility(DW_ACCESS_public)
    6167              $C$DW$866       .dwtag  DW_TAG_member
    6168                      .dwattr $C$DW$866, DW_AT_type(*$C$DW$T$114)
    6169                      .dwattr $C$DW$866, DW_AT_name("GPBCTRL")
    6170                      .dwattr $C$DW$866, DW_AT_TI_symbol_name("_GPBCTRL")
    6171                      .dwattr $C$DW$866, DW_AT_data_member_location[DW_OP_plus_uconst 0x10]
    6172                      .dwattr $C$DW$866, DW_AT_accessibility(DW_ACCESS_public)
    6173              $C$DW$867       .dwtag  DW_TAG_member
    6174                      .dwattr $C$DW$867, DW_AT_type(*$C$DW$T$114)
    6175                      .dwattr $C$DW$867, DW_AT_name("GPBQSEL1")
    6176                      .dwattr $C$DW$867, DW_AT_TI_symbol_name("_GPBQSEL1")
    6177                      .dwattr $C$DW$867, DW_AT_data_member_location[DW_OP_plus_uconst 0x12]
    6178                      .dwattr $C$DW$867, DW_AT_accessibility(DW_ACCESS_public)
    6179              $C$DW$868       .dwtag  DW_TAG_member
    6180                      .dwattr $C$DW$868, DW_AT_type(*$C$DW$T$114)
    6181                      .dwattr $C$DW$868, DW_AT_name("GPBQSEL2")
    6182                      .dwattr $C$DW$868, DW_AT_TI_symbol_name("_GPBQSEL2")
    6183                      .dwattr $C$DW$868, DW_AT_data_member_location[DW_OP_plus_uconst 0x14]
    6184                      .dwattr $C$DW$868, DW_AT_accessibility(DW_ACCESS_public)
    6185              $C$DW$869       .dwtag  DW_TAG_member
    6186                      .dwattr $C$DW$869, DW_AT_type(*$C$DW$T$114)
    6187                      .dwattr $C$DW$869, DW_AT_name("GPBMUX1")
    6188                      .dwattr $C$DW$869, DW_AT_TI_symbol_name("_GPBMUX1")
    6189                      .dwattr $C$DW$869, DW_AT_data_member_location[DW_OP_plus_uconst 0x16]
TMS320C2000 Assembler PC v6.4.4 Wed Jul 08 12:49:31 2015

Tools Copyright (c) 1996-2015 Texas Instruments Incorporated
C:\Users\grant\AppData\Local\Temp\0448010                            PAGE  121

    6190                      .dwattr $C$DW$869, DW_AT_accessibility(DW_ACCESS_public)
    6191              $C$DW$870       .dwtag  DW_TAG_member
    6192                      .dwattr $C$DW$870, DW_AT_type(*$C$DW$T$114)
    6193                      .dwattr $C$DW$870, DW_AT_name("GPBMUX2")
    6194                      .dwattr $C$DW$870, DW_AT_TI_symbol_name("_GPBMUX2")
    6195                      .dwattr $C$DW$870, DW_AT_data_member_location[DW_OP_plus_uconst 0x18]
    6196                      .dwattr $C$DW$870, DW_AT_accessibility(DW_ACCESS_public)
    6197              $C$DW$871       .dwtag  DW_TAG_member
    6198                      .dwattr $C$DW$871, DW_AT_type(*$C$DW$T$114)
    6199                      .dwattr $C$DW$871, DW_AT_name("GPBDIR")
    6200                      .dwattr $C$DW$871, DW_AT_TI_symbol_name("_GPBDIR")
    6201                      .dwattr $C$DW$871, DW_AT_data_member_location[DW_OP_plus_uconst 0x1a]
    6202                      .dwattr $C$DW$871, DW_AT_accessibility(DW_ACCESS_public)
    6203              $C$DW$872       .dwtag  DW_TAG_member
    6204                      .dwattr $C$DW$872, DW_AT_type(*$C$DW$T$114)
    6205                      .dwattr $C$DW$872, DW_AT_name("GPBPUD")
    6206                      .dwattr $C$DW$872, DW_AT_TI_symbol_name("_GPBPUD")
    6207                      .dwattr $C$DW$872, DW_AT_data_member_location[DW_OP_plus_uconst 0x1c]
    6208                      .dwattr $C$DW$872, DW_AT_accessibility(DW_ACCESS_public)
    6209              $C$DW$873       .dwtag  DW_TAG_member
    6210                      .dwattr $C$DW$873, DW_AT_type(*$C$DW$T$115)
    6211                      .dwattr $C$DW$873, DW_AT_name("rsvd_4")
    6212                      .dwattr $C$DW$873, DW_AT_TI_symbol_name("_rsvd_4")
    6213                      .dwattr $C$DW$873, DW_AT_data_member_location[DW_OP_plus_uconst 0x1e]
    6214                      .dwattr $C$DW$873, DW_AT_accessibility(DW_ACCESS_public)
    6215              $C$DW$874       .dwtag  DW_TAG_member
    6216                      .dwattr $C$DW$874, DW_AT_type(*$C$DW$T$114)
    6217                      .dwattr $C$DW$874, DW_AT_name("AIOMUX1")
    6218                      .dwattr $C$DW$874, DW_AT_TI_symbol_name("_AIOMUX1")
    6219                      .dwattr $C$DW$874, DW_AT_data_member_location[DW_OP_plus_uconst 0x36]
    6220                      .dwattr $C$DW$874, DW_AT_accessibility(DW_ACCESS_public)
    6221              $C$DW$875       .dwtag  DW_TAG_member
    6222                      .dwattr $C$DW$875, DW_AT_type(*$C$DW$T$30)
    6223                      .dwattr $C$DW$875, DW_AT_name("rsvd_5")
    6224                      .dwattr $C$DW$875, DW_AT_TI_symbol_name("_rsvd_5")
    6225                      .dwattr $C$DW$875, DW_AT_data_member_location[DW_OP_plus_uconst 0x38]
    6226                      .dwattr $C$DW$875, DW_AT_accessibility(DW_ACCESS_public)
    6227              $C$DW$876       .dwtag  DW_TAG_member
    6228                      .dwattr $C$DW$876, DW_AT_type(*$C$DW$T$114)
    6229                      .dwattr $C$DW$876, DW_AT_name("AIODIR")
    6230                      .dwattr $C$DW$876, DW_AT_TI_symbol_name("_AIODIR")
    6231                      .dwattr $C$DW$876, DW_AT_data_member_location[DW_OP_plus_uconst 0x3a]
    6232                      .dwattr $C$DW$876, DW_AT_accessibility(DW_ACCESS_public)
    6233              $C$DW$877       .dwtag  DW_TAG_member
    6234                      .dwattr $C$DW$877, DW_AT_type(*$C$DW$T$116)
    6235                      .dwattr $C$DW$877, DW_AT_name("rsvd_6")
    6236                      .dwattr $C$DW$877, DW_AT_TI_symbol_name("_rsvd_6")
    6237                      .dwattr $C$DW$877, DW_AT_data_member_location[DW_OP_plus_uconst 0x3c]
    6238                      .dwattr $C$DW$877, DW_AT_accessibility(DW_ACCESS_public)
    6239              $C$DW$878       .dwtag  DW_TAG_member
    6240                      .dwattr $C$DW$878, DW_AT_type(*$C$DW$T$114)
    6241                      .dwattr $C$DW$878, DW_AT_name("GPADAT")
    6242                      .dwattr $C$DW$878, DW_AT_TI_symbol_name("_GPADAT")
    6243                      .dwattr $C$DW$878, DW_AT_data_member_location[DW_OP_plus_uconst 0x40]
    6244                      .dwattr $C$DW$878, DW_AT_accessibility(DW_ACCESS_public)
TMS320C2000 Assembler PC v6.4.4 Wed Jul 08 12:49:31 2015

Tools Copyright (c) 1996-2015 Texas Instruments Incorporated
C:\Users\grant\AppData\Local\Temp\0448010                            PAGE  122

    6245              $C$DW$879       .dwtag  DW_TAG_member
    6246                      .dwattr $C$DW$879, DW_AT_type(*$C$DW$T$114)
    6247                      .dwattr $C$DW$879, DW_AT_name("GPASET")
    6248                      .dwattr $C$DW$879, DW_AT_TI_symbol_name("_GPASET")
    6249                      .dwattr $C$DW$879, DW_AT_data_member_location[DW_OP_plus_uconst 0x42]
    6250                      .dwattr $C$DW$879, DW_AT_accessibility(DW_ACCESS_public)
    6251              $C$DW$880       .dwtag  DW_TAG_member
    6252                      .dwattr $C$DW$880, DW_AT_type(*$C$DW$T$114)
    6253                      .dwattr $C$DW$880, DW_AT_name("GPACLEAR")
    6254                      .dwattr $C$DW$880, DW_AT_TI_symbol_name("_GPACLEAR")
    6255                      .dwattr $C$DW$880, DW_AT_data_member_location[DW_OP_plus_uconst 0x44]
    6256                      .dwattr $C$DW$880, DW_AT_accessibility(DW_ACCESS_public)
    6257              $C$DW$881       .dwtag  DW_TAG_member
    6258                      .dwattr $C$DW$881, DW_AT_type(*$C$DW$T$114)
    6259                      .dwattr $C$DW$881, DW_AT_name("GPATOGGLE")
    6260                      .dwattr $C$DW$881, DW_AT_TI_symbol_name("_GPATOGGLE")
    6261                      .dwattr $C$DW$881, DW_AT_data_member_location[DW_OP_plus_uconst 0x46]
    6262                      .dwattr $C$DW$881, DW_AT_accessibility(DW_ACCESS_public)
    6263              $C$DW$882       .dwtag  DW_TAG_member
    6264                      .dwattr $C$DW$882, DW_AT_type(*$C$DW$T$114)
    6265                      .dwattr $C$DW$882, DW_AT_name("GPBDAT")
    6266                      .dwattr $C$DW$882, DW_AT_TI_symbol_name("_GPBDAT")
    6267                      .dwattr $C$DW$882, DW_AT_data_member_location[DW_OP_plus_uconst 0x48]
    6268                      .dwattr $C$DW$882, DW_AT_accessibility(DW_ACCESS_public)
    6269              $C$DW$883       .dwtag  DW_TAG_member
    6270                      .dwattr $C$DW$883, DW_AT_type(*$C$DW$T$114)
    6271                      .dwattr $C$DW$883, DW_AT_name("GPBSET")
    6272                      .dwattr $C$DW$883, DW_AT_TI_symbol_name("_GPBSET")
    6273                      .dwattr $C$DW$883, DW_AT_data_member_location[DW_OP_plus_uconst 0x4a]
    6274                      .dwattr $C$DW$883, DW_AT_accessibility(DW_ACCESS_public)
    6275              $C$DW$884       .dwtag  DW_TAG_member
    6276                      .dwattr $C$DW$884, DW_AT_type(*$C$DW$T$114)
    6277                      .dwattr $C$DW$884, DW_AT_name("GPBCLEAR")
    6278                      .dwattr $C$DW$884, DW_AT_TI_symbol_name("_GPBCLEAR")
    6279                      .dwattr $C$DW$884, DW_AT_data_member_location[DW_OP_plus_uconst 0x4c]
    6280                      .dwattr $C$DW$884, DW_AT_accessibility(DW_ACCESS_public)
    6281              $C$DW$885       .dwtag  DW_TAG_member
    6282                      .dwattr $C$DW$885, DW_AT_type(*$C$DW$T$114)
    6283                      .dwattr $C$DW$885, DW_AT_name("GPBTOGGLE")
    6284                      .dwattr $C$DW$885, DW_AT_TI_symbol_name("_GPBTOGGLE")
    6285                      .dwattr $C$DW$885, DW_AT_data_member_location[DW_OP_plus_uconst 0x4e]
    6286                      .dwattr $C$DW$885, DW_AT_accessibility(DW_ACCESS_public)
    6287              $C$DW$886       .dwtag  DW_TAG_member
    6288                      .dwattr $C$DW$886, DW_AT_type(*$C$DW$T$38)
    6289                      .dwattr $C$DW$886, DW_AT_name("rsvd_7")
    6290                      .dwattr $C$DW$886, DW_AT_TI_symbol_name("_rsvd_7")
    6291                      .dwattr $C$DW$886, DW_AT_data_member_location[DW_OP_plus_uconst 0x50]
    6292                      .dwattr $C$DW$886, DW_AT_accessibility(DW_ACCESS_public)
    6293              $C$DW$887       .dwtag  DW_TAG_member
    6294                      .dwattr $C$DW$887, DW_AT_type(*$C$DW$T$114)
    6295                      .dwattr $C$DW$887, DW_AT_name("AIODAT")
    6296                      .dwattr $C$DW$887, DW_AT_TI_symbol_name("_AIODAT")
    6297                      .dwattr $C$DW$887, DW_AT_data_member_location[DW_OP_plus_uconst 0x58]
    6298                      .dwattr $C$DW$887, DW_AT_accessibility(DW_ACCESS_public)
    6299              $C$DW$888       .dwtag  DW_TAG_member
TMS320C2000 Assembler PC v6.4.4 Wed Jul 08 12:49:31 2015

Tools Copyright (c) 1996-2015 Texas Instruments Incorporated
C:\Users\grant\AppData\Local\Temp\0448010                            PAGE  123

    6300                      .dwattr $C$DW$888, DW_AT_type(*$C$DW$T$114)
    6301                      .dwattr $C$DW$888, DW_AT_name("AIOSET")
    6302                      .dwattr $C$DW$888, DW_AT_TI_symbol_name("_AIOSET")
    6303                      .dwattr $C$DW$888, DW_AT_data_member_location[DW_OP_plus_uconst 0x5a]
    6304                      .dwattr $C$DW$888, DW_AT_accessibility(DW_ACCESS_public)
    6305              $C$DW$889       .dwtag  DW_TAG_member
    6306                      .dwattr $C$DW$889, DW_AT_type(*$C$DW$T$114)
    6307                      .dwattr $C$DW$889, DW_AT_name("AIOCLEAR")
    6308                      .dwattr $C$DW$889, DW_AT_TI_symbol_name("_AIOCLEAR")
    6309                      .dwattr $C$DW$889, DW_AT_data_member_location[DW_OP_plus_uconst 0x5c]
    6310                      .dwattr $C$DW$889, DW_AT_accessibility(DW_ACCESS_public)
    6311              $C$DW$890       .dwtag  DW_TAG_member
    6312                      .dwattr $C$DW$890, DW_AT_type(*$C$DW$T$114)
    6313                      .dwattr $C$DW$890, DW_AT_name("AIOTOGGLE")
    6314                      .dwattr $C$DW$890, DW_AT_TI_symbol_name("_AIOTOGGLE")
    6315                      .dwattr $C$DW$890, DW_AT_data_member_location[DW_OP_plus_uconst 0x5e]
    6316                      .dwattr $C$DW$890, DW_AT_accessibility(DW_ACCESS_public)
    6317              $C$DW$891       .dwtag  DW_TAG_member
    6318                      .dwattr $C$DW$891, DW_AT_type(*$C$DW$T$32)
    6319                      .dwattr $C$DW$891, DW_AT_name("GPIOXINTnSEL")
    6320                      .dwattr $C$DW$891, DW_AT_TI_symbol_name("_GPIOXINTnSEL")
    6321                      .dwattr $C$DW$891, DW_AT_data_member_location[DW_OP_plus_uconst 0x60]
    6322                      .dwattr $C$DW$891, DW_AT_accessibility(DW_ACCESS_public)
    6323              $C$DW$892       .dwtag  DW_TAG_member
    6324                      .dwattr $C$DW$892, DW_AT_type(*$C$DW$T$31)
    6325                      .dwattr $C$DW$892, DW_AT_name("rsvd_8")
    6326                      .dwattr $C$DW$892, DW_AT_TI_symbol_name("_rsvd_8")
    6327                      .dwattr $C$DW$892, DW_AT_data_member_location[DW_OP_plus_uconst 0x63]
    6328                      .dwattr $C$DW$892, DW_AT_accessibility(DW_ACCESS_public)
    6329              $C$DW$893       .dwtag  DW_TAG_member
    6330                      .dwattr $C$DW$893, DW_AT_type(*$C$DW$T$114)
    6331                      .dwattr $C$DW$893, DW_AT_name("GPIOLPMSEL")
    6332                      .dwattr $C$DW$893, DW_AT_TI_symbol_name("_GPIOLPMSEL")
    6333                      .dwattr $C$DW$893, DW_AT_data_member_location[DW_OP_plus_uconst 0x68]
    6334                      .dwattr $C$DW$893, DW_AT_accessibility(DW_ACCESS_public)
    6335                      .dwendtag $C$DW$T$117
    6336              
    6337              $C$DW$T$80      .dwtag  DW_TAG_pointer_type
    6338                      .dwattr $C$DW$T$80, DW_AT_type(*$C$DW$T$117)
    6339                      .dwattr $C$DW$T$80, DW_AT_address_class(0x20)
    6340              $C$DW$T$81      .dwtag  DW_TAG_typedef, DW_AT_name("GPIO_Handle")
    6341                      .dwattr $C$DW$T$81, DW_AT_type(*$C$DW$T$80)
    6342                      .dwattr $C$DW$T$81, DW_AT_language(DW_LANG_C)
    6343              
    6344              $C$DW$T$119     .dwtag  DW_TAG_structure_type
    6345                      .dwattr $C$DW$T$119, DW_AT_name("_HAL_AdcData_t_")
    6346                      .dwattr $C$DW$T$119, DW_AT_byte_size(0x0e)
    6347              $C$DW$894       .dwtag  DW_TAG_member
    6348                      .dwattr $C$DW$894, DW_AT_type(*$C$DW$T$118)
    6349                      .dwattr $C$DW$894, DW_AT_name("I")
    6350                      .dwattr $C$DW$894, DW_AT_TI_symbol_name("_I")
    6351                      .dwattr $C$DW$894, DW_AT_data_member_location[DW_OP_plus_uconst 0x0]
    6352                      .dwattr $C$DW$894, DW_AT_accessibility(DW_ACCESS_public)
    6353              $C$DW$895       .dwtag  DW_TAG_member
    6354                      .dwattr $C$DW$895, DW_AT_type(*$C$DW$T$118)
TMS320C2000 Assembler PC v6.4.4 Wed Jul 08 12:49:31 2015

Tools Copyright (c) 1996-2015 Texas Instruments Incorporated
C:\Users\grant\AppData\Local\Temp\0448010                            PAGE  124

    6355                      .dwattr $C$DW$895, DW_AT_name("V")
    6356                      .dwattr $C$DW$895, DW_AT_TI_symbol_name("_V")
    6357                      .dwattr $C$DW$895, DW_AT_data_member_location[DW_OP_plus_uconst 0x6]
    6358                      .dwattr $C$DW$895, DW_AT_accessibility(DW_ACCESS_public)
    6359              $C$DW$896       .dwtag  DW_TAG_member
    6360                      .dwattr $C$DW$896, DW_AT_type(*$C$DW$T$35)
    6361                      .dwattr $C$DW$896, DW_AT_name("dcBus")
    6362                      .dwattr $C$DW$896, DW_AT_TI_symbol_name("_dcBus")
    6363                      .dwattr $C$DW$896, DW_AT_data_member_location[DW_OP_plus_uconst 0xc]
    6364                      .dwattr $C$DW$896, DW_AT_accessibility(DW_ACCESS_public)
    6365                      .dwendtag $C$DW$T$119
    6366              
    6367              $C$DW$T$150     .dwtag  DW_TAG_typedef, DW_AT_name("HAL_AdcData_t")
    6368                      .dwattr $C$DW$T$150, DW_AT_type(*$C$DW$T$119)
    6369                      .dwattr $C$DW$T$150, DW_AT_language(DW_LANG_C)
    6370              
    6371              $C$DW$T$154     .dwtag  DW_TAG_structure_type
    6372                      .dwattr $C$DW$T$154, DW_AT_name("_HAL_Obj_")
    6373                      .dwattr $C$DW$T$154, DW_AT_byte_size(0xa6)
    6374              $C$DW$897       .dwtag  DW_TAG_member
    6375                      .dwattr $C$DW$897, DW_AT_type(*$C$DW$T$121)
    6376                      .dwattr $C$DW$897, DW_AT_name("adcHandle")
    6377                      .dwattr $C$DW$897, DW_AT_TI_symbol_name("_adcHandle")
    6378                      .dwattr $C$DW$897, DW_AT_data_member_location[DW_OP_plus_uconst 0x0]
    6379                      .dwattr $C$DW$897, DW_AT_accessibility(DW_ACCESS_public)
    6380              $C$DW$898       .dwtag  DW_TAG_member
    6381                      .dwattr $C$DW$898, DW_AT_type(*$C$DW$T$123)
    6382                      .dwattr $C$DW$898, DW_AT_name("clkHandle")
    6383                      .dwattr $C$DW$898, DW_AT_TI_symbol_name("_clkHandle")
    6384                      .dwattr $C$DW$898, DW_AT_data_member_location[DW_OP_plus_uconst 0x2]
    6385                      .dwattr $C$DW$898, DW_AT_accessibility(DW_ACCESS_public)
    6386              $C$DW$899       .dwtag  DW_TAG_member
    6387                      .dwattr $C$DW$899, DW_AT_type(*$C$DW$T$125)
    6388                      .dwattr $C$DW$899, DW_AT_name("cpuHandle")
    6389                      .dwattr $C$DW$899, DW_AT_TI_symbol_name("_cpuHandle")
    6390                      .dwattr $C$DW$899, DW_AT_data_member_location[DW_OP_plus_uconst 0x4]
    6391                      .dwattr $C$DW$899, DW_AT_accessibility(DW_ACCESS_public)
    6392              $C$DW$900       .dwtag  DW_TAG_member
    6393                      .dwattr $C$DW$900, DW_AT_type(*$C$DW$T$127)
    6394                      .dwattr $C$DW$900, DW_AT_name("flashHandle")
    6395                      .dwattr $C$DW$900, DW_AT_TI_symbol_name("_flashHandle")
    6396                      .dwattr $C$DW$900, DW_AT_data_member_location[DW_OP_plus_uconst 0x6]
    6397                      .dwattr $C$DW$900, DW_AT_accessibility(DW_ACCESS_public)
    6398              $C$DW$901       .dwtag  DW_TAG_member
    6399                      .dwattr $C$DW$901, DW_AT_type(*$C$DW$T$81)
    6400                      .dwattr $C$DW$901, DW_AT_name("gpioHandle")
    6401                      .dwattr $C$DW$901, DW_AT_TI_symbol_name("_gpioHandle")
    6402                      .dwattr $C$DW$901, DW_AT_data_member_location[DW_OP_plus_uconst 0x8]
    6403                      .dwattr $C$DW$901, DW_AT_accessibility(DW_ACCESS_public)
    6404              $C$DW$902       .dwtag  DW_TAG_member
    6405                      .dwattr $C$DW$902, DW_AT_type(*$C$DW$T$130)
    6406                      .dwattr $C$DW$902, DW_AT_name("offsetHandle_I")
    6407                      .dwattr $C$DW$902, DW_AT_TI_symbol_name("_offsetHandle_I")
    6408                      .dwattr $C$DW$902, DW_AT_data_member_location[DW_OP_plus_uconst 0xa]
    6409                      .dwattr $C$DW$902, DW_AT_accessibility(DW_ACCESS_public)
TMS320C2000 Assembler PC v6.4.4 Wed Jul 08 12:49:31 2015

Tools Copyright (c) 1996-2015 Texas Instruments Incorporated
C:\Users\grant\AppData\Local\Temp\0448010                            PAGE  125

    6410              $C$DW$903       .dwtag  DW_TAG_member
    6411                      .dwattr $C$DW$903, DW_AT_type(*$C$DW$T$132)
    6412                      .dwattr $C$DW$903, DW_AT_name("offset_I")
    6413                      .dwattr $C$DW$903, DW_AT_TI_symbol_name("_offset_I")
    6414                      .dwattr $C$DW$903, DW_AT_data_member_location[DW_OP_plus_uconst 0x10]
    6415                      .dwattr $C$DW$903, DW_AT_accessibility(DW_ACCESS_public)
    6416              $C$DW$904       .dwtag  DW_TAG_member
    6417                      .dwattr $C$DW$904, DW_AT_type(*$C$DW$T$130)
    6418                      .dwattr $C$DW$904, DW_AT_name("offsetHandle_V")
    6419                      .dwattr $C$DW$904, DW_AT_TI_symbol_name("_offsetHandle_V")
    6420                      .dwattr $C$DW$904, DW_AT_data_member_location[DW_OP_plus_uconst 0x3a]
    6421                      .dwattr $C$DW$904, DW_AT_accessibility(DW_ACCESS_public)
    6422              $C$DW$905       .dwtag  DW_TAG_member
    6423                      .dwattr $C$DW$905, DW_AT_type(*$C$DW$T$132)
    6424                      .dwattr $C$DW$905, DW_AT_name("offset_V")
    6425                      .dwattr $C$DW$905, DW_AT_TI_symbol_name("_offset_V")
    6426                      .dwattr $C$DW$905, DW_AT_data_member_location[DW_OP_plus_uconst 0x40]
    6427                      .dwattr $C$DW$905, DW_AT_accessibility(DW_ACCESS_public)
    6428              $C$DW$906       .dwtag  DW_TAG_member
    6429                      .dwattr $C$DW$906, DW_AT_type(*$C$DW$T$134)
    6430                      .dwattr $C$DW$906, DW_AT_name("oscHandle")
    6431                      .dwattr $C$DW$906, DW_AT_TI_symbol_name("_oscHandle")
    6432                      .dwattr $C$DW$906, DW_AT_data_member_location[DW_OP_plus_uconst 0x6a]
    6433                      .dwattr $C$DW$906, DW_AT_accessibility(DW_ACCESS_public)
    6434              $C$DW$907       .dwtag  DW_TAG_member
    6435                      .dwattr $C$DW$907, DW_AT_type(*$C$DW$T$136)
    6436                      .dwattr $C$DW$907, DW_AT_name("pieHandle")
    6437                      .dwattr $C$DW$907, DW_AT_TI_symbol_name("_pieHandle")
    6438                      .dwattr $C$DW$907, DW_AT_data_member_location[DW_OP_plus_uconst 0x6c]
    6439                      .dwattr $C$DW$907, DW_AT_accessibility(DW_ACCESS_public)
    6440              $C$DW$908       .dwtag  DW_TAG_member
    6441                      .dwattr $C$DW$908, DW_AT_type(*$C$DW$T$138)
    6442                      .dwattr $C$DW$908, DW_AT_name("pllHandle")
    6443                      .dwattr $C$DW$908, DW_AT_TI_symbol_name("_pllHandle")
    6444                      .dwattr $C$DW$908, DW_AT_data_member_location[DW_OP_plus_uconst 0x6e]
    6445                      .dwattr $C$DW$908, DW_AT_accessibility(DW_ACCESS_public)
    6446              $C$DW$909       .dwtag  DW_TAG_member
    6447                      .dwattr $C$DW$909, DW_AT_type(*$C$DW$T$141)
    6448                      .dwattr $C$DW$909, DW_AT_name("pwmHandle")
    6449                      .dwattr $C$DW$909, DW_AT_TI_symbol_name("_pwmHandle")
    6450                      .dwattr $C$DW$909, DW_AT_data_member_location[DW_OP_plus_uconst 0x70]
    6451                      .dwattr $C$DW$909, DW_AT_accessibility(DW_ACCESS_public)
    6452              $C$DW$910       .dwtag  DW_TAG_member
    6453                      .dwattr $C$DW$910, DW_AT_type(*$C$DW$T$142)
    6454                      .dwattr $C$DW$910, DW_AT_name("pwmDacHandle")
    6455                      .dwattr $C$DW$910, DW_AT_TI_symbol_name("_pwmDacHandle")
    6456                      .dwattr $C$DW$910, DW_AT_data_member_location[DW_OP_plus_uconst 0x76]
    6457                      .dwattr $C$DW$910, DW_AT_accessibility(DW_ACCESS_public)
    6458              $C$DW$911       .dwtag  DW_TAG_member
    6459                      .dwattr $C$DW$911, DW_AT_type(*$C$DW$T$144)
    6460                      .dwattr $C$DW$911, DW_AT_name("pwrHandle")
    6461                      .dwattr $C$DW$911, DW_AT_TI_symbol_name("_pwrHandle")
    6462                      .dwattr $C$DW$911, DW_AT_data_member_location[DW_OP_plus_uconst 0x7a]
    6463                      .dwattr $C$DW$911, DW_AT_accessibility(DW_ACCESS_public)
    6464              $C$DW$912       .dwtag  DW_TAG_member
TMS320C2000 Assembler PC v6.4.4 Wed Jul 08 12:49:31 2015

Tools Copyright (c) 1996-2015 Texas Instruments Incorporated
C:\Users\grant\AppData\Local\Temp\0448010                            PAGE  126

    6465                      .dwattr $C$DW$912, DW_AT_type(*$C$DW$T$147)
    6466                      .dwattr $C$DW$912, DW_AT_name("timerHandle")
    6467                      .dwattr $C$DW$912, DW_AT_TI_symbol_name("_timerHandle")
    6468                      .dwattr $C$DW$912, DW_AT_data_member_location[DW_OP_plus_uconst 0x7c]
    6469                      .dwattr $C$DW$912, DW_AT_accessibility(DW_ACCESS_public)
    6470              $C$DW$913       .dwtag  DW_TAG_member
    6471                      .dwattr $C$DW$913, DW_AT_type(*$C$DW$T$149)
    6472                      .dwattr $C$DW$913, DW_AT_name("wdogHandle")
    6473                      .dwattr $C$DW$913, DW_AT_TI_symbol_name("_wdogHandle")
    6474                      .dwattr $C$DW$913, DW_AT_data_member_location[DW_OP_plus_uconst 0x82]
    6475                      .dwattr $C$DW$913, DW_AT_accessibility(DW_ACCESS_public)
    6476              $C$DW$914       .dwtag  DW_TAG_member
    6477                      .dwattr $C$DW$914, DW_AT_type(*$C$DW$T$150)
    6478                      .dwattr $C$DW$914, DW_AT_name("adcBias")
    6479                      .dwattr $C$DW$914, DW_AT_TI_symbol_name("_adcBias")
    6480                      .dwattr $C$DW$914, DW_AT_data_member_location[DW_OP_plus_uconst 0x84]
    6481                      .dwattr $C$DW$914, DW_AT_accessibility(DW_ACCESS_public)
    6482              $C$DW$915       .dwtag  DW_TAG_member
    6483                      .dwattr $C$DW$915, DW_AT_type(*$C$DW$T$35)
    6484                      .dwattr $C$DW$915, DW_AT_name("current_sf")
    6485                      .dwattr $C$DW$915, DW_AT_TI_symbol_name("_current_sf")
    6486                      .dwattr $C$DW$915, DW_AT_data_member_location[DW_OP_plus_uconst 0x92]
    6487                      .dwattr $C$DW$915, DW_AT_accessibility(DW_ACCESS_public)
    6488              $C$DW$916       .dwtag  DW_TAG_member
    6489                      .dwattr $C$DW$916, DW_AT_type(*$C$DW$T$35)
    6490                      .dwattr $C$DW$916, DW_AT_name("voltage_sf")
    6491                      .dwattr $C$DW$916, DW_AT_TI_symbol_name("_voltage_sf")
    6492                      .dwattr $C$DW$916, DW_AT_data_member_location[DW_OP_plus_uconst 0x94]
    6493                      .dwattr $C$DW$916, DW_AT_accessibility(DW_ACCESS_public)
    6494              $C$DW$917       .dwtag  DW_TAG_member
    6495                      .dwattr $C$DW$917, DW_AT_type(*$C$DW$T$36)
    6496                      .dwattr $C$DW$917, DW_AT_name("numCurrentSensors")
    6497                      .dwattr $C$DW$917, DW_AT_TI_symbol_name("_numCurrentSensors")
    6498                      .dwattr $C$DW$917, DW_AT_data_member_location[DW_OP_plus_uconst 0x96]
    6499                      .dwattr $C$DW$917, DW_AT_accessibility(DW_ACCESS_public)
    6500              $C$DW$918       .dwtag  DW_TAG_member
    6501                      .dwattr $C$DW$918, DW_AT_type(*$C$DW$T$36)
    6502                      .dwattr $C$DW$918, DW_AT_name("numVoltageSensors")
    6503                      .dwattr $C$DW$918, DW_AT_TI_symbol_name("_numVoltageSensors")
    6504                      .dwattr $C$DW$918, DW_AT_data_member_location[DW_OP_plus_uconst 0x97]
    6505                      .dwattr $C$DW$918, DW_AT_accessibility(DW_ACCESS_public)
    6506              $C$DW$919       .dwtag  DW_TAG_member
    6507                      .dwattr $C$DW$919, DW_AT_type(*$C$DW$T$79)
    6508                      .dwattr $C$DW$919, DW_AT_name("spiAHandle")
    6509                      .dwattr $C$DW$919, DW_AT_TI_symbol_name("_spiAHandle")
    6510                      .dwattr $C$DW$919, DW_AT_data_member_location[DW_OP_plus_uconst 0x98]
    6511                      .dwattr $C$DW$919, DW_AT_accessibility(DW_ACCESS_public)
    6512              $C$DW$920       .dwtag  DW_TAG_member
    6513                      .dwattr $C$DW$920, DW_AT_type(*$C$DW$T$79)
    6514                      .dwattr $C$DW$920, DW_AT_name("spiBHandle")
    6515                      .dwattr $C$DW$920, DW_AT_TI_symbol_name("_spiBHandle")
    6516                      .dwattr $C$DW$920, DW_AT_data_member_location[DW_OP_plus_uconst 0x9a]
    6517                      .dwattr $C$DW$920, DW_AT_accessibility(DW_ACCESS_public)
    6518              $C$DW$921       .dwtag  DW_TAG_member
    6519                      .dwattr $C$DW$921, DW_AT_type(*$C$DW$T$152)
TMS320C2000 Assembler PC v6.4.4 Wed Jul 08 12:49:31 2015

Tools Copyright (c) 1996-2015 Texas Instruments Incorporated
C:\Users\grant\AppData\Local\Temp\0448010                            PAGE  127

    6520                      .dwattr $C$DW$921, DW_AT_name("drv8301Handle")
    6521                      .dwattr $C$DW$921, DW_AT_TI_symbol_name("_drv8301Handle")
    6522                      .dwattr $C$DW$921, DW_AT_data_member_location[DW_OP_plus_uconst 0x9c]
    6523                      .dwattr $C$DW$921, DW_AT_accessibility(DW_ACCESS_public)
    6524              $C$DW$922       .dwtag  DW_TAG_member
    6525                      .dwattr $C$DW$922, DW_AT_type(*$C$DW$T$153)
    6526                      .dwattr $C$DW$922, DW_AT_name("drv8301")
    6527                      .dwattr $C$DW$922, DW_AT_TI_symbol_name("_drv8301")
    6528                      .dwattr $C$DW$922, DW_AT_data_member_location[DW_OP_plus_uconst 0x9e]
    6529                      .dwattr $C$DW$922, DW_AT_accessibility(DW_ACCESS_public)
    6530                      .dwendtag $C$DW$T$154
    6531              
    6532              $C$DW$T$256     .dwtag  DW_TAG_typedef, DW_AT_name("HAL_Obj")
    6533                      .dwattr $C$DW$T$256, DW_AT_type(*$C$DW$T$154)
    6534                      .dwattr $C$DW$T$256, DW_AT_language(DW_LANG_C)
    6535              $C$DW$T$257     .dwtag  DW_TAG_pointer_type
    6536                      .dwattr $C$DW$T$257, DW_AT_type(*$C$DW$T$256)
    6537                      .dwattr $C$DW$T$257, DW_AT_address_class(0x20)
    6538              $C$DW$T$258     .dwtag  DW_TAG_pointer_type
    6539                      .dwattr $C$DW$T$258, DW_AT_type(*$C$DW$T$154)
    6540                      .dwattr $C$DW$T$258, DW_AT_address_class(0x20)
    6541              $C$DW$T$259     .dwtag  DW_TAG_typedef, DW_AT_name("HAL_Handle")
    6542                      .dwattr $C$DW$T$259, DW_AT_type(*$C$DW$T$258)
    6543                      .dwattr $C$DW$T$259, DW_AT_language(DW_LANG_C)
    6544              
    6545              $C$DW$T$155     .dwtag  DW_TAG_structure_type
    6546                      .dwattr $C$DW$T$155, DW_AT_name("_HAL_PwmData_t_")
    6547                      .dwattr $C$DW$T$155, DW_AT_byte_size(0x06)
    6548              $C$DW$923       .dwtag  DW_TAG_member
    6549                      .dwattr $C$DW$923, DW_AT_type(*$C$DW$T$118)
    6550                      .dwattr $C$DW$923, DW_AT_name("Tabc")
    6551                      .dwattr $C$DW$923, DW_AT_TI_symbol_name("_Tabc")
    6552                      .dwattr $C$DW$923, DW_AT_data_member_location[DW_OP_plus_uconst 0x0]
    6553                      .dwattr $C$DW$923, DW_AT_accessibility(DW_ACCESS_public)
    6554                      .dwendtag $C$DW$T$155
    6555              
    6556              $C$DW$T$263     .dwtag  DW_TAG_typedef, DW_AT_name("HAL_PwmData_t")
    6557                      .dwattr $C$DW$T$263, DW_AT_type(*$C$DW$T$155)
    6558                      .dwattr $C$DW$T$263, DW_AT_language(DW_LANG_C)
    6559              
    6560              $C$DW$T$156     .dwtag  DW_TAG_structure_type
    6561                      .dwattr $C$DW$T$156, DW_AT_name("_IPARK_Obj_")
    6562                      .dwattr $C$DW$T$156, DW_AT_byte_size(0x04)
    6563              $C$DW$924       .dwtag  DW_TAG_member
    6564                      .dwattr $C$DW$924, DW_AT_type(*$C$DW$T$35)
    6565                      .dwattr $C$DW$924, DW_AT_name("sinTh")
    6566                      .dwattr $C$DW$924, DW_AT_TI_symbol_name("_sinTh")
    6567                      .dwattr $C$DW$924, DW_AT_data_member_location[DW_OP_plus_uconst 0x0]
    6568                      .dwattr $C$DW$924, DW_AT_accessibility(DW_ACCESS_public)
    6569              $C$DW$925       .dwtag  DW_TAG_member
    6570                      .dwattr $C$DW$925, DW_AT_type(*$C$DW$T$35)
    6571                      .dwattr $C$DW$925, DW_AT_name("cosTh")
    6572                      .dwattr $C$DW$925, DW_AT_TI_symbol_name("_cosTh")
    6573                      .dwattr $C$DW$925, DW_AT_data_member_location[DW_OP_plus_uconst 0x2]
    6574                      .dwattr $C$DW$925, DW_AT_accessibility(DW_ACCESS_public)
TMS320C2000 Assembler PC v6.4.4 Wed Jul 08 12:49:31 2015

Tools Copyright (c) 1996-2015 Texas Instruments Incorporated
C:\Users\grant\AppData\Local\Temp\0448010                            PAGE  128

    6575                      .dwendtag $C$DW$T$156
    6576              
    6577              $C$DW$T$59      .dwtag  DW_TAG_typedef, DW_AT_name("IPARK_Obj")
    6578                      .dwattr $C$DW$T$59, DW_AT_type(*$C$DW$T$156)
    6579                      .dwattr $C$DW$T$59, DW_AT_language(DW_LANG_C)
    6580              $C$DW$T$266     .dwtag  DW_TAG_pointer_type
    6581                      .dwattr $C$DW$T$266, DW_AT_type(*$C$DW$T$59)
    6582                      .dwattr $C$DW$T$266, DW_AT_address_class(0x20)
    6583              $C$DW$T$57      .dwtag  DW_TAG_pointer_type
    6584                      .dwattr $C$DW$T$57, DW_AT_type(*$C$DW$T$156)
    6585                      .dwattr $C$DW$T$57, DW_AT_address_class(0x20)
    6586              $C$DW$T$58      .dwtag  DW_TAG_typedef, DW_AT_name("IPARK_Handle")
    6587                      .dwattr $C$DW$T$58, DW_AT_type(*$C$DW$T$57)
    6588                      .dwattr $C$DW$T$58, DW_AT_language(DW_LANG_C)
    6589              
    6590              $C$DW$T$158     .dwtag  DW_TAG_structure_type
    6591                      .dwattr $C$DW$T$158, DW_AT_name("_MATH_vec2_")
    6592                      .dwattr $C$DW$T$158, DW_AT_byte_size(0x04)
    6593              $C$DW$926       .dwtag  DW_TAG_member
    6594                      .dwattr $C$DW$926, DW_AT_type(*$C$DW$T$157)
    6595                      .dwattr $C$DW$926, DW_AT_name("value")
    6596                      .dwattr $C$DW$926, DW_AT_TI_symbol_name("_value")
    6597                      .dwattr $C$DW$926, DW_AT_data_member_location[DW_OP_plus_uconst 0x0]
    6598                      .dwattr $C$DW$926, DW_AT_accessibility(DW_ACCESS_public)
    6599                      .dwendtag $C$DW$T$158
    6600              
    6601              $C$DW$T$72      .dwtag  DW_TAG_typedef, DW_AT_name("MATH_vec2")
    6602                      .dwattr $C$DW$T$72, DW_AT_type(*$C$DW$T$158)
    6603                      .dwattr $C$DW$T$72, DW_AT_language(DW_LANG_C)
    6604              $C$DW$927       .dwtag  DW_TAG_TI_far_type
    6605                      .dwattr $C$DW$927, DW_AT_type(*$C$DW$T$72)
    6606              $C$DW$T$270     .dwtag  DW_TAG_const_type
    6607                      .dwattr $C$DW$T$270, DW_AT_type(*$C$DW$927)
    6608              $C$DW$T$271     .dwtag  DW_TAG_pointer_type
    6609                      .dwattr $C$DW$T$271, DW_AT_type(*$C$DW$T$270)
    6610                      .dwattr $C$DW$T$271, DW_AT_address_class(0x20)
    6611              $C$DW$T$272     .dwtag  DW_TAG_pointer_type
    6612                      .dwattr $C$DW$T$272, DW_AT_type(*$C$DW$T$72)
    6613                      .dwattr $C$DW$T$272, DW_AT_address_class(0x20)
    6614              
    6615              $C$DW$T$160     .dwtag  DW_TAG_structure_type
    6616                      .dwattr $C$DW$T$160, DW_AT_name("_MATH_vec3_")
    6617                      .dwattr $C$DW$T$160, DW_AT_byte_size(0x06)
    6618              $C$DW$928       .dwtag  DW_TAG_member
    6619                      .dwattr $C$DW$928, DW_AT_type(*$C$DW$T$159)
    6620                      .dwattr $C$DW$928, DW_AT_name("value")
    6621                      .dwattr $C$DW$928, DW_AT_TI_symbol_name("_value")
    6622                      .dwattr $C$DW$928, DW_AT_data_member_location[DW_OP_plus_uconst 0x0]
    6623                      .dwattr $C$DW$928, DW_AT_accessibility(DW_ACCESS_public)
    6624                      .dwendtag $C$DW$T$160
    6625              
    6626              $C$DW$T$118     .dwtag  DW_TAG_typedef, DW_AT_name("MATH_vec3")
    6627                      .dwattr $C$DW$T$118, DW_AT_type(*$C$DW$T$160)
    6628                      .dwattr $C$DW$T$118, DW_AT_language(DW_LANG_C)
    6629              
TMS320C2000 Assembler PC v6.4.4 Wed Jul 08 12:49:31 2015

Tools Copyright (c) 1996-2015 Texas Instruments Incorporated
C:\Users\grant\AppData\Local\Temp\0448010                            PAGE  129

    6630              $C$DW$T$163     .dwtag  DW_TAG_structure_type
    6631                      .dwattr $C$DW$T$163, DW_AT_name("_MOTOR_Params_")
    6632                      .dwattr $C$DW$T$163, DW_AT_byte_size(0x0e)
    6633              $C$DW$929       .dwtag  DW_TAG_member
    6634                      .dwattr $C$DW$929, DW_AT_type(*$C$DW$T$162)
    6635                      .dwattr $C$DW$929, DW_AT_name("type")
    6636                      .dwattr $C$DW$929, DW_AT_TI_symbol_name("_type")
    6637                      .dwattr $C$DW$929, DW_AT_data_member_location[DW_OP_plus_uconst 0x0]
    6638                      .dwattr $C$DW$929, DW_AT_accessibility(DW_ACCESS_public)
    6639              $C$DW$930       .dwtag  DW_TAG_member
    6640                      .dwattr $C$DW$930, DW_AT_type(*$C$DW$T$70)
    6641                      .dwattr $C$DW$930, DW_AT_name("numPolePairs")
    6642                      .dwattr $C$DW$930, DW_AT_TI_symbol_name("_numPolePairs")
    6643                      .dwattr $C$DW$930, DW_AT_data_member_location[DW_OP_plus_uconst 0x1]
    6644                      .dwattr $C$DW$930, DW_AT_accessibility(DW_ACCESS_public)
    6645              $C$DW$931       .dwtag  DW_TAG_member
    6646                      .dwattr $C$DW$931, DW_AT_type(*$C$DW$T$71)
    6647                      .dwattr $C$DW$931, DW_AT_name("Lr_H")
    6648                      .dwattr $C$DW$931, DW_AT_TI_symbol_name("_Lr_H")
    6649                      .dwattr $C$DW$931, DW_AT_data_member_location[DW_OP_plus_uconst 0x2]
    6650                      .dwattr $C$DW$931, DW_AT_accessibility(DW_ACCESS_public)
    6651              $C$DW$932       .dwtag  DW_TAG_member
    6652                      .dwattr $C$DW$932, DW_AT_type(*$C$DW$T$71)
    6653                      .dwattr $C$DW$932, DW_AT_name("Ls_d_H")
    6654                      .dwattr $C$DW$932, DW_AT_TI_symbol_name("_Ls_d_H")
    6655                      .dwattr $C$DW$932, DW_AT_data_member_location[DW_OP_plus_uconst 0x4]
    6656                      .dwattr $C$DW$932, DW_AT_accessibility(DW_ACCESS_public)
    6657              $C$DW$933       .dwtag  DW_TAG_member
    6658                      .dwattr $C$DW$933, DW_AT_type(*$C$DW$T$71)
    6659                      .dwattr $C$DW$933, DW_AT_name("Ls_q_H")
    6660                      .dwattr $C$DW$933, DW_AT_TI_symbol_name("_Ls_q_H")
    6661                      .dwattr $C$DW$933, DW_AT_data_member_location[DW_OP_plus_uconst 0x6]
    6662                      .dwattr $C$DW$933, DW_AT_accessibility(DW_ACCESS_public)
    6663              $C$DW$934       .dwtag  DW_TAG_member
    6664                      .dwattr $C$DW$934, DW_AT_type(*$C$DW$T$71)
    6665                      .dwattr $C$DW$934, DW_AT_name("Rr_Ohm")
    6666                      .dwattr $C$DW$934, DW_AT_TI_symbol_name("_Rr_Ohm")
    6667                      .dwattr $C$DW$934, DW_AT_data_member_location[DW_OP_plus_uconst 0x8]
    6668                      .dwattr $C$DW$934, DW_AT_accessibility(DW_ACCESS_public)
    6669              $C$DW$935       .dwtag  DW_TAG_member
    6670                      .dwattr $C$DW$935, DW_AT_type(*$C$DW$T$71)
    6671                      .dwattr $C$DW$935, DW_AT_name("Rs_Ohm")
    6672                      .dwattr $C$DW$935, DW_AT_TI_symbol_name("_Rs_Ohm")
    6673                      .dwattr $C$DW$935, DW_AT_data_member_location[DW_OP_plus_uconst 0xa]
    6674                      .dwattr $C$DW$935, DW_AT_accessibility(DW_ACCESS_public)
    6675              $C$DW$936       .dwtag  DW_TAG_member
    6676                      .dwattr $C$DW$936, DW_AT_type(*$C$DW$T$71)
    6677                      .dwattr $C$DW$936, DW_AT_name("ratedFlux_VpHz")
    6678                      .dwattr $C$DW$936, DW_AT_TI_symbol_name("_ratedFlux_VpHz")
    6679                      .dwattr $C$DW$936, DW_AT_data_member_location[DW_OP_plus_uconst 0xc]
    6680                      .dwattr $C$DW$936, DW_AT_accessibility(DW_ACCESS_public)
    6681                      .dwendtag $C$DW$T$163
    6682              
    6683              $C$DW$T$66      .dwtag  DW_TAG_typedef, DW_AT_name("MOTOR_Params")
    6684                      .dwattr $C$DW$T$66, DW_AT_type(*$C$DW$T$163)
TMS320C2000 Assembler PC v6.4.4 Wed Jul 08 12:49:31 2015

Tools Copyright (c) 1996-2015 Texas Instruments Incorporated
C:\Users\grant\AppData\Local\Temp\0448010                            PAGE  130

    6685                      .dwattr $C$DW$T$66, DW_AT_language(DW_LANG_C)
    6686              
    6687              $C$DW$T$168     .dwtag  DW_TAG_structure_type
    6688                      .dwattr $C$DW$T$168, DW_AT_name("_MOTOR_Vars_t_")
    6689                      .dwattr $C$DW$T$168, DW_AT_byte_size(0x66)
    6690              $C$DW$937       .dwtag  DW_TAG_member
    6691                      .dwattr $C$DW$937, DW_AT_type(*$C$DW$T$73)
    6692                      .dwattr $C$DW$937, DW_AT_name("Flag_enableSys")
    6693                      .dwattr $C$DW$937, DW_AT_TI_symbol_name("_Flag_enableSys")
    6694                      .dwattr $C$DW$937, DW_AT_data_member_location[DW_OP_plus_uconst 0x0]
    6695                      .dwattr $C$DW$937, DW_AT_accessibility(DW_ACCESS_public)
    6696              $C$DW$938       .dwtag  DW_TAG_member
    6697                      .dwattr $C$DW$938, DW_AT_type(*$C$DW$T$73)
    6698                      .dwattr $C$DW$938, DW_AT_name("Flag_Run_Identify")
    6699                      .dwattr $C$DW$938, DW_AT_TI_symbol_name("_Flag_Run_Identify")
    6700                      .dwattr $C$DW$938, DW_AT_data_member_location[DW_OP_plus_uconst 0x1]
    6701                      .dwattr $C$DW$938, DW_AT_accessibility(DW_ACCESS_public)
    6702              $C$DW$939       .dwtag  DW_TAG_member
    6703                      .dwattr $C$DW$939, DW_AT_type(*$C$DW$T$73)
    6704                      .dwattr $C$DW$939, DW_AT_name("Flag_MotorIdentified")
    6705                      .dwattr $C$DW$939, DW_AT_TI_symbol_name("_Flag_MotorIdentified")
    6706                      .dwattr $C$DW$939, DW_AT_data_member_location[DW_OP_plus_uconst 0x2]
    6707                      .dwattr $C$DW$939, DW_AT_accessibility(DW_ACCESS_public)
    6708              $C$DW$940       .dwtag  DW_TAG_member
    6709                      .dwattr $C$DW$940, DW_AT_type(*$C$DW$T$73)
    6710                      .dwattr $C$DW$940, DW_AT_name("Flag_enableForceAngle")
    6711                      .dwattr $C$DW$940, DW_AT_TI_symbol_name("_Flag_enableForceAngle")
    6712                      .dwattr $C$DW$940, DW_AT_data_member_location[DW_OP_plus_uconst 0x3]
    6713                      .dwattr $C$DW$940, DW_AT_accessibility(DW_ACCESS_public)
    6714              $C$DW$941       .dwtag  DW_TAG_member
    6715                      .dwattr $C$DW$941, DW_AT_type(*$C$DW$T$73)
    6716                      .dwattr $C$DW$941, DW_AT_name("Flag_enableFieldWeakening")
    6717                      .dwattr $C$DW$941, DW_AT_TI_symbol_name("_Flag_enableFieldWeakening")
    6718                      .dwattr $C$DW$941, DW_AT_data_member_location[DW_OP_plus_uconst 0x4]
    6719                      .dwattr $C$DW$941, DW_AT_accessibility(DW_ACCESS_public)
    6720              $C$DW$942       .dwtag  DW_TAG_member
    6721                      .dwattr $C$DW$942, DW_AT_type(*$C$DW$T$73)
    6722                      .dwattr $C$DW$942, DW_AT_name("Flag_enableRsRecalc")
    6723                      .dwattr $C$DW$942, DW_AT_TI_symbol_name("_Flag_enableRsRecalc")
    6724                      .dwattr $C$DW$942, DW_AT_data_member_location[DW_OP_plus_uconst 0x5]
    6725                      .dwattr $C$DW$942, DW_AT_accessibility(DW_ACCESS_public)
    6726              $C$DW$943       .dwtag  DW_TAG_member
    6727                      .dwattr $C$DW$943, DW_AT_type(*$C$DW$T$73)
    6728                      .dwattr $C$DW$943, DW_AT_name("Flag_enableUserParams")
    6729                      .dwattr $C$DW$943, DW_AT_TI_symbol_name("_Flag_enableUserParams")
    6730                      .dwattr $C$DW$943, DW_AT_data_member_location[DW_OP_plus_uconst 0x6]
    6731                      .dwattr $C$DW$943, DW_AT_accessibility(DW_ACCESS_public)
    6732              $C$DW$944       .dwtag  DW_TAG_member
    6733                      .dwattr $C$DW$944, DW_AT_type(*$C$DW$T$73)
    6734                      .dwattr $C$DW$944, DW_AT_name("Flag_enableOffsetcalc")
    6735                      .dwattr $C$DW$944, DW_AT_TI_symbol_name("_Flag_enableOffsetcalc")
    6736                      .dwattr $C$DW$944, DW_AT_data_member_location[DW_OP_plus_uconst 0x7]
    6737                      .dwattr $C$DW$944, DW_AT_accessibility(DW_ACCESS_public)
    6738              $C$DW$945       .dwtag  DW_TAG_member
    6739                      .dwattr $C$DW$945, DW_AT_type(*$C$DW$T$73)
TMS320C2000 Assembler PC v6.4.4 Wed Jul 08 12:49:31 2015

Tools Copyright (c) 1996-2015 Texas Instruments Incorporated
C:\Users\grant\AppData\Local\Temp\0448010                            PAGE  131

    6740                      .dwattr $C$DW$945, DW_AT_name("Flag_enablePowerWarp")
    6741                      .dwattr $C$DW$945, DW_AT_TI_symbol_name("_Flag_enablePowerWarp")
    6742                      .dwattr $C$DW$945, DW_AT_data_member_location[DW_OP_plus_uconst 0x8]
    6743                      .dwattr $C$DW$945, DW_AT_accessibility(DW_ACCESS_public)
    6744              $C$DW$946       .dwtag  DW_TAG_member
    6745                      .dwattr $C$DW$946, DW_AT_type(*$C$DW$T$73)
    6746                      .dwattr $C$DW$946, DW_AT_name("Flag_enableSpeedCtrl")
    6747                      .dwattr $C$DW$946, DW_AT_TI_symbol_name("_Flag_enableSpeedCtrl")
    6748                      .dwattr $C$DW$946, DW_AT_data_member_location[DW_OP_plus_uconst 0x9]
    6749                      .dwattr $C$DW$946, DW_AT_accessibility(DW_ACCESS_public)
    6750              $C$DW$947       .dwtag  DW_TAG_member
    6751                      .dwattr $C$DW$947, DW_AT_type(*$C$DW$T$43)
    6752                      .dwattr $C$DW$947, DW_AT_name("CtrlState")
    6753                      .dwattr $C$DW$947, DW_AT_TI_symbol_name("_CtrlState")
    6754                      .dwattr $C$DW$947, DW_AT_data_member_location[DW_OP_plus_uconst 0xa]
    6755                      .dwattr $C$DW$947, DW_AT_accessibility(DW_ACCESS_public)
    6756              $C$DW$948       .dwtag  DW_TAG_member
    6757                      .dwattr $C$DW$948, DW_AT_type(*$C$DW$T$165)
    6758                      .dwattr $C$DW$948, DW_AT_name("EstState")
    6759                      .dwattr $C$DW$948, DW_AT_TI_symbol_name("_EstState")
    6760                      .dwattr $C$DW$948, DW_AT_data_member_location[DW_OP_plus_uconst 0xb]
    6761                      .dwattr $C$DW$948, DW_AT_accessibility(DW_ACCESS_public)
    6762              $C$DW$949       .dwtag  DW_TAG_member
    6763                      .dwattr $C$DW$949, DW_AT_type(*$C$DW$T$167)
    6764                      .dwattr $C$DW$949, DW_AT_name("UserErrorCode")
    6765                      .dwattr $C$DW$949, DW_AT_TI_symbol_name("_UserErrorCode")
    6766                      .dwattr $C$DW$949, DW_AT_data_member_location[DW_OP_plus_uconst 0xc]
    6767                      .dwattr $C$DW$949, DW_AT_accessibility(DW_ACCESS_public)
    6768              $C$DW$950       .dwtag  DW_TAG_member
    6769                      .dwattr $C$DW$950, DW_AT_type(*$C$DW$T$41)
    6770                      .dwattr $C$DW$950, DW_AT_name("CtrlVersion")
    6771                      .dwattr $C$DW$950, DW_AT_TI_symbol_name("_CtrlVersion")
    6772                      .dwattr $C$DW$950, DW_AT_data_member_location[DW_OP_plus_uconst 0xd]
    6773                      .dwattr $C$DW$950, DW_AT_accessibility(DW_ACCESS_public)
    6774              $C$DW$951       .dwtag  DW_TAG_member
    6775                      .dwattr $C$DW$951, DW_AT_type(*$C$DW$T$35)
    6776                      .dwattr $C$DW$951, DW_AT_name("IdRef_A")
    6777                      .dwattr $C$DW$951, DW_AT_TI_symbol_name("_IdRef_A")
    6778                      .dwattr $C$DW$951, DW_AT_data_member_location[DW_OP_plus_uconst 0x12]
    6779                      .dwattr $C$DW$951, DW_AT_accessibility(DW_ACCESS_public)
    6780              $C$DW$952       .dwtag  DW_TAG_member
    6781                      .dwattr $C$DW$952, DW_AT_type(*$C$DW$T$35)
    6782                      .dwattr $C$DW$952, DW_AT_name("IqRef_A")
    6783                      .dwattr $C$DW$952, DW_AT_TI_symbol_name("_IqRef_A")
    6784                      .dwattr $C$DW$952, DW_AT_data_member_location[DW_OP_plus_uconst 0x14]
    6785                      .dwattr $C$DW$952, DW_AT_accessibility(DW_ACCESS_public)
    6786              $C$DW$953       .dwtag  DW_TAG_member
    6787                      .dwattr $C$DW$953, DW_AT_type(*$C$DW$T$35)
    6788                      .dwattr $C$DW$953, DW_AT_name("SpeedRef_krpm")
    6789                      .dwattr $C$DW$953, DW_AT_TI_symbol_name("_SpeedRef_krpm")
    6790                      .dwattr $C$DW$953, DW_AT_data_member_location[DW_OP_plus_uconst 0x16]
    6791                      .dwattr $C$DW$953, DW_AT_accessibility(DW_ACCESS_public)
    6792              $C$DW$954       .dwtag  DW_TAG_member
    6793                      .dwattr $C$DW$954, DW_AT_type(*$C$DW$T$35)
    6794                      .dwattr $C$DW$954, DW_AT_name("SpeedTraj_krpm")
TMS320C2000 Assembler PC v6.4.4 Wed Jul 08 12:49:31 2015

Tools Copyright (c) 1996-2015 Texas Instruments Incorporated
C:\Users\grant\AppData\Local\Temp\0448010                            PAGE  132

    6795                      .dwattr $C$DW$954, DW_AT_TI_symbol_name("_SpeedTraj_krpm")
    6796                      .dwattr $C$DW$954, DW_AT_data_member_location[DW_OP_plus_uconst 0x18]
    6797                      .dwattr $C$DW$954, DW_AT_accessibility(DW_ACCESS_public)
    6798              $C$DW$955       .dwtag  DW_TAG_member
    6799                      .dwattr $C$DW$955, DW_AT_type(*$C$DW$T$35)
    6800                      .dwattr $C$DW$955, DW_AT_name("MaxAccel_krpmps")
    6801                      .dwattr $C$DW$955, DW_AT_TI_symbol_name("_MaxAccel_krpmps")
    6802                      .dwattr $C$DW$955, DW_AT_data_member_location[DW_OP_plus_uconst 0x1a]
    6803                      .dwattr $C$DW$955, DW_AT_accessibility(DW_ACCESS_public)
    6804              $C$DW$956       .dwtag  DW_TAG_member
    6805                      .dwattr $C$DW$956, DW_AT_type(*$C$DW$T$35)
    6806                      .dwattr $C$DW$956, DW_AT_name("Speed_krpm")
    6807                      .dwattr $C$DW$956, DW_AT_TI_symbol_name("_Speed_krpm")
    6808                      .dwattr $C$DW$956, DW_AT_data_member_location[DW_OP_plus_uconst 0x1c]
    6809                      .dwattr $C$DW$956, DW_AT_accessibility(DW_ACCESS_public)
    6810              $C$DW$957       .dwtag  DW_TAG_member
    6811                      .dwattr $C$DW$957, DW_AT_type(*$C$DW$T$35)
    6812                      .dwattr $C$DW$957, DW_AT_name("OverModulation")
    6813                      .dwattr $C$DW$957, DW_AT_TI_symbol_name("_OverModulation")
    6814                      .dwattr $C$DW$957, DW_AT_data_member_location[DW_OP_plus_uconst 0x1e]
    6815                      .dwattr $C$DW$957, DW_AT_accessibility(DW_ACCESS_public)
    6816              $C$DW$958       .dwtag  DW_TAG_member
    6817                      .dwattr $C$DW$958, DW_AT_type(*$C$DW$T$35)
    6818                      .dwattr $C$DW$958, DW_AT_name("RsOnLineCurrent_A")
    6819                      .dwattr $C$DW$958, DW_AT_TI_symbol_name("_RsOnLineCurrent_A")
    6820                      .dwattr $C$DW$958, DW_AT_data_member_location[DW_OP_plus_uconst 0x20]
    6821                      .dwattr $C$DW$958, DW_AT_accessibility(DW_ACCESS_public)
    6822              $C$DW$959       .dwtag  DW_TAG_member
    6823                      .dwattr $C$DW$959, DW_AT_type(*$C$DW$T$35)
    6824                      .dwattr $C$DW$959, DW_AT_name("SvgenMaxModulation_ticks")
    6825                      .dwattr $C$DW$959, DW_AT_TI_symbol_name("_SvgenMaxModulation_ticks")
    6826                      .dwattr $C$DW$959, DW_AT_data_member_location[DW_OP_plus_uconst 0x22]
    6827                      .dwattr $C$DW$959, DW_AT_accessibility(DW_ACCESS_public)
    6828              $C$DW$960       .dwtag  DW_TAG_member
    6829                      .dwattr $C$DW$960, DW_AT_type(*$C$DW$T$35)
    6830                      .dwattr $C$DW$960, DW_AT_name("Flux_Wb")
    6831                      .dwattr $C$DW$960, DW_AT_TI_symbol_name("_Flux_Wb")
    6832                      .dwattr $C$DW$960, DW_AT_data_member_location[DW_OP_plus_uconst 0x24]
    6833                      .dwattr $C$DW$960, DW_AT_accessibility(DW_ACCESS_public)
    6834              $C$DW$961       .dwtag  DW_TAG_member
    6835                      .dwattr $C$DW$961, DW_AT_type(*$C$DW$T$35)
    6836                      .dwattr $C$DW$961, DW_AT_name("Torque_Nm")
    6837                      .dwattr $C$DW$961, DW_AT_TI_symbol_name("_Torque_Nm")
    6838                      .dwattr $C$DW$961, DW_AT_data_member_location[DW_OP_plus_uconst 0x26]
    6839                      .dwattr $C$DW$961, DW_AT_accessibility(DW_ACCESS_public)
    6840              $C$DW$962       .dwtag  DW_TAG_member
    6841                      .dwattr $C$DW$962, DW_AT_type(*$C$DW$T$71)
    6842                      .dwattr $C$DW$962, DW_AT_name("MagnCurr_A")
    6843                      .dwattr $C$DW$962, DW_AT_TI_symbol_name("_MagnCurr_A")
    6844                      .dwattr $C$DW$962, DW_AT_data_member_location[DW_OP_plus_uconst 0x28]
    6845                      .dwattr $C$DW$962, DW_AT_accessibility(DW_ACCESS_public)
    6846              $C$DW$963       .dwtag  DW_TAG_member
    6847                      .dwattr $C$DW$963, DW_AT_type(*$C$DW$T$71)
    6848                      .dwattr $C$DW$963, DW_AT_name("Rr_Ohm")
    6849                      .dwattr $C$DW$963, DW_AT_TI_symbol_name("_Rr_Ohm")
TMS320C2000 Assembler PC v6.4.4 Wed Jul 08 12:49:31 2015

Tools Copyright (c) 1996-2015 Texas Instruments Incorporated
C:\Users\grant\AppData\Local\Temp\0448010                            PAGE  133

    6850                      .dwattr $C$DW$963, DW_AT_data_member_location[DW_OP_plus_uconst 0x2a]
    6851                      .dwattr $C$DW$963, DW_AT_accessibility(DW_ACCESS_public)
    6852              $C$DW$964       .dwtag  DW_TAG_member
    6853                      .dwattr $C$DW$964, DW_AT_type(*$C$DW$T$71)
    6854                      .dwattr $C$DW$964, DW_AT_name("Rs_Ohm")
    6855                      .dwattr $C$DW$964, DW_AT_TI_symbol_name("_Rs_Ohm")
    6856                      .dwattr $C$DW$964, DW_AT_data_member_location[DW_OP_plus_uconst 0x2c]
    6857                      .dwattr $C$DW$964, DW_AT_accessibility(DW_ACCESS_public)
    6858              $C$DW$965       .dwtag  DW_TAG_member
    6859                      .dwattr $C$DW$965, DW_AT_type(*$C$DW$T$71)
    6860                      .dwattr $C$DW$965, DW_AT_name("RsOnLine_Ohm")
    6861                      .dwattr $C$DW$965, DW_AT_TI_symbol_name("_RsOnLine_Ohm")
    6862                      .dwattr $C$DW$965, DW_AT_data_member_location[DW_OP_plus_uconst 0x2e]
    6863                      .dwattr $C$DW$965, DW_AT_accessibility(DW_ACCESS_public)
    6864              $C$DW$966       .dwtag  DW_TAG_member
    6865                      .dwattr $C$DW$966, DW_AT_type(*$C$DW$T$71)
    6866                      .dwattr $C$DW$966, DW_AT_name("Lsd_H")
    6867                      .dwattr $C$DW$966, DW_AT_TI_symbol_name("_Lsd_H")
    6868                      .dwattr $C$DW$966, DW_AT_data_member_location[DW_OP_plus_uconst 0x30]
    6869                      .dwattr $C$DW$966, DW_AT_accessibility(DW_ACCESS_public)
    6870              $C$DW$967       .dwtag  DW_TAG_member
    6871                      .dwattr $C$DW$967, DW_AT_type(*$C$DW$T$71)
    6872                      .dwattr $C$DW$967, DW_AT_name("Lsq_H")
    6873                      .dwattr $C$DW$967, DW_AT_TI_symbol_name("_Lsq_H")
    6874                      .dwattr $C$DW$967, DW_AT_data_member_location[DW_OP_plus_uconst 0x32]
    6875                      .dwattr $C$DW$967, DW_AT_accessibility(DW_ACCESS_public)
    6876              $C$DW$968       .dwtag  DW_TAG_member
    6877                      .dwattr $C$DW$968, DW_AT_type(*$C$DW$T$71)
    6878                      .dwattr $C$DW$968, DW_AT_name("Flux_VpHz")
    6879                      .dwattr $C$DW$968, DW_AT_TI_symbol_name("_Flux_VpHz")
    6880                      .dwattr $C$DW$968, DW_AT_data_member_location[DW_OP_plus_uconst 0x34]
    6881                      .dwattr $C$DW$968, DW_AT_accessibility(DW_ACCESS_public)
    6882              $C$DW$969       .dwtag  DW_TAG_member
    6883                      .dwattr $C$DW$969, DW_AT_type(*$C$DW$T$71)
    6884                      .dwattr $C$DW$969, DW_AT_name("ipd_excFreq_Hz")
    6885                      .dwattr $C$DW$969, DW_AT_TI_symbol_name("_ipd_excFreq_Hz")
    6886                      .dwattr $C$DW$969, DW_AT_data_member_location[DW_OP_plus_uconst 0x36]
    6887                      .dwattr $C$DW$969, DW_AT_accessibility(DW_ACCESS_public)
    6888              $C$DW$970       .dwtag  DW_TAG_member
    6889                      .dwattr $C$DW$970, DW_AT_type(*$C$DW$T$35)
    6890                      .dwattr $C$DW$970, DW_AT_name("ipd_Kspd")
    6891                      .dwattr $C$DW$970, DW_AT_TI_symbol_name("_ipd_Kspd")
    6892                      .dwattr $C$DW$970, DW_AT_data_member_location[DW_OP_plus_uconst 0x38]
    6893                      .dwattr $C$DW$970, DW_AT_accessibility(DW_ACCESS_public)
    6894              $C$DW$971       .dwtag  DW_TAG_member
    6895                      .dwattr $C$DW$971, DW_AT_type(*$C$DW$T$35)
    6896                      .dwattr $C$DW$971, DW_AT_name("ipd_excMag_coarse_pu")
    6897                      .dwattr $C$DW$971, DW_AT_TI_symbol_name("_ipd_excMag_coarse_pu")
    6898                      .dwattr $C$DW$971, DW_AT_data_member_location[DW_OP_plus_uconst 0x3a]
    6899                      .dwattr $C$DW$971, DW_AT_accessibility(DW_ACCESS_public)
    6900              $C$DW$972       .dwtag  DW_TAG_member
    6901                      .dwattr $C$DW$972, DW_AT_type(*$C$DW$T$35)
    6902                      .dwattr $C$DW$972, DW_AT_name("ipd_excMag_fine_pu")
    6903                      .dwattr $C$DW$972, DW_AT_TI_symbol_name("_ipd_excMag_fine_pu")
    6904                      .dwattr $C$DW$972, DW_AT_data_member_location[DW_OP_plus_uconst 0x3c]
TMS320C2000 Assembler PC v6.4.4 Wed Jul 08 12:49:31 2015

Tools Copyright (c) 1996-2015 Texas Instruments Incorporated
C:\Users\grant\AppData\Local\Temp\0448010                            PAGE  134

    6905                      .dwattr $C$DW$972, DW_AT_accessibility(DW_ACCESS_public)
    6906              $C$DW$973       .dwtag  DW_TAG_member
    6907                      .dwattr $C$DW$973, DW_AT_type(*$C$DW$T$16)
    6908                      .dwattr $C$DW$973, DW_AT_name("ipd_waitTime_coarse_sec")
    6909                      .dwattr $C$DW$973, DW_AT_TI_symbol_name("_ipd_waitTime_coarse_sec")
    6910                      .dwattr $C$DW$973, DW_AT_data_member_location[DW_OP_plus_uconst 0x3e]
    6911                      .dwattr $C$DW$973, DW_AT_accessibility(DW_ACCESS_public)
    6912              $C$DW$974       .dwtag  DW_TAG_member
    6913                      .dwattr $C$DW$974, DW_AT_type(*$C$DW$T$16)
    6914                      .dwattr $C$DW$974, DW_AT_name("ipd_waitTime_fine_sec")
    6915                      .dwattr $C$DW$974, DW_AT_TI_symbol_name("_ipd_waitTime_fine_sec")
    6916                      .dwattr $C$DW$974, DW_AT_data_member_location[DW_OP_plus_uconst 0x40]
    6917                      .dwattr $C$DW$974, DW_AT_accessibility(DW_ACCESS_public)
    6918              $C$DW$975       .dwtag  DW_TAG_member
    6919                      .dwattr $C$DW$975, DW_AT_type(*$C$DW$T$35)
    6920                      .dwattr $C$DW$975, DW_AT_name("Kp_spd")
    6921                      .dwattr $C$DW$975, DW_AT_TI_symbol_name("_Kp_spd")
    6922                      .dwattr $C$DW$975, DW_AT_data_member_location[DW_OP_plus_uconst 0x42]
    6923                      .dwattr $C$DW$975, DW_AT_accessibility(DW_ACCESS_public)
    6924              $C$DW$976       .dwtag  DW_TAG_member
    6925                      .dwattr $C$DW$976, DW_AT_type(*$C$DW$T$35)
    6926                      .dwattr $C$DW$976, DW_AT_name("Ki_spd")
    6927                      .dwattr $C$DW$976, DW_AT_TI_symbol_name("_Ki_spd")
    6928                      .dwattr $C$DW$976, DW_AT_data_member_location[DW_OP_plus_uconst 0x44]
    6929                      .dwattr $C$DW$976, DW_AT_accessibility(DW_ACCESS_public)
    6930              $C$DW$977       .dwtag  DW_TAG_member
    6931                      .dwattr $C$DW$977, DW_AT_type(*$C$DW$T$35)
    6932                      .dwattr $C$DW$977, DW_AT_name("Kp_Idq")
    6933                      .dwattr $C$DW$977, DW_AT_TI_symbol_name("_Kp_Idq")
    6934                      .dwattr $C$DW$977, DW_AT_data_member_location[DW_OP_plus_uconst 0x46]
    6935                      .dwattr $C$DW$977, DW_AT_accessibility(DW_ACCESS_public)
    6936              $C$DW$978       .dwtag  DW_TAG_member
    6937                      .dwattr $C$DW$978, DW_AT_type(*$C$DW$T$35)
    6938                      .dwattr $C$DW$978, DW_AT_name("Ki_Idq")
    6939                      .dwattr $C$DW$978, DW_AT_TI_symbol_name("_Ki_Idq")
    6940                      .dwattr $C$DW$978, DW_AT_data_member_location[DW_OP_plus_uconst 0x48]
    6941                      .dwattr $C$DW$978, DW_AT_accessibility(DW_ACCESS_public)
    6942              $C$DW$979       .dwtag  DW_TAG_member
    6943                      .dwattr $C$DW$979, DW_AT_type(*$C$DW$T$35)
    6944                      .dwattr $C$DW$979, DW_AT_name("Vd")
    6945                      .dwattr $C$DW$979, DW_AT_TI_symbol_name("_Vd")
    6946                      .dwattr $C$DW$979, DW_AT_data_member_location[DW_OP_plus_uconst 0x4a]
    6947                      .dwattr $C$DW$979, DW_AT_accessibility(DW_ACCESS_public)
    6948              $C$DW$980       .dwtag  DW_TAG_member
    6949                      .dwattr $C$DW$980, DW_AT_type(*$C$DW$T$35)
    6950                      .dwattr $C$DW$980, DW_AT_name("Vq")
    6951                      .dwattr $C$DW$980, DW_AT_TI_symbol_name("_Vq")
    6952                      .dwattr $C$DW$980, DW_AT_data_member_location[DW_OP_plus_uconst 0x4c]
    6953                      .dwattr $C$DW$980, DW_AT_accessibility(DW_ACCESS_public)
    6954              $C$DW$981       .dwtag  DW_TAG_member
    6955                      .dwattr $C$DW$981, DW_AT_type(*$C$DW$T$35)
    6956                      .dwattr $C$DW$981, DW_AT_name("Vs")
    6957                      .dwattr $C$DW$981, DW_AT_TI_symbol_name("_Vs")
    6958                      .dwattr $C$DW$981, DW_AT_data_member_location[DW_OP_plus_uconst 0x4e]
    6959                      .dwattr $C$DW$981, DW_AT_accessibility(DW_ACCESS_public)
TMS320C2000 Assembler PC v6.4.4 Wed Jul 08 12:49:31 2015

Tools Copyright (c) 1996-2015 Texas Instruments Incorporated
C:\Users\grant\AppData\Local\Temp\0448010                            PAGE  135

    6960              $C$DW$982       .dwtag  DW_TAG_member
    6961                      .dwattr $C$DW$982, DW_AT_type(*$C$DW$T$35)
    6962                      .dwattr $C$DW$982, DW_AT_name("VsRef")
    6963                      .dwattr $C$DW$982, DW_AT_TI_symbol_name("_VsRef")
    6964                      .dwattr $C$DW$982, DW_AT_data_member_location[DW_OP_plus_uconst 0x50]
    6965                      .dwattr $C$DW$982, DW_AT_accessibility(DW_ACCESS_public)
    6966              $C$DW$983       .dwtag  DW_TAG_member
    6967                      .dwattr $C$DW$983, DW_AT_type(*$C$DW$T$35)
    6968                      .dwattr $C$DW$983, DW_AT_name("VdcBus_kV")
    6969                      .dwattr $C$DW$983, DW_AT_TI_symbol_name("_VdcBus_kV")
    6970                      .dwattr $C$DW$983, DW_AT_data_member_location[DW_OP_plus_uconst 0x52]
    6971                      .dwattr $C$DW$983, DW_AT_accessibility(DW_ACCESS_public)
    6972              $C$DW$984       .dwtag  DW_TAG_member
    6973                      .dwattr $C$DW$984, DW_AT_type(*$C$DW$T$35)
    6974                      .dwattr $C$DW$984, DW_AT_name("Id_A")
    6975                      .dwattr $C$DW$984, DW_AT_TI_symbol_name("_Id_A")
    6976                      .dwattr $C$DW$984, DW_AT_data_member_location[DW_OP_plus_uconst 0x54]
    6977                      .dwattr $C$DW$984, DW_AT_accessibility(DW_ACCESS_public)
    6978              $C$DW$985       .dwtag  DW_TAG_member
    6979                      .dwattr $C$DW$985, DW_AT_type(*$C$DW$T$35)
    6980                      .dwattr $C$DW$985, DW_AT_name("Iq_A")
    6981                      .dwattr $C$DW$985, DW_AT_TI_symbol_name("_Iq_A")
    6982                      .dwattr $C$DW$985, DW_AT_data_member_location[DW_OP_plus_uconst 0x56]
    6983                      .dwattr $C$DW$985, DW_AT_accessibility(DW_ACCESS_public)
    6984              $C$DW$986       .dwtag  DW_TAG_member
    6985                      .dwattr $C$DW$986, DW_AT_type(*$C$DW$T$35)
    6986                      .dwattr $C$DW$986, DW_AT_name("Is_A")
    6987                      .dwattr $C$DW$986, DW_AT_TI_symbol_name("_Is_A")
    6988                      .dwattr $C$DW$986, DW_AT_data_member_location[DW_OP_plus_uconst 0x58]
    6989                      .dwattr $C$DW$986, DW_AT_accessibility(DW_ACCESS_public)
    6990              $C$DW$987       .dwtag  DW_TAG_member
    6991                      .dwattr $C$DW$987, DW_AT_type(*$C$DW$T$118)
    6992                      .dwattr $C$DW$987, DW_AT_name("I_bias")
    6993                      .dwattr $C$DW$987, DW_AT_TI_symbol_name("_I_bias")
    6994                      .dwattr $C$DW$987, DW_AT_data_member_location[DW_OP_plus_uconst 0x5a]
    6995                      .dwattr $C$DW$987, DW_AT_accessibility(DW_ACCESS_public)
    6996              $C$DW$988       .dwtag  DW_TAG_member
    6997                      .dwattr $C$DW$988, DW_AT_type(*$C$DW$T$118)
    6998                      .dwattr $C$DW$988, DW_AT_name("V_bias")
    6999                      .dwattr $C$DW$988, DW_AT_TI_symbol_name("_V_bias")
    7000                      .dwattr $C$DW$988, DW_AT_data_member_location[DW_OP_plus_uconst 0x60]
    7001                      .dwattr $C$DW$988, DW_AT_accessibility(DW_ACCESS_public)
    7002                      .dwendtag $C$DW$T$168
    7003              
    7004              $C$DW$T$279     .dwtag  DW_TAG_typedef, DW_AT_name("MOTOR_Vars_t")
    7005                      .dwattr $C$DW$T$279, DW_AT_type(*$C$DW$T$168)
    7006                      .dwattr $C$DW$T$279, DW_AT_language(DW_LANG_C)
    7007              $C$DW$989       .dwtag  DW_TAG_TI_far_type
    7008                      .dwattr $C$DW$989, DW_AT_type(*$C$DW$T$279)
    7009              $C$DW$T$280     .dwtag  DW_TAG_volatile_type
    7010                      .dwattr $C$DW$T$280, DW_AT_type(*$C$DW$989)
    7011              
    7012              $C$DW$T$172     .dwtag  DW_TAG_structure_type
    7013                      .dwattr $C$DW$T$172, DW_AT_name("_OFFSET_")
    7014                      .dwattr $C$DW$T$172, DW_AT_byte_size(0x0e)
TMS320C2000 Assembler PC v6.4.4 Wed Jul 08 12:49:31 2015

Tools Copyright (c) 1996-2015 Texas Instruments Incorporated
C:\Users\grant\AppData\Local\Temp\0448010                            PAGE  136

    7015              $C$DW$990       .dwtag  DW_TAG_member
    7016                      .dwattr $C$DW$990, DW_AT_type(*$C$DW$T$35)
    7017                      .dwattr $C$DW$990, DW_AT_name("value")
    7018                      .dwattr $C$DW$990, DW_AT_TI_symbol_name("_value")
    7019                      .dwattr $C$DW$990, DW_AT_data_member_location[DW_OP_plus_uconst 0x0]
    7020                      .dwattr $C$DW$990, DW_AT_accessibility(DW_ACCESS_public)
    7021              $C$DW$991       .dwtag  DW_TAG_member
    7022                      .dwattr $C$DW$991, DW_AT_type(*$C$DW$T$169)
    7023                      .dwattr $C$DW$991, DW_AT_name("filter")
    7024                      .dwattr $C$DW$991, DW_AT_TI_symbol_name("_filter")
    7025                      .dwattr $C$DW$991, DW_AT_data_member_location[DW_OP_plus_uconst 0x2]
    7026                      .dwattr $C$DW$991, DW_AT_accessibility(DW_ACCESS_public)
    7027              $C$DW$992       .dwtag  DW_TAG_member
    7028                      .dwattr $C$DW$992, DW_AT_type(*$C$DW$T$171)
    7029                      .dwattr $C$DW$992, DW_AT_name("filterHandle")
    7030                      .dwattr $C$DW$992, DW_AT_TI_symbol_name("_filterHandle")
    7031                      .dwattr $C$DW$992, DW_AT_data_member_location[DW_OP_plus_uconst 0xc]
    7032                      .dwattr $C$DW$992, DW_AT_accessibility(DW_ACCESS_public)
    7033                      .dwendtag $C$DW$T$172
    7034              
    7035              $C$DW$T$131     .dwtag  DW_TAG_typedef, DW_AT_name("OFFSET_Obj")
    7036                      .dwattr $C$DW$T$131, DW_AT_type(*$C$DW$T$172)
    7037                      .dwattr $C$DW$T$131, DW_AT_language(DW_LANG_C)
    7038              
    7039              $C$DW$T$132     .dwtag  DW_TAG_array_type
    7040                      .dwattr $C$DW$T$132, DW_AT_type(*$C$DW$T$131)
    7041                      .dwattr $C$DW$T$132, DW_AT_language(DW_LANG_C)
    7042                      .dwattr $C$DW$T$132, DW_AT_byte_size(0x2a)
    7043              $C$DW$993       .dwtag  DW_TAG_subrange_type
    7044                      .dwattr $C$DW$993, DW_AT_upper_bound(0x02)
    7045                      .dwendtag $C$DW$T$132
    7046              
    7047              $C$DW$T$283     .dwtag  DW_TAG_pointer_type
    7048                      .dwattr $C$DW$T$283, DW_AT_type(*$C$DW$T$131)
    7049                      .dwattr $C$DW$T$283, DW_AT_address_class(0x20)
    7050              
    7051              $C$DW$T$21      .dwtag  DW_TAG_structure_type
    7052                      .dwattr $C$DW$T$21, DW_AT_name("_OFFSET_Obj_")
    7053                      .dwattr $C$DW$T$21, DW_AT_declaration
    7054                      .dwendtag $C$DW$T$21
    7055              
    7056              $C$DW$T$128     .dwtag  DW_TAG_pointer_type
    7057                      .dwattr $C$DW$T$128, DW_AT_type(*$C$DW$T$21)
    7058                      .dwattr $C$DW$T$128, DW_AT_address_class(0x20)
    7059              $C$DW$T$129     .dwtag  DW_TAG_typedef, DW_AT_name("OFFSET_Handle")
    7060                      .dwattr $C$DW$T$129, DW_AT_type(*$C$DW$T$128)
    7061                      .dwattr $C$DW$T$129, DW_AT_language(DW_LANG_C)
    7062              
    7063              $C$DW$T$130     .dwtag  DW_TAG_array_type
    7064                      .dwattr $C$DW$T$130, DW_AT_type(*$C$DW$T$129)
    7065                      .dwattr $C$DW$T$130, DW_AT_language(DW_LANG_C)
    7066                      .dwattr $C$DW$T$130, DW_AT_byte_size(0x06)
    7067              $C$DW$994       .dwtag  DW_TAG_subrange_type
    7068                      .dwattr $C$DW$994, DW_AT_upper_bound(0x02)
    7069                      .dwendtag $C$DW$T$130
TMS320C2000 Assembler PC v6.4.4 Wed Jul 08 12:49:31 2015

Tools Copyright (c) 1996-2015 Texas Instruments Incorporated
C:\Users\grant\AppData\Local\Temp\0448010                            PAGE  137

    7070              
    7071              
    7072              $C$DW$T$173     .dwtag  DW_TAG_structure_type
    7073                      .dwattr $C$DW$T$173, DW_AT_name("_OSC_Obj_")
    7074                      .dwattr $C$DW$T$173, DW_AT_byte_size(0x03)
    7075              $C$DW$995       .dwtag  DW_TAG_member
    7076                      .dwattr $C$DW$995, DW_AT_type(*$C$DW$T$27)
    7077                      .dwattr $C$DW$995, DW_AT_name("INTOSC1TRIM")
    7078                      .dwattr $C$DW$995, DW_AT_TI_symbol_name("_INTOSC1TRIM")
    7079                      .dwattr $C$DW$995, DW_AT_data_member_location[DW_OP_plus_uconst 0x0]
    7080                      .dwattr $C$DW$995, DW_AT_accessibility(DW_ACCESS_public)
    7081              $C$DW$996       .dwtag  DW_TAG_member
    7082                      .dwattr $C$DW$996, DW_AT_type(*$C$DW$T$27)
    7083                      .dwattr $C$DW$996, DW_AT_name("rsvd_1")
    7084                      .dwattr $C$DW$996, DW_AT_TI_symbol_name("_rsvd_1")
    7085                      .dwattr $C$DW$996, DW_AT_data_member_location[DW_OP_plus_uconst 0x1]
    7086                      .dwattr $C$DW$996, DW_AT_accessibility(DW_ACCESS_public)
    7087              $C$DW$997       .dwtag  DW_TAG_member
    7088                      .dwattr $C$DW$997, DW_AT_type(*$C$DW$T$27)
    7089                      .dwattr $C$DW$997, DW_AT_name("INTOSC2TRIM")
    7090                      .dwattr $C$DW$997, DW_AT_TI_symbol_name("_INTOSC2TRIM")
    7091                      .dwattr $C$DW$997, DW_AT_data_member_location[DW_OP_plus_uconst 0x2]
    7092                      .dwattr $C$DW$997, DW_AT_accessibility(DW_ACCESS_public)
    7093                      .dwendtag $C$DW$T$173
    7094              
    7095              $C$DW$T$133     .dwtag  DW_TAG_pointer_type
    7096                      .dwattr $C$DW$T$133, DW_AT_type(*$C$DW$T$173)
    7097                      .dwattr $C$DW$T$133, DW_AT_address_class(0x20)
    7098              $C$DW$T$134     .dwtag  DW_TAG_typedef, DW_AT_name("OSC_Handle")
    7099                      .dwattr $C$DW$T$134, DW_AT_type(*$C$DW$T$133)
    7100                      .dwattr $C$DW$T$134, DW_AT_language(DW_LANG_C)
    7101              
    7102              $C$DW$T$174     .dwtag  DW_TAG_structure_type
    7103                      .dwattr $C$DW$T$174, DW_AT_name("_PARK_Obj_")
    7104                      .dwattr $C$DW$T$174, DW_AT_byte_size(0x04)
    7105              $C$DW$998       .dwtag  DW_TAG_member
    7106                      .dwattr $C$DW$998, DW_AT_type(*$C$DW$T$35)
    7107                      .dwattr $C$DW$998, DW_AT_name("sinTh")
    7108                      .dwattr $C$DW$998, DW_AT_TI_symbol_name("_sinTh")
    7109                      .dwattr $C$DW$998, DW_AT_data_member_location[DW_OP_plus_uconst 0x0]
    7110                      .dwattr $C$DW$998, DW_AT_accessibility(DW_ACCESS_public)
    7111              $C$DW$999       .dwtag  DW_TAG_member
    7112                      .dwattr $C$DW$999, DW_AT_type(*$C$DW$T$35)
    7113                      .dwattr $C$DW$999, DW_AT_name("cosTh")
    7114                      .dwattr $C$DW$999, DW_AT_TI_symbol_name("_cosTh")
    7115                      .dwattr $C$DW$999, DW_AT_data_member_location[DW_OP_plus_uconst 0x2]
    7116                      .dwattr $C$DW$999, DW_AT_accessibility(DW_ACCESS_public)
    7117                      .dwendtag $C$DW$T$174
    7118              
    7119              $C$DW$T$53      .dwtag  DW_TAG_typedef, DW_AT_name("PARK_Obj")
    7120                      .dwattr $C$DW$T$53, DW_AT_type(*$C$DW$T$174)
    7121                      .dwattr $C$DW$T$53, DW_AT_language(DW_LANG_C)
    7122              $C$DW$T$286     .dwtag  DW_TAG_pointer_type
    7123                      .dwattr $C$DW$T$286, DW_AT_type(*$C$DW$T$53)
    7124                      .dwattr $C$DW$T$286, DW_AT_address_class(0x20)
TMS320C2000 Assembler PC v6.4.4 Wed Jul 08 12:49:31 2015

Tools Copyright (c) 1996-2015 Texas Instruments Incorporated
C:\Users\grant\AppData\Local\Temp\0448010                            PAGE  138

    7125              $C$DW$T$51      .dwtag  DW_TAG_pointer_type
    7126                      .dwattr $C$DW$T$51, DW_AT_type(*$C$DW$T$174)
    7127                      .dwattr $C$DW$T$51, DW_AT_address_class(0x20)
    7128              $C$DW$T$52      .dwtag  DW_TAG_typedef, DW_AT_name("PARK_Handle")
    7129                      .dwattr $C$DW$T$52, DW_AT_type(*$C$DW$T$51)
    7130                      .dwattr $C$DW$T$52, DW_AT_language(DW_LANG_C)
    7131              
    7132              $C$DW$T$175     .dwtag  DW_TAG_structure_type
    7133                      .dwattr $C$DW$T$175, DW_AT_name("_PID_Obj_")
    7134                      .dwattr $C$DW$T$175, DW_AT_byte_size(0x10)
    7135              $C$DW$1000      .dwtag  DW_TAG_member
    7136                      .dwattr $C$DW$1000, DW_AT_type(*$C$DW$T$35)
    7137                      .dwattr $C$DW$1000, DW_AT_name("Kp")
    7138                      .dwattr $C$DW$1000, DW_AT_TI_symbol_name("_Kp")
    7139                      .dwattr $C$DW$1000, DW_AT_data_member_location[DW_OP_plus_uconst 0x0]
    7140                      .dwattr $C$DW$1000, DW_AT_accessibility(DW_ACCESS_public)
    7141              $C$DW$1001      .dwtag  DW_TAG_member
    7142                      .dwattr $C$DW$1001, DW_AT_type(*$C$DW$T$35)
    7143                      .dwattr $C$DW$1001, DW_AT_name("Ki")
    7144                      .dwattr $C$DW$1001, DW_AT_TI_symbol_name("_Ki")
    7145                      .dwattr $C$DW$1001, DW_AT_data_member_location[DW_OP_plus_uconst 0x2]
    7146                      .dwattr $C$DW$1001, DW_AT_accessibility(DW_ACCESS_public)
    7147              $C$DW$1002      .dwtag  DW_TAG_member
    7148                      .dwattr $C$DW$1002, DW_AT_type(*$C$DW$T$35)
    7149                      .dwattr $C$DW$1002, DW_AT_name("Kd")
    7150                      .dwattr $C$DW$1002, DW_AT_TI_symbol_name("_Kd")
    7151                      .dwattr $C$DW$1002, DW_AT_data_member_location[DW_OP_plus_uconst 0x4]
    7152                      .dwattr $C$DW$1002, DW_AT_accessibility(DW_ACCESS_public)
    7153              $C$DW$1003      .dwtag  DW_TAG_member
    7154                      .dwattr $C$DW$1003, DW_AT_type(*$C$DW$T$35)
    7155                      .dwattr $C$DW$1003, DW_AT_name("Ui")
    7156                      .dwattr $C$DW$1003, DW_AT_TI_symbol_name("_Ui")
    7157                      .dwattr $C$DW$1003, DW_AT_data_member_location[DW_OP_plus_uconst 0x6]
    7158                      .dwattr $C$DW$1003, DW_AT_accessibility(DW_ACCESS_public)
    7159              $C$DW$1004      .dwtag  DW_TAG_member
    7160                      .dwattr $C$DW$1004, DW_AT_type(*$C$DW$T$35)
    7161                      .dwattr $C$DW$1004, DW_AT_name("refValue")
    7162                      .dwattr $C$DW$1004, DW_AT_TI_symbol_name("_refValue")
    7163                      .dwattr $C$DW$1004, DW_AT_data_member_location[DW_OP_plus_uconst 0x8]
    7164                      .dwattr $C$DW$1004, DW_AT_accessibility(DW_ACCESS_public)
    7165              $C$DW$1005      .dwtag  DW_TAG_member
    7166                      .dwattr $C$DW$1005, DW_AT_type(*$C$DW$T$35)
    7167                      .dwattr $C$DW$1005, DW_AT_name("fbackValue")
    7168                      .dwattr $C$DW$1005, DW_AT_TI_symbol_name("_fbackValue")
    7169                      .dwattr $C$DW$1005, DW_AT_data_member_location[DW_OP_plus_uconst 0xa]
    7170                      .dwattr $C$DW$1005, DW_AT_accessibility(DW_ACCESS_public)
    7171              $C$DW$1006      .dwtag  DW_TAG_member
    7172                      .dwattr $C$DW$1006, DW_AT_type(*$C$DW$T$35)
    7173                      .dwattr $C$DW$1006, DW_AT_name("outMin")
    7174                      .dwattr $C$DW$1006, DW_AT_TI_symbol_name("_outMin")
    7175                      .dwattr $C$DW$1006, DW_AT_data_member_location[DW_OP_plus_uconst 0xc]
    7176                      .dwattr $C$DW$1006, DW_AT_accessibility(DW_ACCESS_public)
    7177              $C$DW$1007      .dwtag  DW_TAG_member
    7178                      .dwattr $C$DW$1007, DW_AT_type(*$C$DW$T$35)
    7179                      .dwattr $C$DW$1007, DW_AT_name("outMax")
TMS320C2000 Assembler PC v6.4.4 Wed Jul 08 12:49:31 2015

Tools Copyright (c) 1996-2015 Texas Instruments Incorporated
C:\Users\grant\AppData\Local\Temp\0448010                            PAGE  139

    7180                      .dwattr $C$DW$1007, DW_AT_TI_symbol_name("_outMax")
    7181                      .dwattr $C$DW$1007, DW_AT_data_member_location[DW_OP_plus_uconst 0xe]
    7182                      .dwattr $C$DW$1007, DW_AT_accessibility(DW_ACCESS_public)
    7183                      .dwendtag $C$DW$T$175
    7184              
    7185              $C$DW$T$56      .dwtag  DW_TAG_typedef, DW_AT_name("PID_Obj")
    7186                      .dwattr $C$DW$T$56, DW_AT_type(*$C$DW$T$175)
    7187                      .dwattr $C$DW$T$56, DW_AT_language(DW_LANG_C)
    7188              $C$DW$T$290     .dwtag  DW_TAG_pointer_type
    7189                      .dwattr $C$DW$T$290, DW_AT_type(*$C$DW$T$56)
    7190                      .dwattr $C$DW$T$290, DW_AT_address_class(0x20)
    7191              $C$DW$T$54      .dwtag  DW_TAG_pointer_type
    7192                      .dwattr $C$DW$T$54, DW_AT_type(*$C$DW$T$175)
    7193                      .dwattr $C$DW$T$54, DW_AT_address_class(0x20)
    7194              $C$DW$T$55      .dwtag  DW_TAG_typedef, DW_AT_name("PID_Handle")
    7195                      .dwattr $C$DW$T$55, DW_AT_type(*$C$DW$T$54)
    7196                      .dwattr $C$DW$T$55, DW_AT_language(DW_LANG_C)
    7197              
    7198              $C$DW$T$176     .dwtag  DW_TAG_structure_type
    7199                      .dwattr $C$DW$T$176, DW_AT_name("_PIE_IERIFR_t")
    7200                      .dwattr $C$DW$T$176, DW_AT_byte_size(0x02)
    7201              $C$DW$1008      .dwtag  DW_TAG_member
    7202                      .dwattr $C$DW$1008, DW_AT_type(*$C$DW$T$27)
    7203                      .dwattr $C$DW$1008, DW_AT_name("IER")
    7204                      .dwattr $C$DW$1008, DW_AT_TI_symbol_name("_IER")
    7205                      .dwattr $C$DW$1008, DW_AT_data_member_location[DW_OP_plus_uconst 0x0]
    7206                      .dwattr $C$DW$1008, DW_AT_accessibility(DW_ACCESS_public)
    7207              $C$DW$1009      .dwtag  DW_TAG_member
    7208                      .dwattr $C$DW$1009, DW_AT_type(*$C$DW$T$27)
    7209                      .dwattr $C$DW$1009, DW_AT_name("IFR")
    7210                      .dwattr $C$DW$1009, DW_AT_TI_symbol_name("_IFR")
    7211                      .dwattr $C$DW$1009, DW_AT_data_member_location[DW_OP_plus_uconst 0x1]
    7212                      .dwattr $C$DW$1009, DW_AT_accessibility(DW_ACCESS_public)
    7213                      .dwendtag $C$DW$T$176
    7214              
    7215              $C$DW$T$177     .dwtag  DW_TAG_typedef, DW_AT_name("PIE_IERIFR_t")
    7216                      .dwattr $C$DW$T$177, DW_AT_type(*$C$DW$T$176)
    7217                      .dwattr $C$DW$T$177, DW_AT_language(DW_LANG_C)
    7218              $C$DW$1010      .dwtag  DW_TAG_TI_far_type
    7219                      .dwattr $C$DW$1010, DW_AT_type(*$C$DW$T$177)
    7220              $C$DW$T$178     .dwtag  DW_TAG_volatile_type
    7221                      .dwattr $C$DW$T$178, DW_AT_type(*$C$DW$1010)
    7222              
    7223              $C$DW$T$179     .dwtag  DW_TAG_array_type
    7224                      .dwattr $C$DW$T$179, DW_AT_type(*$C$DW$T$178)
    7225                      .dwattr $C$DW$T$179, DW_AT_language(DW_LANG_C)
    7226                      .dwattr $C$DW$T$179, DW_AT_byte_size(0x18)
    7227              $C$DW$1011      .dwtag  DW_TAG_subrange_type
    7228                      .dwattr $C$DW$1011, DW_AT_upper_bound(0x0b)
    7229                      .dwendtag $C$DW$T$179
    7230              
    7231              
    7232              $C$DW$T$186     .dwtag  DW_TAG_structure_type
    7233                      .dwattr $C$DW$T$186, DW_AT_name("_PIE_Obj_")
    7234                      .dwattr $C$DW$T$186, DW_AT_byte_size(0x639c)
TMS320C2000 Assembler PC v6.4.4 Wed Jul 08 12:49:31 2015

Tools Copyright (c) 1996-2015 Texas Instruments Incorporated
C:\Users\grant\AppData\Local\Temp\0448010                            PAGE  140

    7235              $C$DW$1012      .dwtag  DW_TAG_member
    7236                      .dwattr $C$DW$1012, DW_AT_type(*$C$DW$T$27)
    7237                      .dwattr $C$DW$1012, DW_AT_name("PIECTRL")
    7238                      .dwattr $C$DW$1012, DW_AT_TI_symbol_name("_PIECTRL")
    7239                      .dwattr $C$DW$1012, DW_AT_data_member_location[DW_OP_plus_uconst 0x0]
    7240                      .dwattr $C$DW$1012, DW_AT_accessibility(DW_ACCESS_public)
    7241              $C$DW$1013      .dwtag  DW_TAG_member
    7242                      .dwattr $C$DW$1013, DW_AT_type(*$C$DW$T$27)
    7243                      .dwattr $C$DW$1013, DW_AT_name("PIEACK")
    7244                      .dwattr $C$DW$1013, DW_AT_TI_symbol_name("_PIEACK")
    7245                      .dwattr $C$DW$1013, DW_AT_data_member_location[DW_OP_plus_uconst 0x1]
    7246                      .dwattr $C$DW$1013, DW_AT_accessibility(DW_ACCESS_public)
    7247              $C$DW$1014      .dwtag  DW_TAG_member
    7248                      .dwattr $C$DW$1014, DW_AT_type(*$C$DW$T$179)
    7249                      .dwattr $C$DW$1014, DW_AT_name("PIEIER_PIEIFR")
    7250                      .dwattr $C$DW$1014, DW_AT_TI_symbol_name("_PIEIER_PIEIFR")
    7251                      .dwattr $C$DW$1014, DW_AT_data_member_location[DW_OP_plus_uconst 0x2]
    7252                      .dwattr $C$DW$1014, DW_AT_accessibility(DW_ACCESS_public)
    7253              $C$DW$1015      .dwtag  DW_TAG_member
    7254                      .dwattr $C$DW$1015, DW_AT_type(*$C$DW$T$180)
    7255                      .dwattr $C$DW$1015, DW_AT_name("rsvd_1")
    7256                      .dwattr $C$DW$1015, DW_AT_TI_symbol_name("_rsvd_1")
    7257                      .dwattr $C$DW$1015, DW_AT_data_member_location[DW_OP_plus_uconst 0x1a]
    7258                      .dwattr $C$DW$1015, DW_AT_accessibility(DW_ACCESS_public)
    7259              $C$DW$1016      .dwtag  DW_TAG_member
    7260                      .dwattr $C$DW$1016, DW_AT_type(*$C$DW$T$184)
    7261                      .dwattr $C$DW$1016, DW_AT_name("Reset")
    7262                      .dwattr $C$DW$1016, DW_AT_TI_symbol_name("_Reset")
    7263                      .dwattr $C$DW$1016, DW_AT_data_member_location[DW_OP_plus_uconst 0x20]
    7264                      .dwattr $C$DW$1016, DW_AT_accessibility(DW_ACCESS_public)
    7265              $C$DW$1017      .dwtag  DW_TAG_member
    7266                      .dwattr $C$DW$1017, DW_AT_type(*$C$DW$T$184)
    7267                      .dwattr $C$DW$1017, DW_AT_name("INT1")
    7268                      .dwattr $C$DW$1017, DW_AT_TI_symbol_name("_INT1")
    7269                      .dwattr $C$DW$1017, DW_AT_data_member_location[DW_OP_plus_uconst 0x22]
    7270                      .dwattr $C$DW$1017, DW_AT_accessibility(DW_ACCESS_public)
    7271              $C$DW$1018      .dwtag  DW_TAG_member
    7272                      .dwattr $C$DW$1018, DW_AT_type(*$C$DW$T$184)
    7273                      .dwattr $C$DW$1018, DW_AT_name("INT2")
    7274                      .dwattr $C$DW$1018, DW_AT_TI_symbol_name("_INT2")
    7275                      .dwattr $C$DW$1018, DW_AT_data_member_location[DW_OP_plus_uconst 0x24]
    7276                      .dwattr $C$DW$1018, DW_AT_accessibility(DW_ACCESS_public)
    7277              $C$DW$1019      .dwtag  DW_TAG_member
    7278                      .dwattr $C$DW$1019, DW_AT_type(*$C$DW$T$184)
    7279                      .dwattr $C$DW$1019, DW_AT_name("INT3")
    7280                      .dwattr $C$DW$1019, DW_AT_TI_symbol_name("_INT3")
    7281                      .dwattr $C$DW$1019, DW_AT_data_member_location[DW_OP_plus_uconst 0x26]
    7282                      .dwattr $C$DW$1019, DW_AT_accessibility(DW_ACCESS_public)
    7283              $C$DW$1020      .dwtag  DW_TAG_member
    7284                      .dwattr $C$DW$1020, DW_AT_type(*$C$DW$T$184)
    7285                      .dwattr $C$DW$1020, DW_AT_name("INT4")
    7286                      .dwattr $C$DW$1020, DW_AT_TI_symbol_name("_INT4")
    7287                      .dwattr $C$DW$1020, DW_AT_data_member_location[DW_OP_plus_uconst 0x28]
    7288                      .dwattr $C$DW$1020, DW_AT_accessibility(DW_ACCESS_public)
    7289              $C$DW$1021      .dwtag  DW_TAG_member
TMS320C2000 Assembler PC v6.4.4 Wed Jul 08 12:49:31 2015

Tools Copyright (c) 1996-2015 Texas Instruments Incorporated
C:\Users\grant\AppData\Local\Temp\0448010                            PAGE  141

    7290                      .dwattr $C$DW$1021, DW_AT_type(*$C$DW$T$184)
    7291                      .dwattr $C$DW$1021, DW_AT_name("INT5")
    7292                      .dwattr $C$DW$1021, DW_AT_TI_symbol_name("_INT5")
    7293                      .dwattr $C$DW$1021, DW_AT_data_member_location[DW_OP_plus_uconst 0x2a]
    7294                      .dwattr $C$DW$1021, DW_AT_accessibility(DW_ACCESS_public)
    7295              $C$DW$1022      .dwtag  DW_TAG_member
    7296                      .dwattr $C$DW$1022, DW_AT_type(*$C$DW$T$184)
    7297                      .dwattr $C$DW$1022, DW_AT_name("INT6")
    7298                      .dwattr $C$DW$1022, DW_AT_TI_symbol_name("_INT6")
    7299                      .dwattr $C$DW$1022, DW_AT_data_member_location[DW_OP_plus_uconst 0x2c]
    7300                      .dwattr $C$DW$1022, DW_AT_accessibility(DW_ACCESS_public)
    7301              $C$DW$1023      .dwtag  DW_TAG_member
    7302                      .dwattr $C$DW$1023, DW_AT_type(*$C$DW$T$184)
    7303                      .dwattr $C$DW$1023, DW_AT_name("INT7")
    7304                      .dwattr $C$DW$1023, DW_AT_TI_symbol_name("_INT7")
    7305                      .dwattr $C$DW$1023, DW_AT_data_member_location[DW_OP_plus_uconst 0x2e]
    7306                      .dwattr $C$DW$1023, DW_AT_accessibility(DW_ACCESS_public)
    7307              $C$DW$1024      .dwtag  DW_TAG_member
    7308                      .dwattr $C$DW$1024, DW_AT_type(*$C$DW$T$184)
    7309                      .dwattr $C$DW$1024, DW_AT_name("INT8")
    7310                      .dwattr $C$DW$1024, DW_AT_TI_symbol_name("_INT8")
    7311                      .dwattr $C$DW$1024, DW_AT_data_member_location[DW_OP_plus_uconst 0x30]
    7312                      .dwattr $C$DW$1024, DW_AT_accessibility(DW_ACCESS_public)
    7313              $C$DW$1025      .dwtag  DW_TAG_member
    7314                      .dwattr $C$DW$1025, DW_AT_type(*$C$DW$T$184)
    7315                      .dwattr $C$DW$1025, DW_AT_name("INT9")
    7316                      .dwattr $C$DW$1025, DW_AT_TI_symbol_name("_INT9")
    7317                      .dwattr $C$DW$1025, DW_AT_data_member_location[DW_OP_plus_uconst 0x32]
    7318                      .dwattr $C$DW$1025, DW_AT_accessibility(DW_ACCESS_public)
    7319              $C$DW$1026      .dwtag  DW_TAG_member
    7320                      .dwattr $C$DW$1026, DW_AT_type(*$C$DW$T$184)
    7321                      .dwattr $C$DW$1026, DW_AT_name("INT10")
    7322                      .dwattr $C$DW$1026, DW_AT_TI_symbol_name("_INT10")
    7323                      .dwattr $C$DW$1026, DW_AT_data_member_location[DW_OP_plus_uconst 0x34]
    7324                      .dwattr $C$DW$1026, DW_AT_accessibility(DW_ACCESS_public)
    7325              $C$DW$1027      .dwtag  DW_TAG_member
    7326                      .dwattr $C$DW$1027, DW_AT_type(*$C$DW$T$184)
    7327                      .dwattr $C$DW$1027, DW_AT_name("INT11")
    7328                      .dwattr $C$DW$1027, DW_AT_TI_symbol_name("_INT11")
    7329                      .dwattr $C$DW$1027, DW_AT_data_member_location[DW_OP_plus_uconst 0x36]
    7330                      .dwattr $C$DW$1027, DW_AT_accessibility(DW_ACCESS_public)
    7331              $C$DW$1028      .dwtag  DW_TAG_member
    7332                      .dwattr $C$DW$1028, DW_AT_type(*$C$DW$T$184)
    7333                      .dwattr $C$DW$1028, DW_AT_name("INT12")
    7334                      .dwattr $C$DW$1028, DW_AT_TI_symbol_name("_INT12")
    7335                      .dwattr $C$DW$1028, DW_AT_data_member_location[DW_OP_plus_uconst 0x38]
    7336                      .dwattr $C$DW$1028, DW_AT_accessibility(DW_ACCESS_public)
    7337              $C$DW$1029      .dwtag  DW_TAG_member
    7338                      .dwattr $C$DW$1029, DW_AT_type(*$C$DW$T$184)
    7339                      .dwattr $C$DW$1029, DW_AT_name("TINT1")
    7340                      .dwattr $C$DW$1029, DW_AT_TI_symbol_name("_TINT1")
    7341                      .dwattr $C$DW$1029, DW_AT_data_member_location[DW_OP_plus_uconst 0x3a]
    7342                      .dwattr $C$DW$1029, DW_AT_accessibility(DW_ACCESS_public)
    7343              $C$DW$1030      .dwtag  DW_TAG_member
    7344                      .dwattr $C$DW$1030, DW_AT_type(*$C$DW$T$184)
TMS320C2000 Assembler PC v6.4.4 Wed Jul 08 12:49:31 2015

Tools Copyright (c) 1996-2015 Texas Instruments Incorporated
C:\Users\grant\AppData\Local\Temp\0448010                            PAGE  142

    7345                      .dwattr $C$DW$1030, DW_AT_name("TINT2")
    7346                      .dwattr $C$DW$1030, DW_AT_TI_symbol_name("_TINT2")
    7347                      .dwattr $C$DW$1030, DW_AT_data_member_location[DW_OP_plus_uconst 0x3c]
    7348                      .dwattr $C$DW$1030, DW_AT_accessibility(DW_ACCESS_public)
    7349              $C$DW$1031      .dwtag  DW_TAG_member
    7350                      .dwattr $C$DW$1031, DW_AT_type(*$C$DW$T$184)
    7351                      .dwattr $C$DW$1031, DW_AT_name("DATALOG")
    7352                      .dwattr $C$DW$1031, DW_AT_TI_symbol_name("_DATALOG")
    7353                      .dwattr $C$DW$1031, DW_AT_data_member_location[DW_OP_plus_uconst 0x3e]
    7354                      .dwattr $C$DW$1031, DW_AT_accessibility(DW_ACCESS_public)
    7355              $C$DW$1032      .dwtag  DW_TAG_member
    7356                      .dwattr $C$DW$1032, DW_AT_type(*$C$DW$T$184)
    7357                      .dwattr $C$DW$1032, DW_AT_name("RTOSINT")
    7358                      .dwattr $C$DW$1032, DW_AT_TI_symbol_name("_RTOSINT")
    7359                      .dwattr $C$DW$1032, DW_AT_data_member_location[DW_OP_plus_uconst 0x40]
    7360                      .dwattr $C$DW$1032, DW_AT_accessibility(DW_ACCESS_public)
    7361              $C$DW$1033      .dwtag  DW_TAG_member
    7362                      .dwattr $C$DW$1033, DW_AT_type(*$C$DW$T$184)
    7363                      .dwattr $C$DW$1033, DW_AT_name("EMUINT")
    7364                      .dwattr $C$DW$1033, DW_AT_TI_symbol_name("_EMUINT")
    7365                      .dwattr $C$DW$1033, DW_AT_data_member_location[DW_OP_plus_uconst 0x42]
    7366                      .dwattr $C$DW$1033, DW_AT_accessibility(DW_ACCESS_public)
    7367              $C$DW$1034      .dwtag  DW_TAG_member
    7368                      .dwattr $C$DW$1034, DW_AT_type(*$C$DW$T$184)
    7369                      .dwattr $C$DW$1034, DW_AT_name("NMI")
    7370                      .dwattr $C$DW$1034, DW_AT_TI_symbol_name("_NMI")
    7371                      .dwattr $C$DW$1034, DW_AT_data_member_location[DW_OP_plus_uconst 0x44]
    7372                      .dwattr $C$DW$1034, DW_AT_accessibility(DW_ACCESS_public)
    7373              $C$DW$1035      .dwtag  DW_TAG_member
    7374                      .dwattr $C$DW$1035, DW_AT_type(*$C$DW$T$184)
    7375                      .dwattr $C$DW$1035, DW_AT_name("ILLEGAL")
    7376                      .dwattr $C$DW$1035, DW_AT_TI_symbol_name("_ILLEGAL")
    7377                      .dwattr $C$DW$1035, DW_AT_data_member_location[DW_OP_plus_uconst 0x46]
    7378                      .dwattr $C$DW$1035, DW_AT_accessibility(DW_ACCESS_public)
    7379              $C$DW$1036      .dwtag  DW_TAG_member
    7380                      .dwattr $C$DW$1036, DW_AT_type(*$C$DW$T$184)
    7381                      .dwattr $C$DW$1036, DW_AT_name("USER1")
    7382                      .dwattr $C$DW$1036, DW_AT_TI_symbol_name("_USER1")
    7383                      .dwattr $C$DW$1036, DW_AT_data_member_location[DW_OP_plus_uconst 0x48]
    7384                      .dwattr $C$DW$1036, DW_AT_accessibility(DW_ACCESS_public)
    7385              $C$DW$1037      .dwtag  DW_TAG_member
    7386                      .dwattr $C$DW$1037, DW_AT_type(*$C$DW$T$184)
    7387                      .dwattr $C$DW$1037, DW_AT_name("USER2")
    7388                      .dwattr $C$DW$1037, DW_AT_TI_symbol_name("_USER2")
    7389                      .dwattr $C$DW$1037, DW_AT_data_member_location[DW_OP_plus_uconst 0x4a]
    7390                      .dwattr $C$DW$1037, DW_AT_accessibility(DW_ACCESS_public)
    7391              $C$DW$1038      .dwtag  DW_TAG_member
    7392                      .dwattr $C$DW$1038, DW_AT_type(*$C$DW$T$184)
    7393                      .dwattr $C$DW$1038, DW_AT_name("USER3")
    7394                      .dwattr $C$DW$1038, DW_AT_TI_symbol_name("_USER3")
    7395                      .dwattr $C$DW$1038, DW_AT_data_member_location[DW_OP_plus_uconst 0x4c]
    7396                      .dwattr $C$DW$1038, DW_AT_accessibility(DW_ACCESS_public)
    7397              $C$DW$1039      .dwtag  DW_TAG_member
    7398                      .dwattr $C$DW$1039, DW_AT_type(*$C$DW$T$184)
    7399                      .dwattr $C$DW$1039, DW_AT_name("USER4")
TMS320C2000 Assembler PC v6.4.4 Wed Jul 08 12:49:31 2015

Tools Copyright (c) 1996-2015 Texas Instruments Incorporated
C:\Users\grant\AppData\Local\Temp\0448010                            PAGE  143

    7400                      .dwattr $C$DW$1039, DW_AT_TI_symbol_name("_USER4")
    7401                      .dwattr $C$DW$1039, DW_AT_data_member_location[DW_OP_plus_uconst 0x4e]
    7402                      .dwattr $C$DW$1039, DW_AT_accessibility(DW_ACCESS_public)
    7403              $C$DW$1040      .dwtag  DW_TAG_member
    7404                      .dwattr $C$DW$1040, DW_AT_type(*$C$DW$T$184)
    7405                      .dwattr $C$DW$1040, DW_AT_name("USER5")
    7406                      .dwattr $C$DW$1040, DW_AT_TI_symbol_name("_USER5")
    7407                      .dwattr $C$DW$1040, DW_AT_data_member_location[DW_OP_plus_uconst 0x50]
    7408                      .dwattr $C$DW$1040, DW_AT_accessibility(DW_ACCESS_public)
    7409              $C$DW$1041      .dwtag  DW_TAG_member
    7410                      .dwattr $C$DW$1041, DW_AT_type(*$C$DW$T$184)
    7411                      .dwattr $C$DW$1041, DW_AT_name("USER6")
    7412                      .dwattr $C$DW$1041, DW_AT_TI_symbol_name("_USER6")
    7413                      .dwattr $C$DW$1041, DW_AT_data_member_location[DW_OP_plus_uconst 0x52]
    7414                      .dwattr $C$DW$1041, DW_AT_accessibility(DW_ACCESS_public)
    7415              $C$DW$1042      .dwtag  DW_TAG_member
    7416                      .dwattr $C$DW$1042, DW_AT_type(*$C$DW$T$184)
    7417                      .dwattr $C$DW$1042, DW_AT_name("USER7")
    7418                      .dwattr $C$DW$1042, DW_AT_TI_symbol_name("_USER7")
    7419                      .dwattr $C$DW$1042, DW_AT_data_member_location[DW_OP_plus_uconst 0x54]
    7420                      .dwattr $C$DW$1042, DW_AT_accessibility(DW_ACCESS_public)
    7421              $C$DW$1043      .dwtag  DW_TAG_member
    7422                      .dwattr $C$DW$1043, DW_AT_type(*$C$DW$T$184)
    7423                      .dwattr $C$DW$1043, DW_AT_name("USER8")
    7424                      .dwattr $C$DW$1043, DW_AT_TI_symbol_name("_USER8")
    7425                      .dwattr $C$DW$1043, DW_AT_data_member_location[DW_OP_plus_uconst 0x56]
    7426                      .dwattr $C$DW$1043, DW_AT_accessibility(DW_ACCESS_public)
    7427              $C$DW$1044      .dwtag  DW_TAG_member
    7428                      .dwattr $C$DW$1044, DW_AT_type(*$C$DW$T$184)
    7429                      .dwattr $C$DW$1044, DW_AT_name("USER9")
    7430                      .dwattr $C$DW$1044, DW_AT_TI_symbol_name("_USER9")
    7431                      .dwattr $C$DW$1044, DW_AT_data_member_location[DW_OP_plus_uconst 0x58]
    7432                      .dwattr $C$DW$1044, DW_AT_accessibility(DW_ACCESS_public)
    7433              $C$DW$1045      .dwtag  DW_TAG_member
    7434                      .dwattr $C$DW$1045, DW_AT_type(*$C$DW$T$184)
    7435                      .dwattr $C$DW$1045, DW_AT_name("USER10")
    7436                      .dwattr $C$DW$1045, DW_AT_TI_symbol_name("_USER10")
    7437                      .dwattr $C$DW$1045, DW_AT_data_member_location[DW_OP_plus_uconst 0x5a]
    7438                      .dwattr $C$DW$1045, DW_AT_accessibility(DW_ACCESS_public)
    7439              $C$DW$1046      .dwtag  DW_TAG_member
    7440                      .dwattr $C$DW$1046, DW_AT_type(*$C$DW$T$184)
    7441                      .dwattr $C$DW$1046, DW_AT_name("USER11")
    7442                      .dwattr $C$DW$1046, DW_AT_TI_symbol_name("_USER11")
    7443                      .dwattr $C$DW$1046, DW_AT_data_member_location[DW_OP_plus_uconst 0x5c]
    7444                      .dwattr $C$DW$1046, DW_AT_accessibility(DW_ACCESS_public)
    7445              $C$DW$1047      .dwtag  DW_TAG_member
    7446                      .dwattr $C$DW$1047, DW_AT_type(*$C$DW$T$184)
    7447                      .dwattr $C$DW$1047, DW_AT_name("USER12")
    7448                      .dwattr $C$DW$1047, DW_AT_TI_symbol_name("_USER12")
    7449                      .dwattr $C$DW$1047, DW_AT_data_member_location[DW_OP_plus_uconst 0x5e]
    7450                      .dwattr $C$DW$1047, DW_AT_accessibility(DW_ACCESS_public)
    7451              $C$DW$1048      .dwtag  DW_TAG_member
    7452                      .dwattr $C$DW$1048, DW_AT_type(*$C$DW$T$184)
    7453                      .dwattr $C$DW$1048, DW_AT_name("ADCINT1_HP")
    7454                      .dwattr $C$DW$1048, DW_AT_TI_symbol_name("_ADCINT1_HP")
TMS320C2000 Assembler PC v6.4.4 Wed Jul 08 12:49:31 2015

Tools Copyright (c) 1996-2015 Texas Instruments Incorporated
C:\Users\grant\AppData\Local\Temp\0448010                            PAGE  144

    7455                      .dwattr $C$DW$1048, DW_AT_data_member_location[DW_OP_plus_uconst 0x60]
    7456                      .dwattr $C$DW$1048, DW_AT_accessibility(DW_ACCESS_public)
    7457              $C$DW$1049      .dwtag  DW_TAG_member
    7458                      .dwattr $C$DW$1049, DW_AT_type(*$C$DW$T$184)
    7459                      .dwattr $C$DW$1049, DW_AT_name("ADCINT2_HP")
    7460                      .dwattr $C$DW$1049, DW_AT_TI_symbol_name("_ADCINT2_HP")
    7461                      .dwattr $C$DW$1049, DW_AT_data_member_location[DW_OP_plus_uconst 0x62]
    7462                      .dwattr $C$DW$1049, DW_AT_accessibility(DW_ACCESS_public)
    7463              $C$DW$1050      .dwtag  DW_TAG_member
    7464                      .dwattr $C$DW$1050, DW_AT_type(*$C$DW$T$184)
    7465                      .dwattr $C$DW$1050, DW_AT_name("rsvd1_3")
    7466                      .dwattr $C$DW$1050, DW_AT_TI_symbol_name("_rsvd1_3")
    7467                      .dwattr $C$DW$1050, DW_AT_data_member_location[DW_OP_plus_uconst 0x64]
    7468                      .dwattr $C$DW$1050, DW_AT_accessibility(DW_ACCESS_public)
    7469              $C$DW$1051      .dwtag  DW_TAG_member
    7470                      .dwattr $C$DW$1051, DW_AT_type(*$C$DW$T$184)
    7471                      .dwattr $C$DW$1051, DW_AT_name("XINT1")
    7472                      .dwattr $C$DW$1051, DW_AT_TI_symbol_name("_XINT1")
    7473                      .dwattr $C$DW$1051, DW_AT_data_member_location[DW_OP_plus_uconst 0x66]
    7474                      .dwattr $C$DW$1051, DW_AT_accessibility(DW_ACCESS_public)
    7475              $C$DW$1052      .dwtag  DW_TAG_member
    7476                      .dwattr $C$DW$1052, DW_AT_type(*$C$DW$T$184)
    7477                      .dwattr $C$DW$1052, DW_AT_name("XINT2")
    7478                      .dwattr $C$DW$1052, DW_AT_TI_symbol_name("_XINT2")
    7479                      .dwattr $C$DW$1052, DW_AT_data_member_location[DW_OP_plus_uconst 0x68]
    7480                      .dwattr $C$DW$1052, DW_AT_accessibility(DW_ACCESS_public)
    7481              $C$DW$1053      .dwtag  DW_TAG_member
    7482                      .dwattr $C$DW$1053, DW_AT_type(*$C$DW$T$184)
    7483                      .dwattr $C$DW$1053, DW_AT_name("ADCINT9")
    7484                      .dwattr $C$DW$1053, DW_AT_TI_symbol_name("_ADCINT9")
    7485                      .dwattr $C$DW$1053, DW_AT_data_member_location[DW_OP_plus_uconst 0x6a]
    7486                      .dwattr $C$DW$1053, DW_AT_accessibility(DW_ACCESS_public)
    7487              $C$DW$1054      .dwtag  DW_TAG_member
    7488                      .dwattr $C$DW$1054, DW_AT_type(*$C$DW$T$184)
    7489                      .dwattr $C$DW$1054, DW_AT_name("TINT0")
    7490                      .dwattr $C$DW$1054, DW_AT_TI_symbol_name("_TINT0")
    7491                      .dwattr $C$DW$1054, DW_AT_data_member_location[DW_OP_plus_uconst 0x6c]
    7492                      .dwattr $C$DW$1054, DW_AT_accessibility(DW_ACCESS_public)
    7493              $C$DW$1055      .dwtag  DW_TAG_member
    7494                      .dwattr $C$DW$1055, DW_AT_type(*$C$DW$T$184)
    7495                      .dwattr $C$DW$1055, DW_AT_name("WAKEINT")
    7496                      .dwattr $C$DW$1055, DW_AT_TI_symbol_name("_WAKEINT")
    7497                      .dwattr $C$DW$1055, DW_AT_data_member_location[DW_OP_plus_uconst 0x6e]
    7498                      .dwattr $C$DW$1055, DW_AT_accessibility(DW_ACCESS_public)
    7499              $C$DW$1056      .dwtag  DW_TAG_member
    7500                      .dwattr $C$DW$1056, DW_AT_type(*$C$DW$T$184)
    7501                      .dwattr $C$DW$1056, DW_AT_name("EPWM1_TZINT")
    7502                      .dwattr $C$DW$1056, DW_AT_TI_symbol_name("_EPWM1_TZINT")
    7503                      .dwattr $C$DW$1056, DW_AT_data_member_location[DW_OP_plus_uconst 0x70]
    7504                      .dwattr $C$DW$1056, DW_AT_accessibility(DW_ACCESS_public)
    7505              $C$DW$1057      .dwtag  DW_TAG_member
    7506                      .dwattr $C$DW$1057, DW_AT_type(*$C$DW$T$184)
    7507                      .dwattr $C$DW$1057, DW_AT_name("EPWM2_TZINT")
    7508                      .dwattr $C$DW$1057, DW_AT_TI_symbol_name("_EPWM2_TZINT")
    7509                      .dwattr $C$DW$1057, DW_AT_data_member_location[DW_OP_plus_uconst 0x72]
TMS320C2000 Assembler PC v6.4.4 Wed Jul 08 12:49:31 2015

Tools Copyright (c) 1996-2015 Texas Instruments Incorporated
C:\Users\grant\AppData\Local\Temp\0448010                            PAGE  145

    7510                      .dwattr $C$DW$1057, DW_AT_accessibility(DW_ACCESS_public)
    7511              $C$DW$1058      .dwtag  DW_TAG_member
    7512                      .dwattr $C$DW$1058, DW_AT_type(*$C$DW$T$184)
    7513                      .dwattr $C$DW$1058, DW_AT_name("EPWM3_TZINT")
    7514                      .dwattr $C$DW$1058, DW_AT_TI_symbol_name("_EPWM3_TZINT")
    7515                      .dwattr $C$DW$1058, DW_AT_data_member_location[DW_OP_plus_uconst 0x74]
    7516                      .dwattr $C$DW$1058, DW_AT_accessibility(DW_ACCESS_public)
    7517              $C$DW$1059      .dwtag  DW_TAG_member
    7518                      .dwattr $C$DW$1059, DW_AT_type(*$C$DW$T$184)
    7519                      .dwattr $C$DW$1059, DW_AT_name("EPWM4_TZINT")
    7520                      .dwattr $C$DW$1059, DW_AT_TI_symbol_name("_EPWM4_TZINT")
    7521                      .dwattr $C$DW$1059, DW_AT_data_member_location[DW_OP_plus_uconst 0x76]
    7522                      .dwattr $C$DW$1059, DW_AT_accessibility(DW_ACCESS_public)
    7523              $C$DW$1060      .dwtag  DW_TAG_member
    7524                      .dwattr $C$DW$1060, DW_AT_type(*$C$DW$T$184)
    7525                      .dwattr $C$DW$1060, DW_AT_name("EPWM5_TZINT")
    7526                      .dwattr $C$DW$1060, DW_AT_TI_symbol_name("_EPWM5_TZINT")
    7527                      .dwattr $C$DW$1060, DW_AT_data_member_location[DW_OP_plus_uconst 0x78]
    7528                      .dwattr $C$DW$1060, DW_AT_accessibility(DW_ACCESS_public)
    7529              $C$DW$1061      .dwtag  DW_TAG_member
    7530                      .dwattr $C$DW$1061, DW_AT_type(*$C$DW$T$184)
    7531                      .dwattr $C$DW$1061, DW_AT_name("EPWM6_TZINT")
    7532                      .dwattr $C$DW$1061, DW_AT_TI_symbol_name("_EPWM6_TZINT")
    7533                      .dwattr $C$DW$1061, DW_AT_data_member_location[DW_OP_plus_uconst 0x7a]
    7534                      .dwattr $C$DW$1061, DW_AT_accessibility(DW_ACCESS_public)
    7535              $C$DW$1062      .dwtag  DW_TAG_member
    7536                      .dwattr $C$DW$1062, DW_AT_type(*$C$DW$T$184)
    7537                      .dwattr $C$DW$1062, DW_AT_name("EPWM7_TZINT")
    7538                      .dwattr $C$DW$1062, DW_AT_TI_symbol_name("_EPWM7_TZINT")
    7539                      .dwattr $C$DW$1062, DW_AT_data_member_location[DW_OP_plus_uconst 0x7c]
    7540                      .dwattr $C$DW$1062, DW_AT_accessibility(DW_ACCESS_public)
    7541              $C$DW$1063      .dwtag  DW_TAG_member
    7542                      .dwattr $C$DW$1063, DW_AT_type(*$C$DW$T$184)
    7543                      .dwattr $C$DW$1063, DW_AT_name("EPWM8_TZINT")
    7544                      .dwattr $C$DW$1063, DW_AT_TI_symbol_name("_EPWM8_TZINT")
    7545                      .dwattr $C$DW$1063, DW_AT_data_member_location[DW_OP_plus_uconst 0x7e]
    7546                      .dwattr $C$DW$1063, DW_AT_accessibility(DW_ACCESS_public)
    7547              $C$DW$1064      .dwtag  DW_TAG_member
    7548                      .dwattr $C$DW$1064, DW_AT_type(*$C$DW$T$184)
    7549                      .dwattr $C$DW$1064, DW_AT_name("EPWM1_INT")
    7550                      .dwattr $C$DW$1064, DW_AT_TI_symbol_name("_EPWM1_INT")
    7551                      .dwattr $C$DW$1064, DW_AT_data_member_location[DW_OP_plus_uconst 0x80]
    7552                      .dwattr $C$DW$1064, DW_AT_accessibility(DW_ACCESS_public)
    7553              $C$DW$1065      .dwtag  DW_TAG_member
    7554                      .dwattr $C$DW$1065, DW_AT_type(*$C$DW$T$184)
    7555                      .dwattr $C$DW$1065, DW_AT_name("EPWM2_INT")
    7556                      .dwattr $C$DW$1065, DW_AT_TI_symbol_name("_EPWM2_INT")
    7557                      .dwattr $C$DW$1065, DW_AT_data_member_location[DW_OP_plus_uconst 0x82]
    7558                      .dwattr $C$DW$1065, DW_AT_accessibility(DW_ACCESS_public)
    7559              $C$DW$1066      .dwtag  DW_TAG_member
    7560                      .dwattr $C$DW$1066, DW_AT_type(*$C$DW$T$184)
    7561                      .dwattr $C$DW$1066, DW_AT_name("EPWM3_INT")
    7562                      .dwattr $C$DW$1066, DW_AT_TI_symbol_name("_EPWM3_INT")
    7563                      .dwattr $C$DW$1066, DW_AT_data_member_location[DW_OP_plus_uconst 0x84]
    7564                      .dwattr $C$DW$1066, DW_AT_accessibility(DW_ACCESS_public)
TMS320C2000 Assembler PC v6.4.4 Wed Jul 08 12:49:31 2015

Tools Copyright (c) 1996-2015 Texas Instruments Incorporated
C:\Users\grant\AppData\Local\Temp\0448010                            PAGE  146

    7565              $C$DW$1067      .dwtag  DW_TAG_member
    7566                      .dwattr $C$DW$1067, DW_AT_type(*$C$DW$T$184)
    7567                      .dwattr $C$DW$1067, DW_AT_name("EPWM4_INT")
    7568                      .dwattr $C$DW$1067, DW_AT_TI_symbol_name("_EPWM4_INT")
    7569                      .dwattr $C$DW$1067, DW_AT_data_member_location[DW_OP_plus_uconst 0x86]
    7570                      .dwattr $C$DW$1067, DW_AT_accessibility(DW_ACCESS_public)
    7571              $C$DW$1068      .dwtag  DW_TAG_member
    7572                      .dwattr $C$DW$1068, DW_AT_type(*$C$DW$T$184)
    7573                      .dwattr $C$DW$1068, DW_AT_name("EPWM5_INT")
    7574                      .dwattr $C$DW$1068, DW_AT_TI_symbol_name("_EPWM5_INT")
    7575                      .dwattr $C$DW$1068, DW_AT_data_member_location[DW_OP_plus_uconst 0x88]
    7576                      .dwattr $C$DW$1068, DW_AT_accessibility(DW_ACCESS_public)
    7577              $C$DW$1069      .dwtag  DW_TAG_member
    7578                      .dwattr $C$DW$1069, DW_AT_type(*$C$DW$T$184)
    7579                      .dwattr $C$DW$1069, DW_AT_name("EPWM6_INT")
    7580                      .dwattr $C$DW$1069, DW_AT_TI_symbol_name("_EPWM6_INT")
    7581                      .dwattr $C$DW$1069, DW_AT_data_member_location[DW_OP_plus_uconst 0x8a]
    7582                      .dwattr $C$DW$1069, DW_AT_accessibility(DW_ACCESS_public)
    7583              $C$DW$1070      .dwtag  DW_TAG_member
    7584                      .dwattr $C$DW$1070, DW_AT_type(*$C$DW$T$184)
    7585                      .dwattr $C$DW$1070, DW_AT_name("EPWM7_INT")
    7586                      .dwattr $C$DW$1070, DW_AT_TI_symbol_name("_EPWM7_INT")
    7587                      .dwattr $C$DW$1070, DW_AT_data_member_location[DW_OP_plus_uconst 0x8c]
    7588                      .dwattr $C$DW$1070, DW_AT_accessibility(DW_ACCESS_public)
    7589              $C$DW$1071      .dwtag  DW_TAG_member
    7590                      .dwattr $C$DW$1071, DW_AT_type(*$C$DW$T$184)
    7591                      .dwattr $C$DW$1071, DW_AT_name("EPWM8_INT")
    7592                      .dwattr $C$DW$1071, DW_AT_TI_symbol_name("_EPWM8_INT")
    7593                      .dwattr $C$DW$1071, DW_AT_data_member_location[DW_OP_plus_uconst 0x8e]
    7594                      .dwattr $C$DW$1071, DW_AT_accessibility(DW_ACCESS_public)
    7595              $C$DW$1072      .dwtag  DW_TAG_member
    7596                      .dwattr $C$DW$1072, DW_AT_type(*$C$DW$T$184)
    7597                      .dwattr $C$DW$1072, DW_AT_name("ECAP1_INT")
    7598                      .dwattr $C$DW$1072, DW_AT_TI_symbol_name("_ECAP1_INT")
    7599                      .dwattr $C$DW$1072, DW_AT_data_member_location[DW_OP_plus_uconst 0x90]
    7600                      .dwattr $C$DW$1072, DW_AT_accessibility(DW_ACCESS_public)
    7601              $C$DW$1073      .dwtag  DW_TAG_member
    7602                      .dwattr $C$DW$1073, DW_AT_type(*$C$DW$T$184)
    7603                      .dwattr $C$DW$1073, DW_AT_name("ECAP2_INT")
    7604                      .dwattr $C$DW$1073, DW_AT_TI_symbol_name("_ECAP2_INT")
    7605                      .dwattr $C$DW$1073, DW_AT_data_member_location[DW_OP_plus_uconst 0x92]
    7606                      .dwattr $C$DW$1073, DW_AT_accessibility(DW_ACCESS_public)
    7607              $C$DW$1074      .dwtag  DW_TAG_member
    7608                      .dwattr $C$DW$1074, DW_AT_type(*$C$DW$T$184)
    7609                      .dwattr $C$DW$1074, DW_AT_name("ECAP3_INT")
    7610                      .dwattr $C$DW$1074, DW_AT_TI_symbol_name("_ECAP3_INT")
    7611                      .dwattr $C$DW$1074, DW_AT_data_member_location[DW_OP_plus_uconst 0x94]
    7612                      .dwattr $C$DW$1074, DW_AT_accessibility(DW_ACCESS_public)
    7613              $C$DW$1075      .dwtag  DW_TAG_member
    7614                      .dwattr $C$DW$1075, DW_AT_type(*$C$DW$T$184)
    7615                      .dwattr $C$DW$1075, DW_AT_name("rsvd4_4")
    7616                      .dwattr $C$DW$1075, DW_AT_TI_symbol_name("_rsvd4_4")
    7617                      .dwattr $C$DW$1075, DW_AT_data_member_location[DW_OP_plus_uconst 0x96]
    7618                      .dwattr $C$DW$1075, DW_AT_accessibility(DW_ACCESS_public)
    7619              $C$DW$1076      .dwtag  DW_TAG_member
TMS320C2000 Assembler PC v6.4.4 Wed Jul 08 12:49:31 2015

Tools Copyright (c) 1996-2015 Texas Instruments Incorporated
C:\Users\grant\AppData\Local\Temp\0448010                            PAGE  147

    7620                      .dwattr $C$DW$1076, DW_AT_type(*$C$DW$T$184)
    7621                      .dwattr $C$DW$1076, DW_AT_name("rsvd4_5")
    7622                      .dwattr $C$DW$1076, DW_AT_TI_symbol_name("_rsvd4_5")
    7623                      .dwattr $C$DW$1076, DW_AT_data_member_location[DW_OP_plus_uconst 0x98]
    7624                      .dwattr $C$DW$1076, DW_AT_accessibility(DW_ACCESS_public)
    7625              $C$DW$1077      .dwtag  DW_TAG_member
    7626                      .dwattr $C$DW$1077, DW_AT_type(*$C$DW$T$184)
    7627                      .dwattr $C$DW$1077, DW_AT_name("rsvd4_6")
    7628                      .dwattr $C$DW$1077, DW_AT_TI_symbol_name("_rsvd4_6")
    7629                      .dwattr $C$DW$1077, DW_AT_data_member_location[DW_OP_plus_uconst 0x9a]
    7630                      .dwattr $C$DW$1077, DW_AT_accessibility(DW_ACCESS_public)
    7631              $C$DW$1078      .dwtag  DW_TAG_member
    7632                      .dwattr $C$DW$1078, DW_AT_type(*$C$DW$T$184)
    7633                      .dwattr $C$DW$1078, DW_AT_name("HRCAP1_INT")
    7634                      .dwattr $C$DW$1078, DW_AT_TI_symbol_name("_HRCAP1_INT")
    7635                      .dwattr $C$DW$1078, DW_AT_data_member_location[DW_OP_plus_uconst 0x9c]
    7636                      .dwattr $C$DW$1078, DW_AT_accessibility(DW_ACCESS_public)
    7637              $C$DW$1079      .dwtag  DW_TAG_member
    7638                      .dwattr $C$DW$1079, DW_AT_type(*$C$DW$T$184)
    7639                      .dwattr $C$DW$1079, DW_AT_name("HRCAP2_INT")
    7640                      .dwattr $C$DW$1079, DW_AT_TI_symbol_name("_HRCAP2_INT")
    7641                      .dwattr $C$DW$1079, DW_AT_data_member_location[DW_OP_plus_uconst 0x9e]
    7642                      .dwattr $C$DW$1079, DW_AT_accessibility(DW_ACCESS_public)
    7643              $C$DW$1080      .dwtag  DW_TAG_member
    7644                      .dwattr $C$DW$1080, DW_AT_type(*$C$DW$T$184)
    7645                      .dwattr $C$DW$1080, DW_AT_name("EQEP1_INT")
    7646                      .dwattr $C$DW$1080, DW_AT_TI_symbol_name("_EQEP1_INT")
    7647                      .dwattr $C$DW$1080, DW_AT_data_member_location[DW_OP_plus_uconst 0xa0]
    7648                      .dwattr $C$DW$1080, DW_AT_accessibility(DW_ACCESS_public)
    7649              $C$DW$1081      .dwtag  DW_TAG_member
    7650                      .dwattr $C$DW$1081, DW_AT_type(*$C$DW$T$184)
    7651                      .dwattr $C$DW$1081, DW_AT_name("EQEP2_INT")
    7652                      .dwattr $C$DW$1081, DW_AT_TI_symbol_name("_EQEP2_INT")
    7653                      .dwattr $C$DW$1081, DW_AT_data_member_location[DW_OP_plus_uconst 0xa2]
    7654                      .dwattr $C$DW$1081, DW_AT_accessibility(DW_ACCESS_public)
    7655              $C$DW$1082      .dwtag  DW_TAG_member
    7656                      .dwattr $C$DW$1082, DW_AT_type(*$C$DW$T$184)
    7657                      .dwattr $C$DW$1082, DW_AT_name("rsvd5_3")
    7658                      .dwattr $C$DW$1082, DW_AT_TI_symbol_name("_rsvd5_3")
    7659                      .dwattr $C$DW$1082, DW_AT_data_member_location[DW_OP_plus_uconst 0xa4]
    7660                      .dwattr $C$DW$1082, DW_AT_accessibility(DW_ACCESS_public)
    7661              $C$DW$1083      .dwtag  DW_TAG_member
    7662                      .dwattr $C$DW$1083, DW_AT_type(*$C$DW$T$184)
    7663                      .dwattr $C$DW$1083, DW_AT_name("HRCAP3_INT")
    7664                      .dwattr $C$DW$1083, DW_AT_TI_symbol_name("_HRCAP3_INT")
    7665                      .dwattr $C$DW$1083, DW_AT_data_member_location[DW_OP_plus_uconst 0xa6]
    7666                      .dwattr $C$DW$1083, DW_AT_accessibility(DW_ACCESS_public)
    7667              $C$DW$1084      .dwtag  DW_TAG_member
    7668                      .dwattr $C$DW$1084, DW_AT_type(*$C$DW$T$184)
    7669                      .dwattr $C$DW$1084, DW_AT_name("HRCAP4_INT")
    7670                      .dwattr $C$DW$1084, DW_AT_TI_symbol_name("_HRCAP4_INT")
    7671                      .dwattr $C$DW$1084, DW_AT_data_member_location[DW_OP_plus_uconst 0xa8]
    7672                      .dwattr $C$DW$1084, DW_AT_accessibility(DW_ACCESS_public)
    7673              $C$DW$1085      .dwtag  DW_TAG_member
    7674                      .dwattr $C$DW$1085, DW_AT_type(*$C$DW$T$184)
TMS320C2000 Assembler PC v6.4.4 Wed Jul 08 12:49:31 2015

Tools Copyright (c) 1996-2015 Texas Instruments Incorporated
C:\Users\grant\AppData\Local\Temp\0448010                            PAGE  148

    7675                      .dwattr $C$DW$1085, DW_AT_name("rsvd5_6")
    7676                      .dwattr $C$DW$1085, DW_AT_TI_symbol_name("_rsvd5_6")
    7677                      .dwattr $C$DW$1085, DW_AT_data_member_location[DW_OP_plus_uconst 0xaa]
    7678                      .dwattr $C$DW$1085, DW_AT_accessibility(DW_ACCESS_public)
    7679              $C$DW$1086      .dwtag  DW_TAG_member
    7680                      .dwattr $C$DW$1086, DW_AT_type(*$C$DW$T$184)
    7681                      .dwattr $C$DW$1086, DW_AT_name("rsvd5_7")
    7682                      .dwattr $C$DW$1086, DW_AT_TI_symbol_name("_rsvd5_7")
    7683                      .dwattr $C$DW$1086, DW_AT_data_member_location[DW_OP_plus_uconst 0xac]
    7684                      .dwattr $C$DW$1086, DW_AT_accessibility(DW_ACCESS_public)
    7685              $C$DW$1087      .dwtag  DW_TAG_member
    7686                      .dwattr $C$DW$1087, DW_AT_type(*$C$DW$T$184)
    7687                      .dwattr $C$DW$1087, DW_AT_name("USB0_INT")
    7688                      .dwattr $C$DW$1087, DW_AT_TI_symbol_name("_USB0_INT")
    7689                      .dwattr $C$DW$1087, DW_AT_data_member_location[DW_OP_plus_uconst 0xae]
    7690                      .dwattr $C$DW$1087, DW_AT_accessibility(DW_ACCESS_public)
    7691              $C$DW$1088      .dwtag  DW_TAG_member
    7692                      .dwattr $C$DW$1088, DW_AT_type(*$C$DW$T$184)
    7693                      .dwattr $C$DW$1088, DW_AT_name("SPIRXINTA")
    7694                      .dwattr $C$DW$1088, DW_AT_TI_symbol_name("_SPIRXINTA")
    7695                      .dwattr $C$DW$1088, DW_AT_data_member_location[DW_OP_plus_uconst 0xb0]
    7696                      .dwattr $C$DW$1088, DW_AT_accessibility(DW_ACCESS_public)
    7697              $C$DW$1089      .dwtag  DW_TAG_member
    7698                      .dwattr $C$DW$1089, DW_AT_type(*$C$DW$T$184)
    7699                      .dwattr $C$DW$1089, DW_AT_name("SPITXINTA")
    7700                      .dwattr $C$DW$1089, DW_AT_TI_symbol_name("_SPITXINTA")
    7701                      .dwattr $C$DW$1089, DW_AT_data_member_location[DW_OP_plus_uconst 0xb2]
    7702                      .dwattr $C$DW$1089, DW_AT_accessibility(DW_ACCESS_public)
    7703              $C$DW$1090      .dwtag  DW_TAG_member
    7704                      .dwattr $C$DW$1090, DW_AT_type(*$C$DW$T$184)
    7705                      .dwattr $C$DW$1090, DW_AT_name("SPIRXINTB")
    7706                      .dwattr $C$DW$1090, DW_AT_TI_symbol_name("_SPIRXINTB")
    7707                      .dwattr $C$DW$1090, DW_AT_data_member_location[DW_OP_plus_uconst 0xb4]
    7708                      .dwattr $C$DW$1090, DW_AT_accessibility(DW_ACCESS_public)
    7709              $C$DW$1091      .dwtag  DW_TAG_member
    7710                      .dwattr $C$DW$1091, DW_AT_type(*$C$DW$T$184)
    7711                      .dwattr $C$DW$1091, DW_AT_name("SPITXINTB")
    7712                      .dwattr $C$DW$1091, DW_AT_TI_symbol_name("_SPITXINTB")
    7713                      .dwattr $C$DW$1091, DW_AT_data_member_location[DW_OP_plus_uconst 0xb6]
    7714                      .dwattr $C$DW$1091, DW_AT_accessibility(DW_ACCESS_public)
    7715              $C$DW$1092      .dwtag  DW_TAG_member
    7716                      .dwattr $C$DW$1092, DW_AT_type(*$C$DW$T$184)
    7717                      .dwattr $C$DW$1092, DW_AT_name("MCBSPARX")
    7718                      .dwattr $C$DW$1092, DW_AT_TI_symbol_name("_MCBSPARX")
    7719                      .dwattr $C$DW$1092, DW_AT_data_member_location[DW_OP_plus_uconst 0xb8]
    7720                      .dwattr $C$DW$1092, DW_AT_accessibility(DW_ACCESS_public)
    7721              $C$DW$1093      .dwtag  DW_TAG_member
    7722                      .dwattr $C$DW$1093, DW_AT_type(*$C$DW$T$184)
    7723                      .dwattr $C$DW$1093, DW_AT_name("MCBSPATX")
    7724                      .dwattr $C$DW$1093, DW_AT_TI_symbol_name("_MCBSPATX")
    7725                      .dwattr $C$DW$1093, DW_AT_data_member_location[DW_OP_plus_uconst 0xba]
    7726                      .dwattr $C$DW$1093, DW_AT_accessibility(DW_ACCESS_public)
    7727              $C$DW$1094      .dwtag  DW_TAG_member
    7728                      .dwattr $C$DW$1094, DW_AT_type(*$C$DW$T$184)
    7729                      .dwattr $C$DW$1094, DW_AT_name("rsvd6_7")
TMS320C2000 Assembler PC v6.4.4 Wed Jul 08 12:49:31 2015

Tools Copyright (c) 1996-2015 Texas Instruments Incorporated
C:\Users\grant\AppData\Local\Temp\0448010                            PAGE  149

    7730                      .dwattr $C$DW$1094, DW_AT_TI_symbol_name("_rsvd6_7")
    7731                      .dwattr $C$DW$1094, DW_AT_data_member_location[DW_OP_plus_uconst 0xbc]
    7732                      .dwattr $C$DW$1094, DW_AT_accessibility(DW_ACCESS_public)
    7733              $C$DW$1095      .dwtag  DW_TAG_member
    7734                      .dwattr $C$DW$1095, DW_AT_type(*$C$DW$T$184)
    7735                      .dwattr $C$DW$1095, DW_AT_name("rsvd6_8")
    7736                      .dwattr $C$DW$1095, DW_AT_TI_symbol_name("_rsvd6_8")
    7737                      .dwattr $C$DW$1095, DW_AT_data_member_location[DW_OP_plus_uconst 0xbe]
    7738                      .dwattr $C$DW$1095, DW_AT_accessibility(DW_ACCESS_public)
    7739              $C$DW$1096      .dwtag  DW_TAG_member
    7740                      .dwattr $C$DW$1096, DW_AT_type(*$C$DW$T$184)
    7741                      .dwattr $C$DW$1096, DW_AT_name("DMACH1_INT")
    7742                      .dwattr $C$DW$1096, DW_AT_TI_symbol_name("_DMACH1_INT")
    7743                      .dwattr $C$DW$1096, DW_AT_data_member_location[DW_OP_plus_uconst 0xc0]
    7744                      .dwattr $C$DW$1096, DW_AT_accessibility(DW_ACCESS_public)
    7745              $C$DW$1097      .dwtag  DW_TAG_member
    7746                      .dwattr $C$DW$1097, DW_AT_type(*$C$DW$T$184)
    7747                      .dwattr $C$DW$1097, DW_AT_name("DMACH2_INT")
    7748                      .dwattr $C$DW$1097, DW_AT_TI_symbol_name("_DMACH2_INT")
    7749                      .dwattr $C$DW$1097, DW_AT_data_member_location[DW_OP_plus_uconst 0xc2]
    7750                      .dwattr $C$DW$1097, DW_AT_accessibility(DW_ACCESS_public)
    7751              $C$DW$1098      .dwtag  DW_TAG_member
    7752                      .dwattr $C$DW$1098, DW_AT_type(*$C$DW$T$184)
    7753                      .dwattr $C$DW$1098, DW_AT_name("DMACH3_INT")
    7754                      .dwattr $C$DW$1098, DW_AT_TI_symbol_name("_DMACH3_INT")
    7755                      .dwattr $C$DW$1098, DW_AT_data_member_location[DW_OP_plus_uconst 0xc4]
    7756                      .dwattr $C$DW$1098, DW_AT_accessibility(DW_ACCESS_public)
    7757              $C$DW$1099      .dwtag  DW_TAG_member
    7758                      .dwattr $C$DW$1099, DW_AT_type(*$C$DW$T$184)
    7759                      .dwattr $C$DW$1099, DW_AT_name("DMACH4_INT")
    7760                      .dwattr $C$DW$1099, DW_AT_TI_symbol_name("_DMACH4_INT")
    7761                      .dwattr $C$DW$1099, DW_AT_data_member_location[DW_OP_plus_uconst 0xc6]
    7762                      .dwattr $C$DW$1099, DW_AT_accessibility(DW_ACCESS_public)
    7763              $C$DW$1100      .dwtag  DW_TAG_member
    7764                      .dwattr $C$DW$1100, DW_AT_type(*$C$DW$T$184)
    7765                      .dwattr $C$DW$1100, DW_AT_name("DMACH5_INT")
    7766                      .dwattr $C$DW$1100, DW_AT_TI_symbol_name("_DMACH5_INT")
    7767                      .dwattr $C$DW$1100, DW_AT_data_member_location[DW_OP_plus_uconst 0xc8]
    7768                      .dwattr $C$DW$1100, DW_AT_accessibility(DW_ACCESS_public)
    7769              $C$DW$1101      .dwtag  DW_TAG_member
    7770                      .dwattr $C$DW$1101, DW_AT_type(*$C$DW$T$184)
    7771                      .dwattr $C$DW$1101, DW_AT_name("DMACH6_INT")
    7772                      .dwattr $C$DW$1101, DW_AT_TI_symbol_name("_DMACH6_INT")
    7773                      .dwattr $C$DW$1101, DW_AT_data_member_location[DW_OP_plus_uconst 0xca]
    7774                      .dwattr $C$DW$1101, DW_AT_accessibility(DW_ACCESS_public)
    7775              $C$DW$1102      .dwtag  DW_TAG_member
    7776                      .dwattr $C$DW$1102, DW_AT_type(*$C$DW$T$184)
    7777                      .dwattr $C$DW$1102, DW_AT_name("rsvd7_7")
    7778                      .dwattr $C$DW$1102, DW_AT_TI_symbol_name("_rsvd7_7")
    7779                      .dwattr $C$DW$1102, DW_AT_data_member_location[DW_OP_plus_uconst 0xcc]
    7780                      .dwattr $C$DW$1102, DW_AT_accessibility(DW_ACCESS_public)
    7781              $C$DW$1103      .dwtag  DW_TAG_member
    7782                      .dwattr $C$DW$1103, DW_AT_type(*$C$DW$T$184)
    7783                      .dwattr $C$DW$1103, DW_AT_name("rsvd7_8")
    7784                      .dwattr $C$DW$1103, DW_AT_TI_symbol_name("_rsvd7_8")
TMS320C2000 Assembler PC v6.4.4 Wed Jul 08 12:49:31 2015

Tools Copyright (c) 1996-2015 Texas Instruments Incorporated
C:\Users\grant\AppData\Local\Temp\0448010                            PAGE  150

    7785                      .dwattr $C$DW$1103, DW_AT_data_member_location[DW_OP_plus_uconst 0xce]
    7786                      .dwattr $C$DW$1103, DW_AT_accessibility(DW_ACCESS_public)
    7787              $C$DW$1104      .dwtag  DW_TAG_member
    7788                      .dwattr $C$DW$1104, DW_AT_type(*$C$DW$T$184)
    7789                      .dwattr $C$DW$1104, DW_AT_name("I2CINT1A")
    7790                      .dwattr $C$DW$1104, DW_AT_TI_symbol_name("_I2CINT1A")
    7791                      .dwattr $C$DW$1104, DW_AT_data_member_location[DW_OP_plus_uconst 0xd0]
    7792                      .dwattr $C$DW$1104, DW_AT_accessibility(DW_ACCESS_public)
    7793              $C$DW$1105      .dwtag  DW_TAG_member
    7794                      .dwattr $C$DW$1105, DW_AT_type(*$C$DW$T$184)
    7795                      .dwattr $C$DW$1105, DW_AT_name("I2CINT2A")
    7796                      .dwattr $C$DW$1105, DW_AT_TI_symbol_name("_I2CINT2A")
    7797                      .dwattr $C$DW$1105, DW_AT_data_member_location[DW_OP_plus_uconst 0xd2]
    7798                      .dwattr $C$DW$1105, DW_AT_accessibility(DW_ACCESS_public)
    7799              $C$DW$1106      .dwtag  DW_TAG_member
    7800                      .dwattr $C$DW$1106, DW_AT_type(*$C$DW$T$184)
    7801                      .dwattr $C$DW$1106, DW_AT_name("rsvd8_3")
    7802                      .dwattr $C$DW$1106, DW_AT_TI_symbol_name("_rsvd8_3")
    7803                      .dwattr $C$DW$1106, DW_AT_data_member_location[DW_OP_plus_uconst 0xd4]
    7804                      .dwattr $C$DW$1106, DW_AT_accessibility(DW_ACCESS_public)
    7805              $C$DW$1107      .dwtag  DW_TAG_member
    7806                      .dwattr $C$DW$1107, DW_AT_type(*$C$DW$T$184)
    7807                      .dwattr $C$DW$1107, DW_AT_name("rsvd8_4")
    7808                      .dwattr $C$DW$1107, DW_AT_TI_symbol_name("_rsvd8_4")
    7809                      .dwattr $C$DW$1107, DW_AT_data_member_location[DW_OP_plus_uconst 0xd6]
    7810                      .dwattr $C$DW$1107, DW_AT_accessibility(DW_ACCESS_public)
    7811              $C$DW$1108      .dwtag  DW_TAG_member
    7812                      .dwattr $C$DW$1108, DW_AT_type(*$C$DW$T$184)
    7813                      .dwattr $C$DW$1108, DW_AT_name("rsvd8_5")
    7814                      .dwattr $C$DW$1108, DW_AT_TI_symbol_name("_rsvd8_5")
    7815                      .dwattr $C$DW$1108, DW_AT_data_member_location[DW_OP_plus_uconst 0xd8]
    7816                      .dwattr $C$DW$1108, DW_AT_accessibility(DW_ACCESS_public)
    7817              $C$DW$1109      .dwtag  DW_TAG_member
    7818                      .dwattr $C$DW$1109, DW_AT_type(*$C$DW$T$184)
    7819                      .dwattr $C$DW$1109, DW_AT_name("rsvd8_6")
    7820                      .dwattr $C$DW$1109, DW_AT_TI_symbol_name("_rsvd8_6")
    7821                      .dwattr $C$DW$1109, DW_AT_data_member_location[DW_OP_plus_uconst 0xda]
    7822                      .dwattr $C$DW$1109, DW_AT_accessibility(DW_ACCESS_public)
    7823              $C$DW$1110      .dwtag  DW_TAG_member
    7824                      .dwattr $C$DW$1110, DW_AT_type(*$C$DW$T$184)
    7825                      .dwattr $C$DW$1110, DW_AT_name("rsvd8_7")
    7826                      .dwattr $C$DW$1110, DW_AT_TI_symbol_name("_rsvd8_7")
    7827                      .dwattr $C$DW$1110, DW_AT_data_member_location[DW_OP_plus_uconst 0xdc]
    7828                      .dwattr $C$DW$1110, DW_AT_accessibility(DW_ACCESS_public)
    7829              $C$DW$1111      .dwtag  DW_TAG_member
    7830                      .dwattr $C$DW$1111, DW_AT_type(*$C$DW$T$184)
    7831                      .dwattr $C$DW$1111, DW_AT_name("rsvd8_8")
    7832                      .dwattr $C$DW$1111, DW_AT_TI_symbol_name("_rsvd8_8")
    7833                      .dwattr $C$DW$1111, DW_AT_data_member_location[DW_OP_plus_uconst 0xde]
    7834                      .dwattr $C$DW$1111, DW_AT_accessibility(DW_ACCESS_public)
    7835              $C$DW$1112      .dwtag  DW_TAG_member
    7836                      .dwattr $C$DW$1112, DW_AT_type(*$C$DW$T$184)
    7837                      .dwattr $C$DW$1112, DW_AT_name("SCIRXINTA")
    7838                      .dwattr $C$DW$1112, DW_AT_TI_symbol_name("_SCIRXINTA")
    7839                      .dwattr $C$DW$1112, DW_AT_data_member_location[DW_OP_plus_uconst 0xe0]
TMS320C2000 Assembler PC v6.4.4 Wed Jul 08 12:49:31 2015

Tools Copyright (c) 1996-2015 Texas Instruments Incorporated
C:\Users\grant\AppData\Local\Temp\0448010                            PAGE  151

    7840                      .dwattr $C$DW$1112, DW_AT_accessibility(DW_ACCESS_public)
    7841              $C$DW$1113      .dwtag  DW_TAG_member
    7842                      .dwattr $C$DW$1113, DW_AT_type(*$C$DW$T$184)
    7843                      .dwattr $C$DW$1113, DW_AT_name("SCITXINTA")
    7844                      .dwattr $C$DW$1113, DW_AT_TI_symbol_name("_SCITXINTA")
    7845                      .dwattr $C$DW$1113, DW_AT_data_member_location[DW_OP_plus_uconst 0xe2]
    7846                      .dwattr $C$DW$1113, DW_AT_accessibility(DW_ACCESS_public)
    7847              $C$DW$1114      .dwtag  DW_TAG_member
    7848                      .dwattr $C$DW$1114, DW_AT_type(*$C$DW$T$184)
    7849                      .dwattr $C$DW$1114, DW_AT_name("SCIRXINTB")
    7850                      .dwattr $C$DW$1114, DW_AT_TI_symbol_name("_SCIRXINTB")
    7851                      .dwattr $C$DW$1114, DW_AT_data_member_location[DW_OP_plus_uconst 0xe4]
    7852                      .dwattr $C$DW$1114, DW_AT_accessibility(DW_ACCESS_public)
    7853              $C$DW$1115      .dwtag  DW_TAG_member
    7854                      .dwattr $C$DW$1115, DW_AT_type(*$C$DW$T$184)
    7855                      .dwattr $C$DW$1115, DW_AT_name("SCITXINTB")
    7856                      .dwattr $C$DW$1115, DW_AT_TI_symbol_name("_SCITXINTB")
    7857                      .dwattr $C$DW$1115, DW_AT_data_member_location[DW_OP_plus_uconst 0xe6]
    7858                      .dwattr $C$DW$1115, DW_AT_accessibility(DW_ACCESS_public)
    7859              $C$DW$1116      .dwtag  DW_TAG_member
    7860                      .dwattr $C$DW$1116, DW_AT_type(*$C$DW$T$184)
    7861                      .dwattr $C$DW$1116, DW_AT_name("ECAN0INT")
    7862                      .dwattr $C$DW$1116, DW_AT_TI_symbol_name("_ECAN0INT")
    7863                      .dwattr $C$DW$1116, DW_AT_data_member_location[DW_OP_plus_uconst 0xe8]
    7864                      .dwattr $C$DW$1116, DW_AT_accessibility(DW_ACCESS_public)
    7865              $C$DW$1117      .dwtag  DW_TAG_member
    7866                      .dwattr $C$DW$1117, DW_AT_type(*$C$DW$T$184)
    7867                      .dwattr $C$DW$1117, DW_AT_name("ECAN1INT")
    7868                      .dwattr $C$DW$1117, DW_AT_TI_symbol_name("_ECAN1INT")
    7869                      .dwattr $C$DW$1117, DW_AT_data_member_location[DW_OP_plus_uconst 0xea]
    7870                      .dwattr $C$DW$1117, DW_AT_accessibility(DW_ACCESS_public)
    7871              $C$DW$1118      .dwtag  DW_TAG_member
    7872                      .dwattr $C$DW$1118, DW_AT_type(*$C$DW$T$184)
    7873                      .dwattr $C$DW$1118, DW_AT_name("rsvd9_7")
    7874                      .dwattr $C$DW$1118, DW_AT_TI_symbol_name("_rsvd9_7")
    7875                      .dwattr $C$DW$1118, DW_AT_data_member_location[DW_OP_plus_uconst 0xec]
    7876                      .dwattr $C$DW$1118, DW_AT_accessibility(DW_ACCESS_public)
    7877              $C$DW$1119      .dwtag  DW_TAG_member
    7878                      .dwattr $C$DW$1119, DW_AT_type(*$C$DW$T$184)
    7879                      .dwattr $C$DW$1119, DW_AT_name("rsvd9_8")
    7880                      .dwattr $C$DW$1119, DW_AT_TI_symbol_name("_rsvd9_8")
    7881                      .dwattr $C$DW$1119, DW_AT_data_member_location[DW_OP_plus_uconst 0xee]
    7882                      .dwattr $C$DW$1119, DW_AT_accessibility(DW_ACCESS_public)
    7883              $C$DW$1120      .dwtag  DW_TAG_member
    7884                      .dwattr $C$DW$1120, DW_AT_type(*$C$DW$T$184)
    7885                      .dwattr $C$DW$1120, DW_AT_name("ADCINT1")
    7886                      .dwattr $C$DW$1120, DW_AT_TI_symbol_name("_ADCINT1")
    7887                      .dwattr $C$DW$1120, DW_AT_data_member_location[DW_OP_plus_uconst 0xf0]
    7888                      .dwattr $C$DW$1120, DW_AT_accessibility(DW_ACCESS_public)
    7889              $C$DW$1121      .dwtag  DW_TAG_member
    7890                      .dwattr $C$DW$1121, DW_AT_type(*$C$DW$T$184)
    7891                      .dwattr $C$DW$1121, DW_AT_name("ADCINT2")
    7892                      .dwattr $C$DW$1121, DW_AT_TI_symbol_name("_ADCINT2")
    7893                      .dwattr $C$DW$1121, DW_AT_data_member_location[DW_OP_plus_uconst 0xf2]
    7894                      .dwattr $C$DW$1121, DW_AT_accessibility(DW_ACCESS_public)
TMS320C2000 Assembler PC v6.4.4 Wed Jul 08 12:49:31 2015

Tools Copyright (c) 1996-2015 Texas Instruments Incorporated
C:\Users\grant\AppData\Local\Temp\0448010                            PAGE  152

    7895              $C$DW$1122      .dwtag  DW_TAG_member
    7896                      .dwattr $C$DW$1122, DW_AT_type(*$C$DW$T$184)
    7897                      .dwattr $C$DW$1122, DW_AT_name("ADCINT3")
    7898                      .dwattr $C$DW$1122, DW_AT_TI_symbol_name("_ADCINT3")
    7899                      .dwattr $C$DW$1122, DW_AT_data_member_location[DW_OP_plus_uconst 0xf4]
    7900                      .dwattr $C$DW$1122, DW_AT_accessibility(DW_ACCESS_public)
    7901              $C$DW$1123      .dwtag  DW_TAG_member
    7902                      .dwattr $C$DW$1123, DW_AT_type(*$C$DW$T$184)
    7903                      .dwattr $C$DW$1123, DW_AT_name("ADCINT4")
    7904                      .dwattr $C$DW$1123, DW_AT_TI_symbol_name("_ADCINT4")
    7905                      .dwattr $C$DW$1123, DW_AT_data_member_location[DW_OP_plus_uconst 0xf6]
    7906                      .dwattr $C$DW$1123, DW_AT_accessibility(DW_ACCESS_public)
    7907              $C$DW$1124      .dwtag  DW_TAG_member
    7908                      .dwattr $C$DW$1124, DW_AT_type(*$C$DW$T$184)
    7909                      .dwattr $C$DW$1124, DW_AT_name("ADCINT5")
    7910                      .dwattr $C$DW$1124, DW_AT_TI_symbol_name("_ADCINT5")
    7911                      .dwattr $C$DW$1124, DW_AT_data_member_location[DW_OP_plus_uconst 0xf8]
    7912                      .dwattr $C$DW$1124, DW_AT_accessibility(DW_ACCESS_public)
    7913              $C$DW$1125      .dwtag  DW_TAG_member
    7914                      .dwattr $C$DW$1125, DW_AT_type(*$C$DW$T$184)
    7915                      .dwattr $C$DW$1125, DW_AT_name("ADCINT6")
    7916                      .dwattr $C$DW$1125, DW_AT_TI_symbol_name("_ADCINT6")
    7917                      .dwattr $C$DW$1125, DW_AT_data_member_location[DW_OP_plus_uconst 0xfa]
    7918                      .dwattr $C$DW$1125, DW_AT_accessibility(DW_ACCESS_public)
    7919              $C$DW$1126      .dwtag  DW_TAG_member
    7920                      .dwattr $C$DW$1126, DW_AT_type(*$C$DW$T$184)
    7921                      .dwattr $C$DW$1126, DW_AT_name("ADCINT7")
    7922                      .dwattr $C$DW$1126, DW_AT_TI_symbol_name("_ADCINT7")
    7923                      .dwattr $C$DW$1126, DW_AT_data_member_location[DW_OP_plus_uconst 0xfc]
    7924                      .dwattr $C$DW$1126, DW_AT_accessibility(DW_ACCESS_public)
    7925              $C$DW$1127      .dwtag  DW_TAG_member
    7926                      .dwattr $C$DW$1127, DW_AT_type(*$C$DW$T$184)
    7927                      .dwattr $C$DW$1127, DW_AT_name("ADCINT8")
    7928                      .dwattr $C$DW$1127, DW_AT_TI_symbol_name("_ADCINT8")
    7929                      .dwattr $C$DW$1127, DW_AT_data_member_location[DW_OP_plus_uconst 0xfe]
    7930                      .dwattr $C$DW$1127, DW_AT_accessibility(DW_ACCESS_public)
    7931              $C$DW$1128      .dwtag  DW_TAG_member
    7932                      .dwattr $C$DW$1128, DW_AT_type(*$C$DW$T$184)
    7933                      .dwattr $C$DW$1128, DW_AT_name("CLAINT1")
    7934                      .dwattr $C$DW$1128, DW_AT_TI_symbol_name("_CLAINT1")
    7935                      .dwattr $C$DW$1128, DW_AT_data_member_location[DW_OP_plus_uconst 0x100]
    7936                      .dwattr $C$DW$1128, DW_AT_accessibility(DW_ACCESS_public)
    7937              $C$DW$1129      .dwtag  DW_TAG_member
    7938                      .dwattr $C$DW$1129, DW_AT_type(*$C$DW$T$184)
    7939                      .dwattr $C$DW$1129, DW_AT_name("CLAINT2")
    7940                      .dwattr $C$DW$1129, DW_AT_TI_symbol_name("_CLAINT2")
    7941                      .dwattr $C$DW$1129, DW_AT_data_member_location[DW_OP_plus_uconst 0x102]
    7942                      .dwattr $C$DW$1129, DW_AT_accessibility(DW_ACCESS_public)
    7943              $C$DW$1130      .dwtag  DW_TAG_member
    7944                      .dwattr $C$DW$1130, DW_AT_type(*$C$DW$T$184)
    7945                      .dwattr $C$DW$1130, DW_AT_name("CLAINT3")
    7946                      .dwattr $C$DW$1130, DW_AT_TI_symbol_name("_CLAINT3")
    7947                      .dwattr $C$DW$1130, DW_AT_data_member_location[DW_OP_plus_uconst 0x104]
    7948                      .dwattr $C$DW$1130, DW_AT_accessibility(DW_ACCESS_public)
    7949              $C$DW$1131      .dwtag  DW_TAG_member
TMS320C2000 Assembler PC v6.4.4 Wed Jul 08 12:49:31 2015

Tools Copyright (c) 1996-2015 Texas Instruments Incorporated
C:\Users\grant\AppData\Local\Temp\0448010                            PAGE  153

    7950                      .dwattr $C$DW$1131, DW_AT_type(*$C$DW$T$184)
    7951                      .dwattr $C$DW$1131, DW_AT_name("CLAINT4")
    7952                      .dwattr $C$DW$1131, DW_AT_TI_symbol_name("_CLAINT4")
    7953                      .dwattr $C$DW$1131, DW_AT_data_member_location[DW_OP_plus_uconst 0x106]
    7954                      .dwattr $C$DW$1131, DW_AT_accessibility(DW_ACCESS_public)
    7955              $C$DW$1132      .dwtag  DW_TAG_member
    7956                      .dwattr $C$DW$1132, DW_AT_type(*$C$DW$T$184)
    7957                      .dwattr $C$DW$1132, DW_AT_name("CLAINT5")
    7958                      .dwattr $C$DW$1132, DW_AT_TI_symbol_name("_CLAINT5")
    7959                      .dwattr $C$DW$1132, DW_AT_data_member_location[DW_OP_plus_uconst 0x108]
    7960                      .dwattr $C$DW$1132, DW_AT_accessibility(DW_ACCESS_public)
    7961              $C$DW$1133      .dwtag  DW_TAG_member
    7962                      .dwattr $C$DW$1133, DW_AT_type(*$C$DW$T$184)
    7963                      .dwattr $C$DW$1133, DW_AT_name("CLAINT6")
    7964                      .dwattr $C$DW$1133, DW_AT_TI_symbol_name("_CLAINT6")
    7965                      .dwattr $C$DW$1133, DW_AT_data_member_location[DW_OP_plus_uconst 0x10a]
    7966                      .dwattr $C$DW$1133, DW_AT_accessibility(DW_ACCESS_public)
    7967              $C$DW$1134      .dwtag  DW_TAG_member
    7968                      .dwattr $C$DW$1134, DW_AT_type(*$C$DW$T$184)
    7969                      .dwattr $C$DW$1134, DW_AT_name("CLAINT7")
    7970                      .dwattr $C$DW$1134, DW_AT_TI_symbol_name("_CLAINT7")
    7971                      .dwattr $C$DW$1134, DW_AT_data_member_location[DW_OP_plus_uconst 0x10c]
    7972                      .dwattr $C$DW$1134, DW_AT_accessibility(DW_ACCESS_public)
    7973              $C$DW$1135      .dwtag  DW_TAG_member
    7974                      .dwattr $C$DW$1135, DW_AT_type(*$C$DW$T$184)
    7975                      .dwattr $C$DW$1135, DW_AT_name("CLAINT8")
    7976                      .dwattr $C$DW$1135, DW_AT_TI_symbol_name("_CLAINT8")
    7977                      .dwattr $C$DW$1135, DW_AT_data_member_location[DW_OP_plus_uconst 0x10e]
    7978                      .dwattr $C$DW$1135, DW_AT_accessibility(DW_ACCESS_public)
    7979              $C$DW$1136      .dwtag  DW_TAG_member
    7980                      .dwattr $C$DW$1136, DW_AT_type(*$C$DW$T$184)
    7981                      .dwattr $C$DW$1136, DW_AT_name("XINT3")
    7982                      .dwattr $C$DW$1136, DW_AT_TI_symbol_name("_XINT3")
    7983                      .dwattr $C$DW$1136, DW_AT_data_member_location[DW_OP_plus_uconst 0x110]
    7984                      .dwattr $C$DW$1136, DW_AT_accessibility(DW_ACCESS_public)
    7985              $C$DW$1137      .dwtag  DW_TAG_member
    7986                      .dwattr $C$DW$1137, DW_AT_type(*$C$DW$T$184)
    7987                      .dwattr $C$DW$1137, DW_AT_name("rsvd12_2")
    7988                      .dwattr $C$DW$1137, DW_AT_TI_symbol_name("_rsvd12_2")
    7989                      .dwattr $C$DW$1137, DW_AT_data_member_location[DW_OP_plus_uconst 0x112]
    7990                      .dwattr $C$DW$1137, DW_AT_accessibility(DW_ACCESS_public)
    7991              $C$DW$1138      .dwtag  DW_TAG_member
    7992                      .dwattr $C$DW$1138, DW_AT_type(*$C$DW$T$184)
    7993                      .dwattr $C$DW$1138, DW_AT_name("rsvd12_3")
    7994                      .dwattr $C$DW$1138, DW_AT_TI_symbol_name("_rsvd12_3")
    7995                      .dwattr $C$DW$1138, DW_AT_data_member_location[DW_OP_plus_uconst 0x114]
    7996                      .dwattr $C$DW$1138, DW_AT_accessibility(DW_ACCESS_public)
    7997              $C$DW$1139      .dwtag  DW_TAG_member
    7998                      .dwattr $C$DW$1139, DW_AT_type(*$C$DW$T$184)
    7999                      .dwattr $C$DW$1139, DW_AT_name("rsvd12_4")
    8000                      .dwattr $C$DW$1139, DW_AT_TI_symbol_name("_rsvd12_4")
    8001                      .dwattr $C$DW$1139, DW_AT_data_member_location[DW_OP_plus_uconst 0x116]
    8002                      .dwattr $C$DW$1139, DW_AT_accessibility(DW_ACCESS_public)
    8003              $C$DW$1140      .dwtag  DW_TAG_member
    8004                      .dwattr $C$DW$1140, DW_AT_type(*$C$DW$T$184)
TMS320C2000 Assembler PC v6.4.4 Wed Jul 08 12:49:31 2015

Tools Copyright (c) 1996-2015 Texas Instruments Incorporated
C:\Users\grant\AppData\Local\Temp\0448010                            PAGE  154

    8005                      .dwattr $C$DW$1140, DW_AT_name("rsvd12_5")
    8006                      .dwattr $C$DW$1140, DW_AT_TI_symbol_name("_rsvd12_5")
    8007                      .dwattr $C$DW$1140, DW_AT_data_member_location[DW_OP_plus_uconst 0x118]
    8008                      .dwattr $C$DW$1140, DW_AT_accessibility(DW_ACCESS_public)
    8009              $C$DW$1141      .dwtag  DW_TAG_member
    8010                      .dwattr $C$DW$1141, DW_AT_type(*$C$DW$T$184)
    8011                      .dwattr $C$DW$1141, DW_AT_name("rsvd12_6")
    8012                      .dwattr $C$DW$1141, DW_AT_TI_symbol_name("_rsvd12_6")
    8013                      .dwattr $C$DW$1141, DW_AT_data_member_location[DW_OP_plus_uconst 0x11a]
    8014                      .dwattr $C$DW$1141, DW_AT_accessibility(DW_ACCESS_public)
    8015              $C$DW$1142      .dwtag  DW_TAG_member
    8016                      .dwattr $C$DW$1142, DW_AT_type(*$C$DW$T$184)
    8017                      .dwattr $C$DW$1142, DW_AT_name("CLAINT_LVF")
    8018                      .dwattr $C$DW$1142, DW_AT_TI_symbol_name("_CLAINT_LVF")
    8019                      .dwattr $C$DW$1142, DW_AT_data_member_location[DW_OP_plus_uconst 0x11c]
    8020                      .dwattr $C$DW$1142, DW_AT_accessibility(DW_ACCESS_public)
    8021              $C$DW$1143      .dwtag  DW_TAG_member
    8022                      .dwattr $C$DW$1143, DW_AT_type(*$C$DW$T$184)
    8023                      .dwattr $C$DW$1143, DW_AT_name("CLAINT_LUF")
    8024                      .dwattr $C$DW$1143, DW_AT_TI_symbol_name("_CLAINT_LUF")
    8025                      .dwattr $C$DW$1143, DW_AT_data_member_location[DW_OP_plus_uconst 0x11e]
    8026                      .dwattr $C$DW$1143, DW_AT_accessibility(DW_ACCESS_public)
    8027              $C$DW$1144      .dwtag  DW_TAG_member
    8028                      .dwattr $C$DW$1144, DW_AT_type(*$C$DW$T$185)
    8029                      .dwattr $C$DW$1144, DW_AT_name("rsvd13")
    8030                      .dwattr $C$DW$1144, DW_AT_TI_symbol_name("_rsvd13")
    8031                      .dwattr $C$DW$1144, DW_AT_data_member_location[DW_OP_plus_uconst 0x120]
    8032                      .dwattr $C$DW$1144, DW_AT_accessibility(DW_ACCESS_public)
    8033              $C$DW$1145      .dwtag  DW_TAG_member
    8034                      .dwattr $C$DW$1145, DW_AT_type(*$C$DW$T$32)
    8035                      .dwattr $C$DW$1145, DW_AT_name("XINTnCR")
    8036                      .dwattr $C$DW$1145, DW_AT_TI_symbol_name("_XINTnCR")
    8037                      .dwattr $C$DW$1145, DW_AT_data_member_location[DW_OP_plus_uconst 0x6390]
    8038                      .dwattr $C$DW$1145, DW_AT_accessibility(DW_ACCESS_public)
    8039              $C$DW$1146      .dwtag  DW_TAG_member
    8040                      .dwattr $C$DW$1146, DW_AT_type(*$C$DW$T$31)
    8041                      .dwattr $C$DW$1146, DW_AT_name("rsvd14")
    8042                      .dwattr $C$DW$1146, DW_AT_TI_symbol_name("_rsvd14")
    8043                      .dwattr $C$DW$1146, DW_AT_data_member_location[DW_OP_plus_uconst 0x6393]
    8044                      .dwattr $C$DW$1146, DW_AT_accessibility(DW_ACCESS_public)
    8045              $C$DW$1147      .dwtag  DW_TAG_member
    8046                      .dwattr $C$DW$1147, DW_AT_type(*$C$DW$T$32)
    8047                      .dwattr $C$DW$1147, DW_AT_name("XINTnCTR")
    8048                      .dwattr $C$DW$1147, DW_AT_TI_symbol_name("_XINTnCTR")
    8049                      .dwattr $C$DW$1147, DW_AT_data_member_location[DW_OP_plus_uconst 0x6398]
    8050                      .dwattr $C$DW$1147, DW_AT_accessibility(DW_ACCESS_public)
    8051                      .dwendtag $C$DW$T$186
    8052              
    8053              $C$DW$T$291     .dwtag  DW_TAG_typedef, DW_AT_name("PIE_Obj")
    8054                      .dwattr $C$DW$T$291, DW_AT_type(*$C$DW$T$186)
    8055                      .dwattr $C$DW$T$291, DW_AT_language(DW_LANG_C)
    8056              $C$DW$T$135     .dwtag  DW_TAG_pointer_type
    8057                      .dwattr $C$DW$T$135, DW_AT_type(*$C$DW$T$186)
    8058                      .dwattr $C$DW$T$135, DW_AT_address_class(0x20)
    8059              $C$DW$T$136     .dwtag  DW_TAG_typedef, DW_AT_name("PIE_Handle")
TMS320C2000 Assembler PC v6.4.4 Wed Jul 08 12:49:31 2015

Tools Copyright (c) 1996-2015 Texas Instruments Incorporated
C:\Users\grant\AppData\Local\Temp\0448010                            PAGE  155

    8060                      .dwattr $C$DW$T$136, DW_AT_type(*$C$DW$T$135)
    8061                      .dwattr $C$DW$T$136, DW_AT_language(DW_LANG_C)
    8062              
    8063              $C$DW$T$187     .dwtag  DW_TAG_structure_type
    8064                      .dwattr $C$DW$T$187, DW_AT_name("_PLL_Obj_")
    8065                      .dwattr $C$DW$T$187, DW_AT_byte_size(0x11)
    8066              $C$DW$1148      .dwtag  DW_TAG_member
    8067                      .dwattr $C$DW$1148, DW_AT_type(*$C$DW$T$27)
    8068                      .dwattr $C$DW$1148, DW_AT_name("PLLSTS")
    8069                      .dwattr $C$DW$1148, DW_AT_TI_symbol_name("_PLLSTS")
    8070                      .dwattr $C$DW$1148, DW_AT_data_member_location[DW_OP_plus_uconst 0x0]
    8071                      .dwattr $C$DW$1148, DW_AT_accessibility(DW_ACCESS_public)
    8072              $C$DW$1149      .dwtag  DW_TAG_member
    8073                      .dwattr $C$DW$1149, DW_AT_type(*$C$DW$T$27)
    8074                      .dwattr $C$DW$1149, DW_AT_name("rsvd_1")
    8075                      .dwattr $C$DW$1149, DW_AT_TI_symbol_name("_rsvd_1")
    8076                      .dwattr $C$DW$1149, DW_AT_data_member_location[DW_OP_plus_uconst 0x1]
    8077                      .dwattr $C$DW$1149, DW_AT_accessibility(DW_ACCESS_public)
    8078              $C$DW$1150      .dwtag  DW_TAG_member
    8079                      .dwattr $C$DW$1150, DW_AT_type(*$C$DW$T$27)
    8080                      .dwattr $C$DW$1150, DW_AT_name("PLLLOCKPRD")
    8081                      .dwattr $C$DW$1150, DW_AT_TI_symbol_name("_PLLLOCKPRD")
    8082                      .dwattr $C$DW$1150, DW_AT_data_member_location[DW_OP_plus_uconst 0x2]
    8083                      .dwattr $C$DW$1150, DW_AT_accessibility(DW_ACCESS_public)
    8084              $C$DW$1151      .dwtag  DW_TAG_member
    8085                      .dwattr $C$DW$1151, DW_AT_type(*$C$DW$T$33)
    8086                      .dwattr $C$DW$1151, DW_AT_name("rsvd_2")
    8087                      .dwattr $C$DW$1151, DW_AT_TI_symbol_name("_rsvd_2")
    8088                      .dwattr $C$DW$1151, DW_AT_data_member_location[DW_OP_plus_uconst 0x3]
    8089                      .dwattr $C$DW$1151, DW_AT_accessibility(DW_ACCESS_public)
    8090              $C$DW$1152      .dwtag  DW_TAG_member
    8091                      .dwattr $C$DW$1152, DW_AT_type(*$C$DW$T$27)
    8092                      .dwattr $C$DW$1152, DW_AT_name("PLLCR")
    8093                      .dwattr $C$DW$1152, DW_AT_TI_symbol_name("_PLLCR")
    8094                      .dwattr $C$DW$1152, DW_AT_data_member_location[DW_OP_plus_uconst 0x10]
    8095                      .dwattr $C$DW$1152, DW_AT_accessibility(DW_ACCESS_public)
    8096                      .dwendtag $C$DW$T$187
    8097              
    8098              $C$DW$T$137     .dwtag  DW_TAG_pointer_type
    8099                      .dwattr $C$DW$T$137, DW_AT_type(*$C$DW$T$187)
    8100                      .dwattr $C$DW$T$137, DW_AT_address_class(0x20)
    8101              $C$DW$T$138     .dwtag  DW_TAG_typedef, DW_AT_name("PLL_Handle")
    8102                      .dwattr $C$DW$T$138, DW_AT_type(*$C$DW$T$137)
    8103                      .dwattr $C$DW$T$138, DW_AT_language(DW_LANG_C)
    8104              
    8105              $C$DW$T$188     .dwtag  DW_TAG_structure_type
    8106                      .dwattr $C$DW$T$188, DW_AT_name("_PWM_Obj_")
    8107                      .dwattr $C$DW$T$188, DW_AT_byte_size(0x3a)
    8108              $C$DW$1153      .dwtag  DW_TAG_member
    8109                      .dwattr $C$DW$1153, DW_AT_type(*$C$DW$T$27)
    8110                      .dwattr $C$DW$1153, DW_AT_name("TBCTL")
    8111                      .dwattr $C$DW$1153, DW_AT_TI_symbol_name("_TBCTL")
    8112                      .dwattr $C$DW$1153, DW_AT_data_member_location[DW_OP_plus_uconst 0x0]
    8113                      .dwattr $C$DW$1153, DW_AT_accessibility(DW_ACCESS_public)
    8114              $C$DW$1154      .dwtag  DW_TAG_member
TMS320C2000 Assembler PC v6.4.4 Wed Jul 08 12:49:31 2015

Tools Copyright (c) 1996-2015 Texas Instruments Incorporated
C:\Users\grant\AppData\Local\Temp\0448010                            PAGE  156

    8115                      .dwattr $C$DW$1154, DW_AT_type(*$C$DW$T$27)
    8116                      .dwattr $C$DW$1154, DW_AT_name("TBSTS")
    8117                      .dwattr $C$DW$1154, DW_AT_TI_symbol_name("_TBSTS")
    8118                      .dwattr $C$DW$1154, DW_AT_data_member_location[DW_OP_plus_uconst 0x1]
    8119                      .dwattr $C$DW$1154, DW_AT_accessibility(DW_ACCESS_public)
    8120              $C$DW$1155      .dwtag  DW_TAG_member
    8121                      .dwattr $C$DW$1155, DW_AT_type(*$C$DW$T$27)
    8122                      .dwattr $C$DW$1155, DW_AT_name("TBPHSHR")
    8123                      .dwattr $C$DW$1155, DW_AT_TI_symbol_name("_TBPHSHR")
    8124                      .dwattr $C$DW$1155, DW_AT_data_member_location[DW_OP_plus_uconst 0x2]
    8125                      .dwattr $C$DW$1155, DW_AT_accessibility(DW_ACCESS_public)
    8126              $C$DW$1156      .dwtag  DW_TAG_member
    8127                      .dwattr $C$DW$1156, DW_AT_type(*$C$DW$T$27)
    8128                      .dwattr $C$DW$1156, DW_AT_name("TBPHS")
    8129                      .dwattr $C$DW$1156, DW_AT_TI_symbol_name("_TBPHS")
    8130                      .dwattr $C$DW$1156, DW_AT_data_member_location[DW_OP_plus_uconst 0x3]
    8131                      .dwattr $C$DW$1156, DW_AT_accessibility(DW_ACCESS_public)
    8132              $C$DW$1157      .dwtag  DW_TAG_member
    8133                      .dwattr $C$DW$1157, DW_AT_type(*$C$DW$T$27)
    8134                      .dwattr $C$DW$1157, DW_AT_name("TBCTR")
    8135                      .dwattr $C$DW$1157, DW_AT_TI_symbol_name("_TBCTR")
    8136                      .dwattr $C$DW$1157, DW_AT_data_member_location[DW_OP_plus_uconst 0x4]
    8137                      .dwattr $C$DW$1157, DW_AT_accessibility(DW_ACCESS_public)
    8138              $C$DW$1158      .dwtag  DW_TAG_member
    8139                      .dwattr $C$DW$1158, DW_AT_type(*$C$DW$T$27)
    8140                      .dwattr $C$DW$1158, DW_AT_name("TBPRD")
    8141                      .dwattr $C$DW$1158, DW_AT_TI_symbol_name("_TBPRD")
    8142                      .dwattr $C$DW$1158, DW_AT_data_member_location[DW_OP_plus_uconst 0x5]
    8143                      .dwattr $C$DW$1158, DW_AT_accessibility(DW_ACCESS_public)
    8144              $C$DW$1159      .dwtag  DW_TAG_member
    8145                      .dwattr $C$DW$1159, DW_AT_type(*$C$DW$T$27)
    8146                      .dwattr $C$DW$1159, DW_AT_name("TBPRDHR")
    8147                      .dwattr $C$DW$1159, DW_AT_TI_symbol_name("_TBPRDHR")
    8148                      .dwattr $C$DW$1159, DW_AT_data_member_location[DW_OP_plus_uconst 0x6]
    8149                      .dwattr $C$DW$1159, DW_AT_accessibility(DW_ACCESS_public)
    8150              $C$DW$1160      .dwtag  DW_TAG_member
    8151                      .dwattr $C$DW$1160, DW_AT_type(*$C$DW$T$27)
    8152                      .dwattr $C$DW$1160, DW_AT_name("CMPCTL")
    8153                      .dwattr $C$DW$1160, DW_AT_TI_symbol_name("_CMPCTL")
    8154                      .dwattr $C$DW$1160, DW_AT_data_member_location[DW_OP_plus_uconst 0x7]
    8155                      .dwattr $C$DW$1160, DW_AT_accessibility(DW_ACCESS_public)
    8156              $C$DW$1161      .dwtag  DW_TAG_member
    8157                      .dwattr $C$DW$1161, DW_AT_type(*$C$DW$T$27)
    8158                      .dwattr $C$DW$1161, DW_AT_name("CMPAHR")
    8159                      .dwattr $C$DW$1161, DW_AT_TI_symbol_name("_CMPAHR")
    8160                      .dwattr $C$DW$1161, DW_AT_data_member_location[DW_OP_plus_uconst 0x8]
    8161                      .dwattr $C$DW$1161, DW_AT_accessibility(DW_ACCESS_public)
    8162              $C$DW$1162      .dwtag  DW_TAG_member
    8163                      .dwattr $C$DW$1162, DW_AT_type(*$C$DW$T$27)
    8164                      .dwattr $C$DW$1162, DW_AT_name("CMPA")
    8165                      .dwattr $C$DW$1162, DW_AT_TI_symbol_name("_CMPA")
    8166                      .dwattr $C$DW$1162, DW_AT_data_member_location[DW_OP_plus_uconst 0x9]
    8167                      .dwattr $C$DW$1162, DW_AT_accessibility(DW_ACCESS_public)
    8168              $C$DW$1163      .dwtag  DW_TAG_member
    8169                      .dwattr $C$DW$1163, DW_AT_type(*$C$DW$T$27)
TMS320C2000 Assembler PC v6.4.4 Wed Jul 08 12:49:31 2015

Tools Copyright (c) 1996-2015 Texas Instruments Incorporated
C:\Users\grant\AppData\Local\Temp\0448010                            PAGE  157

    8170                      .dwattr $C$DW$1163, DW_AT_name("CMPB")
    8171                      .dwattr $C$DW$1163, DW_AT_TI_symbol_name("_CMPB")
    8172                      .dwattr $C$DW$1163, DW_AT_data_member_location[DW_OP_plus_uconst 0xa]
    8173                      .dwattr $C$DW$1163, DW_AT_accessibility(DW_ACCESS_public)
    8174              $C$DW$1164      .dwtag  DW_TAG_member
    8175                      .dwattr $C$DW$1164, DW_AT_type(*$C$DW$T$27)
    8176                      .dwattr $C$DW$1164, DW_AT_name("AQCTLA")
    8177                      .dwattr $C$DW$1164, DW_AT_TI_symbol_name("_AQCTLA")
    8178                      .dwattr $C$DW$1164, DW_AT_data_member_location[DW_OP_plus_uconst 0xb]
    8179                      .dwattr $C$DW$1164, DW_AT_accessibility(DW_ACCESS_public)
    8180              $C$DW$1165      .dwtag  DW_TAG_member
    8181                      .dwattr $C$DW$1165, DW_AT_type(*$C$DW$T$27)
    8182                      .dwattr $C$DW$1165, DW_AT_name("AQCTLB")
    8183                      .dwattr $C$DW$1165, DW_AT_TI_symbol_name("_AQCTLB")
    8184                      .dwattr $C$DW$1165, DW_AT_data_member_location[DW_OP_plus_uconst 0xc]
    8185                      .dwattr $C$DW$1165, DW_AT_accessibility(DW_ACCESS_public)
    8186              $C$DW$1166      .dwtag  DW_TAG_member
    8187                      .dwattr $C$DW$1166, DW_AT_type(*$C$DW$T$27)
    8188                      .dwattr $C$DW$1166, DW_AT_name("AQSFRC")
    8189                      .dwattr $C$DW$1166, DW_AT_TI_symbol_name("_AQSFRC")
    8190                      .dwattr $C$DW$1166, DW_AT_data_member_location[DW_OP_plus_uconst 0xd]
    8191                      .dwattr $C$DW$1166, DW_AT_accessibility(DW_ACCESS_public)
    8192              $C$DW$1167      .dwtag  DW_TAG_member
    8193                      .dwattr $C$DW$1167, DW_AT_type(*$C$DW$T$27)
    8194                      .dwattr $C$DW$1167, DW_AT_name("AQCSFRC")
    8195                      .dwattr $C$DW$1167, DW_AT_TI_symbol_name("_AQCSFRC")
    8196                      .dwattr $C$DW$1167, DW_AT_data_member_location[DW_OP_plus_uconst 0xe]
    8197                      .dwattr $C$DW$1167, DW_AT_accessibility(DW_ACCESS_public)
    8198              $C$DW$1168      .dwtag  DW_TAG_member
    8199                      .dwattr $C$DW$1168, DW_AT_type(*$C$DW$T$27)
    8200                      .dwattr $C$DW$1168, DW_AT_name("DBCTL")
    8201                      .dwattr $C$DW$1168, DW_AT_TI_symbol_name("_DBCTL")
    8202                      .dwattr $C$DW$1168, DW_AT_data_member_location[DW_OP_plus_uconst 0xf]
    8203                      .dwattr $C$DW$1168, DW_AT_accessibility(DW_ACCESS_public)
    8204              $C$DW$1169      .dwtag  DW_TAG_member
    8205                      .dwattr $C$DW$1169, DW_AT_type(*$C$DW$T$27)
    8206                      .dwattr $C$DW$1169, DW_AT_name("DBRED")
    8207                      .dwattr $C$DW$1169, DW_AT_TI_symbol_name("_DBRED")
    8208                      .dwattr $C$DW$1169, DW_AT_data_member_location[DW_OP_plus_uconst 0x10]
    8209                      .dwattr $C$DW$1169, DW_AT_accessibility(DW_ACCESS_public)
    8210              $C$DW$1170      .dwtag  DW_TAG_member
    8211                      .dwattr $C$DW$1170, DW_AT_type(*$C$DW$T$27)
    8212                      .dwattr $C$DW$1170, DW_AT_name("DBFED")
    8213                      .dwattr $C$DW$1170, DW_AT_TI_symbol_name("_DBFED")
    8214                      .dwattr $C$DW$1170, DW_AT_data_member_location[DW_OP_plus_uconst 0x11]
    8215                      .dwattr $C$DW$1170, DW_AT_accessibility(DW_ACCESS_public)
    8216              $C$DW$1171      .dwtag  DW_TAG_member
    8217                      .dwattr $C$DW$1171, DW_AT_type(*$C$DW$T$27)
    8218                      .dwattr $C$DW$1171, DW_AT_name("TZSEL")
    8219                      .dwattr $C$DW$1171, DW_AT_TI_symbol_name("_TZSEL")
    8220                      .dwattr $C$DW$1171, DW_AT_data_member_location[DW_OP_plus_uconst 0x12]
    8221                      .dwattr $C$DW$1171, DW_AT_accessibility(DW_ACCESS_public)
    8222              $C$DW$1172      .dwtag  DW_TAG_member
    8223                      .dwattr $C$DW$1172, DW_AT_type(*$C$DW$T$27)
    8224                      .dwattr $C$DW$1172, DW_AT_name("TZDCSEL")
TMS320C2000 Assembler PC v6.4.4 Wed Jul 08 12:49:31 2015

Tools Copyright (c) 1996-2015 Texas Instruments Incorporated
C:\Users\grant\AppData\Local\Temp\0448010                            PAGE  158

    8225                      .dwattr $C$DW$1172, DW_AT_TI_symbol_name("_TZDCSEL")
    8226                      .dwattr $C$DW$1172, DW_AT_data_member_location[DW_OP_plus_uconst 0x13]
    8227                      .dwattr $C$DW$1172, DW_AT_accessibility(DW_ACCESS_public)
    8228              $C$DW$1173      .dwtag  DW_TAG_member
    8229                      .dwattr $C$DW$1173, DW_AT_type(*$C$DW$T$27)
    8230                      .dwattr $C$DW$1173, DW_AT_name("TZCTL")
    8231                      .dwattr $C$DW$1173, DW_AT_TI_symbol_name("_TZCTL")
    8232                      .dwattr $C$DW$1173, DW_AT_data_member_location[DW_OP_plus_uconst 0x14]
    8233                      .dwattr $C$DW$1173, DW_AT_accessibility(DW_ACCESS_public)
    8234              $C$DW$1174      .dwtag  DW_TAG_member
    8235                      .dwattr $C$DW$1174, DW_AT_type(*$C$DW$T$27)
    8236                      .dwattr $C$DW$1174, DW_AT_name("TZEINT")
    8237                      .dwattr $C$DW$1174, DW_AT_TI_symbol_name("_TZEINT")
    8238                      .dwattr $C$DW$1174, DW_AT_data_member_location[DW_OP_plus_uconst 0x15]
    8239                      .dwattr $C$DW$1174, DW_AT_accessibility(DW_ACCESS_public)
    8240              $C$DW$1175      .dwtag  DW_TAG_member
    8241                      .dwattr $C$DW$1175, DW_AT_type(*$C$DW$T$27)
    8242                      .dwattr $C$DW$1175, DW_AT_name("TZFLG")
    8243                      .dwattr $C$DW$1175, DW_AT_TI_symbol_name("_TZFLG")
    8244                      .dwattr $C$DW$1175, DW_AT_data_member_location[DW_OP_plus_uconst 0x16]
    8245                      .dwattr $C$DW$1175, DW_AT_accessibility(DW_ACCESS_public)
    8246              $C$DW$1176      .dwtag  DW_TAG_member
    8247                      .dwattr $C$DW$1176, DW_AT_type(*$C$DW$T$27)
    8248                      .dwattr $C$DW$1176, DW_AT_name("TZCLR")
    8249                      .dwattr $C$DW$1176, DW_AT_TI_symbol_name("_TZCLR")
    8250                      .dwattr $C$DW$1176, DW_AT_data_member_location[DW_OP_plus_uconst 0x17]
    8251                      .dwattr $C$DW$1176, DW_AT_accessibility(DW_ACCESS_public)
    8252              $C$DW$1177      .dwtag  DW_TAG_member
    8253                      .dwattr $C$DW$1177, DW_AT_type(*$C$DW$T$27)
    8254                      .dwattr $C$DW$1177, DW_AT_name("TZFRC")
    8255                      .dwattr $C$DW$1177, DW_AT_TI_symbol_name("_TZFRC")
    8256                      .dwattr $C$DW$1177, DW_AT_data_member_location[DW_OP_plus_uconst 0x18]
    8257                      .dwattr $C$DW$1177, DW_AT_accessibility(DW_ACCESS_public)
    8258              $C$DW$1178      .dwtag  DW_TAG_member
    8259                      .dwattr $C$DW$1178, DW_AT_type(*$C$DW$T$27)
    8260                      .dwattr $C$DW$1178, DW_AT_name("ETSEL")
    8261                      .dwattr $C$DW$1178, DW_AT_TI_symbol_name("_ETSEL")
    8262                      .dwattr $C$DW$1178, DW_AT_data_member_location[DW_OP_plus_uconst 0x19]
    8263                      .dwattr $C$DW$1178, DW_AT_accessibility(DW_ACCESS_public)
    8264              $C$DW$1179      .dwtag  DW_TAG_member
    8265                      .dwattr $C$DW$1179, DW_AT_type(*$C$DW$T$27)
    8266                      .dwattr $C$DW$1179, DW_AT_name("ETPS")
    8267                      .dwattr $C$DW$1179, DW_AT_TI_symbol_name("_ETPS")
    8268                      .dwattr $C$DW$1179, DW_AT_data_member_location[DW_OP_plus_uconst 0x1a]
    8269                      .dwattr $C$DW$1179, DW_AT_accessibility(DW_ACCESS_public)
    8270              $C$DW$1180      .dwtag  DW_TAG_member
    8271                      .dwattr $C$DW$1180, DW_AT_type(*$C$DW$T$27)
    8272                      .dwattr $C$DW$1180, DW_AT_name("ETFLG")
    8273                      .dwattr $C$DW$1180, DW_AT_TI_symbol_name("_ETFLG")
    8274                      .dwattr $C$DW$1180, DW_AT_data_member_location[DW_OP_plus_uconst 0x1b]
    8275                      .dwattr $C$DW$1180, DW_AT_accessibility(DW_ACCESS_public)
    8276              $C$DW$1181      .dwtag  DW_TAG_member
    8277                      .dwattr $C$DW$1181, DW_AT_type(*$C$DW$T$27)
    8278                      .dwattr $C$DW$1181, DW_AT_name("ETCLR")
    8279                      .dwattr $C$DW$1181, DW_AT_TI_symbol_name("_ETCLR")
TMS320C2000 Assembler PC v6.4.4 Wed Jul 08 12:49:31 2015

Tools Copyright (c) 1996-2015 Texas Instruments Incorporated
C:\Users\grant\AppData\Local\Temp\0448010                            PAGE  159

    8280                      .dwattr $C$DW$1181, DW_AT_data_member_location[DW_OP_plus_uconst 0x1c]
    8281                      .dwattr $C$DW$1181, DW_AT_accessibility(DW_ACCESS_public)
    8282              $C$DW$1182      .dwtag  DW_TAG_member
    8283                      .dwattr $C$DW$1182, DW_AT_type(*$C$DW$T$27)
    8284                      .dwattr $C$DW$1182, DW_AT_name("ETFRC")
    8285                      .dwattr $C$DW$1182, DW_AT_TI_symbol_name("_ETFRC")
    8286                      .dwattr $C$DW$1182, DW_AT_data_member_location[DW_OP_plus_uconst 0x1d]
    8287                      .dwattr $C$DW$1182, DW_AT_accessibility(DW_ACCESS_public)
    8288              $C$DW$1183      .dwtag  DW_TAG_member
    8289                      .dwattr $C$DW$1183, DW_AT_type(*$C$DW$T$27)
    8290                      .dwattr $C$DW$1183, DW_AT_name("PCCTL")
    8291                      .dwattr $C$DW$1183, DW_AT_TI_symbol_name("_PCCTL")
    8292                      .dwattr $C$DW$1183, DW_AT_data_member_location[DW_OP_plus_uconst 0x1e]
    8293                      .dwattr $C$DW$1183, DW_AT_accessibility(DW_ACCESS_public)
    8294              $C$DW$1184      .dwtag  DW_TAG_member
    8295                      .dwattr $C$DW$1184, DW_AT_type(*$C$DW$T$27)
    8296                      .dwattr $C$DW$1184, DW_AT_name("rsvd_1")
    8297                      .dwattr $C$DW$1184, DW_AT_TI_symbol_name("_rsvd_1")
    8298                      .dwattr $C$DW$1184, DW_AT_data_member_location[DW_OP_plus_uconst 0x1f]
    8299                      .dwattr $C$DW$1184, DW_AT_accessibility(DW_ACCESS_public)
    8300              $C$DW$1185      .dwtag  DW_TAG_member
    8301                      .dwattr $C$DW$1185, DW_AT_type(*$C$DW$T$27)
    8302                      .dwattr $C$DW$1185, DW_AT_name("HRCNFG")
    8303                      .dwattr $C$DW$1185, DW_AT_TI_symbol_name("_HRCNFG")
    8304                      .dwattr $C$DW$1185, DW_AT_data_member_location[DW_OP_plus_uconst 0x20]
    8305                      .dwattr $C$DW$1185, DW_AT_accessibility(DW_ACCESS_public)
    8306              $C$DW$1186      .dwtag  DW_TAG_member
    8307                      .dwattr $C$DW$1186, DW_AT_type(*$C$DW$T$27)
    8308                      .dwattr $C$DW$1186, DW_AT_name("HRPWR")
    8309                      .dwattr $C$DW$1186, DW_AT_TI_symbol_name("_HRPWR")
    8310                      .dwattr $C$DW$1186, DW_AT_data_member_location[DW_OP_plus_uconst 0x21]
    8311                      .dwattr $C$DW$1186, DW_AT_accessibility(DW_ACCESS_public)
    8312              $C$DW$1187      .dwtag  DW_TAG_member
    8313                      .dwattr $C$DW$1187, DW_AT_type(*$C$DW$T$116)
    8314                      .dwattr $C$DW$1187, DW_AT_name("rsvd_2")
    8315                      .dwattr $C$DW$1187, DW_AT_TI_symbol_name("_rsvd_2")
    8316                      .dwattr $C$DW$1187, DW_AT_data_member_location[DW_OP_plus_uconst 0x22]
    8317                      .dwattr $C$DW$1187, DW_AT_accessibility(DW_ACCESS_public)
    8318              $C$DW$1188      .dwtag  DW_TAG_member
    8319                      .dwattr $C$DW$1188, DW_AT_type(*$C$DW$T$27)
    8320                      .dwattr $C$DW$1188, DW_AT_name("HRMSTEP")
    8321                      .dwattr $C$DW$1188, DW_AT_TI_symbol_name("_HRMSTEP")
    8322                      .dwattr $C$DW$1188, DW_AT_data_member_location[DW_OP_plus_uconst 0x26]
    8323                      .dwattr $C$DW$1188, DW_AT_accessibility(DW_ACCESS_public)
    8324              $C$DW$1189      .dwtag  DW_TAG_member
    8325                      .dwattr $C$DW$1189, DW_AT_type(*$C$DW$T$27)
    8326                      .dwattr $C$DW$1189, DW_AT_name("rsvd_3")
    8327                      .dwattr $C$DW$1189, DW_AT_TI_symbol_name("_rsvd_3")
    8328                      .dwattr $C$DW$1189, DW_AT_data_member_location[DW_OP_plus_uconst 0x27]
    8329                      .dwattr $C$DW$1189, DW_AT_accessibility(DW_ACCESS_public)
    8330              $C$DW$1190      .dwtag  DW_TAG_member
    8331                      .dwattr $C$DW$1190, DW_AT_type(*$C$DW$T$27)
    8332                      .dwattr $C$DW$1190, DW_AT_name("HRPCTL")
    8333                      .dwattr $C$DW$1190, DW_AT_TI_symbol_name("_HRPCTL")
    8334                      .dwattr $C$DW$1190, DW_AT_data_member_location[DW_OP_plus_uconst 0x28]
TMS320C2000 Assembler PC v6.4.4 Wed Jul 08 12:49:31 2015

Tools Copyright (c) 1996-2015 Texas Instruments Incorporated
C:\Users\grant\AppData\Local\Temp\0448010                            PAGE  160

    8335                      .dwattr $C$DW$1190, DW_AT_accessibility(DW_ACCESS_public)
    8336              $C$DW$1191      .dwtag  DW_TAG_member
    8337                      .dwattr $C$DW$1191, DW_AT_type(*$C$DW$T$27)
    8338                      .dwattr $C$DW$1191, DW_AT_name("rsvd_4")
    8339                      .dwattr $C$DW$1191, DW_AT_TI_symbol_name("_rsvd_4")
    8340                      .dwattr $C$DW$1191, DW_AT_data_member_location[DW_OP_plus_uconst 0x29]
    8341                      .dwattr $C$DW$1191, DW_AT_accessibility(DW_ACCESS_public)
    8342              $C$DW$1192      .dwtag  DW_TAG_member
    8343                      .dwattr $C$DW$1192, DW_AT_type(*$C$DW$T$27)
    8344                      .dwattr $C$DW$1192, DW_AT_name("TBPRDHRM")
    8345                      .dwattr $C$DW$1192, DW_AT_TI_symbol_name("_TBPRDHRM")
    8346                      .dwattr $C$DW$1192, DW_AT_data_member_location[DW_OP_plus_uconst 0x2a]
    8347                      .dwattr $C$DW$1192, DW_AT_accessibility(DW_ACCESS_public)
    8348              $C$DW$1193      .dwtag  DW_TAG_member
    8349                      .dwattr $C$DW$1193, DW_AT_type(*$C$DW$T$27)
    8350                      .dwattr $C$DW$1193, DW_AT_name("TBPRDM")
    8351                      .dwattr $C$DW$1193, DW_AT_TI_symbol_name("_TBPRDM")
    8352                      .dwattr $C$DW$1193, DW_AT_data_member_location[DW_OP_plus_uconst 0x2b]
    8353                      .dwattr $C$DW$1193, DW_AT_accessibility(DW_ACCESS_public)
    8354              $C$DW$1194      .dwtag  DW_TAG_member
    8355                      .dwattr $C$DW$1194, DW_AT_type(*$C$DW$T$27)
    8356                      .dwattr $C$DW$1194, DW_AT_name("CMPAHRM")
    8357                      .dwattr $C$DW$1194, DW_AT_TI_symbol_name("_CMPAHRM")
    8358                      .dwattr $C$DW$1194, DW_AT_data_member_location[DW_OP_plus_uconst 0x2c]
    8359                      .dwattr $C$DW$1194, DW_AT_accessibility(DW_ACCESS_public)
    8360              $C$DW$1195      .dwtag  DW_TAG_member
    8361                      .dwattr $C$DW$1195, DW_AT_type(*$C$DW$T$27)
    8362                      .dwattr $C$DW$1195, DW_AT_name("CMPAM")
    8363                      .dwattr $C$DW$1195, DW_AT_TI_symbol_name("_CMPAM")
    8364                      .dwattr $C$DW$1195, DW_AT_data_member_location[DW_OP_plus_uconst 0x2d]
    8365                      .dwattr $C$DW$1195, DW_AT_accessibility(DW_ACCESS_public)
    8366              $C$DW$1196      .dwtag  DW_TAG_member
    8367                      .dwattr $C$DW$1196, DW_AT_type(*$C$DW$T$30)
    8368                      .dwattr $C$DW$1196, DW_AT_name("rsvd_5")
    8369                      .dwattr $C$DW$1196, DW_AT_TI_symbol_name("_rsvd_5")
    8370                      .dwattr $C$DW$1196, DW_AT_data_member_location[DW_OP_plus_uconst 0x2e]
    8371                      .dwattr $C$DW$1196, DW_AT_accessibility(DW_ACCESS_public)
    8372              $C$DW$1197      .dwtag  DW_TAG_member
    8373                      .dwattr $C$DW$1197, DW_AT_type(*$C$DW$T$27)
    8374                      .dwattr $C$DW$1197, DW_AT_name("DCTRIPSEL")
    8375                      .dwattr $C$DW$1197, DW_AT_TI_symbol_name("_DCTRIPSEL")
    8376                      .dwattr $C$DW$1197, DW_AT_data_member_location[DW_OP_plus_uconst 0x30]
    8377                      .dwattr $C$DW$1197, DW_AT_accessibility(DW_ACCESS_public)
    8378              $C$DW$1198      .dwtag  DW_TAG_member
    8379                      .dwattr $C$DW$1198, DW_AT_type(*$C$DW$T$27)
    8380                      .dwattr $C$DW$1198, DW_AT_name("DCACTL")
    8381                      .dwattr $C$DW$1198, DW_AT_TI_symbol_name("_DCACTL")
    8382                      .dwattr $C$DW$1198, DW_AT_data_member_location[DW_OP_plus_uconst 0x31]
    8383                      .dwattr $C$DW$1198, DW_AT_accessibility(DW_ACCESS_public)
    8384              $C$DW$1199      .dwtag  DW_TAG_member
    8385                      .dwattr $C$DW$1199, DW_AT_type(*$C$DW$T$27)
    8386                      .dwattr $C$DW$1199, DW_AT_name("DCBCTL")
    8387                      .dwattr $C$DW$1199, DW_AT_TI_symbol_name("_DCBCTL")
    8388                      .dwattr $C$DW$1199, DW_AT_data_member_location[DW_OP_plus_uconst 0x32]
    8389                      .dwattr $C$DW$1199, DW_AT_accessibility(DW_ACCESS_public)
TMS320C2000 Assembler PC v6.4.4 Wed Jul 08 12:49:31 2015

Tools Copyright (c) 1996-2015 Texas Instruments Incorporated
C:\Users\grant\AppData\Local\Temp\0448010                            PAGE  161

    8390              $C$DW$1200      .dwtag  DW_TAG_member
    8391                      .dwattr $C$DW$1200, DW_AT_type(*$C$DW$T$27)
    8392                      .dwattr $C$DW$1200, DW_AT_name("DCFCTL")
    8393                      .dwattr $C$DW$1200, DW_AT_TI_symbol_name("_DCFCTL")
    8394                      .dwattr $C$DW$1200, DW_AT_data_member_location[DW_OP_plus_uconst 0x33]
    8395                      .dwattr $C$DW$1200, DW_AT_accessibility(DW_ACCESS_public)
    8396              $C$DW$1201      .dwtag  DW_TAG_member
    8397                      .dwattr $C$DW$1201, DW_AT_type(*$C$DW$T$27)
    8398                      .dwattr $C$DW$1201, DW_AT_name("DCCAPCTL")
    8399                      .dwattr $C$DW$1201, DW_AT_TI_symbol_name("_DCCAPCTL")
    8400                      .dwattr $C$DW$1201, DW_AT_data_member_location[DW_OP_plus_uconst 0x34]
    8401                      .dwattr $C$DW$1201, DW_AT_accessibility(DW_ACCESS_public)
    8402              $C$DW$1202      .dwtag  DW_TAG_member
    8403                      .dwattr $C$DW$1202, DW_AT_type(*$C$DW$T$27)
    8404                      .dwattr $C$DW$1202, DW_AT_name("DCFOFFSET")
    8405                      .dwattr $C$DW$1202, DW_AT_TI_symbol_name("_DCFOFFSET")
    8406                      .dwattr $C$DW$1202, DW_AT_data_member_location[DW_OP_plus_uconst 0x35]
    8407                      .dwattr $C$DW$1202, DW_AT_accessibility(DW_ACCESS_public)
    8408              $C$DW$1203      .dwtag  DW_TAG_member
    8409                      .dwattr $C$DW$1203, DW_AT_type(*$C$DW$T$27)
    8410                      .dwattr $C$DW$1203, DW_AT_name("DCFOFFSETCNT")
    8411                      .dwattr $C$DW$1203, DW_AT_TI_symbol_name("_DCFOFFSETCNT")
    8412                      .dwattr $C$DW$1203, DW_AT_data_member_location[DW_OP_plus_uconst 0x36]
    8413                      .dwattr $C$DW$1203, DW_AT_accessibility(DW_ACCESS_public)
    8414              $C$DW$1204      .dwtag  DW_TAG_member
    8415                      .dwattr $C$DW$1204, DW_AT_type(*$C$DW$T$27)
    8416                      .dwattr $C$DW$1204, DW_AT_name("DCFWINDOW")
    8417                      .dwattr $C$DW$1204, DW_AT_TI_symbol_name("_DCFWINDOW")
    8418                      .dwattr $C$DW$1204, DW_AT_data_member_location[DW_OP_plus_uconst 0x37]
    8419                      .dwattr $C$DW$1204, DW_AT_accessibility(DW_ACCESS_public)
    8420              $C$DW$1205      .dwtag  DW_TAG_member
    8421                      .dwattr $C$DW$1205, DW_AT_type(*$C$DW$T$27)
    8422                      .dwattr $C$DW$1205, DW_AT_name("DCFWINDOWCNT")
    8423                      .dwattr $C$DW$1205, DW_AT_TI_symbol_name("_DCFWINDOWCNT")
    8424                      .dwattr $C$DW$1205, DW_AT_data_member_location[DW_OP_plus_uconst 0x38]
    8425                      .dwattr $C$DW$1205, DW_AT_accessibility(DW_ACCESS_public)
    8426              $C$DW$1206      .dwtag  DW_TAG_member
    8427                      .dwattr $C$DW$1206, DW_AT_type(*$C$DW$T$27)
    8428                      .dwattr $C$DW$1206, DW_AT_name("DCCAP")
    8429                      .dwattr $C$DW$1206, DW_AT_TI_symbol_name("_DCCAP")
    8430                      .dwattr $C$DW$1206, DW_AT_data_member_location[DW_OP_plus_uconst 0x39]
    8431                      .dwattr $C$DW$1206, DW_AT_accessibility(DW_ACCESS_public)
    8432                      .dwendtag $C$DW$T$188
    8433              
    8434              $C$DW$T$292     .dwtag  DW_TAG_typedef, DW_AT_name("PWM_Obj")
    8435                      .dwattr $C$DW$T$292, DW_AT_type(*$C$DW$T$188)
    8436                      .dwattr $C$DW$T$292, DW_AT_language(DW_LANG_C)
    8437              $C$DW$T$139     .dwtag  DW_TAG_pointer_type
    8438                      .dwattr $C$DW$T$139, DW_AT_type(*$C$DW$T$188)
    8439                      .dwattr $C$DW$T$139, DW_AT_address_class(0x20)
    8440              $C$DW$T$140     .dwtag  DW_TAG_typedef, DW_AT_name("PWM_Handle")
    8441                      .dwattr $C$DW$T$140, DW_AT_type(*$C$DW$T$139)
    8442                      .dwattr $C$DW$T$140, DW_AT_language(DW_LANG_C)
    8443              
    8444              $C$DW$T$141     .dwtag  DW_TAG_array_type
TMS320C2000 Assembler PC v6.4.4 Wed Jul 08 12:49:31 2015

Tools Copyright (c) 1996-2015 Texas Instruments Incorporated
C:\Users\grant\AppData\Local\Temp\0448010                            PAGE  162

    8445                      .dwattr $C$DW$T$141, DW_AT_type(*$C$DW$T$140)
    8446                      .dwattr $C$DW$T$141, DW_AT_language(DW_LANG_C)
    8447                      .dwattr $C$DW$T$141, DW_AT_byte_size(0x06)
    8448              $C$DW$1207      .dwtag  DW_TAG_subrange_type
    8449                      .dwattr $C$DW$1207, DW_AT_upper_bound(0x02)
    8450                      .dwendtag $C$DW$T$141
    8451              
    8452              
    8453              $C$DW$T$142     .dwtag  DW_TAG_array_type
    8454                      .dwattr $C$DW$T$142, DW_AT_type(*$C$DW$T$140)
    8455                      .dwattr $C$DW$T$142, DW_AT_language(DW_LANG_C)
    8456                      .dwattr $C$DW$T$142, DW_AT_byte_size(0x04)
    8457              $C$DW$1208      .dwtag  DW_TAG_subrange_type
    8458                      .dwattr $C$DW$1208, DW_AT_upper_bound(0x01)
    8459                      .dwendtag $C$DW$T$142
    8460              
    8461              
    8462              $C$DW$T$190     .dwtag  DW_TAG_structure_type
    8463                      .dwattr $C$DW$T$190, DW_AT_name("_PWR_Obj_")
    8464                      .dwattr $C$DW$T$190, DW_AT_byte_size(0x669a)
    8465              $C$DW$1209      .dwtag  DW_TAG_member
    8466                      .dwattr $C$DW$1209, DW_AT_type(*$C$DW$T$27)
    8467                      .dwattr $C$DW$1209, DW_AT_name("BORCFG")
    8468                      .dwattr $C$DW$1209, DW_AT_TI_symbol_name("_BORCFG")
    8469                      .dwattr $C$DW$1209, DW_AT_data_member_location[DW_OP_plus_uconst 0x0]
    8470                      .dwattr $C$DW$1209, DW_AT_accessibility(DW_ACCESS_public)
    8471              $C$DW$1210      .dwtag  DW_TAG_member
    8472                      .dwattr $C$DW$1210, DW_AT_type(*$C$DW$T$189)
    8473                      .dwattr $C$DW$1210, DW_AT_name("rsvd_1")
    8474                      .dwattr $C$DW$1210, DW_AT_TI_symbol_name("_rsvd_1")
    8475                      .dwattr $C$DW$1210, DW_AT_data_member_location[DW_OP_plus_uconst 0x1]
    8476                      .dwattr $C$DW$1210, DW_AT_accessibility(DW_ACCESS_public)
    8477              $C$DW$1211      .dwtag  DW_TAG_member
    8478                      .dwattr $C$DW$1211, DW_AT_type(*$C$DW$T$27)
    8479                      .dwattr $C$DW$1211, DW_AT_name("LPMCR0")
    8480                      .dwattr $C$DW$1211, DW_AT_TI_symbol_name("_LPMCR0")
    8481                      .dwattr $C$DW$1211, DW_AT_data_member_location[DW_OP_plus_uconst 0x6699]
    8482                      .dwattr $C$DW$1211, DW_AT_accessibility(DW_ACCESS_public)
    8483                      .dwendtag $C$DW$T$190
    8484              
    8485              $C$DW$T$143     .dwtag  DW_TAG_pointer_type
    8486                      .dwattr $C$DW$T$143, DW_AT_type(*$C$DW$T$190)
    8487                      .dwattr $C$DW$T$143, DW_AT_address_class(0x20)
    8488              $C$DW$T$144     .dwtag  DW_TAG_typedef, DW_AT_name("PWR_Handle")
    8489                      .dwattr $C$DW$T$144, DW_AT_type(*$C$DW$T$143)
    8490                      .dwattr $C$DW$T$144, DW_AT_language(DW_LANG_C)
    8491              
    8492              $C$DW$T$191     .dwtag  DW_TAG_structure_type
    8493                      .dwattr $C$DW$T$191, DW_AT_name("_SPI_Obj_")
    8494                      .dwattr $C$DW$T$191, DW_AT_byte_size(0x10)
    8495              $C$DW$1212      .dwtag  DW_TAG_member
    8496                      .dwattr $C$DW$1212, DW_AT_type(*$C$DW$T$27)
    8497                      .dwattr $C$DW$1212, DW_AT_name("SPICCR")
    8498                      .dwattr $C$DW$1212, DW_AT_TI_symbol_name("_SPICCR")
    8499                      .dwattr $C$DW$1212, DW_AT_data_member_location[DW_OP_plus_uconst 0x0]
TMS320C2000 Assembler PC v6.4.4 Wed Jul 08 12:49:31 2015

Tools Copyright (c) 1996-2015 Texas Instruments Incorporated
C:\Users\grant\AppData\Local\Temp\0448010                            PAGE  163

    8500                      .dwattr $C$DW$1212, DW_AT_accessibility(DW_ACCESS_public)
    8501              $C$DW$1213      .dwtag  DW_TAG_member
    8502                      .dwattr $C$DW$1213, DW_AT_type(*$C$DW$T$27)
    8503                      .dwattr $C$DW$1213, DW_AT_name("SPICTL")
    8504                      .dwattr $C$DW$1213, DW_AT_TI_symbol_name("_SPICTL")
    8505                      .dwattr $C$DW$1213, DW_AT_data_member_location[DW_OP_plus_uconst 0x1]
    8506                      .dwattr $C$DW$1213, DW_AT_accessibility(DW_ACCESS_public)
    8507              $C$DW$1214      .dwtag  DW_TAG_member
    8508                      .dwattr $C$DW$1214, DW_AT_type(*$C$DW$T$27)
    8509                      .dwattr $C$DW$1214, DW_AT_name("SPIST")
    8510                      .dwattr $C$DW$1214, DW_AT_TI_symbol_name("_SPIST")
    8511                      .dwattr $C$DW$1214, DW_AT_data_member_location[DW_OP_plus_uconst 0x2]
    8512                      .dwattr $C$DW$1214, DW_AT_accessibility(DW_ACCESS_public)
    8513              $C$DW$1215      .dwtag  DW_TAG_member
    8514                      .dwattr $C$DW$1215, DW_AT_type(*$C$DW$T$27)
    8515                      .dwattr $C$DW$1215, DW_AT_name("rsvd_1")
    8516                      .dwattr $C$DW$1215, DW_AT_TI_symbol_name("_rsvd_1")
    8517                      .dwattr $C$DW$1215, DW_AT_data_member_location[DW_OP_plus_uconst 0x3]
    8518                      .dwattr $C$DW$1215, DW_AT_accessibility(DW_ACCESS_public)
    8519              $C$DW$1216      .dwtag  DW_TAG_member
    8520                      .dwattr $C$DW$1216, DW_AT_type(*$C$DW$T$27)
    8521                      .dwattr $C$DW$1216, DW_AT_name("SPIBRR")
    8522                      .dwattr $C$DW$1216, DW_AT_TI_symbol_name("_SPIBRR")
    8523                      .dwattr $C$DW$1216, DW_AT_data_member_location[DW_OP_plus_uconst 0x4]
    8524                      .dwattr $C$DW$1216, DW_AT_accessibility(DW_ACCESS_public)
    8525              $C$DW$1217      .dwtag  DW_TAG_member
    8526                      .dwattr $C$DW$1217, DW_AT_type(*$C$DW$T$27)
    8527                      .dwattr $C$DW$1217, DW_AT_name("rsvd_2")
    8528                      .dwattr $C$DW$1217, DW_AT_TI_symbol_name("_rsvd_2")
    8529                      .dwattr $C$DW$1217, DW_AT_data_member_location[DW_OP_plus_uconst 0x5]
    8530                      .dwattr $C$DW$1217, DW_AT_accessibility(DW_ACCESS_public)
    8531              $C$DW$1218      .dwtag  DW_TAG_member
    8532                      .dwattr $C$DW$1218, DW_AT_type(*$C$DW$T$27)
    8533                      .dwattr $C$DW$1218, DW_AT_name("SPIEMU")
    8534                      .dwattr $C$DW$1218, DW_AT_TI_symbol_name("_SPIEMU")
    8535                      .dwattr $C$DW$1218, DW_AT_data_member_location[DW_OP_plus_uconst 0x6]
    8536                      .dwattr $C$DW$1218, DW_AT_accessibility(DW_ACCESS_public)
    8537              $C$DW$1219      .dwtag  DW_TAG_member
    8538                      .dwattr $C$DW$1219, DW_AT_type(*$C$DW$T$27)
    8539                      .dwattr $C$DW$1219, DW_AT_name("SPIRXBUF")
    8540                      .dwattr $C$DW$1219, DW_AT_TI_symbol_name("_SPIRXBUF")
    8541                      .dwattr $C$DW$1219, DW_AT_data_member_location[DW_OP_plus_uconst 0x7]
    8542                      .dwattr $C$DW$1219, DW_AT_accessibility(DW_ACCESS_public)
    8543              $C$DW$1220      .dwtag  DW_TAG_member
    8544                      .dwattr $C$DW$1220, DW_AT_type(*$C$DW$T$27)
    8545                      .dwattr $C$DW$1220, DW_AT_name("SPITXBUF")
    8546                      .dwattr $C$DW$1220, DW_AT_TI_symbol_name("_SPITXBUF")
    8547                      .dwattr $C$DW$1220, DW_AT_data_member_location[DW_OP_plus_uconst 0x8]
    8548                      .dwattr $C$DW$1220, DW_AT_accessibility(DW_ACCESS_public)
    8549              $C$DW$1221      .dwtag  DW_TAG_member
    8550                      .dwattr $C$DW$1221, DW_AT_type(*$C$DW$T$27)
    8551                      .dwattr $C$DW$1221, DW_AT_name("SPIDAT")
    8552                      .dwattr $C$DW$1221, DW_AT_TI_symbol_name("_SPIDAT")
    8553                      .dwattr $C$DW$1221, DW_AT_data_member_location[DW_OP_plus_uconst 0x9]
    8554                      .dwattr $C$DW$1221, DW_AT_accessibility(DW_ACCESS_public)
TMS320C2000 Assembler PC v6.4.4 Wed Jul 08 12:49:31 2015

Tools Copyright (c) 1996-2015 Texas Instruments Incorporated
C:\Users\grant\AppData\Local\Temp\0448010                            PAGE  164

    8555              $C$DW$1222      .dwtag  DW_TAG_member
    8556                      .dwattr $C$DW$1222, DW_AT_type(*$C$DW$T$27)
    8557                      .dwattr $C$DW$1222, DW_AT_name("SPIFFTX")
    8558                      .dwattr $C$DW$1222, DW_AT_TI_symbol_name("_SPIFFTX")
    8559                      .dwattr $C$DW$1222, DW_AT_data_member_location[DW_OP_plus_uconst 0xa]
    8560                      .dwattr $C$DW$1222, DW_AT_accessibility(DW_ACCESS_public)
    8561              $C$DW$1223      .dwtag  DW_TAG_member
    8562                      .dwattr $C$DW$1223, DW_AT_type(*$C$DW$T$27)
    8563                      .dwattr $C$DW$1223, DW_AT_name("SPIFFRX")
    8564                      .dwattr $C$DW$1223, DW_AT_TI_symbol_name("_SPIFFRX")
    8565                      .dwattr $C$DW$1223, DW_AT_data_member_location[DW_OP_plus_uconst 0xb]
    8566                      .dwattr $C$DW$1223, DW_AT_accessibility(DW_ACCESS_public)
    8567              $C$DW$1224      .dwtag  DW_TAG_member
    8568                      .dwattr $C$DW$1224, DW_AT_type(*$C$DW$T$27)
    8569                      .dwattr $C$DW$1224, DW_AT_name("SPIFFCT")
    8570                      .dwattr $C$DW$1224, DW_AT_TI_symbol_name("_SPIFFCT")
    8571                      .dwattr $C$DW$1224, DW_AT_data_member_location[DW_OP_plus_uconst 0xc]
    8572                      .dwattr $C$DW$1224, DW_AT_accessibility(DW_ACCESS_public)
    8573              $C$DW$1225      .dwtag  DW_TAG_member
    8574                      .dwattr $C$DW$1225, DW_AT_type(*$C$DW$T$30)
    8575                      .dwattr $C$DW$1225, DW_AT_name("rsvd_3")
    8576                      .dwattr $C$DW$1225, DW_AT_TI_symbol_name("_rsvd_3")
    8577                      .dwattr $C$DW$1225, DW_AT_data_member_location[DW_OP_plus_uconst 0xd]
    8578                      .dwattr $C$DW$1225, DW_AT_accessibility(DW_ACCESS_public)
    8579              $C$DW$1226      .dwtag  DW_TAG_member
    8580                      .dwattr $C$DW$1226, DW_AT_type(*$C$DW$T$27)
    8581                      .dwattr $C$DW$1226, DW_AT_name("SPIPRI")
    8582                      .dwattr $C$DW$1226, DW_AT_TI_symbol_name("_SPIPRI")
    8583                      .dwattr $C$DW$1226, DW_AT_data_member_location[DW_OP_plus_uconst 0xf]
    8584                      .dwattr $C$DW$1226, DW_AT_accessibility(DW_ACCESS_public)
    8585                      .dwendtag $C$DW$T$191
    8586              
    8587              $C$DW$T$78      .dwtag  DW_TAG_pointer_type
    8588                      .dwattr $C$DW$T$78, DW_AT_type(*$C$DW$T$191)
    8589                      .dwattr $C$DW$T$78, DW_AT_address_class(0x20)
    8590              $C$DW$T$79      .dwtag  DW_TAG_typedef, DW_AT_name("SPI_Handle")
    8591                      .dwattr $C$DW$T$79, DW_AT_type(*$C$DW$T$78)
    8592                      .dwattr $C$DW$T$79, DW_AT_language(DW_LANG_C)
    8593              
    8594              $C$DW$T$192     .dwtag  DW_TAG_structure_type
    8595                      .dwattr $C$DW$T$192, DW_AT_name("_SVGEN_Obj_")
    8596                      .dwattr $C$DW$T$192, DW_AT_byte_size(0x02)
    8597              $C$DW$1227      .dwtag  DW_TAG_member
    8598                      .dwattr $C$DW$1227, DW_AT_type(*$C$DW$T$35)
    8599                      .dwattr $C$DW$1227, DW_AT_name("maxModulation")
    8600                      .dwattr $C$DW$1227, DW_AT_TI_symbol_name("_maxModulation")
    8601                      .dwattr $C$DW$1227, DW_AT_data_member_location[DW_OP_plus_uconst 0x0]
    8602                      .dwattr $C$DW$1227, DW_AT_accessibility(DW_ACCESS_public)
    8603                      .dwendtag $C$DW$T$192
    8604              
    8605              $C$DW$T$62      .dwtag  DW_TAG_typedef, DW_AT_name("SVGEN_Obj")
    8606                      .dwattr $C$DW$T$62, DW_AT_type(*$C$DW$T$192)
    8607                      .dwattr $C$DW$T$62, DW_AT_language(DW_LANG_C)
    8608              $C$DW$T$60      .dwtag  DW_TAG_pointer_type
    8609                      .dwattr $C$DW$T$60, DW_AT_type(*$C$DW$T$192)
TMS320C2000 Assembler PC v6.4.4 Wed Jul 08 12:49:31 2015

Tools Copyright (c) 1996-2015 Texas Instruments Incorporated
C:\Users\grant\AppData\Local\Temp\0448010                            PAGE  165

    8610                      .dwattr $C$DW$T$60, DW_AT_address_class(0x20)
    8611              $C$DW$T$61      .dwtag  DW_TAG_typedef, DW_AT_name("SVGEN_Handle")
    8612                      .dwattr $C$DW$T$61, DW_AT_type(*$C$DW$T$60)
    8613                      .dwattr $C$DW$T$61, DW_AT_language(DW_LANG_C)
    8614              
    8615              $C$DW$T$193     .dwtag  DW_TAG_structure_type
    8616                      .dwattr $C$DW$T$193, DW_AT_name("_TIMER_Obj_")
    8617                      .dwattr $C$DW$T$193, DW_AT_byte_size(0x08)
    8618              $C$DW$1228      .dwtag  DW_TAG_member
    8619                      .dwattr $C$DW$1228, DW_AT_type(*$C$DW$T$114)
    8620                      .dwattr $C$DW$1228, DW_AT_name("TIM")
    8621                      .dwattr $C$DW$1228, DW_AT_TI_symbol_name("_TIM")
    8622                      .dwattr $C$DW$1228, DW_AT_data_member_location[DW_OP_plus_uconst 0x0]
    8623                      .dwattr $C$DW$1228, DW_AT_accessibility(DW_ACCESS_public)
    8624              $C$DW$1229      .dwtag  DW_TAG_member
    8625                      .dwattr $C$DW$1229, DW_AT_type(*$C$DW$T$114)
    8626                      .dwattr $C$DW$1229, DW_AT_name("PRD")
    8627                      .dwattr $C$DW$1229, DW_AT_TI_symbol_name("_PRD")
    8628                      .dwattr $C$DW$1229, DW_AT_data_member_location[DW_OP_plus_uconst 0x2]
    8629                      .dwattr $C$DW$1229, DW_AT_accessibility(DW_ACCESS_public)
    8630              $C$DW$1230      .dwtag  DW_TAG_member
    8631                      .dwattr $C$DW$1230, DW_AT_type(*$C$DW$T$27)
    8632                      .dwattr $C$DW$1230, DW_AT_name("TCR")
    8633                      .dwattr $C$DW$1230, DW_AT_TI_symbol_name("_TCR")
    8634                      .dwattr $C$DW$1230, DW_AT_data_member_location[DW_OP_plus_uconst 0x4]
    8635                      .dwattr $C$DW$1230, DW_AT_accessibility(DW_ACCESS_public)
    8636              $C$DW$1231      .dwtag  DW_TAG_member
    8637                      .dwattr $C$DW$1231, DW_AT_type(*$C$DW$T$27)
    8638                      .dwattr $C$DW$1231, DW_AT_name("resvd_1")
    8639                      .dwattr $C$DW$1231, DW_AT_TI_symbol_name("_resvd_1")
    8640                      .dwattr $C$DW$1231, DW_AT_data_member_location[DW_OP_plus_uconst 0x5]
    8641                      .dwattr $C$DW$1231, DW_AT_accessibility(DW_ACCESS_public)
    8642              $C$DW$1232      .dwtag  DW_TAG_member
    8643                      .dwattr $C$DW$1232, DW_AT_type(*$C$DW$T$114)
    8644                      .dwattr $C$DW$1232, DW_AT_name("TPR")
    8645                      .dwattr $C$DW$1232, DW_AT_TI_symbol_name("_TPR")
    8646                      .dwattr $C$DW$1232, DW_AT_data_member_location[DW_OP_plus_uconst 0x6]
    8647                      .dwattr $C$DW$1232, DW_AT_accessibility(DW_ACCESS_public)
    8648                      .dwendtag $C$DW$T$193
    8649              
    8650              $C$DW$T$145     .dwtag  DW_TAG_pointer_type
    8651                      .dwattr $C$DW$T$145, DW_AT_type(*$C$DW$T$193)
    8652                      .dwattr $C$DW$T$145, DW_AT_address_class(0x20)
    8653              $C$DW$T$146     .dwtag  DW_TAG_typedef, DW_AT_name("TIMER_Handle")
    8654                      .dwattr $C$DW$T$146, DW_AT_type(*$C$DW$T$145)
    8655                      .dwattr $C$DW$T$146, DW_AT_language(DW_LANG_C)
    8656              
    8657              $C$DW$T$147     .dwtag  DW_TAG_array_type
    8658                      .dwattr $C$DW$T$147, DW_AT_type(*$C$DW$T$146)
    8659                      .dwattr $C$DW$T$147, DW_AT_language(DW_LANG_C)
    8660                      .dwattr $C$DW$T$147, DW_AT_byte_size(0x06)
    8661              $C$DW$1233      .dwtag  DW_TAG_subrange_type
    8662                      .dwattr $C$DW$1233, DW_AT_upper_bound(0x02)
    8663                      .dwendtag $C$DW$T$147
    8664              
TMS320C2000 Assembler PC v6.4.4 Wed Jul 08 12:49:31 2015

Tools Copyright (c) 1996-2015 Texas Instruments Incorporated
C:\Users\grant\AppData\Local\Temp\0448010                            PAGE  166

    8665              
    8666              $C$DW$T$194     .dwtag  DW_TAG_structure_type
    8667                      .dwattr $C$DW$T$194, DW_AT_name("_TRAJ_Obj_")
    8668                      .dwattr $C$DW$T$194, DW_AT_byte_size(0x0a)
    8669              $C$DW$1234      .dwtag  DW_TAG_member
    8670                      .dwattr $C$DW$1234, DW_AT_type(*$C$DW$T$35)
    8671                      .dwattr $C$DW$1234, DW_AT_name("targetValue")
    8672                      .dwattr $C$DW$1234, DW_AT_TI_symbol_name("_targetValue")
    8673                      .dwattr $C$DW$1234, DW_AT_data_member_location[DW_OP_plus_uconst 0x0]
    8674                      .dwattr $C$DW$1234, DW_AT_accessibility(DW_ACCESS_public)
    8675              $C$DW$1235      .dwtag  DW_TAG_member
    8676                      .dwattr $C$DW$1235, DW_AT_type(*$C$DW$T$35)
    8677                      .dwattr $C$DW$1235, DW_AT_name("intValue")
    8678                      .dwattr $C$DW$1235, DW_AT_TI_symbol_name("_intValue")
    8679                      .dwattr $C$DW$1235, DW_AT_data_member_location[DW_OP_plus_uconst 0x2]
    8680                      .dwattr $C$DW$1235, DW_AT_accessibility(DW_ACCESS_public)
    8681              $C$DW$1236      .dwtag  DW_TAG_member
    8682                      .dwattr $C$DW$1236, DW_AT_type(*$C$DW$T$35)
    8683                      .dwattr $C$DW$1236, DW_AT_name("minValue")
    8684                      .dwattr $C$DW$1236, DW_AT_TI_symbol_name("_minValue")
    8685                      .dwattr $C$DW$1236, DW_AT_data_member_location[DW_OP_plus_uconst 0x4]
    8686                      .dwattr $C$DW$1236, DW_AT_accessibility(DW_ACCESS_public)
    8687              $C$DW$1237      .dwtag  DW_TAG_member
    8688                      .dwattr $C$DW$1237, DW_AT_type(*$C$DW$T$35)
    8689                      .dwattr $C$DW$1237, DW_AT_name("maxValue")
    8690                      .dwattr $C$DW$1237, DW_AT_TI_symbol_name("_maxValue")
    8691                      .dwattr $C$DW$1237, DW_AT_data_member_location[DW_OP_plus_uconst 0x6]
    8692                      .dwattr $C$DW$1237, DW_AT_accessibility(DW_ACCESS_public)
    8693              $C$DW$1238      .dwtag  DW_TAG_member
    8694                      .dwattr $C$DW$1238, DW_AT_type(*$C$DW$T$35)
    8695                      .dwattr $C$DW$1238, DW_AT_name("maxDelta")
    8696                      .dwattr $C$DW$1238, DW_AT_TI_symbol_name("_maxDelta")
    8697                      .dwattr $C$DW$1238, DW_AT_data_member_location[DW_OP_plus_uconst 0x8]
    8698                      .dwattr $C$DW$1238, DW_AT_accessibility(DW_ACCESS_public)
    8699                      .dwendtag $C$DW$T$194
    8700              
    8701              $C$DW$T$65      .dwtag  DW_TAG_typedef, DW_AT_name("TRAJ_Obj")
    8702                      .dwattr $C$DW$T$65, DW_AT_type(*$C$DW$T$194)
    8703                      .dwattr $C$DW$T$65, DW_AT_language(DW_LANG_C)
    8704              $C$DW$T$63      .dwtag  DW_TAG_pointer_type
    8705                      .dwattr $C$DW$T$63, DW_AT_type(*$C$DW$T$194)
    8706                      .dwattr $C$DW$T$63, DW_AT_address_class(0x20)
    8707              $C$DW$T$64      .dwtag  DW_TAG_typedef, DW_AT_name("TRAJ_Handle")
    8708                      .dwattr $C$DW$T$64, DW_AT_type(*$C$DW$T$63)
    8709                      .dwattr $C$DW$T$64, DW_AT_language(DW_LANG_C)
    8710              
    8711              $C$DW$T$198     .dwtag  DW_TAG_structure_type
    8712                      .dwattr $C$DW$T$198, DW_AT_name("_USER_Params_")
    8713                      .dwattr $C$DW$T$198, DW_AT_byte_size(0xac)
    8714              $C$DW$1239      .dwtag  DW_TAG_member
    8715                      .dwattr $C$DW$1239, DW_AT_type(*$C$DW$T$71)
    8716                      .dwattr $C$DW$1239, DW_AT_name("iqFullScaleCurrent_A")
    8717                      .dwattr $C$DW$1239, DW_AT_TI_symbol_name("_iqFullScaleCurrent_A")
    8718                      .dwattr $C$DW$1239, DW_AT_data_member_location[DW_OP_plus_uconst 0x0]
    8719                      .dwattr $C$DW$1239, DW_AT_accessibility(DW_ACCESS_public)
TMS320C2000 Assembler PC v6.4.4 Wed Jul 08 12:49:31 2015

Tools Copyright (c) 1996-2015 Texas Instruments Incorporated
C:\Users\grant\AppData\Local\Temp\0448010                            PAGE  167

    8720              $C$DW$1240      .dwtag  DW_TAG_member
    8721                      .dwattr $C$DW$1240, DW_AT_type(*$C$DW$T$71)
    8722                      .dwattr $C$DW$1240, DW_AT_name("iqFullScaleVoltage_V")
    8723                      .dwattr $C$DW$1240, DW_AT_TI_symbol_name("_iqFullScaleVoltage_V")
    8724                      .dwattr $C$DW$1240, DW_AT_data_member_location[DW_OP_plus_uconst 0x2]
    8725                      .dwattr $C$DW$1240, DW_AT_accessibility(DW_ACCESS_public)
    8726              $C$DW$1241      .dwtag  DW_TAG_member
    8727                      .dwattr $C$DW$1241, DW_AT_type(*$C$DW$T$71)
    8728                      .dwattr $C$DW$1241, DW_AT_name("iqFullScaleFreq_Hz")
    8729                      .dwattr $C$DW$1241, DW_AT_TI_symbol_name("_iqFullScaleFreq_Hz")
    8730                      .dwattr $C$DW$1241, DW_AT_data_member_location[DW_OP_plus_uconst 0x4]
    8731                      .dwattr $C$DW$1241, DW_AT_accessibility(DW_ACCESS_public)
    8732              $C$DW$1242      .dwtag  DW_TAG_member
    8733                      .dwattr $C$DW$1242, DW_AT_type(*$C$DW$T$70)
    8734                      .dwattr $C$DW$1242, DW_AT_name("numIsrTicksPerCtrlTick")
    8735                      .dwattr $C$DW$1242, DW_AT_TI_symbol_name("_numIsrTicksPerCtrlTick")
    8736                      .dwattr $C$DW$1242, DW_AT_data_member_location[DW_OP_plus_uconst 0x6]
    8737                      .dwattr $C$DW$1242, DW_AT_accessibility(DW_ACCESS_public)
    8738              $C$DW$1243      .dwtag  DW_TAG_member
    8739                      .dwattr $C$DW$1243, DW_AT_type(*$C$DW$T$70)
    8740                      .dwattr $C$DW$1243, DW_AT_name("numCtrlTicksPerCurrentTick")
    8741                      .dwattr $C$DW$1243, DW_AT_TI_symbol_name("_numCtrlTicksPerCurrentTick")
    8742                      .dwattr $C$DW$1243, DW_AT_data_member_location[DW_OP_plus_uconst 0x7]
    8743                      .dwattr $C$DW$1243, DW_AT_accessibility(DW_ACCESS_public)
    8744              $C$DW$1244      .dwtag  DW_TAG_member
    8745                      .dwattr $C$DW$1244, DW_AT_type(*$C$DW$T$70)
    8746                      .dwattr $C$DW$1244, DW_AT_name("numCtrlTicksPerEstTick")
    8747                      .dwattr $C$DW$1244, DW_AT_TI_symbol_name("_numCtrlTicksPerEstTick")
    8748                      .dwattr $C$DW$1244, DW_AT_data_member_location[DW_OP_plus_uconst 0x8]
    8749                      .dwattr $C$DW$1244, DW_AT_accessibility(DW_ACCESS_public)
    8750              $C$DW$1245      .dwtag  DW_TAG_member
    8751                      .dwattr $C$DW$1245, DW_AT_type(*$C$DW$T$70)
    8752                      .dwattr $C$DW$1245, DW_AT_name("numCtrlTicksPerSpeedTick")
    8753                      .dwattr $C$DW$1245, DW_AT_TI_symbol_name("_numCtrlTicksPerSpeedTick")
    8754                      .dwattr $C$DW$1245, DW_AT_data_member_location[DW_OP_plus_uconst 0x9]
    8755                      .dwattr $C$DW$1245, DW_AT_accessibility(DW_ACCESS_public)
    8756              $C$DW$1246      .dwtag  DW_TAG_member
    8757                      .dwattr $C$DW$1246, DW_AT_type(*$C$DW$T$70)
    8758                      .dwattr $C$DW$1246, DW_AT_name("numCtrlTicksPerTrajTick")
    8759                      .dwattr $C$DW$1246, DW_AT_TI_symbol_name("_numCtrlTicksPerTrajTick")
    8760                      .dwattr $C$DW$1246, DW_AT_data_member_location[DW_OP_plus_uconst 0xa]
    8761                      .dwattr $C$DW$1246, DW_AT_accessibility(DW_ACCESS_public)
    8762              $C$DW$1247      .dwtag  DW_TAG_member
    8763                      .dwattr $C$DW$1247, DW_AT_type(*$C$DW$T$36)
    8764                      .dwattr $C$DW$1247, DW_AT_name("numCurrentSensors")
    8765                      .dwattr $C$DW$1247, DW_AT_TI_symbol_name("_numCurrentSensors")
    8766                      .dwattr $C$DW$1247, DW_AT_data_member_location[DW_OP_plus_uconst 0xb]
    8767                      .dwattr $C$DW$1247, DW_AT_accessibility(DW_ACCESS_public)
    8768              $C$DW$1248      .dwtag  DW_TAG_member
    8769                      .dwattr $C$DW$1248, DW_AT_type(*$C$DW$T$36)
    8770                      .dwattr $C$DW$1248, DW_AT_name("numVoltageSensors")
    8771                      .dwattr $C$DW$1248, DW_AT_TI_symbol_name("_numVoltageSensors")
    8772                      .dwattr $C$DW$1248, DW_AT_data_member_location[DW_OP_plus_uconst 0xc]
    8773                      .dwattr $C$DW$1248, DW_AT_accessibility(DW_ACCESS_public)
    8774              $C$DW$1249      .dwtag  DW_TAG_member
TMS320C2000 Assembler PC v6.4.4 Wed Jul 08 12:49:31 2015

Tools Copyright (c) 1996-2015 Texas Instruments Incorporated
C:\Users\grant\AppData\Local\Temp\0448010                            PAGE  168

    8775                      .dwattr $C$DW$1249, DW_AT_type(*$C$DW$T$71)
    8776                      .dwattr $C$DW$1249, DW_AT_name("offsetPole_rps")
    8777                      .dwattr $C$DW$1249, DW_AT_TI_symbol_name("_offsetPole_rps")
    8778                      .dwattr $C$DW$1249, DW_AT_data_member_location[DW_OP_plus_uconst 0xe]
    8779                      .dwattr $C$DW$1249, DW_AT_accessibility(DW_ACCESS_public)
    8780              $C$DW$1250      .dwtag  DW_TAG_member
    8781                      .dwattr $C$DW$1250, DW_AT_type(*$C$DW$T$71)
    8782                      .dwattr $C$DW$1250, DW_AT_name("fluxPole_rps")
    8783                      .dwattr $C$DW$1250, DW_AT_TI_symbol_name("_fluxPole_rps")
    8784                      .dwattr $C$DW$1250, DW_AT_data_member_location[DW_OP_plus_uconst 0x10]
    8785                      .dwattr $C$DW$1250, DW_AT_accessibility(DW_ACCESS_public)
    8786              $C$DW$1251      .dwtag  DW_TAG_member
    8787                      .dwattr $C$DW$1251, DW_AT_type(*$C$DW$T$71)
    8788                      .dwattr $C$DW$1251, DW_AT_name("zeroSpeedLimit")
    8789                      .dwattr $C$DW$1251, DW_AT_TI_symbol_name("_zeroSpeedLimit")
    8790                      .dwattr $C$DW$1251, DW_AT_data_member_location[DW_OP_plus_uconst 0x12]
    8791                      .dwattr $C$DW$1251, DW_AT_accessibility(DW_ACCESS_public)
    8792              $C$DW$1252      .dwtag  DW_TAG_member
    8793                      .dwattr $C$DW$1252, DW_AT_type(*$C$DW$T$71)
    8794                      .dwattr $C$DW$1252, DW_AT_name("forceAngleFreq_Hz")
    8795                      .dwattr $C$DW$1252, DW_AT_TI_symbol_name("_forceAngleFreq_Hz")
    8796                      .dwattr $C$DW$1252, DW_AT_data_member_location[DW_OP_plus_uconst 0x14]
    8797                      .dwattr $C$DW$1252, DW_AT_accessibility(DW_ACCESS_public)
    8798              $C$DW$1253      .dwtag  DW_TAG_member
    8799                      .dwattr $C$DW$1253, DW_AT_type(*$C$DW$T$71)
    8800                      .dwattr $C$DW$1253, DW_AT_name("maxAccel_Hzps")
    8801                      .dwattr $C$DW$1253, DW_AT_TI_symbol_name("_maxAccel_Hzps")
    8802                      .dwattr $C$DW$1253, DW_AT_data_member_location[DW_OP_plus_uconst 0x16]
    8803                      .dwattr $C$DW$1253, DW_AT_accessibility(DW_ACCESS_public)
    8804              $C$DW$1254      .dwtag  DW_TAG_member
    8805                      .dwattr $C$DW$1254, DW_AT_type(*$C$DW$T$71)
    8806                      .dwattr $C$DW$1254, DW_AT_name("maxAccel_est_Hzps")
    8807                      .dwattr $C$DW$1254, DW_AT_TI_symbol_name("_maxAccel_est_Hzps")
    8808                      .dwattr $C$DW$1254, DW_AT_data_member_location[DW_OP_plus_uconst 0x18]
    8809                      .dwattr $C$DW$1254, DW_AT_accessibility(DW_ACCESS_public)
    8810              $C$DW$1255      .dwtag  DW_TAG_member
    8811                      .dwattr $C$DW$1255, DW_AT_type(*$C$DW$T$71)
    8812                      .dwattr $C$DW$1255, DW_AT_name("directionPole_rps")
    8813                      .dwattr $C$DW$1255, DW_AT_TI_symbol_name("_directionPole_rps")
    8814                      .dwattr $C$DW$1255, DW_AT_data_member_location[DW_OP_plus_uconst 0x1a]
    8815                      .dwattr $C$DW$1255, DW_AT_accessibility(DW_ACCESS_public)
    8816              $C$DW$1256      .dwtag  DW_TAG_member
    8817                      .dwattr $C$DW$1256, DW_AT_type(*$C$DW$T$71)
    8818                      .dwattr $C$DW$1256, DW_AT_name("speedPole_rps")
    8819                      .dwattr $C$DW$1256, DW_AT_TI_symbol_name("_speedPole_rps")
    8820                      .dwattr $C$DW$1256, DW_AT_data_member_location[DW_OP_plus_uconst 0x1c]
    8821                      .dwattr $C$DW$1256, DW_AT_accessibility(DW_ACCESS_public)
    8822              $C$DW$1257      .dwtag  DW_TAG_member
    8823                      .dwattr $C$DW$1257, DW_AT_type(*$C$DW$T$71)
    8824                      .dwattr $C$DW$1257, DW_AT_name("dcBusPole_rps")
    8825                      .dwattr $C$DW$1257, DW_AT_TI_symbol_name("_dcBusPole_rps")
    8826                      .dwattr $C$DW$1257, DW_AT_data_member_location[DW_OP_plus_uconst 0x1e]
    8827                      .dwattr $C$DW$1257, DW_AT_accessibility(DW_ACCESS_public)
    8828              $C$DW$1258      .dwtag  DW_TAG_member
    8829                      .dwattr $C$DW$1258, DW_AT_type(*$C$DW$T$71)
TMS320C2000 Assembler PC v6.4.4 Wed Jul 08 12:49:31 2015

Tools Copyright (c) 1996-2015 Texas Instruments Incorporated
C:\Users\grant\AppData\Local\Temp\0448010                            PAGE  169

    8830                      .dwattr $C$DW$1258, DW_AT_name("fluxFraction")
    8831                      .dwattr $C$DW$1258, DW_AT_TI_symbol_name("_fluxFraction")
    8832                      .dwattr $C$DW$1258, DW_AT_data_member_location[DW_OP_plus_uconst 0x20]
    8833                      .dwattr $C$DW$1258, DW_AT_accessibility(DW_ACCESS_public)
    8834              $C$DW$1259      .dwtag  DW_TAG_member
    8835                      .dwattr $C$DW$1259, DW_AT_type(*$C$DW$T$71)
    8836                      .dwattr $C$DW$1259, DW_AT_name("indEst_speedMaxFraction")
    8837                      .dwattr $C$DW$1259, DW_AT_TI_symbol_name("_indEst_speedMaxFraction")
    8838                      .dwattr $C$DW$1259, DW_AT_data_member_location[DW_OP_plus_uconst 0x22]
    8839                      .dwattr $C$DW$1259, DW_AT_accessibility(DW_ACCESS_public)
    8840              $C$DW$1260      .dwtag  DW_TAG_member
    8841                      .dwattr $C$DW$1260, DW_AT_type(*$C$DW$T$71)
    8842                      .dwattr $C$DW$1260, DW_AT_name("powerWarpGain")
    8843                      .dwattr $C$DW$1260, DW_AT_TI_symbol_name("_powerWarpGain")
    8844                      .dwattr $C$DW$1260, DW_AT_data_member_location[DW_OP_plus_uconst 0x24]
    8845                      .dwattr $C$DW$1260, DW_AT_accessibility(DW_ACCESS_public)
    8846              $C$DW$1261      .dwtag  DW_TAG_member
    8847                      .dwattr $C$DW$1261, DW_AT_type(*$C$DW$T$70)
    8848                      .dwattr $C$DW$1261, DW_AT_name("systemFreq_MHz")
    8849                      .dwattr $C$DW$1261, DW_AT_TI_symbol_name("_systemFreq_MHz")
    8850                      .dwattr $C$DW$1261, DW_AT_data_member_location[DW_OP_plus_uconst 0x26]
    8851                      .dwattr $C$DW$1261, DW_AT_accessibility(DW_ACCESS_public)
    8852              $C$DW$1262      .dwtag  DW_TAG_member
    8853                      .dwattr $C$DW$1262, DW_AT_type(*$C$DW$T$71)
    8854                      .dwattr $C$DW$1262, DW_AT_name("pwmPeriod_usec")
    8855                      .dwattr $C$DW$1262, DW_AT_TI_symbol_name("_pwmPeriod_usec")
    8856                      .dwattr $C$DW$1262, DW_AT_data_member_location[DW_OP_plus_uconst 0x28]
    8857                      .dwattr $C$DW$1262, DW_AT_accessibility(DW_ACCESS_public)
    8858              $C$DW$1263      .dwtag  DW_TAG_member
    8859                      .dwattr $C$DW$1263, DW_AT_type(*$C$DW$T$71)
    8860                      .dwattr $C$DW$1263, DW_AT_name("voltage_sf")
    8861                      .dwattr $C$DW$1263, DW_AT_TI_symbol_name("_voltage_sf")
    8862                      .dwattr $C$DW$1263, DW_AT_data_member_location[DW_OP_plus_uconst 0x2a]
    8863                      .dwattr $C$DW$1263, DW_AT_accessibility(DW_ACCESS_public)
    8864              $C$DW$1264      .dwtag  DW_TAG_member
    8865                      .dwattr $C$DW$1264, DW_AT_type(*$C$DW$T$71)
    8866                      .dwattr $C$DW$1264, DW_AT_name("current_sf")
    8867                      .dwattr $C$DW$1264, DW_AT_TI_symbol_name("_current_sf")
    8868                      .dwattr $C$DW$1264, DW_AT_data_member_location[DW_OP_plus_uconst 0x2c]
    8869                      .dwattr $C$DW$1264, DW_AT_accessibility(DW_ACCESS_public)
    8870              $C$DW$1265      .dwtag  DW_TAG_member
    8871                      .dwattr $C$DW$1265, DW_AT_type(*$C$DW$T$71)
    8872                      .dwattr $C$DW$1265, DW_AT_name("voltageFilterPole_rps")
    8873                      .dwattr $C$DW$1265, DW_AT_TI_symbol_name("_voltageFilterPole_rps")
    8874                      .dwattr $C$DW$1265, DW_AT_data_member_location[DW_OP_plus_uconst 0x2e]
    8875                      .dwattr $C$DW$1265, DW_AT_accessibility(DW_ACCESS_public)
    8876              $C$DW$1266      .dwtag  DW_TAG_member
    8877                      .dwattr $C$DW$1266, DW_AT_type(*$C$DW$T$71)
    8878                      .dwattr $C$DW$1266, DW_AT_name("maxVsMag_pu")
    8879                      .dwattr $C$DW$1266, DW_AT_TI_symbol_name("_maxVsMag_pu")
    8880                      .dwattr $C$DW$1266, DW_AT_data_member_location[DW_OP_plus_uconst 0x30]
    8881                      .dwattr $C$DW$1266, DW_AT_accessibility(DW_ACCESS_public)
    8882              $C$DW$1267      .dwtag  DW_TAG_member
    8883                      .dwattr $C$DW$1267, DW_AT_type(*$C$DW$T$71)
    8884                      .dwattr $C$DW$1267, DW_AT_name("estKappa")
TMS320C2000 Assembler PC v6.4.4 Wed Jul 08 12:49:31 2015

Tools Copyright (c) 1996-2015 Texas Instruments Incorporated
C:\Users\grant\AppData\Local\Temp\0448010                            PAGE  170

    8885                      .dwattr $C$DW$1267, DW_AT_TI_symbol_name("_estKappa")
    8886                      .dwattr $C$DW$1267, DW_AT_data_member_location[DW_OP_plus_uconst 0x32]
    8887                      .dwattr $C$DW$1267, DW_AT_accessibility(DW_ACCESS_public)
    8888              $C$DW$1268      .dwtag  DW_TAG_member
    8889                      .dwattr $C$DW$1268, DW_AT_type(*$C$DW$T$162)
    8890                      .dwattr $C$DW$1268, DW_AT_name("motor_type")
    8891                      .dwattr $C$DW$1268, DW_AT_TI_symbol_name("_motor_type")
    8892                      .dwattr $C$DW$1268, DW_AT_data_member_location[DW_OP_plus_uconst 0x34]
    8893                      .dwattr $C$DW$1268, DW_AT_accessibility(DW_ACCESS_public)
    8894              $C$DW$1269      .dwtag  DW_TAG_member
    8895                      .dwattr $C$DW$1269, DW_AT_type(*$C$DW$T$70)
    8896                      .dwattr $C$DW$1269, DW_AT_name("motor_numPolePairs")
    8897                      .dwattr $C$DW$1269, DW_AT_TI_symbol_name("_motor_numPolePairs")
    8898                      .dwattr $C$DW$1269, DW_AT_data_member_location[DW_OP_plus_uconst 0x35]
    8899                      .dwattr $C$DW$1269, DW_AT_accessibility(DW_ACCESS_public)
    8900              $C$DW$1270      .dwtag  DW_TAG_member
    8901                      .dwattr $C$DW$1270, DW_AT_type(*$C$DW$T$71)
    8902                      .dwattr $C$DW$1270, DW_AT_name("motor_ratedFlux")
    8903                      .dwattr $C$DW$1270, DW_AT_TI_symbol_name("_motor_ratedFlux")
    8904                      .dwattr $C$DW$1270, DW_AT_data_member_location[DW_OP_plus_uconst 0x36]
    8905                      .dwattr $C$DW$1270, DW_AT_accessibility(DW_ACCESS_public)
    8906              $C$DW$1271      .dwtag  DW_TAG_member
    8907                      .dwattr $C$DW$1271, DW_AT_type(*$C$DW$T$71)
    8908                      .dwattr $C$DW$1271, DW_AT_name("motor_Rr")
    8909                      .dwattr $C$DW$1271, DW_AT_TI_symbol_name("_motor_Rr")
    8910                      .dwattr $C$DW$1271, DW_AT_data_member_location[DW_OP_plus_uconst 0x38]
    8911                      .dwattr $C$DW$1271, DW_AT_accessibility(DW_ACCESS_public)
    8912              $C$DW$1272      .dwtag  DW_TAG_member
    8913                      .dwattr $C$DW$1272, DW_AT_type(*$C$DW$T$71)
    8914                      .dwattr $C$DW$1272, DW_AT_name("motor_Rs")
    8915                      .dwattr $C$DW$1272, DW_AT_TI_symbol_name("_motor_Rs")
    8916                      .dwattr $C$DW$1272, DW_AT_data_member_location[DW_OP_plus_uconst 0x3a]
    8917                      .dwattr $C$DW$1272, DW_AT_accessibility(DW_ACCESS_public)
    8918              $C$DW$1273      .dwtag  DW_TAG_member
    8919                      .dwattr $C$DW$1273, DW_AT_type(*$C$DW$T$71)
    8920                      .dwattr $C$DW$1273, DW_AT_name("motor_Ls_d")
    8921                      .dwattr $C$DW$1273, DW_AT_TI_symbol_name("_motor_Ls_d")
    8922                      .dwattr $C$DW$1273, DW_AT_data_member_location[DW_OP_plus_uconst 0x3c]
    8923                      .dwattr $C$DW$1273, DW_AT_accessibility(DW_ACCESS_public)
    8924              $C$DW$1274      .dwtag  DW_TAG_member
    8925                      .dwattr $C$DW$1274, DW_AT_type(*$C$DW$T$71)
    8926                      .dwattr $C$DW$1274, DW_AT_name("motor_Ls_q")
    8927                      .dwattr $C$DW$1274, DW_AT_TI_symbol_name("_motor_Ls_q")
    8928                      .dwattr $C$DW$1274, DW_AT_data_member_location[DW_OP_plus_uconst 0x3e]
    8929                      .dwattr $C$DW$1274, DW_AT_accessibility(DW_ACCESS_public)
    8930              $C$DW$1275      .dwtag  DW_TAG_member
    8931                      .dwattr $C$DW$1275, DW_AT_type(*$C$DW$T$71)
    8932                      .dwattr $C$DW$1275, DW_AT_name("maxCurrent")
    8933                      .dwattr $C$DW$1275, DW_AT_TI_symbol_name("_maxCurrent")
    8934                      .dwattr $C$DW$1275, DW_AT_data_member_location[DW_OP_plus_uconst 0x40]
    8935                      .dwattr $C$DW$1275, DW_AT_accessibility(DW_ACCESS_public)
    8936              $C$DW$1276      .dwtag  DW_TAG_member
    8937                      .dwattr $C$DW$1276, DW_AT_type(*$C$DW$T$71)
    8938                      .dwattr $C$DW$1276, DW_AT_name("maxCurrent_resEst")
    8939                      .dwattr $C$DW$1276, DW_AT_TI_symbol_name("_maxCurrent_resEst")
TMS320C2000 Assembler PC v6.4.4 Wed Jul 08 12:49:31 2015

Tools Copyright (c) 1996-2015 Texas Instruments Incorporated
C:\Users\grant\AppData\Local\Temp\0448010                            PAGE  171

    8940                      .dwattr $C$DW$1276, DW_AT_data_member_location[DW_OP_plus_uconst 0x42]
    8941                      .dwattr $C$DW$1276, DW_AT_accessibility(DW_ACCESS_public)
    8942              $C$DW$1277      .dwtag  DW_TAG_member
    8943                      .dwattr $C$DW$1277, DW_AT_type(*$C$DW$T$71)
    8944                      .dwattr $C$DW$1277, DW_AT_name("maxCurrent_indEst")
    8945                      .dwattr $C$DW$1277, DW_AT_TI_symbol_name("_maxCurrent_indEst")
    8946                      .dwattr $C$DW$1277, DW_AT_data_member_location[DW_OP_plus_uconst 0x44]
    8947                      .dwattr $C$DW$1277, DW_AT_accessibility(DW_ACCESS_public)
    8948              $C$DW$1278      .dwtag  DW_TAG_member
    8949                      .dwattr $C$DW$1278, DW_AT_type(*$C$DW$T$71)
    8950                      .dwattr $C$DW$1278, DW_AT_name("maxCurrentSlope")
    8951                      .dwattr $C$DW$1278, DW_AT_TI_symbol_name("_maxCurrentSlope")
    8952                      .dwattr $C$DW$1278, DW_AT_data_member_location[DW_OP_plus_uconst 0x46]
    8953                      .dwattr $C$DW$1278, DW_AT_accessibility(DW_ACCESS_public)
    8954              $C$DW$1279      .dwtag  DW_TAG_member
    8955                      .dwattr $C$DW$1279, DW_AT_type(*$C$DW$T$71)
    8956                      .dwattr $C$DW$1279, DW_AT_name("maxCurrentSlope_powerWarp")
    8957                      .dwattr $C$DW$1279, DW_AT_TI_symbol_name("_maxCurrentSlope_powerWarp")
    8958                      .dwattr $C$DW$1279, DW_AT_data_member_location[DW_OP_plus_uconst 0x48]
    8959                      .dwattr $C$DW$1279, DW_AT_accessibility(DW_ACCESS_public)
    8960              $C$DW$1280      .dwtag  DW_TAG_member
    8961                      .dwattr $C$DW$1280, DW_AT_type(*$C$DW$T$71)
    8962                      .dwattr $C$DW$1280, DW_AT_name("IdRated")
    8963                      .dwattr $C$DW$1280, DW_AT_TI_symbol_name("_IdRated")
    8964                      .dwattr $C$DW$1280, DW_AT_data_member_location[DW_OP_plus_uconst 0x4a]
    8965                      .dwattr $C$DW$1280, DW_AT_accessibility(DW_ACCESS_public)
    8966              $C$DW$1281      .dwtag  DW_TAG_member
    8967                      .dwattr $C$DW$1281, DW_AT_type(*$C$DW$T$71)
    8968                      .dwattr $C$DW$1281, DW_AT_name("IdRatedFraction_indEst")
    8969                      .dwattr $C$DW$1281, DW_AT_TI_symbol_name("_IdRatedFraction_indEst")
    8970                      .dwattr $C$DW$1281, DW_AT_data_member_location[DW_OP_plus_uconst 0x4c]
    8971                      .dwattr $C$DW$1281, DW_AT_accessibility(DW_ACCESS_public)
    8972              $C$DW$1282      .dwtag  DW_TAG_member
    8973                      .dwattr $C$DW$1282, DW_AT_type(*$C$DW$T$71)
    8974                      .dwattr $C$DW$1282, DW_AT_name("IdRatedFraction_ratedFlux")
    8975                      .dwattr $C$DW$1282, DW_AT_TI_symbol_name("_IdRatedFraction_ratedFlux")
    8976                      .dwattr $C$DW$1282, DW_AT_data_member_location[DW_OP_plus_uconst 0x4e]
    8977                      .dwattr $C$DW$1282, DW_AT_accessibility(DW_ACCESS_public)
    8978              $C$DW$1283      .dwtag  DW_TAG_member
    8979                      .dwattr $C$DW$1283, DW_AT_type(*$C$DW$T$71)
    8980                      .dwattr $C$DW$1283, DW_AT_name("IdRated_delta")
    8981                      .dwattr $C$DW$1283, DW_AT_TI_symbol_name("_IdRated_delta")
    8982                      .dwattr $C$DW$1283, DW_AT_data_member_location[DW_OP_plus_uconst 0x50]
    8983                      .dwattr $C$DW$1283, DW_AT_accessibility(DW_ACCESS_public)
    8984              $C$DW$1284      .dwtag  DW_TAG_member
    8985                      .dwattr $C$DW$1284, DW_AT_type(*$C$DW$T$71)
    8986                      .dwattr $C$DW$1284, DW_AT_name("fluxEstFreq_Hz")
    8987                      .dwattr $C$DW$1284, DW_AT_TI_symbol_name("_fluxEstFreq_Hz")
    8988                      .dwattr $C$DW$1284, DW_AT_data_member_location[DW_OP_plus_uconst 0x52]
    8989                      .dwattr $C$DW$1284, DW_AT_accessibility(DW_ACCESS_public)
    8990              $C$DW$1285      .dwtag  DW_TAG_member
    8991                      .dwattr $C$DW$1285, DW_AT_type(*$C$DW$T$69)
    8992                      .dwattr $C$DW$1285, DW_AT_name("ctrlWaitTime")
    8993                      .dwattr $C$DW$1285, DW_AT_TI_symbol_name("_ctrlWaitTime")
    8994                      .dwattr $C$DW$1285, DW_AT_data_member_location[DW_OP_plus_uconst 0x54]
TMS320C2000 Assembler PC v6.4.4 Wed Jul 08 12:49:31 2015

Tools Copyright (c) 1996-2015 Texas Instruments Incorporated
C:\Users\grant\AppData\Local\Temp\0448010                            PAGE  172

    8995                      .dwattr $C$DW$1285, DW_AT_accessibility(DW_ACCESS_public)
    8996              $C$DW$1286      .dwtag  DW_TAG_member
    8997                      .dwattr $C$DW$1286, DW_AT_type(*$C$DW$T$195)
    8998                      .dwattr $C$DW$1286, DW_AT_name("estWaitTime")
    8999                      .dwattr $C$DW$1286, DW_AT_TI_symbol_name("_estWaitTime")
    9000                      .dwattr $C$DW$1286, DW_AT_data_member_location[DW_OP_plus_uconst 0x5c]
    9001                      .dwattr $C$DW$1286, DW_AT_accessibility(DW_ACCESS_public)
    9002              $C$DW$1287      .dwtag  DW_TAG_member
    9003                      .dwattr $C$DW$1287, DW_AT_type(*$C$DW$T$196)
    9004                      .dwattr $C$DW$1287, DW_AT_name("FluxWaitTime")
    9005                      .dwattr $C$DW$1287, DW_AT_TI_symbol_name("_FluxWaitTime")
    9006                      .dwattr $C$DW$1287, DW_AT_data_member_location[DW_OP_plus_uconst 0x78]
    9007                      .dwattr $C$DW$1287, DW_AT_accessibility(DW_ACCESS_public)
    9008              $C$DW$1288      .dwtag  DW_TAG_member
    9009                      .dwattr $C$DW$1288, DW_AT_type(*$C$DW$T$197)
    9010                      .dwattr $C$DW$1288, DW_AT_name("LsWaitTime")
    9011                      .dwattr $C$DW$1288, DW_AT_TI_symbol_name("_LsWaitTime")
    9012                      .dwattr $C$DW$1288, DW_AT_data_member_location[DW_OP_plus_uconst 0x84]
    9013                      .dwattr $C$DW$1288, DW_AT_accessibility(DW_ACCESS_public)
    9014              $C$DW$1289      .dwtag  DW_TAG_member
    9015                      .dwattr $C$DW$1289, DW_AT_type(*$C$DW$T$196)
    9016                      .dwattr $C$DW$1289, DW_AT_name("RsWaitTime")
    9017                      .dwattr $C$DW$1289, DW_AT_TI_symbol_name("_RsWaitTime")
    9018                      .dwattr $C$DW$1289, DW_AT_data_member_location[DW_OP_plus_uconst 0x92]
    9019                      .dwattr $C$DW$1289, DW_AT_accessibility(DW_ACCESS_public)
    9020              $C$DW$1290      .dwtag  DW_TAG_member
    9021                      .dwattr $C$DW$1290, DW_AT_type(*$C$DW$T$68)
    9022                      .dwattr $C$DW$1290, DW_AT_name("ctrlFreq_Hz")
    9023                      .dwattr $C$DW$1290, DW_AT_TI_symbol_name("_ctrlFreq_Hz")
    9024                      .dwattr $C$DW$1290, DW_AT_data_member_location[DW_OP_plus_uconst 0x9e]
    9025                      .dwattr $C$DW$1290, DW_AT_accessibility(DW_ACCESS_public)
    9026              $C$DW$1291      .dwtag  DW_TAG_member
    9027                      .dwattr $C$DW$1291, DW_AT_type(*$C$DW$T$68)
    9028                      .dwattr $C$DW$1291, DW_AT_name("estFreq_Hz")
    9029                      .dwattr $C$DW$1291, DW_AT_TI_symbol_name("_estFreq_Hz")
    9030                      .dwattr $C$DW$1291, DW_AT_data_member_location[DW_OP_plus_uconst 0xa0]
    9031                      .dwattr $C$DW$1291, DW_AT_accessibility(DW_ACCESS_public)
    9032              $C$DW$1292      .dwtag  DW_TAG_member
    9033                      .dwattr $C$DW$1292, DW_AT_type(*$C$DW$T$68)
    9034                      .dwattr $C$DW$1292, DW_AT_name("RoverL_estFreq_Hz")
    9035                      .dwattr $C$DW$1292, DW_AT_TI_symbol_name("_RoverL_estFreq_Hz")
    9036                      .dwattr $C$DW$1292, DW_AT_data_member_location[DW_OP_plus_uconst 0xa2]
    9037                      .dwattr $C$DW$1292, DW_AT_accessibility(DW_ACCESS_public)
    9038              $C$DW$1293      .dwtag  DW_TAG_member
    9039                      .dwattr $C$DW$1293, DW_AT_type(*$C$DW$T$68)
    9040                      .dwattr $C$DW$1293, DW_AT_name("trajFreq_Hz")
    9041                      .dwattr $C$DW$1293, DW_AT_TI_symbol_name("_trajFreq_Hz")
    9042                      .dwattr $C$DW$1293, DW_AT_data_member_location[DW_OP_plus_uconst 0xa4]
    9043                      .dwattr $C$DW$1293, DW_AT_accessibility(DW_ACCESS_public)
    9044              $C$DW$1294      .dwtag  DW_TAG_member
    9045                      .dwattr $C$DW$1294, DW_AT_type(*$C$DW$T$71)
    9046                      .dwattr $C$DW$1294, DW_AT_name("ctrlPeriod_sec")
    9047                      .dwattr $C$DW$1294, DW_AT_TI_symbol_name("_ctrlPeriod_sec")
    9048                      .dwattr $C$DW$1294, DW_AT_data_member_location[DW_OP_plus_uconst 0xa6]
    9049                      .dwattr $C$DW$1294, DW_AT_accessibility(DW_ACCESS_public)
TMS320C2000 Assembler PC v6.4.4 Wed Jul 08 12:49:31 2015

Tools Copyright (c) 1996-2015 Texas Instruments Incorporated
C:\Users\grant\AppData\Local\Temp\0448010                            PAGE  173

    9050              $C$DW$1295      .dwtag  DW_TAG_member
    9051                      .dwattr $C$DW$1295, DW_AT_type(*$C$DW$T$71)
    9052                      .dwattr $C$DW$1295, DW_AT_name("maxNegativeIdCurrent_a")
    9053                      .dwattr $C$DW$1295, DW_AT_TI_symbol_name("_maxNegativeIdCurrent_a")
    9054                      .dwattr $C$DW$1295, DW_AT_data_member_location[DW_OP_plus_uconst 0xa8]
    9055                      .dwattr $C$DW$1295, DW_AT_accessibility(DW_ACCESS_public)
    9056              $C$DW$1296      .dwtag  DW_TAG_member
    9057                      .dwattr $C$DW$1296, DW_AT_type(*$C$DW$T$167)
    9058                      .dwattr $C$DW$1296, DW_AT_name("errorCode")
    9059                      .dwattr $C$DW$1296, DW_AT_TI_symbol_name("_errorCode")
    9060                      .dwattr $C$DW$1296, DW_AT_data_member_location[DW_OP_plus_uconst 0xaa]
    9061                      .dwattr $C$DW$1296, DW_AT_accessibility(DW_ACCESS_public)
    9062                      .dwendtag $C$DW$T$198
    9063              
    9064              $C$DW$T$207     .dwtag  DW_TAG_typedef, DW_AT_name("USER_Params")
    9065                      .dwattr $C$DW$T$207, DW_AT_type(*$C$DW$T$198)
    9066                      .dwattr $C$DW$T$207, DW_AT_language(DW_LANG_C)
    9067              $C$DW$1297      .dwtag  DW_TAG_TI_far_type
    9068                      .dwattr $C$DW$1297, DW_AT_type(*$C$DW$T$207)
    9069              $C$DW$T$297     .dwtag  DW_TAG_const_type
    9070                      .dwattr $C$DW$T$297, DW_AT_type(*$C$DW$1297)
    9071              $C$DW$T$298     .dwtag  DW_TAG_pointer_type
    9072                      .dwattr $C$DW$T$298, DW_AT_type(*$C$DW$T$297)
    9073                      .dwattr $C$DW$T$298, DW_AT_address_class(0x20)
    9074              $C$DW$T$208     .dwtag  DW_TAG_pointer_type
    9075                      .dwattr $C$DW$T$208, DW_AT_type(*$C$DW$T$207)
    9076                      .dwattr $C$DW$T$208, DW_AT_address_class(0x20)
    9077              
    9078              $C$DW$T$199     .dwtag  DW_TAG_structure_type
    9079                      .dwattr $C$DW$T$199, DW_AT_name("_WDOG_Obj_")
    9080                      .dwattr $C$DW$T$199, DW_AT_byte_size(0x08)
    9081              $C$DW$1298      .dwtag  DW_TAG_member
    9082                      .dwattr $C$DW$1298, DW_AT_type(*$C$DW$T$27)
    9083                      .dwattr $C$DW$1298, DW_AT_name("SCSR")
    9084                      .dwattr $C$DW$1298, DW_AT_TI_symbol_name("_SCSR")
    9085                      .dwattr $C$DW$1298, DW_AT_data_member_location[DW_OP_plus_uconst 0x0]
    9086                      .dwattr $C$DW$1298, DW_AT_accessibility(DW_ACCESS_public)
    9087              $C$DW$1299      .dwtag  DW_TAG_member
    9088                      .dwattr $C$DW$1299, DW_AT_type(*$C$DW$T$27)
    9089                      .dwattr $C$DW$1299, DW_AT_name("WDCNTR")
    9090                      .dwattr $C$DW$1299, DW_AT_TI_symbol_name("_WDCNTR")
    9091                      .dwattr $C$DW$1299, DW_AT_data_member_location[DW_OP_plus_uconst 0x1]
    9092                      .dwattr $C$DW$1299, DW_AT_accessibility(DW_ACCESS_public)
    9093              $C$DW$1300      .dwtag  DW_TAG_member
    9094                      .dwattr $C$DW$1300, DW_AT_type(*$C$DW$T$27)
    9095                      .dwattr $C$DW$1300, DW_AT_name("rsvd_1")
    9096                      .dwattr $C$DW$1300, DW_AT_TI_symbol_name("_rsvd_1")
    9097                      .dwattr $C$DW$1300, DW_AT_data_member_location[DW_OP_plus_uconst 0x2]
    9098                      .dwattr $C$DW$1300, DW_AT_accessibility(DW_ACCESS_public)
    9099              $C$DW$1301      .dwtag  DW_TAG_member
    9100                      .dwattr $C$DW$1301, DW_AT_type(*$C$DW$T$27)
    9101                      .dwattr $C$DW$1301, DW_AT_name("WDKEY")
    9102                      .dwattr $C$DW$1301, DW_AT_TI_symbol_name("_WDKEY")
    9103                      .dwattr $C$DW$1301, DW_AT_data_member_location[DW_OP_plus_uconst 0x3]
    9104                      .dwattr $C$DW$1301, DW_AT_accessibility(DW_ACCESS_public)
TMS320C2000 Assembler PC v6.4.4 Wed Jul 08 12:49:31 2015

Tools Copyright (c) 1996-2015 Texas Instruments Incorporated
C:\Users\grant\AppData\Local\Temp\0448010                            PAGE  174

    9105              $C$DW$1302      .dwtag  DW_TAG_member
    9106                      .dwattr $C$DW$1302, DW_AT_type(*$C$DW$T$32)
    9107                      .dwattr $C$DW$1302, DW_AT_name("rsvd_2")
    9108                      .dwattr $C$DW$1302, DW_AT_TI_symbol_name("_rsvd_2")
    9109                      .dwattr $C$DW$1302, DW_AT_data_member_location[DW_OP_plus_uconst 0x4]
    9110                      .dwattr $C$DW$1302, DW_AT_accessibility(DW_ACCESS_public)
    9111              $C$DW$1303      .dwtag  DW_TAG_member
    9112                      .dwattr $C$DW$1303, DW_AT_type(*$C$DW$T$27)
    9113                      .dwattr $C$DW$1303, DW_AT_name("WDCR")
    9114                      .dwattr $C$DW$1303, DW_AT_TI_symbol_name("_WDCR")
    9115                      .dwattr $C$DW$1303, DW_AT_data_member_location[DW_OP_plus_uconst 0x7]
    9116                      .dwattr $C$DW$1303, DW_AT_accessibility(DW_ACCESS_public)
    9117                      .dwendtag $C$DW$T$199
    9118              
    9119              $C$DW$T$148     .dwtag  DW_TAG_pointer_type
    9120                      .dwattr $C$DW$T$148, DW_AT_type(*$C$DW$T$199)
    9121                      .dwattr $C$DW$T$148, DW_AT_address_class(0x20)
    9122              $C$DW$T$149     .dwtag  DW_TAG_typedef, DW_AT_name("WDOG_Handle")
    9123                      .dwattr $C$DW$T$149, DW_AT_type(*$C$DW$T$148)
    9124                      .dwattr $C$DW$T$149, DW_AT_language(DW_LANG_C)
    9125              $C$DW$T$2       .dwtag  DW_TAG_unspecified_type
    9126                      .dwattr $C$DW$T$2, DW_AT_name("void")
    9127              $C$DW$T$3       .dwtag  DW_TAG_pointer_type
    9128                      .dwattr $C$DW$T$3, DW_AT_type(*$C$DW$T$2)
    9129                      .dwattr $C$DW$T$3, DW_AT_address_class(0x20)
    9130              
    9131              $C$DW$T$181     .dwtag  DW_TAG_subroutine_type
    9132                      .dwattr $C$DW$T$181, DW_AT_language(DW_LANG_C)
    9133              $C$DW$T$182     .dwtag  DW_TAG_pointer_type
    9134                      .dwattr $C$DW$T$182, DW_AT_type(*$C$DW$T$181)
    9135                      .dwattr $C$DW$T$182, DW_AT_address_class(0x20)
    9136              $C$DW$T$183     .dwtag  DW_TAG_typedef, DW_AT_name("PIE_IntVec_t")
    9137                      .dwattr $C$DW$T$183, DW_AT_type(*$C$DW$T$182)
    9138                      .dwattr $C$DW$T$183, DW_AT_language(DW_LANG_C)
    9139              $C$DW$1304      .dwtag  DW_TAG_TI_far_type
    9140                      .dwattr $C$DW$1304, DW_AT_type(*$C$DW$T$183)
    9141              $C$DW$T$184     .dwtag  DW_TAG_volatile_type
    9142                      .dwattr $C$DW$T$184, DW_AT_type(*$C$DW$1304)
    9143              $C$DW$T$4       .dwtag  DW_TAG_base_type
    9144                      .dwattr $C$DW$T$4, DW_AT_encoding(DW_ATE_boolean)
    9145                      .dwattr $C$DW$T$4, DW_AT_name("bool")
    9146                      .dwattr $C$DW$T$4, DW_AT_byte_size(0x01)
    9147              $C$DW$T$5       .dwtag  DW_TAG_base_type
    9148                      .dwattr $C$DW$T$5, DW_AT_encoding(DW_ATE_signed_char)
    9149                      .dwattr $C$DW$T$5, DW_AT_name("signed char")
    9150                      .dwattr $C$DW$T$5, DW_AT_byte_size(0x01)
    9151              $C$DW$T$6       .dwtag  DW_TAG_base_type
    9152                      .dwattr $C$DW$T$6, DW_AT_encoding(DW_ATE_unsigned_char)
    9153                      .dwattr $C$DW$T$6, DW_AT_name("unsigned char")
    9154                      .dwattr $C$DW$T$6, DW_AT_byte_size(0x01)
    9155              $C$DW$T$7       .dwtag  DW_TAG_base_type
    9156                      .dwattr $C$DW$T$7, DW_AT_encoding(DW_ATE_signed_char)
    9157                      .dwattr $C$DW$T$7, DW_AT_name("wchar_t")
    9158                      .dwattr $C$DW$T$7, DW_AT_byte_size(0x01)
    9159              $C$DW$T$8       .dwtag  DW_TAG_base_type
TMS320C2000 Assembler PC v6.4.4 Wed Jul 08 12:49:31 2015

Tools Copyright (c) 1996-2015 Texas Instruments Incorporated
C:\Users\grant\AppData\Local\Temp\0448010                            PAGE  175

    9160                      .dwattr $C$DW$T$8, DW_AT_encoding(DW_ATE_signed)
    9161                      .dwattr $C$DW$T$8, DW_AT_name("short")
    9162                      .dwattr $C$DW$T$8, DW_AT_byte_size(0x01)
    9163              $C$DW$T$9       .dwtag  DW_TAG_base_type
    9164                      .dwattr $C$DW$T$9, DW_AT_encoding(DW_ATE_unsigned)
    9165                      .dwattr $C$DW$T$9, DW_AT_name("unsigned short")
    9166                      .dwattr $C$DW$T$9, DW_AT_byte_size(0x01)
    9167              $C$DW$T$10      .dwtag  DW_TAG_base_type
    9168                      .dwattr $C$DW$T$10, DW_AT_encoding(DW_ATE_signed)
    9169                      .dwattr $C$DW$T$10, DW_AT_name("int")
    9170                      .dwattr $C$DW$T$10, DW_AT_byte_size(0x01)
    9171              $C$DW$T$11      .dwtag  DW_TAG_base_type
    9172                      .dwattr $C$DW$T$11, DW_AT_encoding(DW_ATE_unsigned)
    9173                      .dwattr $C$DW$T$11, DW_AT_name("unsigned int")
    9174                      .dwattr $C$DW$T$11, DW_AT_byte_size(0x01)
    9175              $C$DW$T$26      .dwtag  DW_TAG_typedef, DW_AT_name("uint16_t")
    9176                      .dwattr $C$DW$T$26, DW_AT_type(*$C$DW$T$11)
    9177                      .dwattr $C$DW$T$26, DW_AT_language(DW_LANG_C)
    9178              $C$DW$1305      .dwtag  DW_TAG_TI_far_type
    9179                      .dwattr $C$DW$1305, DW_AT_type(*$C$DW$T$26)
    9180              $C$DW$T$27      .dwtag  DW_TAG_volatile_type
    9181                      .dwattr $C$DW$T$27, DW_AT_type(*$C$DW$1305)
    9182              
    9183              $C$DW$T$28      .dwtag  DW_TAG_array_type
    9184                      .dwattr $C$DW$T$28, DW_AT_type(*$C$DW$T$27)
    9185                      .dwattr $C$DW$T$28, DW_AT_language(DW_LANG_C)
    9186                      .dwattr $C$DW$T$28, DW_AT_byte_size(0x10)
    9187              $C$DW$1306      .dwtag  DW_TAG_subrange_type
    9188                      .dwattr $C$DW$1306, DW_AT_upper_bound(0x0f)
    9189                      .dwendtag $C$DW$T$28
    9190              
    9191              
    9192              $C$DW$T$29      .dwtag  DW_TAG_array_type
    9193                      .dwattr $C$DW$T$29, DW_AT_type(*$C$DW$T$27)
    9194                      .dwattr $C$DW$T$29, DW_AT_language(DW_LANG_C)
    9195                      .dwattr $C$DW$T$29, DW_AT_byte_size(0x65f0)
    9196              $C$DW$1307      .dwtag  DW_TAG_subrange_type
    9197                      .dwattr $C$DW$1307, DW_AT_upper_bound(0x65ef)
    9198                      .dwendtag $C$DW$T$29
    9199              
    9200              
    9201              $C$DW$T$30      .dwtag  DW_TAG_array_type
    9202                      .dwattr $C$DW$T$30, DW_AT_type(*$C$DW$T$27)
    9203                      .dwattr $C$DW$T$30, DW_AT_language(DW_LANG_C)
    9204                      .dwattr $C$DW$T$30, DW_AT_byte_size(0x02)
    9205              $C$DW$1308      .dwtag  DW_TAG_subrange_type
    9206                      .dwattr $C$DW$1308, DW_AT_upper_bound(0x01)
    9207                      .dwendtag $C$DW$T$30
    9208              
    9209              
    9210              $C$DW$T$31      .dwtag  DW_TAG_array_type
    9211                      .dwattr $C$DW$T$31, DW_AT_type(*$C$DW$T$27)
    9212                      .dwattr $C$DW$T$31, DW_AT_language(DW_LANG_C)
    9213                      .dwattr $C$DW$T$31, DW_AT_byte_size(0x05)
    9214              $C$DW$1309      .dwtag  DW_TAG_subrange_type
TMS320C2000 Assembler PC v6.4.4 Wed Jul 08 12:49:31 2015

Tools Copyright (c) 1996-2015 Texas Instruments Incorporated
C:\Users\grant\AppData\Local\Temp\0448010                            PAGE  176

    9215                      .dwattr $C$DW$1309, DW_AT_upper_bound(0x04)
    9216                      .dwendtag $C$DW$T$31
    9217              
    9218              
    9219              $C$DW$T$32      .dwtag  DW_TAG_array_type
    9220                      .dwattr $C$DW$T$32, DW_AT_type(*$C$DW$T$27)
    9221                      .dwattr $C$DW$T$32, DW_AT_language(DW_LANG_C)
    9222                      .dwattr $C$DW$T$32, DW_AT_byte_size(0x03)
    9223              $C$DW$1310      .dwtag  DW_TAG_subrange_type
    9224                      .dwattr $C$DW$1310, DW_AT_upper_bound(0x02)
    9225                      .dwendtag $C$DW$T$32
    9226              
    9227              
    9228              $C$DW$T$33      .dwtag  DW_TAG_array_type
    9229                      .dwattr $C$DW$T$33, DW_AT_type(*$C$DW$T$27)
    9230                      .dwattr $C$DW$T$33, DW_AT_language(DW_LANG_C)
    9231                      .dwattr $C$DW$T$33, DW_AT_byte_size(0x0d)
    9232              $C$DW$1311      .dwtag  DW_TAG_subrange_type
    9233                      .dwattr $C$DW$1311, DW_AT_upper_bound(0x0c)
    9234                      .dwendtag $C$DW$T$33
    9235              
    9236              
    9237              $C$DW$T$38      .dwtag  DW_TAG_array_type
    9238                      .dwattr $C$DW$T$38, DW_AT_type(*$C$DW$T$27)
    9239                      .dwattr $C$DW$T$38, DW_AT_language(DW_LANG_C)
    9240                      .dwattr $C$DW$T$38, DW_AT_byte_size(0x08)
    9241              $C$DW$1312      .dwtag  DW_TAG_subrange_type
    9242                      .dwattr $C$DW$1312, DW_AT_upper_bound(0x07)
    9243                      .dwendtag $C$DW$T$38
    9244              
    9245              
    9246              $C$DW$T$115     .dwtag  DW_TAG_array_type
    9247                      .dwattr $C$DW$T$115, DW_AT_type(*$C$DW$T$27)
    9248                      .dwattr $C$DW$T$115, DW_AT_language(DW_LANG_C)
    9249                      .dwattr $C$DW$T$115, DW_AT_byte_size(0x18)
    9250              $C$DW$1313      .dwtag  DW_TAG_subrange_type
    9251                      .dwattr $C$DW$1313, DW_AT_upper_bound(0x17)
    9252                      .dwendtag $C$DW$T$115
    9253              
    9254              
    9255              $C$DW$T$116     .dwtag  DW_TAG_array_type
    9256                      .dwattr $C$DW$T$116, DW_AT_type(*$C$DW$T$27)
    9257                      .dwattr $C$DW$T$116, DW_AT_language(DW_LANG_C)
    9258                      .dwattr $C$DW$T$116, DW_AT_byte_size(0x04)
    9259              $C$DW$1314      .dwtag  DW_TAG_subrange_type
    9260                      .dwattr $C$DW$1314, DW_AT_upper_bound(0x03)
    9261                      .dwendtag $C$DW$T$116
    9262              
    9263              
    9264              $C$DW$T$180     .dwtag  DW_TAG_array_type
    9265                      .dwattr $C$DW$T$180, DW_AT_type(*$C$DW$T$27)
    9266                      .dwattr $C$DW$T$180, DW_AT_language(DW_LANG_C)
    9267                      .dwattr $C$DW$T$180, DW_AT_byte_size(0x06)
    9268              $C$DW$1315      .dwtag  DW_TAG_subrange_type
    9269                      .dwattr $C$DW$1315, DW_AT_upper_bound(0x05)
TMS320C2000 Assembler PC v6.4.4 Wed Jul 08 12:49:31 2015

Tools Copyright (c) 1996-2015 Texas Instruments Incorporated
C:\Users\grant\AppData\Local\Temp\0448010                            PAGE  177

    9270                      .dwendtag $C$DW$T$180
    9271              
    9272              
    9273              $C$DW$T$185     .dwtag  DW_TAG_array_type
    9274                      .dwattr $C$DW$T$185, DW_AT_type(*$C$DW$T$27)
    9275                      .dwattr $C$DW$T$185, DW_AT_language(DW_LANG_C)
    9276                      .dwattr $C$DW$T$185, DW_AT_byte_size(0x6270)
    9277              $C$DW$1316      .dwtag  DW_TAG_subrange_type
    9278                      .dwattr $C$DW$1316, DW_AT_upper_bound(0x626f)
    9279                      .dwendtag $C$DW$T$185
    9280              
    9281              
    9282              $C$DW$T$189     .dwtag  DW_TAG_array_type
    9283                      .dwattr $C$DW$T$189, DW_AT_type(*$C$DW$T$27)
    9284                      .dwattr $C$DW$T$189, DW_AT_language(DW_LANG_C)
    9285                      .dwattr $C$DW$T$189, DW_AT_byte_size(0x6698)
    9286              $C$DW$1317      .dwtag  DW_TAG_subrange_type
    9287                      .dwattr $C$DW$1317, DW_AT_upper_bound(0x6697)
    9288                      .dwendtag $C$DW$T$189
    9289              
    9290              $C$DW$T$70      .dwtag  DW_TAG_typedef, DW_AT_name("uint_least16_t")
    9291                      .dwattr $C$DW$T$70, DW_AT_type(*$C$DW$T$26)
    9292                      .dwattr $C$DW$T$70, DW_AT_language(DW_LANG_C)
    9293              $C$DW$T$36      .dwtag  DW_TAG_typedef, DW_AT_name("uint_least8_t")
    9294                      .dwattr $C$DW$T$36, DW_AT_type(*$C$DW$T$26)
    9295                      .dwattr $C$DW$T$36, DW_AT_language(DW_LANG_C)
    9296              $C$DW$1318      .dwtag  DW_TAG_TI_far_type
    9297                      .dwattr $C$DW$1318, DW_AT_type(*$C$DW$T$36)
    9298              $C$DW$T$239     .dwtag  DW_TAG_const_type
    9299                      .dwattr $C$DW$T$239, DW_AT_type(*$C$DW$1318)
    9300              $C$DW$T$12      .dwtag  DW_TAG_base_type
    9301                      .dwattr $C$DW$T$12, DW_AT_encoding(DW_ATE_signed)
    9302                      .dwattr $C$DW$T$12, DW_AT_name("long")
    9303                      .dwattr $C$DW$T$12, DW_AT_byte_size(0x02)
    9304              $C$DW$T$35      .dwtag  DW_TAG_typedef, DW_AT_name("_iq")
    9305                      .dwattr $C$DW$T$35, DW_AT_type(*$C$DW$T$12)
    9306                      .dwattr $C$DW$T$35, DW_AT_language(DW_LANG_C)
    9307              
    9308              $C$DW$T$157     .dwtag  DW_TAG_array_type
    9309                      .dwattr $C$DW$T$157, DW_AT_type(*$C$DW$T$35)
    9310                      .dwattr $C$DW$T$157, DW_AT_language(DW_LANG_C)
    9311                      .dwattr $C$DW$T$157, DW_AT_byte_size(0x04)
    9312              $C$DW$1319      .dwtag  DW_TAG_subrange_type
    9313                      .dwattr $C$DW$1319, DW_AT_upper_bound(0x01)
    9314                      .dwendtag $C$DW$T$157
    9315              
    9316              
    9317              $C$DW$T$159     .dwtag  DW_TAG_array_type
    9318                      .dwattr $C$DW$T$159, DW_AT_type(*$C$DW$T$35)
    9319                      .dwattr $C$DW$T$159, DW_AT_language(DW_LANG_C)
    9320                      .dwattr $C$DW$T$159, DW_AT_byte_size(0x06)
    9321              $C$DW$1320      .dwtag  DW_TAG_subrange_type
    9322                      .dwattr $C$DW$1320, DW_AT_upper_bound(0x02)
    9323                      .dwendtag $C$DW$T$159
    9324              
TMS320C2000 Assembler PC v6.4.4 Wed Jul 08 12:49:31 2015

Tools Copyright (c) 1996-2015 Texas Instruments Incorporated
C:\Users\grant\AppData\Local\Temp\0448010                            PAGE  178

    9325              $C$DW$T$309     .dwtag  DW_TAG_pointer_type
    9326                      .dwattr $C$DW$T$309, DW_AT_type(*$C$DW$T$35)
    9327                      .dwattr $C$DW$T$309, DW_AT_address_class(0x20)
    9328              $C$DW$1321      .dwtag  DW_TAG_TI_far_type
    9329                      .dwattr $C$DW$1321, DW_AT_type(*$C$DW$T$35)
    9330              $C$DW$T$301     .dwtag  DW_TAG_const_type
    9331                      .dwattr $C$DW$T$301, DW_AT_type(*$C$DW$1321)
    9332              $C$DW$T$13      .dwtag  DW_TAG_base_type
    9333                      .dwattr $C$DW$T$13, DW_AT_encoding(DW_ATE_unsigned)
    9334                      .dwattr $C$DW$T$13, DW_AT_name("unsigned long")
    9335                      .dwattr $C$DW$T$13, DW_AT_byte_size(0x02)
    9336              $C$DW$T$230     .dwtag  DW_TAG_typedef, DW_AT_name("size_t")
    9337                      .dwattr $C$DW$T$230, DW_AT_type(*$C$DW$T$13)
    9338                      .dwattr $C$DW$T$230, DW_AT_language(DW_LANG_C)
    9339              $C$DW$1322      .dwtag  DW_TAG_TI_far_type
    9340                      .dwattr $C$DW$1322, DW_AT_type(*$C$DW$T$230)
    9341              $C$DW$T$231     .dwtag  DW_TAG_const_type
    9342                      .dwattr $C$DW$T$231, DW_AT_type(*$C$DW$1322)
    9343              $C$DW$T$67      .dwtag  DW_TAG_typedef, DW_AT_name("uint32_t")
    9344                      .dwattr $C$DW$T$67, DW_AT_type(*$C$DW$T$13)
    9345                      .dwattr $C$DW$T$67, DW_AT_language(DW_LANG_C)
    9346              $C$DW$1323      .dwtag  DW_TAG_TI_far_type
    9347                      .dwattr $C$DW$1323, DW_AT_type(*$C$DW$T$67)
    9348              $C$DW$T$114     .dwtag  DW_TAG_volatile_type
    9349                      .dwattr $C$DW$T$114, DW_AT_type(*$C$DW$1323)
    9350              $C$DW$T$68      .dwtag  DW_TAG_typedef, DW_AT_name("uint_least32_t")
    9351                      .dwattr $C$DW$T$68, DW_AT_type(*$C$DW$T$67)
    9352                      .dwattr $C$DW$T$68, DW_AT_language(DW_LANG_C)
    9353              
    9354              $C$DW$T$69      .dwtag  DW_TAG_array_type
    9355                      .dwattr $C$DW$T$69, DW_AT_type(*$C$DW$T$68)
    9356                      .dwattr $C$DW$T$69, DW_AT_language(DW_LANG_C)
    9357                      .dwattr $C$DW$T$69, DW_AT_byte_size(0x08)
    9358              $C$DW$1324      .dwtag  DW_TAG_subrange_type
    9359                      .dwattr $C$DW$1324, DW_AT_upper_bound(0x03)
    9360                      .dwendtag $C$DW$T$69
    9361              
    9362              
    9363              $C$DW$T$195     .dwtag  DW_TAG_array_type
    9364                      .dwattr $C$DW$T$195, DW_AT_type(*$C$DW$T$68)
    9365                      .dwattr $C$DW$T$195, DW_AT_language(DW_LANG_C)
    9366                      .dwattr $C$DW$T$195, DW_AT_byte_size(0x1c)
    9367              $C$DW$1325      .dwtag  DW_TAG_subrange_type
    9368                      .dwattr $C$DW$1325, DW_AT_upper_bound(0x0d)
    9369                      .dwendtag $C$DW$T$195
    9370              
    9371              
    9372              $C$DW$T$196     .dwtag  DW_TAG_array_type
    9373                      .dwattr $C$DW$T$196, DW_AT_type(*$C$DW$T$68)
    9374                      .dwattr $C$DW$T$196, DW_AT_language(DW_LANG_C)
    9375                      .dwattr $C$DW$T$196, DW_AT_byte_size(0x0c)
    9376              $C$DW$1326      .dwtag  DW_TAG_subrange_type
    9377                      .dwattr $C$DW$1326, DW_AT_upper_bound(0x05)
    9378                      .dwendtag $C$DW$T$196
    9379              
TMS320C2000 Assembler PC v6.4.4 Wed Jul 08 12:49:31 2015

Tools Copyright (c) 1996-2015 Texas Instruments Incorporated
C:\Users\grant\AppData\Local\Temp\0448010                            PAGE  179

    9380              
    9381              $C$DW$T$197     .dwtag  DW_TAG_array_type
    9382                      .dwattr $C$DW$T$197, DW_AT_type(*$C$DW$T$68)
    9383                      .dwattr $C$DW$T$197, DW_AT_language(DW_LANG_C)
    9384                      .dwattr $C$DW$T$197, DW_AT_byte_size(0x0e)
    9385              $C$DW$1327      .dwtag  DW_TAG_subrange_type
    9386                      .dwattr $C$DW$1327, DW_AT_upper_bound(0x06)
    9387                      .dwendtag $C$DW$T$197
    9388              
    9389              $C$DW$T$14      .dwtag  DW_TAG_base_type
    9390                      .dwattr $C$DW$T$14, DW_AT_encoding(DW_ATE_signed)
    9391                      .dwattr $C$DW$T$14, DW_AT_name("long long")
    9392                      .dwattr $C$DW$T$14, DW_AT_byte_size(0x04)
    9393              $C$DW$T$15      .dwtag  DW_TAG_base_type
    9394                      .dwattr $C$DW$T$15, DW_AT_encoding(DW_ATE_unsigned)
    9395                      .dwattr $C$DW$T$15, DW_AT_name("unsigned long long")
    9396                      .dwattr $C$DW$T$15, DW_AT_byte_size(0x04)
    9397              $C$DW$T$16      .dwtag  DW_TAG_base_type
    9398                      .dwattr $C$DW$T$16, DW_AT_encoding(DW_ATE_float)
    9399                      .dwattr $C$DW$T$16, DW_AT_name("float")
    9400                      .dwattr $C$DW$T$16, DW_AT_byte_size(0x02)
    9401              $C$DW$T$71      .dwtag  DW_TAG_typedef, DW_AT_name("float_t")
    9402                      .dwattr $C$DW$T$71, DW_AT_type(*$C$DW$T$16)
    9403                      .dwattr $C$DW$T$71, DW_AT_language(DW_LANG_C)
    9404              $C$DW$T$17      .dwtag  DW_TAG_base_type
    9405                      .dwattr $C$DW$T$17, DW_AT_encoding(DW_ATE_float)
    9406                      .dwattr $C$DW$T$17, DW_AT_name("double")
    9407                      .dwattr $C$DW$T$17, DW_AT_byte_size(0x02)
    9408              $C$DW$T$18      .dwtag  DW_TAG_base_type
    9409                      .dwattr $C$DW$T$18, DW_AT_encoding(DW_ATE_float)
    9410                      .dwattr $C$DW$T$18, DW_AT_name("long double")
    9411                      .dwattr $C$DW$T$18, DW_AT_byte_size(0x04)
    9412              $C$DW$T$73      .dwtag  DW_TAG_base_type
    9413                      .dwattr $C$DW$T$73, DW_AT_encoding(DW_ATE_unsigned_char)
    9414                      .dwattr $C$DW$T$73, DW_AT_name("unsigned char")
    9415                      .dwattr $C$DW$T$73, DW_AT_byte_size(0x01)
    9416              $C$DW$1328      .dwtag  DW_TAG_TI_far_type
    9417                      .dwattr $C$DW$1328, DW_AT_type(*$C$DW$T$73)
    9418              $C$DW$T$304     .dwtag  DW_TAG_const_type
    9419                      .dwattr $C$DW$T$304, DW_AT_type(*$C$DW$1328)
    9420                      .dwattr $C$DW$CU, DW_AT_language(DW_LANG_C)
    9421              
    9422              ;***************************************************************
    9423              ;* DWARF CIE ENTRIES                                           *
    9424              ;***************************************************************
    9425              
    9426              $C$DW$CIE       .dwcie 26
    9427                      .dwcfi  cfa_register, 20
    9428                      .dwcfi  cfa_offset, 0
    9429                      .dwcfi  undefined, 0
    9430                      .dwcfi  undefined, 1
    9431                      .dwcfi  undefined, 2
    9432                      .dwcfi  undefined, 3
    9433                      .dwcfi  undefined, 20
    9434                      .dwcfi  undefined, 21
TMS320C2000 Assembler PC v6.4.4 Wed Jul 08 12:49:31 2015

Tools Copyright (c) 1996-2015 Texas Instruments Incorporated
C:\Users\grant\AppData\Local\Temp\0448010                            PAGE  180

    9435                      .dwcfi  undefined, 22
    9436                      .dwcfi  undefined, 23
    9437                      .dwcfi  undefined, 24
    9438                      .dwcfi  undefined, 25
    9439                      .dwcfi  undefined, 26
    9440                      .dwcfi  same_value, 28
    9441                      .dwcfi  undefined, 29
    9442                      .dwcfi  undefined, 30
    9443                      .dwcfi  undefined, 31
    9444                      .dwcfi  undefined, 32
    9445                      .dwcfi  undefined, 33
    9446                      .dwcfi  undefined, 34
    9447                      .dwcfi  undefined, 35
    9448                      .dwcfi  undefined, 36
    9449                      .dwcfi  undefined, 37
    9450                      .dwcfi  undefined, 38
    9451                      .dwcfi  undefined, 75
    9452                      .dwcfi  undefined, 76
    9453                      .dwcfi  undefined, 77
    9454                      .dwcfi  undefined, 4
    9455                      .dwcfi  undefined, 5
    9456                      .dwcfi  same_value, 6
    9457                      .dwcfi  same_value, 7
    9458                      .dwcfi  same_value, 8
    9459                      .dwcfi  same_value, 9
    9460                      .dwcfi  same_value, 10
    9461                      .dwcfi  same_value, 11
    9462                      .dwcfi  undefined, 12
    9463                      .dwcfi  undefined, 13
    9464                      .dwcfi  undefined, 14
    9465                      .dwcfi  undefined, 15
    9466                      .dwcfi  undefined, 16
    9467                      .dwcfi  undefined, 17
    9468                      .dwcfi  undefined, 18
    9469                      .dwcfi  undefined, 19
    9470                      .dwendentry
    9471              
    9472              ;***************************************************************
    9473              ;* DWARF REGISTER MAP                                          *
    9474              ;***************************************************************
    9475              
    9476              $C$DW$1329      .dwtag  DW_TAG_TI_assign_register, DW_AT_name("AL")
    9477                      .dwattr $C$DW$1329, DW_AT_location[DW_OP_reg0]
    9478              $C$DW$1330      .dwtag  DW_TAG_TI_assign_register, DW_AT_name("AH")
    9479                      .dwattr $C$DW$1330, DW_AT_location[DW_OP_reg1]
    9480              $C$DW$1331      .dwtag  DW_TAG_TI_assign_register, DW_AT_name("PL")
    9481                      .dwattr $C$DW$1331, DW_AT_location[DW_OP_reg2]
    9482              $C$DW$1332      .dwtag  DW_TAG_TI_assign_register, DW_AT_name("PH")
    9483                      .dwattr $C$DW$1332, DW_AT_location[DW_OP_reg3]
    9484              $C$DW$1333      .dwtag  DW_TAG_TI_assign_register, DW_AT_name("SP")
    9485                      .dwattr $C$DW$1333, DW_AT_location[DW_OP_reg20]
    9486              $C$DW$1334      .dwtag  DW_TAG_TI_assign_register, DW_AT_name("XT")
    9487                      .dwattr $C$DW$1334, DW_AT_location[DW_OP_reg21]
    9488              $C$DW$1335      .dwtag  DW_TAG_TI_assign_register, DW_AT_name("T")
    9489                      .dwattr $C$DW$1335, DW_AT_location[DW_OP_reg22]
TMS320C2000 Assembler PC v6.4.4 Wed Jul 08 12:49:31 2015

Tools Copyright (c) 1996-2015 Texas Instruments Incorporated
C:\Users\grant\AppData\Local\Temp\0448010                            PAGE  181

    9490              $C$DW$1336      .dwtag  DW_TAG_TI_assign_register, DW_AT_name("ST0")
    9491                      .dwattr $C$DW$1336, DW_AT_location[DW_OP_reg23]
    9492              $C$DW$1337      .dwtag  DW_TAG_TI_assign_register, DW_AT_name("ST1")
    9493                      .dwattr $C$DW$1337, DW_AT_location[DW_OP_reg24]
    9494              $C$DW$1338      .dwtag  DW_TAG_TI_assign_register, DW_AT_name("PC")
    9495                      .dwattr $C$DW$1338, DW_AT_location[DW_OP_reg25]
    9496              $C$DW$1339      .dwtag  DW_TAG_TI_assign_register, DW_AT_name("RPC")
    9497                      .dwattr $C$DW$1339, DW_AT_location[DW_OP_reg26]
    9498              $C$DW$1340      .dwtag  DW_TAG_TI_assign_register, DW_AT_name("FP")
    9499                      .dwattr $C$DW$1340, DW_AT_location[DW_OP_reg28]
    9500              $C$DW$1341      .dwtag  DW_TAG_TI_assign_register, DW_AT_name("DP")
    9501                      .dwattr $C$DW$1341, DW_AT_location[DW_OP_reg29]
    9502              $C$DW$1342      .dwtag  DW_TAG_TI_assign_register, DW_AT_name("SXM")
    9503                      .dwattr $C$DW$1342, DW_AT_location[DW_OP_reg30]
    9504              $C$DW$1343      .dwtag  DW_TAG_TI_assign_register, DW_AT_name("PM")
    9505                      .dwattr $C$DW$1343, DW_AT_location[DW_OP_reg31]
    9506              $C$DW$1344      .dwtag  DW_TAG_TI_assign_register, DW_AT_name("OVM")
    9507                      .dwattr $C$DW$1344, DW_AT_location[DW_OP_regx 0x20]
    9508              $C$DW$1345      .dwtag  DW_TAG_TI_assign_register, DW_AT_name("PAGE0")
    9509                      .dwattr $C$DW$1345, DW_AT_location[DW_OP_regx 0x21]
    9510              $C$DW$1346      .dwtag  DW_TAG_TI_assign_register, DW_AT_name("AMODE")
    9511                      .dwattr $C$DW$1346, DW_AT_location[DW_OP_regx 0x22]
    9512              $C$DW$1347      .dwtag  DW_TAG_TI_assign_register, DW_AT_name("INTM")
    9513                      .dwattr $C$DW$1347, DW_AT_location[DW_OP_regx 0x23]
    9514              $C$DW$1348      .dwtag  DW_TAG_TI_assign_register, DW_AT_name("IFR")
    9515                      .dwattr $C$DW$1348, DW_AT_location[DW_OP_regx 0x24]
    9516              $C$DW$1349      .dwtag  DW_TAG_TI_assign_register, DW_AT_name("IER")
    9517                      .dwattr $C$DW$1349, DW_AT_location[DW_OP_regx 0x25]
    9518              $C$DW$1350      .dwtag  DW_TAG_TI_assign_register, DW_AT_name("V")
    9519                      .dwattr $C$DW$1350, DW_AT_location[DW_OP_regx 0x26]
    9520              $C$DW$1351      .dwtag  DW_TAG_TI_assign_register, DW_AT_name("PSEUDOH")
    9521                      .dwattr $C$DW$1351, DW_AT_location[DW_OP_regx 0x4c]
    9522              $C$DW$1352      .dwtag  DW_TAG_TI_assign_register, DW_AT_name("VOL")
    9523                      .dwattr $C$DW$1352, DW_AT_location[DW_OP_regx 0x4d]
    9524              $C$DW$1353      .dwtag  DW_TAG_TI_assign_register, DW_AT_name("AR0")
    9525                      .dwattr $C$DW$1353, DW_AT_location[DW_OP_reg4]
    9526              $C$DW$1354      .dwtag  DW_TAG_TI_assign_register, DW_AT_name("XAR0")
    9527                      .dwattr $C$DW$1354, DW_AT_location[DW_OP_reg5]
    9528              $C$DW$1355      .dwtag  DW_TAG_TI_assign_register, DW_AT_name("AR1")
    9529                      .dwattr $C$DW$1355, DW_AT_location[DW_OP_reg6]
    9530              $C$DW$1356      .dwtag  DW_TAG_TI_assign_register, DW_AT_name("XAR1")
    9531                      .dwattr $C$DW$1356, DW_AT_location[DW_OP_reg7]
    9532              $C$DW$1357      .dwtag  DW_TAG_TI_assign_register, DW_AT_name("AR2")
    9533                      .dwattr $C$DW$1357, DW_AT_location[DW_OP_reg8]
    9534              $C$DW$1358      .dwtag  DW_TAG_TI_assign_register, DW_AT_name("XAR2")
    9535                      .dwattr $C$DW$1358, DW_AT_location[DW_OP_reg9]
    9536              $C$DW$1359      .dwtag  DW_TAG_TI_assign_register, DW_AT_name("AR3")
    9537                      .dwattr $C$DW$1359, DW_AT_location[DW_OP_reg10]
    9538              $C$DW$1360      .dwtag  DW_TAG_TI_assign_register, DW_AT_name("XAR3")
    9539                      .dwattr $C$DW$1360, DW_AT_location[DW_OP_reg11]
    9540              $C$DW$1361      .dwtag  DW_TAG_TI_assign_register, DW_AT_name("AR4")
    9541                      .dwattr $C$DW$1361, DW_AT_location[DW_OP_reg12]
    9542              $C$DW$1362      .dwtag  DW_TAG_TI_assign_register, DW_AT_name("XAR4")
    9543                      .dwattr $C$DW$1362, DW_AT_location[DW_OP_reg13]
    9544              $C$DW$1363      .dwtag  DW_TAG_TI_assign_register, DW_AT_name("AR5")
TMS320C2000 Assembler PC v6.4.4 Wed Jul 08 12:49:31 2015

Tools Copyright (c) 1996-2015 Texas Instruments Incorporated
C:\Users\grant\AppData\Local\Temp\0448010                            PAGE  182

    9545                      .dwattr $C$DW$1363, DW_AT_location[DW_OP_reg14]
    9546              $C$DW$1364      .dwtag  DW_TAG_TI_assign_register, DW_AT_name("XAR5")
    9547                      .dwattr $C$DW$1364, DW_AT_location[DW_OP_reg15]
    9548              $C$DW$1365      .dwtag  DW_TAG_TI_assign_register, DW_AT_name("AR6")
    9549                      .dwattr $C$DW$1365, DW_AT_location[DW_OP_reg16]
    9550              $C$DW$1366      .dwtag  DW_TAG_TI_assign_register, DW_AT_name("XAR6")
    9551                      .dwattr $C$DW$1366, DW_AT_location[DW_OP_reg17]
    9552              $C$DW$1367      .dwtag  DW_TAG_TI_assign_register, DW_AT_name("AR7")
    9553                      .dwattr $C$DW$1367, DW_AT_location[DW_OP_reg18]
    9554              $C$DW$1368      .dwtag  DW_TAG_TI_assign_register, DW_AT_name("XAR7")
    9555                      .dwattr $C$DW$1368, DW_AT_location[DW_OP_reg19]
    9556                      .dwendtag $C$DW$CU
    9557              

No Assembly Errors, No Assembly Warnings
