TMS320C2000 Assembler PC v6.4.4 Wed Jul 08 12:49:29 2015

Tools Copyright (c) 1996-2015 Texas Instruments Incorporated
C:\Users\grant\AppData\Local\Temp\0102810                            PAGE    1

       1              ;***************************************************************
       2              ;* TMS320C2000 C/C++ Codegen                         PC v6.4.4 *
       3              ;* Date/Time created: Wed Jul 08 12:49:29 2015                 *
       4              ;***************************************************************
       5                      .compiler_opts --float_support=softlib --hll_source=on --mem_model:code=flat --mem_model:data=large -
       6        0002  FP      .set    XAR2
       7              
       8              $C$DW$CU        .dwtag  DW_TAG_compile_unit
       9                      .dwattr $C$DW$CU, DW_AT_name("C:/ti/motorware/motorware_1_01_00_14/sw/modules/clarke/src/32b/clarke.c
      10                      .dwattr $C$DW$CU, DW_AT_producer("TI TMS320C2000 C/C++ Codegen PC v6.4.4 Copyright (c) 1996-2015 Texa
      11                      .dwattr $C$DW$CU, DW_AT_TI_version(0x01)
      12                      .dwattr $C$DW$CU, DW_AT_comp_dir("C:\work\ws_ccs_motorware\foc_proj_lab20\Release")
      13              ;       C:\ti\ccsv6\tools\compiler\ti-cgt-c2000_6.4.4\bin\opt2000.exe C:\\Users\\grant\\AppData\\Local\\Temp\
      14              ;       C:\ti\ccsv6\tools\compiler\ti-cgt-c2000_6.4.4\bin\ac2000.exe -@C:\\Users\\grant\\AppData\\Local\\Temp
      15 00000000               .sect   ".text"
      16                      .clink
      17                      .global _CLARKE_init
      18              
      19              $C$DW$1 .dwtag  DW_TAG_subprogram, DW_AT_name("CLARKE_init")
      20                      .dwattr $C$DW$1, DW_AT_low_pc(_CLARKE_init)
      21                      .dwattr $C$DW$1, DW_AT_high_pc(0x00)
      22                      .dwattr $C$DW$1, DW_AT_TI_symbol_name("_CLARKE_init")
      23                      .dwattr $C$DW$1, DW_AT_external
      24                      .dwattr $C$DW$1, DW_AT_type(*$C$DW$T$24)
      25                      .dwattr $C$DW$1, DW_AT_TI_begin_file("C:/ti/motorware/motorware_1_01_00_14/sw/modules/clarke/src/32b/
      26                      .dwattr $C$DW$1, DW_AT_TI_begin_line(0x37)
      27                      .dwattr $C$DW$1, DW_AT_TI_begin_column(0x0f)
      28                      .dwattr $C$DW$1, DW_AT_TI_max_frame_size(-2)
      29                      .dwpsn  file "C:/ti/motorware/motorware_1_01_00_14/sw/modules/clarke/src/32b/clarke.c",line 56,column
      30              
      31                      .dwfde $C$DW$CIE, _CLARKE_init
      32              $C$DW$2 .dwtag  DW_TAG_formal_parameter, DW_AT_name("pMemory")
      33                      .dwattr $C$DW$2, DW_AT_TI_symbol_name("_pMemory")
      34                      .dwattr $C$DW$2, DW_AT_type(*$C$DW$T$3)
      35                      .dwattr $C$DW$2, DW_AT_location[DW_OP_reg12]
      36              $C$DW$3 .dwtag  DW_TAG_formal_parameter, DW_AT_name("numBytes")
      37                      .dwattr $C$DW$3, DW_AT_TI_symbol_name("_numBytes")
      38                      .dwattr $C$DW$3, DW_AT_type(*$C$DW$T$26)
      39                      .dwattr $C$DW$3, DW_AT_location[DW_OP_reg0]
      40              
      41              ;***************************************************************
      42              ;* FNAME: _CLARKE_init                  FR SIZE:   0           *
      43              ;*                                                             *
      44              ;* FUNCTION ENVIRONMENT                                        *
      45              ;*                                                             *
      46              ;* FUNCTION PROPERTIES                                         *
      47              ;*                            0 Parameter,  0 Auto,  0 SOE     *
      48              ;***************************************************************
      49              
      50              _CLARKE_init:
      51              ;* AR6   assigned to _numBytes
      52              $C$DW$4 .dwtag  DW_TAG_variable, DW_AT_name("numBytes")
      53                      .dwattr $C$DW$4, DW_AT_TI_symbol_name("_numBytes")
      54                      .dwattr $C$DW$4, DW_AT_type(*$C$DW$T$26)
      55                      .dwattr $C$DW$4, DW_AT_location[DW_OP_reg16]
TMS320C2000 Assembler PC v6.4.4 Wed Jul 08 12:49:29 2015

Tools Copyright (c) 1996-2015 Texas Instruments Incorporated
C:\Users\grant\AppData\Local\Temp\0102810                            PAGE    2

      56                      .dwcfi  cfa_offset, -2
      57                      .dwcfi  save_reg_to_mem, 26, 0
      58 00000000 1EA6          MOVL      XAR6,ACC              ; [CPU_] |56| 
      59                      .dwpsn  file "C:/ti/motorware/motorware_1_01_00_14/sw/modules/clarke/src/32b/clarke.c",line 60,column
      60 00000001 0206          MOVB      ACC,#6                ; [CPU_] |60| 
      61 00000002 0FA6          CMPL      ACC,XAR6              ; [CPU_] |60| 
      62 00000003 56C9          BF        $C$L1,LOS             ; [CPU_] |60| 
         00000004 0003 
      63                      ; branchcc occurs ; [] |60| 
      64 00000005 D400          MOVB      XAR4,#0               ; [CPU_] |60| 
      65              $C$L1:    
      66              $C$DW$5 .dwtag  DW_TAG_TI_branch
      67                      .dwattr $C$DW$5, DW_AT_low_pc(0x00)
      68                      .dwattr $C$DW$5, DW_AT_TI_return
      69 00000006 0006          LRETR     ; [CPU_] 
      70                      ; return occurs ; [] 
      71                      .dwattr $C$DW$1, DW_AT_TI_end_file("C:/ti/motorware/motorware_1_01_00_14/sw/modules/clarke/src/32b/cl
      72                      .dwattr $C$DW$1, DW_AT_TI_end_line(0x42)
      73                      .dwattr $C$DW$1, DW_AT_TI_end_column(0x01)
      74                      .dwendentry
      75                      .dwendtag $C$DW$1
      76              
      77              
      78              ;***************************************************************
      79              ;* TYPE INFORMATION                                            *
      80              ;***************************************************************
      81              
      82              $C$DW$T$22      .dwtag  DW_TAG_structure_type
      83                      .dwattr $C$DW$T$22, DW_AT_name("_CLARKE_Obj_")
      84                      .dwattr $C$DW$T$22, DW_AT_byte_size(0x06)
      85              $C$DW$6 .dwtag  DW_TAG_member
      86                      .dwattr $C$DW$6, DW_AT_type(*$C$DW$T$19)
      87                      .dwattr $C$DW$6, DW_AT_name("alpha_sf")
      88                      .dwattr $C$DW$6, DW_AT_TI_symbol_name("_alpha_sf")
      89                      .dwattr $C$DW$6, DW_AT_data_member_location[DW_OP_plus_uconst 0x0]
      90                      .dwattr $C$DW$6, DW_AT_accessibility(DW_ACCESS_public)
      91              $C$DW$7 .dwtag  DW_TAG_member
      92                      .dwattr $C$DW$7, DW_AT_type(*$C$DW$T$19)
      93                      .dwattr $C$DW$7, DW_AT_name("beta_sf")
      94                      .dwattr $C$DW$7, DW_AT_TI_symbol_name("_beta_sf")
      95                      .dwattr $C$DW$7, DW_AT_data_member_location[DW_OP_plus_uconst 0x2]
      96                      .dwattr $C$DW$7, DW_AT_accessibility(DW_ACCESS_public)
      97              $C$DW$8 .dwtag  DW_TAG_member
      98                      .dwattr $C$DW$8, DW_AT_type(*$C$DW$T$21)
      99                      .dwattr $C$DW$8, DW_AT_name("numSensors")
     100                      .dwattr $C$DW$8, DW_AT_TI_symbol_name("_numSensors")
     101                      .dwattr $C$DW$8, DW_AT_data_member_location[DW_OP_plus_uconst 0x4]
     102                      .dwattr $C$DW$8, DW_AT_accessibility(DW_ACCESS_public)
     103                      .dwendtag $C$DW$T$22
     104              
     105              $C$DW$T$23      .dwtag  DW_TAG_pointer_type
     106                      .dwattr $C$DW$T$23, DW_AT_type(*$C$DW$T$22)
     107                      .dwattr $C$DW$T$23, DW_AT_address_class(0x20)
     108              $C$DW$T$24      .dwtag  DW_TAG_typedef, DW_AT_name("CLARKE_Handle")
     109                      .dwattr $C$DW$T$24, DW_AT_type(*$C$DW$T$23)
TMS320C2000 Assembler PC v6.4.4 Wed Jul 08 12:49:29 2015

Tools Copyright (c) 1996-2015 Texas Instruments Incorporated
C:\Users\grant\AppData\Local\Temp\0102810                            PAGE    3

     110                      .dwattr $C$DW$T$24, DW_AT_language(DW_LANG_C)
     111              $C$DW$T$2       .dwtag  DW_TAG_unspecified_type
     112                      .dwattr $C$DW$T$2, DW_AT_name("void")
     113              $C$DW$T$3       .dwtag  DW_TAG_pointer_type
     114                      .dwattr $C$DW$T$3, DW_AT_type(*$C$DW$T$2)
     115                      .dwattr $C$DW$T$3, DW_AT_address_class(0x20)
     116              $C$DW$T$4       .dwtag  DW_TAG_base_type
     117                      .dwattr $C$DW$T$4, DW_AT_encoding(DW_ATE_boolean)
     118                      .dwattr $C$DW$T$4, DW_AT_name("bool")
     119                      .dwattr $C$DW$T$4, DW_AT_byte_size(0x01)
     120              $C$DW$T$5       .dwtag  DW_TAG_base_type
     121                      .dwattr $C$DW$T$5, DW_AT_encoding(DW_ATE_signed_char)
     122                      .dwattr $C$DW$T$5, DW_AT_name("signed char")
     123                      .dwattr $C$DW$T$5, DW_AT_byte_size(0x01)
     124              $C$DW$T$6       .dwtag  DW_TAG_base_type
     125                      .dwattr $C$DW$T$6, DW_AT_encoding(DW_ATE_unsigned_char)
     126                      .dwattr $C$DW$T$6, DW_AT_name("unsigned char")
     127                      .dwattr $C$DW$T$6, DW_AT_byte_size(0x01)
     128              $C$DW$T$7       .dwtag  DW_TAG_base_type
     129                      .dwattr $C$DW$T$7, DW_AT_encoding(DW_ATE_signed_char)
     130                      .dwattr $C$DW$T$7, DW_AT_name("wchar_t")
     131                      .dwattr $C$DW$T$7, DW_AT_byte_size(0x01)
     132              $C$DW$T$8       .dwtag  DW_TAG_base_type
     133                      .dwattr $C$DW$T$8, DW_AT_encoding(DW_ATE_signed)
     134                      .dwattr $C$DW$T$8, DW_AT_name("short")
     135                      .dwattr $C$DW$T$8, DW_AT_byte_size(0x01)
     136              $C$DW$T$9       .dwtag  DW_TAG_base_type
     137                      .dwattr $C$DW$T$9, DW_AT_encoding(DW_ATE_unsigned)
     138                      .dwattr $C$DW$T$9, DW_AT_name("unsigned short")
     139                      .dwattr $C$DW$T$9, DW_AT_byte_size(0x01)
     140              $C$DW$T$10      .dwtag  DW_TAG_base_type
     141                      .dwattr $C$DW$T$10, DW_AT_encoding(DW_ATE_signed)
     142                      .dwattr $C$DW$T$10, DW_AT_name("int")
     143                      .dwattr $C$DW$T$10, DW_AT_byte_size(0x01)
     144              $C$DW$T$11      .dwtag  DW_TAG_base_type
     145                      .dwattr $C$DW$T$11, DW_AT_encoding(DW_ATE_unsigned)
     146                      .dwattr $C$DW$T$11, DW_AT_name("unsigned int")
     147                      .dwattr $C$DW$T$11, DW_AT_byte_size(0x01)
     148              $C$DW$T$20      .dwtag  DW_TAG_typedef, DW_AT_name("uint16_t")
     149                      .dwattr $C$DW$T$20, DW_AT_type(*$C$DW$T$11)
     150                      .dwattr $C$DW$T$20, DW_AT_language(DW_LANG_C)
     151              $C$DW$T$21      .dwtag  DW_TAG_typedef, DW_AT_name("uint_least8_t")
     152                      .dwattr $C$DW$T$21, DW_AT_type(*$C$DW$T$20)
     153                      .dwattr $C$DW$T$21, DW_AT_language(DW_LANG_C)
     154              $C$DW$T$12      .dwtag  DW_TAG_base_type
     155                      .dwattr $C$DW$T$12, DW_AT_encoding(DW_ATE_signed)
     156                      .dwattr $C$DW$T$12, DW_AT_name("long")
     157                      .dwattr $C$DW$T$12, DW_AT_byte_size(0x02)
     158              $C$DW$T$19      .dwtag  DW_TAG_typedef, DW_AT_name("_iq")
     159                      .dwattr $C$DW$T$19, DW_AT_type(*$C$DW$T$12)
     160                      .dwattr $C$DW$T$19, DW_AT_language(DW_LANG_C)
     161              $C$DW$T$13      .dwtag  DW_TAG_base_type
     162                      .dwattr $C$DW$T$13, DW_AT_encoding(DW_ATE_unsigned)
     163                      .dwattr $C$DW$T$13, DW_AT_name("unsigned long")
     164                      .dwattr $C$DW$T$13, DW_AT_byte_size(0x02)
TMS320C2000 Assembler PC v6.4.4 Wed Jul 08 12:49:29 2015

Tools Copyright (c) 1996-2015 Texas Instruments Incorporated
C:\Users\grant\AppData\Local\Temp\0102810                            PAGE    4

     165              $C$DW$T$25      .dwtag  DW_TAG_typedef, DW_AT_name("size_t")
     166                      .dwattr $C$DW$T$25, DW_AT_type(*$C$DW$T$13)
     167                      .dwattr $C$DW$T$25, DW_AT_language(DW_LANG_C)
     168              $C$DW$9 .dwtag  DW_TAG_TI_far_type
     169                      .dwattr $C$DW$9, DW_AT_type(*$C$DW$T$25)
     170              $C$DW$T$26      .dwtag  DW_TAG_const_type
     171                      .dwattr $C$DW$T$26, DW_AT_type(*$C$DW$9)
     172              $C$DW$T$14      .dwtag  DW_TAG_base_type
     173                      .dwattr $C$DW$T$14, DW_AT_encoding(DW_ATE_signed)
     174                      .dwattr $C$DW$T$14, DW_AT_name("long long")
     175                      .dwattr $C$DW$T$14, DW_AT_byte_size(0x04)
     176              $C$DW$T$15      .dwtag  DW_TAG_base_type
     177                      .dwattr $C$DW$T$15, DW_AT_encoding(DW_ATE_unsigned)
     178                      .dwattr $C$DW$T$15, DW_AT_name("unsigned long long")
     179                      .dwattr $C$DW$T$15, DW_AT_byte_size(0x04)
     180              $C$DW$T$16      .dwtag  DW_TAG_base_type
     181                      .dwattr $C$DW$T$16, DW_AT_encoding(DW_ATE_float)
     182                      .dwattr $C$DW$T$16, DW_AT_name("float")
     183                      .dwattr $C$DW$T$16, DW_AT_byte_size(0x02)
     184              $C$DW$T$17      .dwtag  DW_TAG_base_type
     185                      .dwattr $C$DW$T$17, DW_AT_encoding(DW_ATE_float)
     186                      .dwattr $C$DW$T$17, DW_AT_name("double")
     187                      .dwattr $C$DW$T$17, DW_AT_byte_size(0x02)
     188              $C$DW$T$18      .dwtag  DW_TAG_base_type
     189                      .dwattr $C$DW$T$18, DW_AT_encoding(DW_ATE_float)
     190                      .dwattr $C$DW$T$18, DW_AT_name("long double")
     191                      .dwattr $C$DW$T$18, DW_AT_byte_size(0x04)
     192                      .dwattr $C$DW$CU, DW_AT_language(DW_LANG_C)
     193              
     194              ;***************************************************************
     195              ;* DWARF CIE ENTRIES                                           *
     196              ;***************************************************************
     197              
     198              $C$DW$CIE       .dwcie 26
     199                      .dwcfi  cfa_register, 20
     200                      .dwcfi  cfa_offset, 0
     201                      .dwcfi  undefined, 0
     202                      .dwcfi  undefined, 1
     203                      .dwcfi  undefined, 2
     204                      .dwcfi  undefined, 3
     205                      .dwcfi  undefined, 20
     206                      .dwcfi  undefined, 21
     207                      .dwcfi  undefined, 22
     208                      .dwcfi  undefined, 23
     209                      .dwcfi  undefined, 24
     210                      .dwcfi  undefined, 25
     211                      .dwcfi  undefined, 26
     212                      .dwcfi  same_value, 28
     213                      .dwcfi  undefined, 29
     214                      .dwcfi  undefined, 30
     215                      .dwcfi  undefined, 31
     216                      .dwcfi  undefined, 32
     217                      .dwcfi  undefined, 33
     218                      .dwcfi  undefined, 34
     219                      .dwcfi  undefined, 35
TMS320C2000 Assembler PC v6.4.4 Wed Jul 08 12:49:29 2015

Tools Copyright (c) 1996-2015 Texas Instruments Incorporated
C:\Users\grant\AppData\Local\Temp\0102810                            PAGE    5

     220                      .dwcfi  undefined, 36
     221                      .dwcfi  undefined, 37
     222                      .dwcfi  undefined, 38
     223                      .dwcfi  undefined, 75
     224                      .dwcfi  undefined, 76
     225                      .dwcfi  undefined, 77
     226                      .dwcfi  undefined, 4
     227                      .dwcfi  undefined, 5
     228                      .dwcfi  same_value, 6
     229                      .dwcfi  same_value, 7
     230                      .dwcfi  same_value, 8
     231                      .dwcfi  same_value, 9
     232                      .dwcfi  same_value, 10
     233                      .dwcfi  same_value, 11
     234                      .dwcfi  undefined, 12
     235                      .dwcfi  undefined, 13
     236                      .dwcfi  undefined, 14
     237                      .dwcfi  undefined, 15
     238                      .dwcfi  undefined, 16
     239                      .dwcfi  undefined, 17
     240                      .dwcfi  undefined, 18
     241                      .dwcfi  undefined, 19
     242                      .dwendentry
     243              
     244              ;***************************************************************
     245              ;* DWARF REGISTER MAP                                          *
     246              ;***************************************************************
     247              
     248              $C$DW$10        .dwtag  DW_TAG_TI_assign_register, DW_AT_name("AL")
     249                      .dwattr $C$DW$10, DW_AT_location[DW_OP_reg0]
     250              $C$DW$11        .dwtag  DW_TAG_TI_assign_register, DW_AT_name("AH")
     251                      .dwattr $C$DW$11, DW_AT_location[DW_OP_reg1]
     252              $C$DW$12        .dwtag  DW_TAG_TI_assign_register, DW_AT_name("PL")
     253                      .dwattr $C$DW$12, DW_AT_location[DW_OP_reg2]
     254              $C$DW$13        .dwtag  DW_TAG_TI_assign_register, DW_AT_name("PH")
     255                      .dwattr $C$DW$13, DW_AT_location[DW_OP_reg3]
     256              $C$DW$14        .dwtag  DW_TAG_TI_assign_register, DW_AT_name("SP")
     257                      .dwattr $C$DW$14, DW_AT_location[DW_OP_reg20]
     258              $C$DW$15        .dwtag  DW_TAG_TI_assign_register, DW_AT_name("XT")
     259                      .dwattr $C$DW$15, DW_AT_location[DW_OP_reg21]
     260              $C$DW$16        .dwtag  DW_TAG_TI_assign_register, DW_AT_name("T")
     261                      .dwattr $C$DW$16, DW_AT_location[DW_OP_reg22]
     262              $C$DW$17        .dwtag  DW_TAG_TI_assign_register, DW_AT_name("ST0")
     263                      .dwattr $C$DW$17, DW_AT_location[DW_OP_reg23]
     264              $C$DW$18        .dwtag  DW_TAG_TI_assign_register, DW_AT_name("ST1")
     265                      .dwattr $C$DW$18, DW_AT_location[DW_OP_reg24]
     266              $C$DW$19        .dwtag  DW_TAG_TI_assign_register, DW_AT_name("PC")
     267                      .dwattr $C$DW$19, DW_AT_location[DW_OP_reg25]
     268              $C$DW$20        .dwtag  DW_TAG_TI_assign_register, DW_AT_name("RPC")
     269                      .dwattr $C$DW$20, DW_AT_location[DW_OP_reg26]
     270              $C$DW$21        .dwtag  DW_TAG_TI_assign_register, DW_AT_name("FP")
     271                      .dwattr $C$DW$21, DW_AT_location[DW_OP_reg28]
     272              $C$DW$22        .dwtag  DW_TAG_TI_assign_register, DW_AT_name("DP")
     273                      .dwattr $C$DW$22, DW_AT_location[DW_OP_reg29]
     274              $C$DW$23        .dwtag  DW_TAG_TI_assign_register, DW_AT_name("SXM")
TMS320C2000 Assembler PC v6.4.4 Wed Jul 08 12:49:29 2015

Tools Copyright (c) 1996-2015 Texas Instruments Incorporated
C:\Users\grant\AppData\Local\Temp\0102810                            PAGE    6

     275                      .dwattr $C$DW$23, DW_AT_location[DW_OP_reg30]
     276              $C$DW$24        .dwtag  DW_TAG_TI_assign_register, DW_AT_name("PM")
     277                      .dwattr $C$DW$24, DW_AT_location[DW_OP_reg31]
     278              $C$DW$25        .dwtag  DW_TAG_TI_assign_register, DW_AT_name("OVM")
     279                      .dwattr $C$DW$25, DW_AT_location[DW_OP_regx 0x20]
     280              $C$DW$26        .dwtag  DW_TAG_TI_assign_register, DW_AT_name("PAGE0")
     281                      .dwattr $C$DW$26, DW_AT_location[DW_OP_regx 0x21]
     282              $C$DW$27        .dwtag  DW_TAG_TI_assign_register, DW_AT_name("AMODE")
     283                      .dwattr $C$DW$27, DW_AT_location[DW_OP_regx 0x22]
     284              $C$DW$28        .dwtag  DW_TAG_TI_assign_register, DW_AT_name("INTM")
     285                      .dwattr $C$DW$28, DW_AT_location[DW_OP_regx 0x23]
     286              $C$DW$29        .dwtag  DW_TAG_TI_assign_register, DW_AT_name("IFR")
     287                      .dwattr $C$DW$29, DW_AT_location[DW_OP_regx 0x24]
     288              $C$DW$30        .dwtag  DW_TAG_TI_assign_register, DW_AT_name("IER")
     289                      .dwattr $C$DW$30, DW_AT_location[DW_OP_regx 0x25]
     290              $C$DW$31        .dwtag  DW_TAG_TI_assign_register, DW_AT_name("V")
     291                      .dwattr $C$DW$31, DW_AT_location[DW_OP_regx 0x26]
     292              $C$DW$32        .dwtag  DW_TAG_TI_assign_register, DW_AT_name("PSEUDOH")
     293                      .dwattr $C$DW$32, DW_AT_location[DW_OP_regx 0x4c]
     294              $C$DW$33        .dwtag  DW_TAG_TI_assign_register, DW_AT_name("VOL")
     295                      .dwattr $C$DW$33, DW_AT_location[DW_OP_regx 0x4d]
     296              $C$DW$34        .dwtag  DW_TAG_TI_assign_register, DW_AT_name("AR0")
     297                      .dwattr $C$DW$34, DW_AT_location[DW_OP_reg4]
     298              $C$DW$35        .dwtag  DW_TAG_TI_assign_register, DW_AT_name("XAR0")
     299                      .dwattr $C$DW$35, DW_AT_location[DW_OP_reg5]
     300              $C$DW$36        .dwtag  DW_TAG_TI_assign_register, DW_AT_name("AR1")
     301                      .dwattr $C$DW$36, DW_AT_location[DW_OP_reg6]
     302              $C$DW$37        .dwtag  DW_TAG_TI_assign_register, DW_AT_name("XAR1")
     303                      .dwattr $C$DW$37, DW_AT_location[DW_OP_reg7]
     304              $C$DW$38        .dwtag  DW_TAG_TI_assign_register, DW_AT_name("AR2")
     305                      .dwattr $C$DW$38, DW_AT_location[DW_OP_reg8]
     306              $C$DW$39        .dwtag  DW_TAG_TI_assign_register, DW_AT_name("XAR2")
     307                      .dwattr $C$DW$39, DW_AT_location[DW_OP_reg9]
     308              $C$DW$40        .dwtag  DW_TAG_TI_assign_register, DW_AT_name("AR3")
     309                      .dwattr $C$DW$40, DW_AT_location[DW_OP_reg10]
     310              $C$DW$41        .dwtag  DW_TAG_TI_assign_register, DW_AT_name("XAR3")
     311                      .dwattr $C$DW$41, DW_AT_location[DW_OP_reg11]
     312              $C$DW$42        .dwtag  DW_TAG_TI_assign_register, DW_AT_name("AR4")
     313                      .dwattr $C$DW$42, DW_AT_location[DW_OP_reg12]
     314              $C$DW$43        .dwtag  DW_TAG_TI_assign_register, DW_AT_name("XAR4")
     315                      .dwattr $C$DW$43, DW_AT_location[DW_OP_reg13]
     316              $C$DW$44        .dwtag  DW_TAG_TI_assign_register, DW_AT_name("AR5")
     317                      .dwattr $C$DW$44, DW_AT_location[DW_OP_reg14]
     318              $C$DW$45        .dwtag  DW_TAG_TI_assign_register, DW_AT_name("XAR5")
     319                      .dwattr $C$DW$45, DW_AT_location[DW_OP_reg15]
     320              $C$DW$46        .dwtag  DW_TAG_TI_assign_register, DW_AT_name("AR6")
     321                      .dwattr $C$DW$46, DW_AT_location[DW_OP_reg16]
     322              $C$DW$47        .dwtag  DW_TAG_TI_assign_register, DW_AT_name("XAR6")
     323                      .dwattr $C$DW$47, DW_AT_location[DW_OP_reg17]
     324              $C$DW$48        .dwtag  DW_TAG_TI_assign_register, DW_AT_name("AR7")
     325                      .dwattr $C$DW$48, DW_AT_location[DW_OP_reg18]
     326              $C$DW$49        .dwtag  DW_TAG_TI_assign_register, DW_AT_name("XAR7")
     327                      .dwattr $C$DW$49, DW_AT_location[DW_OP_reg19]
     328                      .dwendtag $C$DW$CU
     329              
TMS320C2000 Assembler PC v6.4.4 Wed Jul 08 12:49:29 2015

Tools Copyright (c) 1996-2015 Texas Instruments Incorporated
C:\Users\grant\AppData\Local\Temp\0102810                            PAGE    7


No Assembly Errors, No Assembly Warnings
