TMS320C2000 Assembler PC v6.4.4 Wed Jul 08 10:29:38 2015

Tools Copyright (c) 1996-2015 Texas Instruments Incorporated
C:\Users\grant\AppData\Local\Temp\0693210                            PAGE    1

       1              ;***************************************************************
       2              ;* TMS320C2000 C/C++ Codegen                         PC v6.4.4 *
       3              ;* Date/Time created: Wed Jul 08 10:29:38 2015                 *
       4              ;***************************************************************
       5                      .compiler_opts --float_support=softlib --hll_source=on --mem_model:code=flat --mem_model:data=large -
       6        0002  FP      .set    XAR2
       7              
       8              $C$DW$CU        .dwtag  DW_TAG_compile_unit
       9                      .dwattr $C$DW$CU, DW_AT_name("C:/ti/motorware/motorware_1_01_00_14/sw/drivers/gpio/src/32b/f28x/f2806
      10                      .dwattr $C$DW$CU, DW_AT_producer("TI TMS320C2000 C/C++ Codegen PC v6.4.4 Copyright (c) 1996-2015 Texa
      11                      .dwattr $C$DW$CU, DW_AT_TI_version(0x01)
      12                      .dwattr $C$DW$CU, DW_AT_comp_dir("C:\work\ws_ccs_motorware\foc_proj_lab20\Release")
      13              ;       C:\ti\ccsv6\tools\compiler\ti-cgt-c2000_6.4.4\bin\opt2000.exe C:\\Users\\grant\\AppData\\Local\\Temp\
      14              ;       C:\ti\ccsv6\tools\compiler\ti-cgt-c2000_6.4.4\bin\ac2000.exe -@C:\\Users\\grant\\AppData\\Local\\Temp
      15 00000000               .sect   ".text"
      16                      .clink
      17                      .global _GPIO_toggle
      18              
      19              $C$DW$1 .dwtag  DW_TAG_subprogram, DW_AT_name("GPIO_toggle")
      20                      .dwattr $C$DW$1, DW_AT_low_pc(_GPIO_toggle)
      21                      .dwattr $C$DW$1, DW_AT_high_pc(0x00)
      22                      .dwattr $C$DW$1, DW_AT_TI_symbol_name("_GPIO_toggle")
      23                      .dwattr $C$DW$1, DW_AT_external
      24                      .dwattr $C$DW$1, DW_AT_TI_begin_file("C:/ti/motorware/motorware_1_01_00_14/sw/drivers/gpio/src/32b/f2
      25                      .dwattr $C$DW$1, DW_AT_TI_begin_line(0x1b7)
      26                      .dwattr $C$DW$1, DW_AT_TI_begin_column(0x06)
      27                      .dwattr $C$DW$1, DW_AT_TI_max_frame_size(-2)
      28                      .dwpsn  file "C:/ti/motorware/motorware_1_01_00_14/sw/drivers/gpio/src/32b/f28x/f2806x/gpio.c",line 4
      29              
      30                      .dwfde $C$DW$CIE, _GPIO_toggle
      31              $C$DW$2 .dwtag  DW_TAG_formal_parameter, DW_AT_name("gpioHandle")
      32                      .dwattr $C$DW$2, DW_AT_TI_symbol_name("_gpioHandle")
      33                      .dwattr $C$DW$2, DW_AT_type(*$C$DW$T$53)
      34                      .dwattr $C$DW$2, DW_AT_location[DW_OP_reg12]
      35              $C$DW$3 .dwtag  DW_TAG_formal_parameter, DW_AT_name("gpioNumber")
      36                      .dwattr $C$DW$3, DW_AT_TI_symbol_name("_gpioNumber")
      37                      .dwattr $C$DW$3, DW_AT_type(*$C$DW$T$32)
      38                      .dwattr $C$DW$3, DW_AT_location[DW_OP_reg0]
      39              
      40              ;***************************************************************
      41              ;* FNAME: _GPIO_toggle                  FR SIZE:   0           *
      42              ;*                                                             *
      43              ;* FUNCTION ENVIRONMENT                                        *
      44              ;*                                                             *
      45              ;* FUNCTION PROPERTIES                                         *
      46              ;*                            0 Parameter,  0 Auto,  0 SOE     *
      47              ;***************************************************************
      48              
      49              _GPIO_toggle:
      50              ;* T     assigned to _gpioNumber
      51              $C$DW$4 .dwtag  DW_TAG_variable, DW_AT_name("gpioNumber")
      52                      .dwattr $C$DW$4, DW_AT_TI_symbol_name("_gpioNumber")
      53                      .dwattr $C$DW$4, DW_AT_type(*$C$DW$T$32)
      54                      .dwattr $C$DW$4, DW_AT_location[DW_OP_reg22]
      55              ;* AR4   assigned to _gpioHandle
TMS320C2000 Assembler PC v6.4.4 Wed Jul 08 10:29:38 2015

Tools Copyright (c) 1996-2015 Texas Instruments Incorporated
C:\Users\grant\AppData\Local\Temp\0693210                            PAGE    2

      56              $C$DW$5 .dwtag  DW_TAG_variable, DW_AT_name("gpioHandle")
      57                      .dwattr $C$DW$5, DW_AT_TI_symbol_name("_gpioHandle")
      58                      .dwattr $C$DW$5, DW_AT_type(*$C$DW$T$54)
      59                      .dwattr $C$DW$5, DW_AT_location[DW_OP_reg12]
      60                      .dwcfi  cfa_offset, -2
      61                      .dwcfi  save_reg_to_mem, 26, 0
      62 00000000 2DA9          MOV       T,AL                  ; [CPU_] |440| 
      63 00000001 7622   EALLOW
      64                      .dwpsn  file "C:/ti/motorware/motorware_1_01_00_14/sw/drivers/gpio/src/32b/f28x/f2806x/gpio.c",line 4
      65 00000002 5220          CMPB      AL,#32                ; [CPU_] |446| 
      66 00000003 56C8          BF        $C$L1,LO              ; [CPU_] |446| 
         00000004 0007 
      67                      ; branchcc occurs ; [] |446| 
      68                      .dwpsn  file "C:/ti/motorware/motorware_1_01_00_14/sw/drivers/gpio/src/32b/f28x/f2806x/gpio.c",line 4
      69 00000005 5DAC          MOVZ      AR5,T                 ; [CPU_] |452| 
      70 00000006 D04E          MOVB      XAR0,#78              ; [CPU_] |452| 
      71 00000007 DDA0          SUBB      XAR5,#32              ; [CPU_U] |452| 
      72 00000008 2DA5          MOV       T,AR5                 ; [CPU_] |452| 
      73 00000009 6F02          B         $C$L2,UNC             ; [CPU_] |452| 
      74                      ; branch occurs ; [] |452| 
      75 0000000a       $C$L1:    
      76                      .dwpsn  file "C:/ti/motorware/motorware_1_01_00_14/sw/drivers/gpio/src/32b/f28x/f2806x/gpio.c",line 4
      77 0000000a D046          MOVB      XAR0,#70              ; [CPU_] |448| 
      78 0000000b       $C$L2:    
      79 0000000b 0201          MOVB      ACC,#1                ; [CPU_] |448| 
      80 0000000c 563B          LSLL      ACC,T                 ; [CPU_] |448| 
      81 0000000d 1E94          MOVL      *+XAR4[AR0],ACC       ; [CPU_] |448| 
      82 0000000e 761A   EDIS
      83 0000000f FF69          SPM       #0                    ; [CPU_] 
      84              $C$DW$6 .dwtag  DW_TAG_TI_branch
      85                      .dwattr $C$DW$6, DW_AT_low_pc(0x00)
      86                      .dwattr $C$DW$6, DW_AT_TI_return
      87 00000010 0006          LRETR     ; [CPU_] 
      88                      ; return occurs ; [] 
      89                      .dwattr $C$DW$1, DW_AT_TI_end_file("C:/ti/motorware/motorware_1_01_00_14/sw/drivers/gpio/src/32b/f28x
      90                      .dwattr $C$DW$1, DW_AT_TI_end_line(0x1ca)
      91                      .dwattr $C$DW$1, DW_AT_TI_end_column(0x01)
      92                      .dwendentry
      93                      .dwendtag $C$DW$1
      94              
      95 00000011               .sect   ".text"
      96                      .clink
      97                      .global _GPIO_setQualificationPeriod
      98              
      99              $C$DW$7 .dwtag  DW_TAG_subprogram, DW_AT_name("GPIO_setQualificationPeriod")
     100                      .dwattr $C$DW$7, DW_AT_low_pc(_GPIO_setQualificationPeriod)
     101                      .dwattr $C$DW$7, DW_AT_high_pc(0x00)
     102                      .dwattr $C$DW$7, DW_AT_TI_symbol_name("_GPIO_setQualificationPeriod")
     103                      .dwattr $C$DW$7, DW_AT_external
     104                      .dwattr $C$DW$7, DW_AT_TI_begin_file("C:/ti/motorware/motorware_1_01_00_14/sw/drivers/gpio/src/32b/f2
     105                      .dwattr $C$DW$7, DW_AT_TI_begin_line(0x17a)
     106                      .dwattr $C$DW$7, DW_AT_TI_begin_column(0x06)
     107                      .dwattr $C$DW$7, DW_AT_TI_max_frame_size(-2)
     108                      .dwpsn  file "C:/ti/motorware/motorware_1_01_00_14/sw/drivers/gpio/src/32b/f28x/f2806x/gpio.c",line 3
     109              
TMS320C2000 Assembler PC v6.4.4 Wed Jul 08 10:29:38 2015

Tools Copyright (c) 1996-2015 Texas Instruments Incorporated
C:\Users\grant\AppData\Local\Temp\0693210                            PAGE    3

     110                      .dwfde $C$DW$CIE, _GPIO_setQualificationPeriod
     111              $C$DW$8 .dwtag  DW_TAG_formal_parameter, DW_AT_name("gpioHandle")
     112                      .dwattr $C$DW$8, DW_AT_TI_symbol_name("_gpioHandle")
     113                      .dwattr $C$DW$8, DW_AT_type(*$C$DW$T$53)
     114                      .dwattr $C$DW$8, DW_AT_location[DW_OP_reg12]
     115              $C$DW$9 .dwtag  DW_TAG_formal_parameter, DW_AT_name("gpioNumber")
     116                      .dwattr $C$DW$9, DW_AT_TI_symbol_name("_gpioNumber")
     117                      .dwattr $C$DW$9, DW_AT_type(*$C$DW$T$32)
     118                      .dwattr $C$DW$9, DW_AT_location[DW_OP_reg0]
     119              $C$DW$10        .dwtag  DW_TAG_formal_parameter, DW_AT_name("period")
     120                      .dwattr $C$DW$10, DW_AT_TI_symbol_name("_period")
     121                      .dwattr $C$DW$10, DW_AT_type(*$C$DW$T$70)
     122                      .dwattr $C$DW$10, DW_AT_location[DW_OP_reg1]
     123              
     124              ;***************************************************************
     125              ;* FNAME: _GPIO_setQualificationPeriod  FR SIZE:   0           *
     126              ;*                                                             *
     127              ;* FUNCTION ENVIRONMENT                                        *
     128              ;*                                                             *
     129              ;* FUNCTION PROPERTIES                                         *
     130              ;*                            0 Parameter,  0 Auto,  0 SOE     *
     131              ;***************************************************************
     132              
     133              _GPIO_setQualificationPeriod:
     134              ;* AH    assigned to _period
     135              $C$DW$11        .dwtag  DW_TAG_variable, DW_AT_name("period")
     136                      .dwattr $C$DW$11, DW_AT_TI_symbol_name("_period")
     137                      .dwattr $C$DW$11, DW_AT_type(*$C$DW$T$70)
     138                      .dwattr $C$DW$11, DW_AT_location[DW_OP_reg1]
     139              ;* AL    assigned to _gpioNumber
     140              $C$DW$12        .dwtag  DW_TAG_variable, DW_AT_name("gpioNumber")
     141                      .dwattr $C$DW$12, DW_AT_TI_symbol_name("_gpioNumber")
     142                      .dwattr $C$DW$12, DW_AT_type(*$C$DW$T$32)
     143                      .dwattr $C$DW$12, DW_AT_location[DW_OP_reg0]
     144              ;* AR4   assigned to _gpioHandle
     145              $C$DW$13        .dwtag  DW_TAG_variable, DW_AT_name("gpioHandle")
     146                      .dwattr $C$DW$13, DW_AT_TI_symbol_name("_gpioHandle")
     147                      .dwattr $C$DW$13, DW_AT_type(*$C$DW$T$54)
     148                      .dwattr $C$DW$13, DW_AT_location[DW_OP_reg12]
     149                      .dwcfi  cfa_offset, -2
     150                      .dwcfi  save_reg_to_mem, 26, 0
     151 00000011 7622   EALLOW
     152                      .dwpsn  file "C:/ti/motorware/motorware_1_01_00_14/sw/drivers/gpio/src/32b/f28x/f2806x/gpio.c",line 3
     153 00000012 5207          CMPB      AL,#7                 ; [CPU_] |384| 
     154 00000013 56C9          BF        $C$L11,LOS            ; [CPU_] |384| 
         00000014 0045 
     155                      ; branchcc occurs ; [] |384| 
     156                      .dwpsn  file "C:/ti/motorware/motorware_1_01_00_14/sw/drivers/gpio/src/32b/f28x/f2806x/gpio.c",line 3
     157 00000015 520F          CMPB      AL,#15                ; [CPU_] |390| 
     158 00000016 56C9          BF        $C$L10,LOS            ; [CPU_] |390| 
         00000017 003C 
     159                      ; branchcc occurs ; [] |390| 
     160                      .dwpsn  file "C:/ti/motorware/motorware_1_01_00_14/sw/drivers/gpio/src/32b/f28x/f2806x/gpio.c",line 3
     161 00000018 5217          CMPB      AL,#23                ; [CPU_] |396| 
     162 00000019 56C9          BF        $C$L9,LOS             ; [CPU_] |396| 
TMS320C2000 Assembler PC v6.4.4 Wed Jul 08 10:29:38 2015

Tools Copyright (c) 1996-2015 Texas Instruments Incorporated
C:\Users\grant\AppData\Local\Temp\0693210                            PAGE    4

         0000001a 0034 
     163                      ; branchcc occurs ; [] |396| 
     164                      .dwpsn  file "C:/ti/motorware/motorware_1_01_00_14/sw/drivers/gpio/src/32b/f28x/f2806x/gpio.c",line 4
     165 0000001b 521F          CMPB      AL,#31                ; [CPU_] |402| 
     166 0000001c 56C9          BF        $C$L8,LOS             ; [CPU_] |402| 
         0000001d 002E 
     167                      ; branchcc occurs ; [] |402| 
     168                      .dwpsn  file "C:/ti/motorware/motorware_1_01_00_14/sw/drivers/gpio/src/32b/f28x/f2806x/gpio.c",line 4
     169 0000001e 5227          CMPB      AL,#39                ; [CPU_] |408| 
     170 0000001f 56C9          BF        $C$L7,LOS             ; [CPU_] |408| 
         00000020 0025 
     171                      ; branchcc occurs ; [] |408| 
     172                      .dwpsn  file "C:/ti/motorware/motorware_1_01_00_14/sw/drivers/gpio/src/32b/f28x/f2806x/gpio.c",line 4
     173 00000021 522F          CMPB      AL,#47                ; [CPU_] |414| 
     174 00000022 56C9          BF        $C$L5,LOS             ; [CPU_] |414| 
         00000023 0019 
     175                      ; branchcc occurs ; [] |414| 
     176                      .dwpsn  file "C:/ti/motorware/motorware_1_01_00_14/sw/drivers/gpio/src/32b/f28x/f2806x/gpio.c",line 4
     177 00000024 5237          CMPB      AL,#55                ; [CPU_] |420| 
     178 00000025 56C9          BF        $C$L4,LOS             ; [CPU_] |420| 
         00000026 000F 
     179                      ; branchcc occurs ; [] |420| 
     180                      .dwpsn  file "C:/ti/motorware/motorware_1_01_00_14/sw/drivers/gpio/src/32b/f28x/f2806x/gpio.c",line 4
     181 00000027 523F          CMPB      AL,#63                ; [CPU_] |426| 
     182 00000028 56C6          BF        $C$L14,HI             ; [CPU_] |426| 
         00000029 0035 
     183                      ; branchcc occurs ; [] |426| 
     184                      .dwpsn  file "C:/ti/motorware/motorware_1_01_00_14/sw/drivers/gpio/src/32b/f28x/f2806x/gpio.c",line 4
     185 0000002a 83A4          MOVL      XAR5,XAR4             ; [CPU_] |429| 
     186                      .dwpsn  file "C:/ti/motorware/motorware_1_01_00_14/sw/drivers/gpio/src/32b/f28x/f2806x/gpio.c",line 4
     187 0000002b DC10          ADDB      XAR4,#16              ; [CPU_] |430| 
     188                      .dwpsn  file "C:/ti/motorware/motorware_1_01_00_14/sw/drivers/gpio/src/32b/f28x/f2806x/gpio.c",line 4
     189 0000002c DD10          ADDB      XAR5,#16              ; [CPU_] |429| 
     190 0000002d 18CD          AND       *+XAR5[1],#255        ; [CPU_] |429| 
         0000002e 00FF 
     191 0000002f       $C$L3:    
     192                      .dwpsn  file "C:/ti/motorware/motorware_1_01_00_14/sw/drivers/gpio/src/32b/f28x/f2806x/gpio.c",line 4
     193 0000002f 0EA8          MOVU      ACC,AH                ; [CPU_] |430| 
     194 00000030 28AC          MOV       T,#24                 ; [CPU_] |430| 
         00000031 0018 
     195 00000032 563B          LSLL      ACC,T                 ; [CPU_] |430| 
     196 00000033 6F28          B         $C$L13,UNC            ; [CPU_] |430| 
     197                      ; branch occurs ; [] |430| 
     198 00000034       $C$L4:    
     199                      .dwpsn  file "C:/ti/motorware/motorware_1_01_00_14/sw/drivers/gpio/src/32b/f28x/f2806x/gpio.c",line 4
     200 00000034 83A4          MOVL      XAR5,XAR4             ; [CPU_] |423| 
     201 00000035 2901          CLRC      SXM                   ; [CPU_] 
     202                      .dwpsn  file "C:/ti/motorware/motorware_1_01_00_14/sw/drivers/gpio/src/32b/f28x/f2806x/gpio.c",line 4
     203 00000036 25A8          MOV       ACC,AH << 16          ; [CPU_] |424| 
     204                      .dwpsn  file "C:/ti/motorware/motorware_1_01_00_14/sw/drivers/gpio/src/32b/f28x/f2806x/gpio.c",line 4
     205 00000037 DD10          ADDB      XAR5,#16              ; [CPU_] |423| 
     206 00000038 18CD          AND       *+XAR5[1],#65280      ; [CPU_] |423| 
         00000039 FF00 
     207                      .dwpsn  file "C:/ti/motorware/motorware_1_01_00_14/sw/drivers/gpio/src/32b/f28x/f2806x/gpio.c",line 4
     208 0000003a 6F08          B         $C$L6,UNC             ; [CPU_] |425| 
TMS320C2000 Assembler PC v6.4.4 Wed Jul 08 10:29:38 2015

Tools Copyright (c) 1996-2015 Texas Instruments Incorporated
C:\Users\grant\AppData\Local\Temp\0693210                            PAGE    5

     209                      ; branch occurs ; [] |425| 
     210 0000003b       $C$L5:    
     211                      .dwpsn  file "C:/ti/motorware/motorware_1_01_00_14/sw/drivers/gpio/src/32b/f28x/f2806x/gpio.c",line 4
     212 0000003b 83A4          MOVL      XAR5,XAR4             ; [CPU_] |417| 
     213 0000003c 2901          CLRC      SXM                   ; [CPU_] 
     214                      .dwpsn  file "C:/ti/motorware/motorware_1_01_00_14/sw/drivers/gpio/src/32b/f28x/f2806x/gpio.c",line 4
     215 0000003d 5603          MOV       ACC,AH << 8           ; [CPU_] |418| 
         0000003e 08A8 
     216                      .dwpsn  file "C:/ti/motorware/motorware_1_01_00_14/sw/drivers/gpio/src/32b/f28x/f2806x/gpio.c",line 4
     217 0000003f DD10          ADDB      XAR5,#16              ; [CPU_] |417| 
     218 00000040 18C5          AND       *+XAR5[0],#255        ; [CPU_] |417| 
         00000041 00FF 
     219 00000042       $C$L6:    
     220                      .dwpsn  file "C:/ti/motorware/motorware_1_01_00_14/sw/drivers/gpio/src/32b/f28x/f2806x/gpio.c",line 4
     221 00000042 DC10          ADDB      XAR4,#16              ; [CPU_] |418| 
     222                      .dwpsn  file "C:/ti/motorware/motorware_1_01_00_14/sw/drivers/gpio/src/32b/f28x/f2806x/gpio.c",line 4
     223 00000043 6F18          B         $C$L13,UNC            ; [CPU_] |419| 
     224                      ; branch occurs ; [] |419| 
     225 00000044       $C$L7:    
     226                      .dwpsn  file "C:/ti/motorware/motorware_1_01_00_14/sw/drivers/gpio/src/32b/f28x/f2806x/gpio.c",line 4
     227 00000044 83A4          MOVL      XAR5,XAR4             ; [CPU_] |411| 
     228                      .dwpsn  file "C:/ti/motorware/motorware_1_01_00_14/sw/drivers/gpio/src/32b/f28x/f2806x/gpio.c",line 4
     229 00000045 DC10          ADDB      XAR4,#16              ; [CPU_] |412| 
     230                      .dwpsn  file "C:/ti/motorware/motorware_1_01_00_14/sw/drivers/gpio/src/32b/f28x/f2806x/gpio.c",line 4
     231 00000046 DD10          ADDB      XAR5,#16              ; [CPU_] |411| 
     232 00000047 18C5          AND       *+XAR5[0],#65280      ; [CPU_] |411| 
         00000048 FF00 
     233                      .dwpsn  file "C:/ti/motorware/motorware_1_01_00_14/sw/drivers/gpio/src/32b/f28x/f2806x/gpio.c",line 4
     234 00000049 6F11          B         $C$L12,UNC            ; [CPU_] |413| 
     235                      ; branch occurs ; [] |413| 
     236 0000004a       $C$L8:    
     237                      .dwpsn  file "C:/ti/motorware/motorware_1_01_00_14/sw/drivers/gpio/src/32b/f28x/f2806x/gpio.c",line 4
     238 0000004a 18CC          AND       *+XAR4[1],#255        ; [CPU_] |405| 
         0000004b 00FF 
     239                      .dwpsn  file "C:/ti/motorware/motorware_1_01_00_14/sw/drivers/gpio/src/32b/f28x/f2806x/gpio.c",line 4
     240 0000004c 6FE3          B         $C$L3,UNC             ; [CPU_] |407| 
     241                      ; branch occurs ; [] |407| 
     242 0000004d       $C$L9:    
     243 0000004d 2901          CLRC      SXM                   ; [CPU_] 
     244                      .dwpsn  file "C:/ti/motorware/motorware_1_01_00_14/sw/drivers/gpio/src/32b/f28x/f2806x/gpio.c",line 3
     245 0000004e 18CC          AND       *+XAR4[1],#65280      ; [CPU_] |399| 
         0000004f FF00 
     246                      .dwpsn  file "C:/ti/motorware/motorware_1_01_00_14/sw/drivers/gpio/src/32b/f28x/f2806x/gpio.c",line 4
     247 00000050 25A8          MOV       ACC,AH << 16          ; [CPU_] |400| 
     248                      .dwpsn  file "C:/ti/motorware/motorware_1_01_00_14/sw/drivers/gpio/src/32b/f28x/f2806x/gpio.c",line 4
     249 00000051 6F0A          B         $C$L13,UNC            ; [CPU_] |401| 
     250                      ; branch occurs ; [] |401| 
     251 00000052       $C$L10:    
     252 00000052 2901          CLRC      SXM                   ; [CPU_] 
     253                      .dwpsn  file "C:/ti/motorware/motorware_1_01_00_14/sw/drivers/gpio/src/32b/f28x/f2806x/gpio.c",line 3
     254 00000053 18C4          AND       *+XAR4[0],#255        ; [CPU_] |393| 
         00000054 00FF 
     255                      .dwpsn  file "C:/ti/motorware/motorware_1_01_00_14/sw/drivers/gpio/src/32b/f28x/f2806x/gpio.c",line 3
     256 00000055 5603          MOV       ACC,AH << 8           ; [CPU_] |394| 
         00000056 08A8 
TMS320C2000 Assembler PC v6.4.4 Wed Jul 08 10:29:38 2015

Tools Copyright (c) 1996-2015 Texas Instruments Incorporated
C:\Users\grant\AppData\Local\Temp\0693210                            PAGE    6

     257                      .dwpsn  file "C:/ti/motorware/motorware_1_01_00_14/sw/drivers/gpio/src/32b/f28x/f2806x/gpio.c",line 3
     258 00000057 6F04          B         $C$L13,UNC            ; [CPU_] |395| 
     259                      ; branch occurs ; [] |395| 
     260 00000058       $C$L11:    
     261                      .dwpsn  file "C:/ti/motorware/motorware_1_01_00_14/sw/drivers/gpio/src/32b/f28x/f2806x/gpio.c",line 3
     262 00000058 18C4          AND       *+XAR4[0],#65280      ; [CPU_] |387| 
         00000059 FF00 
     263 0000005a       $C$L12:    
     264                      .dwpsn  file "C:/ti/motorware/motorware_1_01_00_14/sw/drivers/gpio/src/32b/f28x/f2806x/gpio.c",line 3
     265 0000005a 0EA8          MOVU      ACC,AH                ; [CPU_] |388| 
     266 0000005b       $C$L13:    
     267 0000005b 98C4          OR        *+XAR4[0],AL          ; [CPU_] |388| 
     268 0000005c 99CC          OR        *+XAR4[1],AH          ; [CPU_] |388| 
     269 0000005d       $C$L14:    
     270 0000005d 761A   EDIS
     271 0000005e FF69          SPM       #0                    ; [CPU_] 
     272              $C$DW$14        .dwtag  DW_TAG_TI_branch
     273                      .dwattr $C$DW$14, DW_AT_low_pc(0x00)
     274                      .dwattr $C$DW$14, DW_AT_TI_return
     275 0000005f 0006          LRETR     ; [CPU_] 
     276                      ; return occurs ; [] 
     277                      .dwattr $C$DW$7, DW_AT_TI_end_file("C:/ti/motorware/motorware_1_01_00_14/sw/drivers/gpio/src/32b/f28x
     278                      .dwattr $C$DW$7, DW_AT_TI_end_line(0x1b4)
     279                      .dwattr $C$DW$7, DW_AT_TI_end_column(0x01)
     280                      .dwendentry
     281                      .dwendtag $C$DW$7
     282              
     283 00000060               .sect   ".text"
     284                      .clink
     285                      .global _GPIO_setQualification
     286              
     287              $C$DW$15        .dwtag  DW_TAG_subprogram, DW_AT_name("GPIO_setQualification")
     288                      .dwattr $C$DW$15, DW_AT_low_pc(_GPIO_setQualification)
     289                      .dwattr $C$DW$15, DW_AT_high_pc(0x00)
     290                      .dwattr $C$DW$15, DW_AT_TI_symbol_name("_GPIO_setQualification")
     291                      .dwattr $C$DW$15, DW_AT_external
     292                      .dwattr $C$DW$15, DW_AT_TI_begin_file("C:/ti/motorware/motorware_1_01_00_14/sw/drivers/gpio/src/32b/f
     293                      .dwattr $C$DW$15, DW_AT_TI_begin_line(0x155)
     294                      .dwattr $C$DW$15, DW_AT_TI_begin_column(0x06)
     295                      .dwattr $C$DW$15, DW_AT_TI_max_frame_size(-2)
     296                      .dwpsn  file "C:/ti/motorware/motorware_1_01_00_14/sw/drivers/gpio/src/32b/f28x/f2806x/gpio.c",line 3
     297              
     298                      .dwfde $C$DW$CIE, _GPIO_setQualification
     299              $C$DW$16        .dwtag  DW_TAG_formal_parameter, DW_AT_name("gpioHandle")
     300                      .dwattr $C$DW$16, DW_AT_TI_symbol_name("_gpioHandle")
     301                      .dwattr $C$DW$16, DW_AT_type(*$C$DW$T$53)
     302                      .dwattr $C$DW$16, DW_AT_location[DW_OP_reg12]
     303              $C$DW$17        .dwtag  DW_TAG_formal_parameter, DW_AT_name("gpioNumber")
     304                      .dwattr $C$DW$17, DW_AT_TI_symbol_name("_gpioNumber")
     305                      .dwattr $C$DW$17, DW_AT_type(*$C$DW$T$32)
     306                      .dwattr $C$DW$17, DW_AT_location[DW_OP_reg0]
     307              $C$DW$18        .dwtag  DW_TAG_formal_parameter, DW_AT_name("qualification")
     308                      .dwattr $C$DW$18, DW_AT_TI_symbol_name("_qualification")
     309                      .dwattr $C$DW$18, DW_AT_type(*$C$DW$T$50)
     310                      .dwattr $C$DW$18, DW_AT_location[DW_OP_reg1]
TMS320C2000 Assembler PC v6.4.4 Wed Jul 08 10:29:38 2015

Tools Copyright (c) 1996-2015 Texas Instruments Incorporated
C:\Users\grant\AppData\Local\Temp\0693210                            PAGE    7

     311              
     312              ;***************************************************************
     313              ;* FNAME: _GPIO_setQualification        FR SIZE:   0           *
     314              ;*                                                             *
     315              ;* FUNCTION ENVIRONMENT                                        *
     316              ;*                                                             *
     317              ;* FUNCTION PROPERTIES                                         *
     318              ;*                            0 Parameter,  0 Auto,  0 SOE     *
     319              ;***************************************************************
     320              
     321              _GPIO_setQualification:
     322              ;* T     assigned to $O$C1
     323              ;* T     assigned to $O$C2
     324              ;* T     assigned to $O$C3
     325              ;* AR6   assigned to _qualification
     326              $C$DW$19        .dwtag  DW_TAG_variable, DW_AT_name("qualification")
     327                      .dwattr $C$DW$19, DW_AT_TI_symbol_name("_qualification")
     328                      .dwattr $C$DW$19, DW_AT_type(*$C$DW$T$50)
     329                      .dwattr $C$DW$19, DW_AT_location[DW_OP_reg16]
     330              ;* AL    assigned to _gpioNumber
     331              $C$DW$20        .dwtag  DW_TAG_variable, DW_AT_name("gpioNumber")
     332                      .dwattr $C$DW$20, DW_AT_TI_symbol_name("_gpioNumber")
     333                      .dwattr $C$DW$20, DW_AT_type(*$C$DW$T$32)
     334                      .dwattr $C$DW$20, DW_AT_location[DW_OP_reg0]
     335              ;* AR4   assigned to _gpioHandle
     336              $C$DW$21        .dwtag  DW_TAG_variable, DW_AT_name("gpioHandle")
     337                      .dwattr $C$DW$21, DW_AT_TI_symbol_name("_gpioHandle")
     338                      .dwattr $C$DW$21, DW_AT_type(*$C$DW$T$54)
     339                      .dwattr $C$DW$21, DW_AT_location[DW_OP_reg12]
     340                      .dwcfi  cfa_offset, -2
     341                      .dwcfi  save_reg_to_mem, 26, 0
     342 00000060 88A8          MOVZ      AR6,AH                ; [CPU_] |342| 
     343 00000061 7622   EALLOW
     344                      .dwpsn  file "C:/ti/motorware/motorware_1_01_00_14/sw/drivers/gpio/src/32b/f28x/f2806x/gpio.c",line 3
     345 00000062 520F          CMPB      AL,#15                ; [CPU_] |348| 
     346 00000063 56C9          BF        $C$L18,LOS            ; [CPU_] |348| 
         00000064 0034 
     347                      ; branchcc occurs ; [] |348| 
     348                      .dwpsn  file "C:/ti/motorware/motorware_1_01_00_14/sw/drivers/gpio/src/32b/f28x/f2806x/gpio.c",line 3
     349 00000065 521F          CMPB      AL,#31                ; [CPU_] |354| 
     350 00000066 56C9          BF        $C$L17,LOS            ; [CPU_] |354| 
         00000067 0021 
     351                      ; branchcc occurs ; [] |354| 
     352                      .dwpsn  file "C:/ti/motorware/motorware_1_01_00_14/sw/drivers/gpio/src/32b/f28x/f2806x/gpio.c",line 3
     353 00000068 522F          CMPB      AL,#47                ; [CPU_] |360| 
     354 00000069 56C9          BF        $C$L15,LOS            ; [CPU_] |360| 
         0000006a 000B 
     355                      ; branchcc occurs ; [] |360| 
     356                      .dwpsn  file "C:/ti/motorware/motorware_1_01_00_14/sw/drivers/gpio/src/32b/f28x/f2806x/gpio.c",line 3
     357 0000006b 523F          CMPB      AL,#63                ; [CPU_] |366| 
     358 0000006c 56C6          BF        $C$L19,HI             ; [CPU_] |366| 
         0000006d 0037 
     359                      ; branchcc occurs ; [] |366| 
     360                      .dwpsn  file "C:/ti/motorware/motorware_1_01_00_14/sw/drivers/gpio/src/32b/f28x/f2806x/gpio.c",line 3
     361 0000006e 83A4          MOVL      XAR5,XAR4             ; [CPU_] |369| 
TMS320C2000 Assembler PC v6.4.4 Wed Jul 08 10:29:38 2015

Tools Copyright (c) 1996-2015 Texas Instruments Incorporated
C:\Users\grant\AppData\Local\Temp\0693210                            PAGE    8

     362 0000006f 28A8          MOV       AH,#32720             ; [CPU_] |369| 
         00000070 7FD0 
     363                      .dwpsn  file "C:/ti/motorware/motorware_1_01_00_14/sw/drivers/gpio/src/32b/f28x/f2806x/gpio.c",line 3
     364 00000071 DC14          ADDB      XAR4,#20              ; [CPU_] |370| 
     365                      .dwpsn  file "C:/ti/motorware/motorware_1_01_00_14/sw/drivers/gpio/src/32b/f28x/f2806x/gpio.c",line 3
     366 00000072 DD14          ADDB      XAR5,#20              ; [CPU_] |369| 
     367                      .dwpsn  file "C:/ti/motorware/motorware_1_01_00_14/sw/drivers/gpio/src/32b/f28x/f2806x/gpio.c",line 3
     368 00000073 6F06          B         $C$L16,UNC            ; [CPU_] |370| 
     369                      ; branch occurs ; [] |370| 
     370 00000074       $C$L15:    
     371                      .dwpsn  file "C:/ti/motorware/motorware_1_01_00_14/sw/drivers/gpio/src/32b/f28x/f2806x/gpio.c",line 3
     372 00000074 83A4          MOVL      XAR5,XAR4             ; [CPU_] |363| 
     373 00000075 28A8          MOV       AH,#32736             ; [CPU_] |363| 
         00000076 7FE0 
     374                      .dwpsn  file "C:/ti/motorware/motorware_1_01_00_14/sw/drivers/gpio/src/32b/f28x/f2806x/gpio.c",line 3
     375 00000077 DC12          ADDB      XAR4,#18              ; [CPU_] |364| 
     376                      .dwpsn  file "C:/ti/motorware/motorware_1_01_00_14/sw/drivers/gpio/src/32b/f28x/f2806x/gpio.c",line 3
     377 00000078 DD12          ADDB      XAR5,#18              ; [CPU_] |363| 
     378 00000079       $C$L16:    
     379 00000079 95A9          ADD       AH,AL                 ; [CPU_] |363| 
     380 0000007a 5603          MOV       ACC,AH << #1          ; [CPU_] |363| 
         0000007b 01A8 
     381 0000007c 2DA9          MOV       T,AL                  ; [CPU_] |363| 
     382 0000007d 0203          MOVB      ACC,#3                ; [CPU_] |363| 
     383 0000007e 563B          LSLL      ACC,T                 ; [CPU_] |363| 
     384 0000007f FF55          NOT       ACC                   ; [CPU_] |363| 
     385 00000080 C0C5          AND       *+XAR5[0],AL          ; [CPU_] |363| 
     386 00000081 C1CD          AND       *+XAR5[1],AH          ; [CPU_] |363| 
     387                      .dwpsn  file "C:/ti/motorware/motorware_1_01_00_14/sw/drivers/gpio/src/32b/f28x/f2806x/gpio.c",line 3
     388 00000082 0EA6          MOVU      ACC,AR6               ; [CPU_] |364| 
     389 00000083 563B          LSLL      ACC,T                 ; [CPU_] |364| 
     390 00000084 98C4          OR        *+XAR4[0],AL          ; [CPU_] |364| 
     391 00000085 99CC          OR        *+XAR4[1],AH          ; [CPU_] |364| 
     392                      .dwpsn  file "C:/ti/motorware/motorware_1_01_00_14/sw/drivers/gpio/src/32b/f28x/f2806x/gpio.c",line 3
     393 00000086 6F1D          B         $C$L19,UNC            ; [CPU_] |365| 
     394                      ; branch occurs ; [] |365| 
     395 00000087       $C$L17:    
     396                      .dwpsn  file "C:/ti/motorware/motorware_1_01_00_14/sw/drivers/gpio/src/32b/f28x/f2806x/gpio.c",line 3
     397 00000087 28A8          MOV       AH,#32752             ; [CPU_] |357| 
         00000088 7FF0 
     398 00000089 95A9          ADD       AH,AL                 ; [CPU_] |357| 
     399 0000008a 5603          MOV       ACC,AH << #1          ; [CPU_] |357| 
         0000008b 01A8 
     400 0000008c 2DA9          MOV       T,AL                  ; [CPU_] |357| 
     401 0000008d 0203          MOVB      ACC,#3                ; [CPU_] |357| 
     402 0000008e 563B          LSLL      ACC,T                 ; [CPU_] |357| 
     403 0000008f FF55          NOT       ACC                   ; [CPU_] |357| 
     404 00000090 C0E4          AND       *+XAR4[4],AL          ; [CPU_] |357| 
     405 00000091 C1EC          AND       *+XAR4[5],AH          ; [CPU_] |357| 
     406                      .dwpsn  file "C:/ti/motorware/motorware_1_01_00_14/sw/drivers/gpio/src/32b/f28x/f2806x/gpio.c",line 3
     407 00000092 0EA6          MOVU      ACC,AR6               ; [CPU_] |358| 
     408 00000093 563B          LSLL      ACC,T                 ; [CPU_] |358| 
     409 00000094 98E4          OR        *+XAR4[4],AL          ; [CPU_] |358| 
     410 00000095 99EC          OR        *+XAR4[5],AH          ; [CPU_] |358| 
     411                      .dwpsn  file "C:/ti/motorware/motorware_1_01_00_14/sw/drivers/gpio/src/32b/f28x/f2806x/gpio.c",line 3
TMS320C2000 Assembler PC v6.4.4 Wed Jul 08 10:29:38 2015

Tools Copyright (c) 1996-2015 Texas Instruments Incorporated
C:\Users\grant\AppData\Local\Temp\0693210                            PAGE    9

     412 00000096 6F0D          B         $C$L19,UNC            ; [CPU_] |359| 
     413                      ; branch occurs ; [] |359| 
     414 00000097       $C$L18:    
     415                      .dwpsn  file "C:/ti/motorware/motorware_1_01_00_14/sw/drivers/gpio/src/32b/f28x/f2806x/gpio.c",line 3
     416 00000097 5603          MOV       ACC,AL << #1          ; [CPU_] |351| 
         00000098 01A9 
     417 00000099 2DA9          MOV       T,AL                  ; [CPU_] |351| 
     418 0000009a 0203          MOVB      ACC,#3                ; [CPU_] |351| 
     419 0000009b 563B          LSLL      ACC,T                 ; [CPU_] |351| 
     420 0000009c FF55          NOT       ACC                   ; [CPU_] |351| 
     421 0000009d C0D4          AND       *+XAR4[2],AL          ; [CPU_] |351| 
     422 0000009e C1DC          AND       *+XAR4[3],AH          ; [CPU_] |351| 
     423                      .dwpsn  file "C:/ti/motorware/motorware_1_01_00_14/sw/drivers/gpio/src/32b/f28x/f2806x/gpio.c",line 3
     424 0000009f 0EA6          MOVU      ACC,AR6               ; [CPU_] |352| 
     425 000000a0 563B          LSLL      ACC,T                 ; [CPU_] |352| 
     426 000000a1 98D4          OR        *+XAR4[2],AL          ; [CPU_] |352| 
     427 000000a2 99DC          OR        *+XAR4[3],AH          ; [CPU_] |352| 
     428 000000a3       $C$L19:    
     429 000000a3 761A   EDIS
     430 000000a4 FF69          SPM       #0                    ; [CPU_] 
     431              $C$DW$22        .dwtag  DW_TAG_TI_branch
     432                      .dwattr $C$DW$22, DW_AT_low_pc(0x00)
     433                      .dwattr $C$DW$22, DW_AT_TI_return
     434 000000a5 0006          LRETR     ; [CPU_] 
     435                      ; return occurs ; [] 
     436                      .dwattr $C$DW$15, DW_AT_TI_end_file("C:/ti/motorware/motorware_1_01_00_14/sw/drivers/gpio/src/32b/f28
     437                      .dwattr $C$DW$15, DW_AT_TI_end_line(0x178)
     438                      .dwattr $C$DW$15, DW_AT_TI_end_column(0x01)
     439                      .dwendentry
     440                      .dwendtag $C$DW$15
     441              
     442 000000a6               .sect   ".text"
     443                      .clink
     444                      .global _GPIO_setPullup
     445              
     446              $C$DW$23        .dwtag  DW_TAG_subprogram, DW_AT_name("GPIO_setPullup")
     447                      .dwattr $C$DW$23, DW_AT_low_pc(_GPIO_setPullup)
     448                      .dwattr $C$DW$23, DW_AT_high_pc(0x00)
     449                      .dwattr $C$DW$23, DW_AT_TI_symbol_name("_GPIO_setPullup")
     450                      .dwattr $C$DW$23, DW_AT_external
     451                      .dwattr $C$DW$23, DW_AT_TI_begin_file("C:/ti/motorware/motorware_1_01_00_14/sw/drivers/gpio/src/32b/f
     452                      .dwattr $C$DW$23, DW_AT_TI_begin_line(0x6d)
     453                      .dwattr $C$DW$23, DW_AT_TI_begin_column(0x06)
     454                      .dwattr $C$DW$23, DW_AT_TI_max_frame_size(-2)
     455                      .dwpsn  file "C:/ti/motorware/motorware_1_01_00_14/sw/drivers/gpio/src/32b/f28x/f2806x/gpio.c",line 1
     456              
     457                      .dwfde $C$DW$CIE, _GPIO_setPullup
     458              $C$DW$24        .dwtag  DW_TAG_formal_parameter, DW_AT_name("gpioHandle")
     459                      .dwattr $C$DW$24, DW_AT_TI_symbol_name("_gpioHandle")
     460                      .dwattr $C$DW$24, DW_AT_type(*$C$DW$T$53)
     461                      .dwattr $C$DW$24, DW_AT_location[DW_OP_reg12]
     462              $C$DW$25        .dwtag  DW_TAG_formal_parameter, DW_AT_name("gpioNumber")
     463                      .dwattr $C$DW$25, DW_AT_TI_symbol_name("_gpioNumber")
     464                      .dwattr $C$DW$25, DW_AT_type(*$C$DW$T$32)
     465                      .dwattr $C$DW$25, DW_AT_location[DW_OP_reg0]
TMS320C2000 Assembler PC v6.4.4 Wed Jul 08 10:29:38 2015

Tools Copyright (c) 1996-2015 Texas Instruments Incorporated
C:\Users\grant\AppData\Local\Temp\0693210                            PAGE   10

     466              $C$DW$26        .dwtag  DW_TAG_formal_parameter, DW_AT_name("pullup")
     467                      .dwattr $C$DW$26, DW_AT_TI_symbol_name("_pullup")
     468                      .dwattr $C$DW$26, DW_AT_type(*$C$DW$T$38)
     469                      .dwattr $C$DW$26, DW_AT_location[DW_OP_reg1]
     470              
     471              ;***************************************************************
     472              ;* FNAME: _GPIO_setPullup               FR SIZE:   0           *
     473              ;*                                                             *
     474              ;* FUNCTION ENVIRONMENT                                        *
     475              ;*                                                             *
     476              ;* FUNCTION PROPERTIES                                         *
     477              ;*                            0 Parameter,  0 Auto,  0 SOE     *
     478              ;***************************************************************
     479              
     480              _GPIO_setPullup:
     481              ;* T     assigned to $O$C1
     482              ;* AR6   assigned to _pullup
     483              $C$DW$27        .dwtag  DW_TAG_variable, DW_AT_name("pullup")
     484                      .dwattr $C$DW$27, DW_AT_TI_symbol_name("_pullup")
     485                      .dwattr $C$DW$27, DW_AT_type(*$C$DW$T$38)
     486                      .dwattr $C$DW$27, DW_AT_location[DW_OP_reg16]
     487              ;* T     assigned to _gpioNumber
     488              $C$DW$28        .dwtag  DW_TAG_variable, DW_AT_name("gpioNumber")
     489                      .dwattr $C$DW$28, DW_AT_TI_symbol_name("_gpioNumber")
     490                      .dwattr $C$DW$28, DW_AT_type(*$C$DW$T$32)
     491                      .dwattr $C$DW$28, DW_AT_location[DW_OP_reg22]
     492              ;* AR4   assigned to _gpioHandle
     493              $C$DW$29        .dwtag  DW_TAG_variable, DW_AT_name("gpioHandle")
     494                      .dwattr $C$DW$29, DW_AT_TI_symbol_name("_gpioHandle")
     495                      .dwattr $C$DW$29, DW_AT_type(*$C$DW$T$54)
     496                      .dwattr $C$DW$29, DW_AT_location[DW_OP_reg12]
     497                      .dwcfi  cfa_offset, -2
     498                      .dwcfi  save_reg_to_mem, 26, 0
     499 000000a6 88A8          MOVZ      AR6,AH                ; [CPU_] |110| 
     500 000000a7 2DA9          MOV       T,AL                  ; [CPU_] |110| 
     501 000000a8 7622   EALLOW
     502                      .dwpsn  file "C:/ti/motorware/motorware_1_01_00_14/sw/drivers/gpio/src/32b/f28x/f2806x/gpio.c",line 1
     503 000000a9 5220          CMPB      AL,#32                ; [CPU_] |116| 
     504 000000aa 56C8          BF        $C$L20,LO             ; [CPU_] |116| 
         000000ab 0008 
     505                      ; branchcc occurs ; [] |116| 
     506                      .dwpsn  file "C:/ti/motorware/motorware_1_01_00_14/sw/drivers/gpio/src/32b/f28x/f2806x/gpio.c",line 1
     507 000000ac 83A4          MOVL      XAR5,XAR4             ; [CPU_] |127| 
     508 000000ad 9CE0          ADDB      AL,#-32               ; [CPU_] |127| 
     509 000000ae 2DA9          MOV       T,AL                  ; [CPU_] |127| 
     510                      .dwpsn  file "C:/ti/motorware/motorware_1_01_00_14/sw/drivers/gpio/src/32b/f28x/f2806x/gpio.c",line 1
     511 000000af DC1C          ADDB      XAR4,#28              ; [CPU_] |130| 
     512                      .dwpsn  file "C:/ti/motorware/motorware_1_01_00_14/sw/drivers/gpio/src/32b/f28x/f2806x/gpio.c",line 1
     513 000000b0 DD1C          ADDB      XAR5,#28              ; [CPU_] |127| 
     514                      .dwpsn  file "C:/ti/motorware/motorware_1_01_00_14/sw/drivers/gpio/src/32b/f28x/f2806x/gpio.c",line 1
     515 000000b1 6F04          B         $C$L21,UNC            ; [CPU_] |130| 
     516                      ; branch occurs ; [] |130| 
     517 000000b2       $C$L20:    
     518                      .dwpsn  file "C:/ti/motorware/motorware_1_01_00_14/sw/drivers/gpio/src/32b/f28x/f2806x/gpio.c",line 1
     519 000000b2 83A4          MOVL      XAR5,XAR4             ; [CPU_] |119| 
TMS320C2000 Assembler PC v6.4.4 Wed Jul 08 10:29:38 2015

Tools Copyright (c) 1996-2015 Texas Instruments Incorporated
C:\Users\grant\AppData\Local\Temp\0693210                            PAGE   11

     520                      .dwpsn  file "C:/ti/motorware/motorware_1_01_00_14/sw/drivers/gpio/src/32b/f28x/f2806x/gpio.c",line 1
     521 000000b3 DC0C          ADDB      XAR4,#12              ; [CPU_] |122| 
     522                      .dwpsn  file "C:/ti/motorware/motorware_1_01_00_14/sw/drivers/gpio/src/32b/f28x/f2806x/gpio.c",line 1
     523 000000b4 DD0C          ADDB      XAR5,#12              ; [CPU_] |119| 
     524 000000b5       $C$L21:    
     525 000000b5 0201          MOVB      ACC,#1                ; [CPU_] |119| 
     526 000000b6 563B          LSLL      ACC,T                 ; [CPU_] |119| 
     527 000000b7 FF55          NOT       ACC                   ; [CPU_] |119| 
     528 000000b8 C0C5          AND       *+XAR5[0],AL          ; [CPU_] |119| 
     529 000000b9 C1CD          AND       *+XAR5[1],AH          ; [CPU_] |119| 
     530                      .dwpsn  file "C:/ti/motorware/motorware_1_01_00_14/sw/drivers/gpio/src/32b/f28x/f2806x/gpio.c",line 1
     531 000000ba 0EA6          MOVU      ACC,AR6               ; [CPU_] |122| 
     532 000000bb 563B          LSLL      ACC,T                 ; [CPU_] |122| 
     533 000000bc 98C4          OR        *+XAR4[0],AL          ; [CPU_] |122| 
     534 000000bd 99CC          OR        *+XAR4[1],AH          ; [CPU_] |122| 
     535 000000be 761A   EDIS
     536 000000bf FF69          SPM       #0                    ; [CPU_] 
     537              $C$DW$30        .dwtag  DW_TAG_TI_branch
     538                      .dwattr $C$DW$30, DW_AT_low_pc(0x00)
     539                      .dwattr $C$DW$30, DW_AT_TI_return
     540 000000c0 0006          LRETR     ; [CPU_] 
     541                      ; return occurs ; [] 
     542                      .dwattr $C$DW$23, DW_AT_TI_end_file("C:/ti/motorware/motorware_1_01_00_14/sw/drivers/gpio/src/32b/f28
     543                      .dwattr $C$DW$23, DW_AT_TI_end_line(0x88)
     544                      .dwattr $C$DW$23, DW_AT_TI_end_column(0x01)
     545                      .dwendentry
     546                      .dwendtag $C$DW$23
     547              
     548 000000c1               .sect   ".text"
     549                      .clink
     550                      .global _GPIO_setPortData
     551              
     552              $C$DW$31        .dwtag  DW_TAG_subprogram, DW_AT_name("GPIO_setPortData")
     553                      .dwattr $C$DW$31, DW_AT_low_pc(_GPIO_setPortData)
     554                      .dwattr $C$DW$31, DW_AT_high_pc(0x00)
     555                      .dwattr $C$DW$31, DW_AT_TI_symbol_name("_GPIO_setPortData")
     556                      .dwattr $C$DW$31, DW_AT_external
     557                      .dwattr $C$DW$31, DW_AT_TI_begin_file("C:/ti/motorware/motorware_1_01_00_14/sw/drivers/gpio/src/32b/f
     558                      .dwattr $C$DW$31, DW_AT_TI_begin_line(0x141)
     559                      .dwattr $C$DW$31, DW_AT_TI_begin_column(0x06)
     560                      .dwattr $C$DW$31, DW_AT_TI_max_frame_size(-2)
     561                      .dwpsn  file "C:/ti/motorware/motorware_1_01_00_14/sw/drivers/gpio/src/32b/f28x/f2806x/gpio.c",line 3
     562              
     563                      .dwfde $C$DW$CIE, _GPIO_setPortData
     564              $C$DW$32        .dwtag  DW_TAG_formal_parameter, DW_AT_name("gpioHandle")
     565                      .dwattr $C$DW$32, DW_AT_TI_symbol_name("_gpioHandle")
     566                      .dwattr $C$DW$32, DW_AT_type(*$C$DW$T$53)
     567                      .dwattr $C$DW$32, DW_AT_location[DW_OP_reg12]
     568              $C$DW$33        .dwtag  DW_TAG_formal_parameter, DW_AT_name("gpioPort")
     569                      .dwattr $C$DW$33, DW_AT_TI_symbol_name("_gpioPort")
     570                      .dwattr $C$DW$33, DW_AT_type(*$C$DW$T$35)
     571                      .dwattr $C$DW$33, DW_AT_location[DW_OP_reg0]
     572              $C$DW$34        .dwtag  DW_TAG_formal_parameter, DW_AT_name("data")
     573                      .dwattr $C$DW$34, DW_AT_TI_symbol_name("_data")
     574                      .dwattr $C$DW$34, DW_AT_type(*$C$DW$T$66)
TMS320C2000 Assembler PC v6.4.4 Wed Jul 08 10:29:38 2015

Tools Copyright (c) 1996-2015 Texas Instruments Incorporated
C:\Users\grant\AppData\Local\Temp\0693210                            PAGE   12

     575                      .dwattr $C$DW$34, DW_AT_location[DW_OP_reg1]
     576              
     577              ;***************************************************************
     578              ;* FNAME: _GPIO_setPortData             FR SIZE:   0           *
     579              ;*                                                             *
     580              ;* FUNCTION ENVIRONMENT                                        *
     581              ;*                                                             *
     582              ;* FUNCTION PROPERTIES                                         *
     583              ;*                            0 Parameter,  0 Auto,  0 SOE     *
     584              ;***************************************************************
     585              
     586              _GPIO_setPortData:
     587              ;* AH    assigned to _data
     588              $C$DW$35        .dwtag  DW_TAG_variable, DW_AT_name("data")
     589                      .dwattr $C$DW$35, DW_AT_TI_symbol_name("_data")
     590                      .dwattr $C$DW$35, DW_AT_type(*$C$DW$T$66)
     591                      .dwattr $C$DW$35, DW_AT_location[DW_OP_reg1]
     592              ;* AL    assigned to _gpioPort
     593              $C$DW$36        .dwtag  DW_TAG_variable, DW_AT_name("gpioPort")
     594                      .dwattr $C$DW$36, DW_AT_TI_symbol_name("_gpioPort")
     595                      .dwattr $C$DW$36, DW_AT_type(*$C$DW$T$35)
     596                      .dwattr $C$DW$36, DW_AT_location[DW_OP_reg0]
     597              ;* AR4   assigned to _gpioHandle
     598              $C$DW$37        .dwtag  DW_TAG_variable, DW_AT_name("gpioHandle")
     599                      .dwattr $C$DW$37, DW_AT_TI_symbol_name("_gpioHandle")
     600                      .dwattr $C$DW$37, DW_AT_type(*$C$DW$T$54)
     601                      .dwattr $C$DW$37, DW_AT_location[DW_OP_reg12]
     602                      .dwcfi  cfa_offset, -2
     603                      .dwcfi  save_reg_to_mem, 26, 0
     604 000000c1 7622   EALLOW
     605                      .dwpsn  file "C:/ti/motorware/motorware_1_01_00_14/sw/drivers/gpio/src/32b/f28x/f2806x/gpio.c",line 3
     606 000000c2 5200          CMPB      AL,#0                 ; [CPU_] |327| 
     607 000000c3 EC03          BF        $C$L22,EQ             ; [CPU_] |327| 
     608                      ; branchcc occurs ; [] |327| 
     609                      .dwpsn  file "C:/ti/motorware/motorware_1_01_00_14/sw/drivers/gpio/src/32b/f28x/f2806x/gpio.c",line 3
     610 000000c4 D048          MOVB      XAR0,#72              ; [CPU_] |333| 
     611 000000c5 6F02          B         $C$L23,UNC            ; [CPU_] |333| 
     612                      ; branch occurs ; [] |333| 
     613 000000c6       $C$L22:    
     614                      .dwpsn  file "C:/ti/motorware/motorware_1_01_00_14/sw/drivers/gpio/src/32b/f28x/f2806x/gpio.c",line 3
     615 000000c6 D040          MOVB      XAR0,#64              ; [CPU_] |329| 
     616 000000c7       $C$L23:    
     617 000000c7 0EA8          MOVU      ACC,AH                ; [CPU_] |329| 
     618 000000c8 1E94          MOVL      *+XAR4[AR0],ACC       ; [CPU_] |329| 
     619 000000c9 761A   EDIS
     620 000000ca FF69          SPM       #0                    ; [CPU_] 
     621              $C$DW$38        .dwtag  DW_TAG_TI_branch
     622                      .dwattr $C$DW$38, DW_AT_low_pc(0x00)
     623                      .dwattr $C$DW$38, DW_AT_TI_return
     624 000000cb 0006          LRETR     ; [CPU_] 
     625                      ; return occurs ; [] 
     626                      .dwattr $C$DW$31, DW_AT_TI_end_file("C:/ti/motorware/motorware_1_01_00_14/sw/drivers/gpio/src/32b/f28
     627                      .dwattr $C$DW$31, DW_AT_TI_end_line(0x153)
     628                      .dwattr $C$DW$31, DW_AT_TI_end_column(0x01)
     629                      .dwendentry
TMS320C2000 Assembler PC v6.4.4 Wed Jul 08 10:29:38 2015

Tools Copyright (c) 1996-2015 Texas Instruments Incorporated
C:\Users\grant\AppData\Local\Temp\0693210                            PAGE   13

     630                      .dwendtag $C$DW$31
     631              
     632 000000cc               .sect   ".text"
     633                      .clink
     634                      .global _GPIO_setMode
     635              
     636              $C$DW$39        .dwtag  DW_TAG_subprogram, DW_AT_name("GPIO_setMode")
     637                      .dwattr $C$DW$39, DW_AT_low_pc(_GPIO_setMode)
     638                      .dwattr $C$DW$39, DW_AT_high_pc(0x00)
     639                      .dwattr $C$DW$39, DW_AT_TI_symbol_name("_GPIO_setMode")
     640                      .dwattr $C$DW$39, DW_AT_external
     641                      .dwattr $C$DW$39, DW_AT_TI_begin_file("C:/ti/motorware/motorware_1_01_00_14/sw/drivers/gpio/src/32b/f
     642                      .dwattr $C$DW$39, DW_AT_TI_begin_line(0x103)
     643                      .dwattr $C$DW$39, DW_AT_TI_begin_column(0x06)
     644                      .dwattr $C$DW$39, DW_AT_TI_max_frame_size(-2)
     645                      .dwpsn  file "C:/ti/motorware/motorware_1_01_00_14/sw/drivers/gpio/src/32b/f28x/f2806x/gpio.c",line 2
     646              
     647                      .dwfde $C$DW$CIE, _GPIO_setMode
     648              $C$DW$40        .dwtag  DW_TAG_formal_parameter, DW_AT_name("gpioHandle")
     649                      .dwattr $C$DW$40, DW_AT_TI_symbol_name("_gpioHandle")
     650                      .dwattr $C$DW$40, DW_AT_type(*$C$DW$T$53)
     651                      .dwattr $C$DW$40, DW_AT_location[DW_OP_reg12]
     652              $C$DW$41        .dwtag  DW_TAG_formal_parameter, DW_AT_name("gpioNumber")
     653                      .dwattr $C$DW$41, DW_AT_TI_symbol_name("_gpioNumber")
     654                      .dwattr $C$DW$41, DW_AT_type(*$C$DW$T$32)
     655                      .dwattr $C$DW$41, DW_AT_location[DW_OP_reg0]
     656              $C$DW$42        .dwtag  DW_TAG_formal_parameter, DW_AT_name("mode")
     657                      .dwattr $C$DW$42, DW_AT_TI_symbol_name("_mode")
     658                      .dwattr $C$DW$42, DW_AT_type(*$C$DW$T$47)
     659                      .dwattr $C$DW$42, DW_AT_location[DW_OP_reg1]
     660              
     661              ;***************************************************************
     662              ;* FNAME: _GPIO_setMode                 FR SIZE:   0           *
     663              ;*                                                             *
     664              ;* FUNCTION ENVIRONMENT                                        *
     665              ;*                                                             *
     666              ;* FUNCTION PROPERTIES                                         *
     667              ;*                            0 Parameter,  0 Auto,  0 SOE     *
     668              ;***************************************************************
     669              
     670              _GPIO_setMode:
     671              ;* T     assigned to $O$C1
     672              ;* T     assigned to $O$C4
     673              ;* AR6   assigned to _mode
     674              $C$DW$43        .dwtag  DW_TAG_variable, DW_AT_name("mode")
     675                      .dwattr $C$DW$43, DW_AT_TI_symbol_name("_mode")
     676                      .dwattr $C$DW$43, DW_AT_type(*$C$DW$T$47)
     677                      .dwattr $C$DW$43, DW_AT_location[DW_OP_reg16]
     678              ;* AL    assigned to _gpioNumber
     679              $C$DW$44        .dwtag  DW_TAG_variable, DW_AT_name("gpioNumber")
     680                      .dwattr $C$DW$44, DW_AT_TI_symbol_name("_gpioNumber")
     681                      .dwattr $C$DW$44, DW_AT_type(*$C$DW$T$32)
     682                      .dwattr $C$DW$44, DW_AT_location[DW_OP_reg0]
     683              ;* AR4   assigned to _gpioHandle
     684              $C$DW$45        .dwtag  DW_TAG_variable, DW_AT_name("gpioHandle")
TMS320C2000 Assembler PC v6.4.4 Wed Jul 08 10:29:38 2015

Tools Copyright (c) 1996-2015 Texas Instruments Incorporated
C:\Users\grant\AppData\Local\Temp\0693210                            PAGE   14

     685                      .dwattr $C$DW$45, DW_AT_TI_symbol_name("_gpioHandle")
     686                      .dwattr $C$DW$45, DW_AT_type(*$C$DW$T$54)
     687                      .dwattr $C$DW$45, DW_AT_location[DW_OP_reg12]
     688                      .dwcfi  cfa_offset, -2
     689                      .dwcfi  save_reg_to_mem, 26, 0
     690 000000cc 88A8          MOVZ      AR6,AH                ; [CPU_] |260| 
     691 000000cd 7622   EALLOW
     692                      .dwpsn  file "C:/ti/motorware/motorware_1_01_00_14/sw/drivers/gpio/src/32b/f28x/f2806x/gpio.c",line 2
     693 000000ce 5210          CMPB      AL,#16                ; [CPU_] |266| 
     694 000000cf 56C8          BF        $C$L27,LO             ; [CPU_] |266| 
         000000d0 002A 
     695                      ; branchcc occurs ; [] |266| 
     696                      .dwpsn  file "C:/ti/motorware/motorware_1_01_00_14/sw/drivers/gpio/src/32b/f28x/f2806x/gpio.c",line 2
     697 000000d1 5220          CMPB      AL,#32                ; [CPU_] |278| 
     698 000000d2 56C8          BF        $C$L26,LO             ; [CPU_] |278| 
         000000d3 0021 
     699                      ; branchcc occurs ; [] |278| 
     700                      .dwpsn  file "C:/ti/motorware/motorware_1_01_00_14/sw/drivers/gpio/src/32b/f28x/f2806x/gpio.c",line 2
     701 000000d4 5230          CMPB      AL,#48                ; [CPU_] |290| 
     702 000000d5 56C8          BF        $C$L25,LO             ; [CPU_] |290| 
         000000d6 0018 
     703                      ; branchcc occurs ; [] |290| 
     704                      .dwpsn  file "C:/ti/motorware/motorware_1_01_00_14/sw/drivers/gpio/src/32b/f28x/f2806x/gpio.c",line 3
     705 000000d7 5240          CMPB      AL,#64                ; [CPU_] |302| 
     706 000000d8 56C7          BF        $C$L28,HIS            ; [CPU_] |302| 
         000000d9 002D 
     707                      ; branchcc occurs ; [] |302| 
     708                      .dwpsn  file "C:/ti/motorware/motorware_1_01_00_14/sw/drivers/gpio/src/32b/f28x/f2806x/gpio.c",line 3
     709 000000da 83A4          MOVL      XAR5,XAR4             ; [CPU_] |309| 
     710 000000db 28A8          MOV       AH,#32720             ; [CPU_] |309| 
         000000dc 7FD0 
     711                      .dwpsn  file "C:/ti/motorware/motorware_1_01_00_14/sw/drivers/gpio/src/32b/f28x/f2806x/gpio.c",line 3
     712 000000dd DC18          ADDB      XAR4,#24              ; [CPU_] |312| 
     713                      .dwpsn  file "C:/ti/motorware/motorware_1_01_00_14/sw/drivers/gpio/src/32b/f28x/f2806x/gpio.c",line 3
     714 000000de DD18          ADDB      XAR5,#24              ; [CPU_] |309| 
     715 000000df       $C$L24:    
     716 000000df 95A9          ADD       AH,AL                 ; [CPU_] |309| 
     717 000000e0 5603          MOV       ACC,AH << #1          ; [CPU_] |309| 
         000000e1 01A8 
     718 000000e2 2DA9          MOV       T,AL                  ; [CPU_] |309| 
     719 000000e3 0203          MOVB      ACC,#3                ; [CPU_] |309| 
     720 000000e4 563B          LSLL      ACC,T                 ; [CPU_] |309| 
     721 000000e5 FF55          NOT       ACC                   ; [CPU_] |309| 
     722 000000e6 C0C5          AND       *+XAR5[0],AL          ; [CPU_] |309| 
     723 000000e7 C1CD          AND       *+XAR5[1],AH          ; [CPU_] |309| 
     724                      .dwpsn  file "C:/ti/motorware/motorware_1_01_00_14/sw/drivers/gpio/src/32b/f28x/f2806x/gpio.c",line 3
     725 000000e8 0EA6          MOVU      ACC,AR6               ; [CPU_] |312| 
     726 000000e9 563B          LSLL      ACC,T                 ; [CPU_] |312| 
     727 000000ea 98C4          OR        *+XAR4[0],AL          ; [CPU_] |312| 
     728 000000eb 99CC          OR        *+XAR4[1],AH          ; [CPU_] |312| 
     729 000000ec 6F19          B         $C$L28,UNC            ; [CPU_] |312| 
     730                      ; branch occurs ; [] |312| 
     731 000000ed       $C$L25:    
     732                      .dwpsn  file "C:/ti/motorware/motorware_1_01_00_14/sw/drivers/gpio/src/32b/f28x/f2806x/gpio.c",line 2
     733 000000ed 83A4          MOVL      XAR5,XAR4             ; [CPU_] |297| 
TMS320C2000 Assembler PC v6.4.4 Wed Jul 08 10:29:38 2015

Tools Copyright (c) 1996-2015 Texas Instruments Incorporated
C:\Users\grant\AppData\Local\Temp\0693210                            PAGE   15

     734 000000ee 28A8          MOV       AH,#32736             ; [CPU_] |297| 
         000000ef 7FE0 
     735                      .dwpsn  file "C:/ti/motorware/motorware_1_01_00_14/sw/drivers/gpio/src/32b/f28x/f2806x/gpio.c",line 3
     736 000000f0 DC16          ADDB      XAR4,#22              ; [CPU_] |300| 
     737                      .dwpsn  file "C:/ti/motorware/motorware_1_01_00_14/sw/drivers/gpio/src/32b/f28x/f2806x/gpio.c",line 2
     738 000000f1 DD16          ADDB      XAR5,#22              ; [CPU_] |297| 
     739                      .dwpsn  file "C:/ti/motorware/motorware_1_01_00_14/sw/drivers/gpio/src/32b/f28x/f2806x/gpio.c",line 3
     740 000000f2 6FED          B         $C$L24,UNC            ; [CPU_] |301| 
     741                      ; branch occurs ; [] |301| 
     742 000000f3       $C$L26:    
     743                      .dwpsn  file "C:/ti/motorware/motorware_1_01_00_14/sw/drivers/gpio/src/32b/f28x/f2806x/gpio.c",line 2
     744 000000f3 83A4          MOVL      XAR5,XAR4             ; [CPU_] |285| 
     745 000000f4 28A8          MOV       AH,#32752             ; [CPU_] |285| 
         000000f5 7FF0 
     746                      .dwpsn  file "C:/ti/motorware/motorware_1_01_00_14/sw/drivers/gpio/src/32b/f28x/f2806x/gpio.c",line 2
     747 000000f6 DC08          ADDB      XAR4,#8               ; [CPU_] |288| 
     748                      .dwpsn  file "C:/ti/motorware/motorware_1_01_00_14/sw/drivers/gpio/src/32b/f28x/f2806x/gpio.c",line 2
     749 000000f7 DD08          ADDB      XAR5,#8               ; [CPU_] |285| 
     750                      .dwpsn  file "C:/ti/motorware/motorware_1_01_00_14/sw/drivers/gpio/src/32b/f28x/f2806x/gpio.c",line 2
     751 000000f8 6FE7          B         $C$L24,UNC            ; [CPU_] |289| 
     752                      ; branch occurs ; [] |289| 
     753 000000f9       $C$L27:    
     754                      .dwpsn  file "C:/ti/motorware/motorware_1_01_00_14/sw/drivers/gpio/src/32b/f28x/f2806x/gpio.c",line 2
     755 000000f9 5603          MOV       ACC,AL << #1          ; [CPU_] |273| 
         000000fa 01A9 
     756 000000fb 2DA9          MOV       T,AL                  ; [CPU_] |273| 
     757 000000fc 0203          MOVB      ACC,#3                ; [CPU_] |273| 
     758 000000fd 563B          LSLL      ACC,T                 ; [CPU_] |273| 
     759 000000fe FF55          NOT       ACC                   ; [CPU_] |273| 
     760 000000ff C0F4          AND       *+XAR4[6],AL          ; [CPU_] |273| 
     761 00000100 C1FC          AND       *+XAR4[7],AH          ; [CPU_] |273| 
     762                      .dwpsn  file "C:/ti/motorware/motorware_1_01_00_14/sw/drivers/gpio/src/32b/f28x/f2806x/gpio.c",line 2
     763 00000101 0EA6          MOVU      ACC,AR6               ; [CPU_] |276| 
     764 00000102 563B          LSLL      ACC,T                 ; [CPU_] |276| 
     765 00000103 98F4          OR        *+XAR4[6],AL          ; [CPU_] |276| 
     766 00000104 99FC          OR        *+XAR4[7],AH          ; [CPU_] |276| 
     767 00000105       $C$L28:    
     768 00000105 761A   EDIS
     769 00000106 FF69          SPM       #0                    ; [CPU_] 
     770              $C$DW$46        .dwtag  DW_TAG_TI_branch
     771                      .dwattr $C$DW$46, DW_AT_low_pc(0x00)
     772                      .dwattr $C$DW$46, DW_AT_TI_return
     773 00000107 0006          LRETR     ; [CPU_] 
     774                      ; return occurs ; [] 
     775                      .dwattr $C$DW$39, DW_AT_TI_end_file("C:/ti/motorware/motorware_1_01_00_14/sw/drivers/gpio/src/32b/f28
     776                      .dwattr $C$DW$39, DW_AT_TI_end_line(0x13e)
     777                      .dwattr $C$DW$39, DW_AT_TI_end_column(0x01)
     778                      .dwendentry
     779                      .dwendtag $C$DW$39
     780              
     781 00000108               .sect   ".text"
     782                      .clink
     783                      .global _GPIO_setLow
     784              
     785              $C$DW$47        .dwtag  DW_TAG_subprogram, DW_AT_name("GPIO_setLow")
TMS320C2000 Assembler PC v6.4.4 Wed Jul 08 10:29:38 2015

Tools Copyright (c) 1996-2015 Texas Instruments Incorporated
C:\Users\grant\AppData\Local\Temp\0693210                            PAGE   16

     786                      .dwattr $C$DW$47, DW_AT_low_pc(_GPIO_setLow)
     787                      .dwattr $C$DW$47, DW_AT_high_pc(0x00)
     788                      .dwattr $C$DW$47, DW_AT_TI_symbol_name("_GPIO_setLow")
     789                      .dwattr $C$DW$47, DW_AT_external
     790                      .dwattr $C$DW$47, DW_AT_TI_begin_file("C:/ti/motorware/motorware_1_01_00_14/sw/drivers/gpio/src/32b/f
     791                      .dwattr $C$DW$47, DW_AT_TI_begin_line(0xed)
     792                      .dwattr $C$DW$47, DW_AT_TI_begin_column(0x06)
     793                      .dwattr $C$DW$47, DW_AT_TI_max_frame_size(-2)
     794                      .dwpsn  file "C:/ti/motorware/motorware_1_01_00_14/sw/drivers/gpio/src/32b/f28x/f2806x/gpio.c",line 2
     795              
     796                      .dwfde $C$DW$CIE, _GPIO_setLow
     797              $C$DW$48        .dwtag  DW_TAG_formal_parameter, DW_AT_name("gpioHandle")
     798                      .dwattr $C$DW$48, DW_AT_TI_symbol_name("_gpioHandle")
     799                      .dwattr $C$DW$48, DW_AT_type(*$C$DW$T$53)
     800                      .dwattr $C$DW$48, DW_AT_location[DW_OP_reg12]
     801              $C$DW$49        .dwtag  DW_TAG_formal_parameter, DW_AT_name("gpioNumber")
     802                      .dwattr $C$DW$49, DW_AT_TI_symbol_name("_gpioNumber")
     803                      .dwattr $C$DW$49, DW_AT_type(*$C$DW$T$32)
     804                      .dwattr $C$DW$49, DW_AT_location[DW_OP_reg0]
     805              
     806              ;***************************************************************
     807              ;* FNAME: _GPIO_setLow                  FR SIZE:   0           *
     808              ;*                                                             *
     809              ;* FUNCTION ENVIRONMENT                                        *
     810              ;*                                                             *
     811              ;* FUNCTION PROPERTIES                                         *
     812              ;*                            0 Parameter,  0 Auto,  0 SOE     *
     813              ;***************************************************************
     814              
     815              _GPIO_setLow:
     816              ;* T     assigned to _gpioNumber
     817              $C$DW$50        .dwtag  DW_TAG_variable, DW_AT_name("gpioNumber")
     818                      .dwattr $C$DW$50, DW_AT_TI_symbol_name("_gpioNumber")
     819                      .dwattr $C$DW$50, DW_AT_type(*$C$DW$T$32)
     820                      .dwattr $C$DW$50, DW_AT_location[DW_OP_reg22]
     821              ;* AR4   assigned to _gpioHandle
     822              $C$DW$51        .dwtag  DW_TAG_variable, DW_AT_name("gpioHandle")
     823                      .dwattr $C$DW$51, DW_AT_TI_symbol_name("_gpioHandle")
     824                      .dwattr $C$DW$51, DW_AT_type(*$C$DW$T$54)
     825                      .dwattr $C$DW$51, DW_AT_location[DW_OP_reg12]
     826                      .dwcfi  cfa_offset, -2
     827                      .dwcfi  save_reg_to_mem, 26, 0
     828 00000108 2DA9          MOV       T,AL                  ; [CPU_] |238| 
     829 00000109 7622   EALLOW
     830                      .dwpsn  file "C:/ti/motorware/motorware_1_01_00_14/sw/drivers/gpio/src/32b/f28x/f2806x/gpio.c",line 2
     831 0000010a 5220          CMPB      AL,#32                ; [CPU_] |244| 
     832 0000010b 56C8          BF        $C$L29,LO             ; [CPU_] |244| 
         0000010c 0007 
     833                      ; branchcc occurs ; [] |244| 
     834                      .dwpsn  file "C:/ti/motorware/motorware_1_01_00_14/sw/drivers/gpio/src/32b/f28x/f2806x/gpio.c",line 2
     835 0000010d 5DAC          MOVZ      AR5,T                 ; [CPU_] |250| 
     836 0000010e D04C          MOVB      XAR0,#76              ; [CPU_] |250| 
     837 0000010f DDA0          SUBB      XAR5,#32              ; [CPU_U] |250| 
     838 00000110 2DA5          MOV       T,AR5                 ; [CPU_] |250| 
     839 00000111 6F02          B         $C$L30,UNC            ; [CPU_] |250| 
TMS320C2000 Assembler PC v6.4.4 Wed Jul 08 10:29:38 2015

Tools Copyright (c) 1996-2015 Texas Instruments Incorporated
C:\Users\grant\AppData\Local\Temp\0693210                            PAGE   17

     840                      ; branch occurs ; [] |250| 
     841 00000112       $C$L29:    
     842                      .dwpsn  file "C:/ti/motorware/motorware_1_01_00_14/sw/drivers/gpio/src/32b/f28x/f2806x/gpio.c",line 2
     843 00000112 D044          MOVB      XAR0,#68              ; [CPU_] |246| 
     844 00000113       $C$L30:    
     845 00000113 0201          MOVB      ACC,#1                ; [CPU_] |246| 
     846 00000114 563B          LSLL      ACC,T                 ; [CPU_] |246| 
     847 00000115 1E94          MOVL      *+XAR4[AR0],ACC       ; [CPU_] |246| 
     848 00000116 761A   EDIS
     849 00000117 FF69          SPM       #0                    ; [CPU_] 
     850              $C$DW$52        .dwtag  DW_TAG_TI_branch
     851                      .dwattr $C$DW$52, DW_AT_low_pc(0x00)
     852                      .dwattr $C$DW$52, DW_AT_TI_return
     853 00000118 0006          LRETR     ; [CPU_] 
     854                      ; return occurs ; [] 
     855                      .dwattr $C$DW$47, DW_AT_TI_end_file("C:/ti/motorware/motorware_1_01_00_14/sw/drivers/gpio/src/32b/f28
     856                      .dwattr $C$DW$47, DW_AT_TI_end_line(0x100)
     857                      .dwattr $C$DW$47, DW_AT_TI_end_column(0x01)
     858                      .dwendentry
     859                      .dwendtag $C$DW$47
     860              
     861 00000119               .sect   ".text"
     862                      .clink
     863                      .global _GPIO_setHigh
     864              
     865              $C$DW$53        .dwtag  DW_TAG_subprogram, DW_AT_name("GPIO_setHigh")
     866                      .dwattr $C$DW$53, DW_AT_low_pc(_GPIO_setHigh)
     867                      .dwattr $C$DW$53, DW_AT_high_pc(0x00)
     868                      .dwattr $C$DW$53, DW_AT_TI_symbol_name("_GPIO_setHigh")
     869                      .dwattr $C$DW$53, DW_AT_external
     870                      .dwattr $C$DW$53, DW_AT_TI_begin_file("C:/ti/motorware/motorware_1_01_00_14/sw/drivers/gpio/src/32b/f
     871                      .dwattr $C$DW$53, DW_AT_TI_begin_line(0xd7)
     872                      .dwattr $C$DW$53, DW_AT_TI_begin_column(0x06)
     873                      .dwattr $C$DW$53, DW_AT_TI_max_frame_size(-2)
     874                      .dwpsn  file "C:/ti/motorware/motorware_1_01_00_14/sw/drivers/gpio/src/32b/f28x/f2806x/gpio.c",line 2
     875              
     876                      .dwfde $C$DW$CIE, _GPIO_setHigh
     877              $C$DW$54        .dwtag  DW_TAG_formal_parameter, DW_AT_name("gpioHandle")
     878                      .dwattr $C$DW$54, DW_AT_TI_symbol_name("_gpioHandle")
     879                      .dwattr $C$DW$54, DW_AT_type(*$C$DW$T$53)
     880                      .dwattr $C$DW$54, DW_AT_location[DW_OP_reg12]
     881              $C$DW$55        .dwtag  DW_TAG_formal_parameter, DW_AT_name("gpioNumber")
     882                      .dwattr $C$DW$55, DW_AT_TI_symbol_name("_gpioNumber")
     883                      .dwattr $C$DW$55, DW_AT_type(*$C$DW$T$32)
     884                      .dwattr $C$DW$55, DW_AT_location[DW_OP_reg0]
     885              
     886              ;***************************************************************
     887              ;* FNAME: _GPIO_setHigh                 FR SIZE:   0           *
     888              ;*                                                             *
     889              ;* FUNCTION ENVIRONMENT                                        *
     890              ;*                                                             *
     891              ;* FUNCTION PROPERTIES                                         *
     892              ;*                            0 Parameter,  0 Auto,  0 SOE     *
     893              ;***************************************************************
     894              
TMS320C2000 Assembler PC v6.4.4 Wed Jul 08 10:29:38 2015

Tools Copyright (c) 1996-2015 Texas Instruments Incorporated
C:\Users\grant\AppData\Local\Temp\0693210                            PAGE   18

     895              _GPIO_setHigh:
     896              ;* T     assigned to _gpioNumber
     897              $C$DW$56        .dwtag  DW_TAG_variable, DW_AT_name("gpioNumber")
     898                      .dwattr $C$DW$56, DW_AT_TI_symbol_name("_gpioNumber")
     899                      .dwattr $C$DW$56, DW_AT_type(*$C$DW$T$32)
     900                      .dwattr $C$DW$56, DW_AT_location[DW_OP_reg22]
     901              ;* AR4   assigned to _gpioHandle
     902              $C$DW$57        .dwtag  DW_TAG_variable, DW_AT_name("gpioHandle")
     903                      .dwattr $C$DW$57, DW_AT_TI_symbol_name("_gpioHandle")
     904                      .dwattr $C$DW$57, DW_AT_type(*$C$DW$T$54)
     905                      .dwattr $C$DW$57, DW_AT_location[DW_OP_reg12]
     906                      .dwcfi  cfa_offset, -2
     907                      .dwcfi  save_reg_to_mem, 26, 0
     908 00000119 2DA9          MOV       T,AL                  ; [CPU_] |216| 
     909 0000011a 7622   EALLOW
     910                      .dwpsn  file "C:/ti/motorware/motorware_1_01_00_14/sw/drivers/gpio/src/32b/f28x/f2806x/gpio.c",line 2
     911 0000011b 5220          CMPB      AL,#32                ; [CPU_] |222| 
     912 0000011c 56C8          BF        $C$L31,LO             ; [CPU_] |222| 
         0000011d 0007 
     913                      ; branchcc occurs ; [] |222| 
     914                      .dwpsn  file "C:/ti/motorware/motorware_1_01_00_14/sw/drivers/gpio/src/32b/f28x/f2806x/gpio.c",line 2
     915 0000011e 5DAC          MOVZ      AR5,T                 ; [CPU_] |228| 
     916 0000011f D04A          MOVB      XAR0,#74              ; [CPU_] |228| 
     917 00000120 DDA0          SUBB      XAR5,#32              ; [CPU_U] |228| 
     918 00000121 2DA5          MOV       T,AR5                 ; [CPU_] |228| 
     919 00000122 6F02          B         $C$L32,UNC            ; [CPU_] |228| 
     920                      ; branch occurs ; [] |228| 
     921 00000123       $C$L31:    
     922                      .dwpsn  file "C:/ti/motorware/motorware_1_01_00_14/sw/drivers/gpio/src/32b/f28x/f2806x/gpio.c",line 2
     923 00000123 D042          MOVB      XAR0,#66              ; [CPU_] |224| 
     924 00000124       $C$L32:    
     925 00000124 0201          MOVB      ACC,#1                ; [CPU_] |224| 
     926 00000125 563B          LSLL      ACC,T                 ; [CPU_] |224| 
     927 00000126 1E94          MOVL      *+XAR4[AR0],ACC       ; [CPU_] |224| 
     928 00000127 761A   EDIS
     929 00000128 FF69          SPM       #0                    ; [CPU_] 
     930              $C$DW$58        .dwtag  DW_TAG_TI_branch
     931                      .dwattr $C$DW$58, DW_AT_low_pc(0x00)
     932                      .dwattr $C$DW$58, DW_AT_TI_return
     933 00000129 0006          LRETR     ; [CPU_] 
     934                      ; return occurs ; [] 
     935                      .dwattr $C$DW$53, DW_AT_TI_end_file("C:/ti/motorware/motorware_1_01_00_14/sw/drivers/gpio/src/32b/f28
     936                      .dwattr $C$DW$53, DW_AT_TI_end_line(0xea)
     937                      .dwattr $C$DW$53, DW_AT_TI_end_column(0x01)
     938                      .dwendentry
     939                      .dwendtag $C$DW$53
     940              
     941 0000012a               .sect   ".text"
     942                      .clink
     943                      .global _GPIO_setExtInt
     944              
     945              $C$DW$59        .dwtag  DW_TAG_subprogram, DW_AT_name("GPIO_setExtInt")
     946                      .dwattr $C$DW$59, DW_AT_low_pc(_GPIO_setExtInt)
     947                      .dwattr $C$DW$59, DW_AT_high_pc(0x00)
     948                      .dwattr $C$DW$59, DW_AT_TI_symbol_name("_GPIO_setExtInt")
TMS320C2000 Assembler PC v6.4.4 Wed Jul 08 10:29:38 2015

Tools Copyright (c) 1996-2015 Texas Instruments Incorporated
C:\Users\grant\AppData\Local\Temp\0693210                            PAGE   19

     949                      .dwattr $C$DW$59, DW_AT_external
     950                      .dwattr $C$DW$59, DW_AT_TI_begin_file("C:/ti/motorware/motorware_1_01_00_14/sw/drivers/gpio/src/32b/f
     951                      .dwattr $C$DW$59, DW_AT_TI_begin_line(0xa9)
     952                      .dwattr $C$DW$59, DW_AT_TI_begin_column(0x06)
     953                      .dwattr $C$DW$59, DW_AT_TI_max_frame_size(-2)
     954                      .dwpsn  file "C:/ti/motorware/motorware_1_01_00_14/sw/drivers/gpio/src/32b/f28x/f2806x/gpio.c",line 1
     955              
     956                      .dwfde $C$DW$CIE, _GPIO_setExtInt
     957              $C$DW$60        .dwtag  DW_TAG_formal_parameter, DW_AT_name("gpioHandle")
     958                      .dwattr $C$DW$60, DW_AT_TI_symbol_name("_gpioHandle")
     959                      .dwattr $C$DW$60, DW_AT_type(*$C$DW$T$53)
     960                      .dwattr $C$DW$60, DW_AT_location[DW_OP_reg12]
     961              $C$DW$61        .dwtag  DW_TAG_formal_parameter, DW_AT_name("gpioNumber")
     962                      .dwattr $C$DW$61, DW_AT_TI_symbol_name("_gpioNumber")
     963                      .dwattr $C$DW$61, DW_AT_type(*$C$DW$T$32)
     964                      .dwattr $C$DW$61, DW_AT_location[DW_OP_reg0]
     965              $C$DW$62        .dwtag  DW_TAG_formal_parameter, DW_AT_name("intNumber")
     966                      .dwattr $C$DW$62, DW_AT_TI_symbol_name("_intNumber")
     967                      .dwattr $C$DW$62, DW_AT_type(*$C$DW$T$44)
     968                      .dwattr $C$DW$62, DW_AT_location[DW_OP_reg1]
     969              
     970              ;***************************************************************
     971              ;* FNAME: _GPIO_setExtInt               FR SIZE:   0           *
     972              ;*                                                             *
     973              ;* FUNCTION ENVIRONMENT                                        *
     974              ;*                                                             *
     975              ;* FUNCTION PROPERTIES                                         *
     976              ;*                            0 Parameter,  0 Auto,  0 SOE     *
     977              ;***************************************************************
     978              
     979              _GPIO_setExtInt:
     980              ;* AL    assigned to _gpioHandle
     981              $C$DW$63        .dwtag  DW_TAG_variable, DW_AT_name("gpioHandle")
     982                      .dwattr $C$DW$63, DW_AT_TI_symbol_name("_gpioHandle")
     983                      .dwattr $C$DW$63, DW_AT_type(*$C$DW$T$54)
     984                      .dwattr $C$DW$63, DW_AT_location[DW_OP_reg0]
     985              ;* AR6   assigned to _gpioNumber
     986              $C$DW$64        .dwtag  DW_TAG_variable, DW_AT_name("gpioNumber")
     987                      .dwattr $C$DW$64, DW_AT_TI_symbol_name("_gpioNumber")
     988                      .dwattr $C$DW$64, DW_AT_type(*$C$DW$T$32)
     989                      .dwattr $C$DW$64, DW_AT_location[DW_OP_reg16]
     990              ;* AR7   assigned to _intNumber
     991              $C$DW$65        .dwtag  DW_TAG_variable, DW_AT_name("intNumber")
     992                      .dwattr $C$DW$65, DW_AT_TI_symbol_name("_intNumber")
     993                      .dwattr $C$DW$65, DW_AT_type(*$C$DW$T$44)
     994                      .dwattr $C$DW$65, DW_AT_location[DW_OP_reg18]
     995                      .dwcfi  cfa_offset, -2
     996                      .dwcfi  save_reg_to_mem, 26, 0
     997 0000012a 80A8          MOVZ      AR7,AH                ; [CPU_] |170| 
     998 0000012b 88A9          MOVZ      AR6,AL                ; [CPU_] |170| 
     999 0000012c A8A9          MOVL      ACC,XAR4              ; [CPU_] |170| 
    1000 0000012d 7622   EALLOW
    1001                      .dwpsn  file "C:/ti/motorware/motorware_1_01_00_14/sw/drivers/gpio/src/32b/f28x/f2806x/gpio.c",line 1
    1002 0000012e 0DA7          ADDU      ACC,AR7               ; [CPU_] |177| 
    1003 0000012f 8AA9          MOVL      XAR4,ACC              ; [CPU_] |177| 
TMS320C2000 Assembler PC v6.4.4 Wed Jul 08 10:29:38 2015

Tools Copyright (c) 1996-2015 Texas Instruments Incorporated
C:\Users\grant\AppData\Local\Temp\0693210                            PAGE   20

    1004 00000130 D060          MOVB      XAR0,#96              ; [CPU_] |177| 
    1005 00000131 7E94          MOV       *+XAR4[AR0],AR6       ; [CPU_] |177| 
    1006 00000132 761A   EDIS
    1007 00000133 FF69          SPM       #0                    ; [CPU_] 
    1008              $C$DW$66        .dwtag  DW_TAG_TI_branch
    1009                      .dwattr $C$DW$66, DW_AT_low_pc(0x00)
    1010                      .dwattr $C$DW$66, DW_AT_TI_return
    1011 00000134 0006          LRETR     ; [CPU_] 
    1012                      ; return occurs ; [] 
    1013                      .dwattr $C$DW$59, DW_AT_TI_end_file("C:/ti/motorware/motorware_1_01_00_14/sw/drivers/gpio/src/32b/f28
    1014                      .dwattr $C$DW$59, DW_AT_TI_end_line(0xb6)
    1015                      .dwattr $C$DW$59, DW_AT_TI_end_column(0x01)
    1016                      .dwendentry
    1017                      .dwendtag $C$DW$59
    1018              
    1019 00000135               .sect   ".text"
    1020                      .clink
    1021                      .global _GPIO_setDirection
    1022              
    1023              $C$DW$67        .dwtag  DW_TAG_subprogram, DW_AT_name("GPIO_setDirection")
    1024                      .dwattr $C$DW$67, DW_AT_low_pc(_GPIO_setDirection)
    1025                      .dwattr $C$DW$67, DW_AT_high_pc(0x00)
    1026                      .dwattr $C$DW$67, DW_AT_TI_symbol_name("_GPIO_setDirection")
    1027                      .dwattr $C$DW$67, DW_AT_external
    1028                      .dwattr $C$DW$67, DW_AT_TI_begin_file("C:/ti/motorware/motorware_1_01_00_14/sw/drivers/gpio/src/32b/f
    1029                      .dwattr $C$DW$67, DW_AT_TI_begin_line(0x8b)
    1030                      .dwattr $C$DW$67, DW_AT_TI_begin_column(0x06)
    1031                      .dwattr $C$DW$67, DW_AT_TI_max_frame_size(-2)
    1032                      .dwpsn  file "C:/ti/motorware/motorware_1_01_00_14/sw/drivers/gpio/src/32b/f28x/f2806x/gpio.c",line 1
    1033              
    1034                      .dwfde $C$DW$CIE, _GPIO_setDirection
    1035              $C$DW$68        .dwtag  DW_TAG_formal_parameter, DW_AT_name("gpioHandle")
    1036                      .dwattr $C$DW$68, DW_AT_TI_symbol_name("_gpioHandle")
    1037                      .dwattr $C$DW$68, DW_AT_type(*$C$DW$T$53)
    1038                      .dwattr $C$DW$68, DW_AT_location[DW_OP_reg12]
    1039              $C$DW$69        .dwtag  DW_TAG_formal_parameter, DW_AT_name("gpioNumber")
    1040                      .dwattr $C$DW$69, DW_AT_TI_symbol_name("_gpioNumber")
    1041                      .dwattr $C$DW$69, DW_AT_type(*$C$DW$T$32)
    1042                      .dwattr $C$DW$69, DW_AT_location[DW_OP_reg0]
    1043              $C$DW$70        .dwtag  DW_TAG_formal_parameter, DW_AT_name("direction")
    1044                      .dwattr $C$DW$70, DW_AT_TI_symbol_name("_direction")
    1045                      .dwattr $C$DW$70, DW_AT_type(*$C$DW$T$41)
    1046                      .dwattr $C$DW$70, DW_AT_location[DW_OP_reg1]
    1047              
    1048              ;***************************************************************
    1049              ;* FNAME: _GPIO_setDirection            FR SIZE:   0           *
    1050              ;*                                                             *
    1051              ;* FUNCTION ENVIRONMENT                                        *
    1052              ;*                                                             *
    1053              ;* FUNCTION PROPERTIES                                         *
    1054              ;*                            0 Parameter,  0 Auto,  0 SOE     *
    1055              ;***************************************************************
    1056              
    1057              _GPIO_setDirection:
    1058              ;* T     assigned to $O$C1
TMS320C2000 Assembler PC v6.4.4 Wed Jul 08 10:29:38 2015

Tools Copyright (c) 1996-2015 Texas Instruments Incorporated
C:\Users\grant\AppData\Local\Temp\0693210                            PAGE   21

    1059              ;* AR6   assigned to _direction
    1060              $C$DW$71        .dwtag  DW_TAG_variable, DW_AT_name("direction")
    1061                      .dwattr $C$DW$71, DW_AT_TI_symbol_name("_direction")
    1062                      .dwattr $C$DW$71, DW_AT_type(*$C$DW$T$41)
    1063                      .dwattr $C$DW$71, DW_AT_location[DW_OP_reg16]
    1064              ;* T     assigned to _gpioNumber
    1065              $C$DW$72        .dwtag  DW_TAG_variable, DW_AT_name("gpioNumber")
    1066                      .dwattr $C$DW$72, DW_AT_TI_symbol_name("_gpioNumber")
    1067                      .dwattr $C$DW$72, DW_AT_type(*$C$DW$T$32)
    1068                      .dwattr $C$DW$72, DW_AT_location[DW_OP_reg22]
    1069              ;* AR4   assigned to _gpioHandle
    1070              $C$DW$73        .dwtag  DW_TAG_variable, DW_AT_name("gpioHandle")
    1071                      .dwattr $C$DW$73, DW_AT_TI_symbol_name("_gpioHandle")
    1072                      .dwattr $C$DW$73, DW_AT_type(*$C$DW$T$54)
    1073                      .dwattr $C$DW$73, DW_AT_location[DW_OP_reg12]
    1074                      .dwcfi  cfa_offset, -2
    1075                      .dwcfi  save_reg_to_mem, 26, 0
    1076 00000135 88A8          MOVZ      AR6,AH                ; [CPU_] |140| 
    1077 00000136 2DA9          MOV       T,AL                  ; [CPU_] |140| 
    1078 00000137 7622   EALLOW
    1079                      .dwpsn  file "C:/ti/motorware/motorware_1_01_00_14/sw/drivers/gpio/src/32b/f28x/f2806x/gpio.c",line 1
    1080 00000138 5220          CMPB      AL,#32                ; [CPU_] |146| 
    1081 00000139 56C8          BF        $C$L33,LO             ; [CPU_] |146| 
         0000013a 0008 
    1082                      ; branchcc occurs ; [] |146| 
    1083                      .dwpsn  file "C:/ti/motorware/motorware_1_01_00_14/sw/drivers/gpio/src/32b/f28x/f2806x/gpio.c",line 1
    1084 0000013b 83A4          MOVL      XAR5,XAR4             ; [CPU_] |157| 
    1085 0000013c 9CE0          ADDB      AL,#-32               ; [CPU_] |157| 
    1086 0000013d 2DA9          MOV       T,AL                  ; [CPU_] |157| 
    1087                      .dwpsn  file "C:/ti/motorware/motorware_1_01_00_14/sw/drivers/gpio/src/32b/f28x/f2806x/gpio.c",line 1
    1088 0000013e DC1A          ADDB      XAR4,#26              ; [CPU_] |160| 
    1089                      .dwpsn  file "C:/ti/motorware/motorware_1_01_00_14/sw/drivers/gpio/src/32b/f28x/f2806x/gpio.c",line 1
    1090 0000013f DD1A          ADDB      XAR5,#26              ; [CPU_] |157| 
    1091                      .dwpsn  file "C:/ti/motorware/motorware_1_01_00_14/sw/drivers/gpio/src/32b/f28x/f2806x/gpio.c",line 1
    1092 00000140 6F04          B         $C$L34,UNC            ; [CPU_] |160| 
    1093                      ; branch occurs ; [] |160| 
    1094 00000141       $C$L33:    
    1095                      .dwpsn  file "C:/ti/motorware/motorware_1_01_00_14/sw/drivers/gpio/src/32b/f28x/f2806x/gpio.c",line 1
    1096 00000141 83A4          MOVL      XAR5,XAR4             ; [CPU_] |149| 
    1097                      .dwpsn  file "C:/ti/motorware/motorware_1_01_00_14/sw/drivers/gpio/src/32b/f28x/f2806x/gpio.c",line 1
    1098 00000142 DC0A          ADDB      XAR4,#10              ; [CPU_] |152| 
    1099                      .dwpsn  file "C:/ti/motorware/motorware_1_01_00_14/sw/drivers/gpio/src/32b/f28x/f2806x/gpio.c",line 1
    1100 00000143 DD0A          ADDB      XAR5,#10              ; [CPU_] |149| 
    1101 00000144       $C$L34:    
    1102 00000144 0201          MOVB      ACC,#1                ; [CPU_] |149| 
    1103 00000145 563B          LSLL      ACC,T                 ; [CPU_] |149| 
    1104 00000146 FF55          NOT       ACC                   ; [CPU_] |149| 
    1105 00000147 C0C5          AND       *+XAR5[0],AL          ; [CPU_] |149| 
    1106 00000148 C1CD          AND       *+XAR5[1],AH          ; [CPU_] |149| 
    1107                      .dwpsn  file "C:/ti/motorware/motorware_1_01_00_14/sw/drivers/gpio/src/32b/f28x/f2806x/gpio.c",line 1
    1108 00000149 0EA6          MOVU      ACC,AR6               ; [CPU_] |152| 
    1109 0000014a 563B          LSLL      ACC,T                 ; [CPU_] |152| 
    1110 0000014b 98C4          OR        *+XAR4[0],AL          ; [CPU_] |152| 
    1111 0000014c 99CC          OR        *+XAR4[1],AH          ; [CPU_] |152| 
    1112 0000014d 761A   EDIS
TMS320C2000 Assembler PC v6.4.4 Wed Jul 08 10:29:38 2015

Tools Copyright (c) 1996-2015 Texas Instruments Incorporated
C:\Users\grant\AppData\Local\Temp\0693210                            PAGE   22

    1113 0000014e FF69          SPM       #0                    ; [CPU_] 
    1114              $C$DW$74        .dwtag  DW_TAG_TI_branch
    1115                      .dwattr $C$DW$74, DW_AT_low_pc(0x00)
    1116                      .dwattr $C$DW$74, DW_AT_TI_return
    1117 0000014f 0006          LRETR     ; [CPU_] 
    1118                      ; return occurs ; [] 
    1119                      .dwattr $C$DW$67, DW_AT_TI_end_file("C:/ti/motorware/motorware_1_01_00_14/sw/drivers/gpio/src/32b/f28
    1120                      .dwattr $C$DW$67, DW_AT_TI_end_line(0xa6)
    1121                      .dwattr $C$DW$67, DW_AT_TI_end_column(0x01)
    1122                      .dwendentry
    1123                      .dwendtag $C$DW$67
    1124              
    1125 00000150               .sect   ".text"
    1126                      .clink
    1127                      .global _GPIO_read
    1128              
    1129              $C$DW$75        .dwtag  DW_TAG_subprogram, DW_AT_name("GPIO_read")
    1130                      .dwattr $C$DW$75, DW_AT_low_pc(_GPIO_read)
    1131                      .dwattr $C$DW$75, DW_AT_high_pc(0x00)
    1132                      .dwattr $C$DW$75, DW_AT_TI_symbol_name("_GPIO_read")
    1133                      .dwattr $C$DW$75, DW_AT_external
    1134                      .dwattr $C$DW$75, DW_AT_type(*$C$DW$T$81)
    1135                      .dwattr $C$DW$75, DW_AT_TI_begin_file("C:/ti/motorware/motorware_1_01_00_14/sw/drivers/gpio/src/32b/f
    1136                      .dwattr $C$DW$75, DW_AT_TI_begin_line(0xb9)
    1137                      .dwattr $C$DW$75, DW_AT_TI_begin_column(0x06)
    1138                      .dwattr $C$DW$75, DW_AT_TI_max_frame_size(-4)
    1139                      .dwpsn  file "C:/ti/motorware/motorware_1_01_00_14/sw/drivers/gpio/src/32b/f28x/f2806x/gpio.c",line 1
    1140              
    1141                      .dwfde $C$DW$CIE, _GPIO_read
    1142              $C$DW$76        .dwtag  DW_TAG_formal_parameter, DW_AT_name("gpioHandle")
    1143                      .dwattr $C$DW$76, DW_AT_TI_symbol_name("_gpioHandle")
    1144                      .dwattr $C$DW$76, DW_AT_type(*$C$DW$T$53)
    1145                      .dwattr $C$DW$76, DW_AT_location[DW_OP_reg12]
    1146              $C$DW$77        .dwtag  DW_TAG_formal_parameter, DW_AT_name("gpioNumber")
    1147                      .dwattr $C$DW$77, DW_AT_TI_symbol_name("_gpioNumber")
    1148                      .dwattr $C$DW$77, DW_AT_type(*$C$DW$T$32)
    1149                      .dwattr $C$DW$77, DW_AT_location[DW_OP_reg0]
    1150              
    1151              ;***************************************************************
    1152              ;* FNAME: _GPIO_read                    FR SIZE:   2           *
    1153              ;*                                                             *
    1154              ;* FUNCTION ENVIRONMENT                                        *
    1155              ;*                                                             *
    1156              ;* FUNCTION PROPERTIES                                         *
    1157              ;*                            0 Parameter,  2 Auto,  0 SOE     *
    1158              ;***************************************************************
    1159              
    1160              _GPIO_read:
    1161              ;* AL    assigned to _gpio_read
    1162              $C$DW$78        .dwtag  DW_TAG_variable, DW_AT_name("gpio_read")
    1163                      .dwattr $C$DW$78, DW_AT_TI_symbol_name("_gpio_read")
    1164                      .dwattr $C$DW$78, DW_AT_type(*$C$DW$T$19)
    1165                      .dwattr $C$DW$78, DW_AT_location[DW_OP_reg0]
    1166              ;* AL    assigned to _gpio_status
    1167              $C$DW$79        .dwtag  DW_TAG_variable, DW_AT_name("gpio_status")
TMS320C2000 Assembler PC v6.4.4 Wed Jul 08 10:29:38 2015

Tools Copyright (c) 1996-2015 Texas Instruments Incorporated
C:\Users\grant\AppData\Local\Temp\0693210                            PAGE   23

    1168                      .dwattr $C$DW$79, DW_AT_TI_symbol_name("_gpio_status")
    1169                      .dwattr $C$DW$79, DW_AT_type(*$C$DW$T$81)
    1170                      .dwattr $C$DW$79, DW_AT_location[DW_OP_reg0]
    1171              ;* T     assigned to _gpioNumber
    1172              $C$DW$80        .dwtag  DW_TAG_variable, DW_AT_name("gpioNumber")
    1173                      .dwattr $C$DW$80, DW_AT_TI_symbol_name("_gpioNumber")
    1174                      .dwattr $C$DW$80, DW_AT_type(*$C$DW$T$32)
    1175                      .dwattr $C$DW$80, DW_AT_location[DW_OP_reg22]
    1176              ;* AR4   assigned to _gpioHandle
    1177              $C$DW$81        .dwtag  DW_TAG_variable, DW_AT_name("gpioHandle")
    1178                      .dwattr $C$DW$81, DW_AT_TI_symbol_name("_gpioHandle")
    1179                      .dwattr $C$DW$81, DW_AT_type(*$C$DW$T$54)
    1180                      .dwattr $C$DW$81, DW_AT_location[DW_OP_reg12]
    1181                      .dwcfi  cfa_offset, -2
    1182                      .dwcfi  save_reg_to_mem, 26, 0
    1183 00000150 FE02          ADDB      SP,#2                 ; [CPU_U] 
    1184                      .dwcfi  cfa_offset, -4
    1185                      .dwpsn  file "C:/ti/motorware/motorware_1_01_00_14/sw/drivers/gpio/src/32b/f28x/f2806x/gpio.c",line 1
    1186 00000151 5220          CMPB      AL,#32                ; [CPU_] |194| 
    1187                      .dwpsn  file "C:/ti/motorware/motorware_1_01_00_14/sw/drivers/gpio/src/32b/f28x/f2806x/gpio.c",line 1
    1188 00000152 2DA9          MOV       T,AL                  ; [CPU_] |186| 
    1189                      .dwpsn  file "C:/ti/motorware/motorware_1_01_00_14/sw/drivers/gpio/src/32b/f28x/f2806x/gpio.c",line 1
    1190 00000153 56C7          BF        $C$L35,HIS            ; [CPU_] |194| 
         00000154 0005 
    1191                      ; branchcc occurs ; [] |194| 
    1192 00000155 0201          MOVB      ACC,#1                ; [CPU_] |194| 
    1193 00000156 D040          MOVB      XAR0,#64              ; [CPU_] |194| 
    1194 00000157 6F07          B         $C$L36,UNC            ; [CPU_] |194| 
    1195                      ; branch occurs ; [] |194| 
    1196 00000158       $C$L35:    
    1197 00000158 0201          MOVB      ACC,#1                ; [CPU_] |194| 
    1198 00000159 D048          MOVB      XAR0,#72              ; [CPU_] |194| 
    1199 0000015a FF5A          MOVL      P,ACC                 ; [CPU_] |194| 
    1200 0000015b 92AC          MOV       AL,T                  ; [CPU_] |194| 
    1201 0000015c 9CE0          ADDB      AL,#-32               ; [CPU_] |194| 
    1202 0000015d 16A9          MOVP      T,AL                  ; [CPU_] 
    1203 0000015e       $C$L36:    
    1204 0000015e 563B          LSLL      ACC,T                 ; [CPU_] |194| 
    1205 0000015f FF5A          MOVL      P,ACC                 ; [CPU_] |194| 
    1206                      .dwpsn  file "C:/ti/motorware/motorware_1_01_00_14/sw/drivers/gpio/src/32b/f28x/f2806x/gpio.c",line 2
    1207 00000160 BE00          MOVB      XAR6,#0               ; [CPU_] |207| 
    1208                      .dwpsn  file "C:/ti/motorware/motorware_1_01_00_14/sw/drivers/gpio/src/32b/f28x/f2806x/gpio.c",line 1
    1209 00000161 0694          MOVL      ACC,*+XAR4[AR0]       ; [CPU_] |194| 
    1210 00000162 1E42          MOVL      *-SP[2],ACC           ; [CPU_] |194| 
    1211 00000163 9242          MOV       AL,*-SP[2]            ; [CPU_] |194| 
    1212 00000164 CEAB          AND       AL,PL                 ; [CPU_] |194| 
    1213 00000165 9642          MOV       *-SP[2],AL            ; [CPU_] |194| 
    1214 00000166 9241          MOV       AL,*-SP[1]            ; [CPU_] |194| 
    1215 00000167 CEAA          AND       AL,PH                 ; [CPU_] |194| 
    1216 00000168 9641          MOV       *-SP[1],AL            ; [CPU_] |194| 
    1217 00000169 0642          MOVL      ACC,*-SP[2]           ; [CPU_] |194| 
    1218                      .dwpsn  file "C:/ti/motorware/motorware_1_01_00_14/sw/drivers/gpio/src/32b/f28x/f2806x/gpio.c",line 2
    1219 0000016a FF58          TEST      ACC                   ; [CPU_] |207| 
    1220 0000016b 56B0          MOVB      XAR6,#1,NEQ           ; [CPU_] |207| 
         0000016c 01A6 
TMS320C2000 Assembler PC v6.4.4 Wed Jul 08 10:29:38 2015

Tools Copyright (c) 1996-2015 Texas Instruments Incorporated
C:\Users\grant\AppData\Local\Temp\0693210                            PAGE   24

    1221 0000016d 92A6          MOV       AL,AR6                ; [CPU_] |207| 
    1222 0000016e FE82          SUBB      SP,#2                 ; [CPU_U] 
    1223                      .dwcfi  cfa_offset, -2
    1224              $C$DW$82        .dwtag  DW_TAG_TI_branch
    1225                      .dwattr $C$DW$82, DW_AT_low_pc(0x00)
    1226                      .dwattr $C$DW$82, DW_AT_TI_return
    1227 0000016f 0006          LRETR     ; [CPU_] 
    1228                      ; return occurs ; [] 
    1229                      .dwattr $C$DW$75, DW_AT_TI_end_file("C:/ti/motorware/motorware_1_01_00_14/sw/drivers/gpio/src/32b/f28
    1230                      .dwattr $C$DW$75, DW_AT_TI_end_line(0xd4)
    1231                      .dwattr $C$DW$75, DW_AT_TI_end_column(0x01)
    1232                      .dwendentry
    1233                      .dwendtag $C$DW$75
    1234              
    1235 00000170               .sect   ".text"
    1236                      .clink
    1237                      .global _GPIO_lpmSelect
    1238              
    1239              $C$DW$83        .dwtag  DW_TAG_subprogram, DW_AT_name("GPIO_lpmSelect")
    1240                      .dwattr $C$DW$83, DW_AT_low_pc(_GPIO_lpmSelect)
    1241                      .dwattr $C$DW$83, DW_AT_high_pc(0x00)
    1242                      .dwattr $C$DW$83, DW_AT_TI_symbol_name("_GPIO_lpmSelect")
    1243                      .dwattr $C$DW$83, DW_AT_external
    1244                      .dwattr $C$DW$83, DW_AT_TI_begin_file("C:/ti/motorware/motorware_1_01_00_14/sw/drivers/gpio/src/32b/f
    1245                      .dwattr $C$DW$83, DW_AT_TI_begin_line(0x1cd)
    1246                      .dwattr $C$DW$83, DW_AT_TI_begin_column(0x06)
    1247                      .dwattr $C$DW$83, DW_AT_TI_max_frame_size(-2)
    1248                      .dwpsn  file "C:/ti/motorware/motorware_1_01_00_14/sw/drivers/gpio/src/32b/f28x/f2806x/gpio.c",line 4
    1249              
    1250                      .dwfde $C$DW$CIE, _GPIO_lpmSelect
    1251              $C$DW$84        .dwtag  DW_TAG_formal_parameter, DW_AT_name("gpioHandle")
    1252                      .dwattr $C$DW$84, DW_AT_TI_symbol_name("_gpioHandle")
    1253                      .dwattr $C$DW$84, DW_AT_type(*$C$DW$T$53)
    1254                      .dwattr $C$DW$84, DW_AT_location[DW_OP_reg12]
    1255              $C$DW$85        .dwtag  DW_TAG_formal_parameter, DW_AT_name("gpioNumber")
    1256                      .dwattr $C$DW$85, DW_AT_TI_symbol_name("_gpioNumber")
    1257                      .dwattr $C$DW$85, DW_AT_type(*$C$DW$T$32)
    1258                      .dwattr $C$DW$85, DW_AT_location[DW_OP_reg0]
    1259              
    1260              ;***************************************************************
    1261              ;* FNAME: _GPIO_lpmSelect               FR SIZE:   0           *
    1262              ;*                                                             *
    1263              ;* FUNCTION ENVIRONMENT                                        *
    1264              ;*                                                             *
    1265              ;* FUNCTION PROPERTIES                                         *
    1266              ;*                            0 Parameter,  0 Auto,  0 SOE     *
    1267              ;***************************************************************
    1268              
    1269              _GPIO_lpmSelect:
    1270              ;* T     assigned to _gpioNumber
    1271              $C$DW$86        .dwtag  DW_TAG_variable, DW_AT_name("gpioNumber")
    1272                      .dwattr $C$DW$86, DW_AT_TI_symbol_name("_gpioNumber")
    1273                      .dwattr $C$DW$86, DW_AT_type(*$C$DW$T$32)
    1274                      .dwattr $C$DW$86, DW_AT_location[DW_OP_reg22]
    1275                      .dwcfi  cfa_offset, -2
TMS320C2000 Assembler PC v6.4.4 Wed Jul 08 10:29:38 2015

Tools Copyright (c) 1996-2015 Texas Instruments Incorporated
C:\Users\grant\AppData\Local\Temp\0693210                            PAGE   25

    1276                      .dwcfi  save_reg_to_mem, 26, 0
    1277 00000170 2DA9          MOV       T,AL                  ; [CPU_] |462| 
    1278 00000171 7622   EALLOW
    1279                      .dwpsn  file "C:/ti/motorware/motorware_1_01_00_14/sw/drivers/gpio/src/32b/f28x/f2806x/gpio.c",line 4
    1280 00000172 DC68          ADDB      XAR4,#104             ; [CPU_] |467| 
    1281 00000173 0201          MOVB      ACC,#1                ; [CPU_] |467| 
    1282 00000174 563B          LSLL      ACC,T                 ; [CPU_] |467| 
    1283 00000175 98C4          OR        *+XAR4[0],AL          ; [CPU_] |467| 
    1284 00000176 99CC          OR        *+XAR4[1],AH          ; [CPU_] |467| 
    1285 00000177 761A   EDIS
    1286 00000178 FF69          SPM       #0                    ; [CPU_] 
    1287              $C$DW$87        .dwtag  DW_TAG_TI_branch
    1288                      .dwattr $C$DW$87, DW_AT_low_pc(0x00)
    1289                      .dwattr $C$DW$87, DW_AT_TI_return
    1290 00000179 0006          LRETR     ; [CPU_] 
    1291                      ; return occurs ; [] 
    1292                      .dwattr $C$DW$83, DW_AT_TI_end_file("C:/ti/motorware/motorware_1_01_00_14/sw/drivers/gpio/src/32b/f28
    1293                      .dwattr $C$DW$83, DW_AT_TI_end_line(0x1d8)
    1294                      .dwattr $C$DW$83, DW_AT_TI_end_column(0x01)
    1295                      .dwendentry
    1296                      .dwendtag $C$DW$83
    1297              
    1298 0000017a               .sect   ".text"
    1299                      .clink
    1300                      .global _GPIO_init
    1301              
    1302              $C$DW$88        .dwtag  DW_TAG_subprogram, DW_AT_name("GPIO_init")
    1303                      .dwattr $C$DW$88, DW_AT_low_pc(_GPIO_init)
    1304                      .dwattr $C$DW$88, DW_AT_high_pc(0x00)
    1305                      .dwattr $C$DW$88, DW_AT_TI_symbol_name("_GPIO_init")
    1306                      .dwattr $C$DW$88, DW_AT_external
    1307                      .dwattr $C$DW$88, DW_AT_type(*$C$DW$T$53)
    1308                      .dwattr $C$DW$88, DW_AT_TI_begin_file("C:/ti/motorware/motorware_1_01_00_14/sw/drivers/gpio/src/32b/f
    1309                      .dwattr $C$DW$88, DW_AT_TI_begin_line(0x5c)
    1310                      .dwattr $C$DW$88, DW_AT_TI_begin_column(0x0d)
    1311                      .dwattr $C$DW$88, DW_AT_TI_max_frame_size(-2)
    1312                      .dwpsn  file "C:/ti/motorware/motorware_1_01_00_14/sw/drivers/gpio/src/32b/f28x/f2806x/gpio.c",line 9
    1313              
    1314                      .dwfde $C$DW$CIE, _GPIO_init
    1315              $C$DW$89        .dwtag  DW_TAG_formal_parameter, DW_AT_name("pMemory")
    1316                      .dwattr $C$DW$89, DW_AT_TI_symbol_name("_pMemory")
    1317                      .dwattr $C$DW$89, DW_AT_type(*$C$DW$T$3)
    1318                      .dwattr $C$DW$89, DW_AT_location[DW_OP_reg12]
    1319              $C$DW$90        .dwtag  DW_TAG_formal_parameter, DW_AT_name("numBytes")
    1320                      .dwattr $C$DW$90, DW_AT_TI_symbol_name("_numBytes")
    1321                      .dwattr $C$DW$90, DW_AT_type(*$C$DW$T$56)
    1322                      .dwattr $C$DW$90, DW_AT_location[DW_OP_reg0]
    1323              
    1324              ;***************************************************************
    1325              ;* FNAME: _GPIO_init                    FR SIZE:   0           *
    1326              ;*                                                             *
    1327              ;* FUNCTION ENVIRONMENT                                        *
    1328              ;*                                                             *
    1329              ;* FUNCTION PROPERTIES                                         *
    1330              ;*                            0 Parameter,  0 Auto,  0 SOE     *
TMS320C2000 Assembler PC v6.4.4 Wed Jul 08 10:29:38 2015

Tools Copyright (c) 1996-2015 Texas Instruments Incorporated
C:\Users\grant\AppData\Local\Temp\0693210                            PAGE   26

    1331              ;***************************************************************
    1332              
    1333              _GPIO_init:
    1334              ;* AR6   assigned to _numBytes
    1335              $C$DW$91        .dwtag  DW_TAG_variable, DW_AT_name("numBytes")
    1336                      .dwattr $C$DW$91, DW_AT_TI_symbol_name("_numBytes")
    1337                      .dwattr $C$DW$91, DW_AT_type(*$C$DW$T$56)
    1338                      .dwattr $C$DW$91, DW_AT_location[DW_OP_reg16]
    1339                      .dwcfi  cfa_offset, -2
    1340                      .dwcfi  save_reg_to_mem, 26, 0
    1341 0000017a 1EA6          MOVL      XAR6,ACC              ; [CPU_] |93| 
    1342                      .dwpsn  file "C:/ti/motorware/motorware_1_01_00_14/sw/drivers/gpio/src/32b/f28x/f2806x/gpio.c",line 9
    1343 0000017b 026A          MOVB      ACC,#106              ; [CPU_] |99| 
    1344 0000017c 0FA6          CMPL      ACC,XAR6              ; [CPU_] |99| 
    1345 0000017d 56C9          BF        $C$L37,LOS            ; [CPU_] |99| 
         0000017e 0003 
    1346                      ; branchcc occurs ; [] |99| 
    1347 0000017f D400          MOVB      XAR4,#0               ; [CPU_] |99| 
    1348              $C$L37:    
    1349              $C$DW$92        .dwtag  DW_TAG_TI_branch
    1350                      .dwattr $C$DW$92, DW_AT_low_pc(0x00)
    1351                      .dwattr $C$DW$92, DW_AT_TI_return
    1352 00000180 0006          LRETR     ; [CPU_] 
    1353                      ; return occurs ; [] 
    1354                      .dwattr $C$DW$88, DW_AT_TI_end_file("C:/ti/motorware/motorware_1_01_00_14/sw/drivers/gpio/src/32b/f28
    1355                      .dwattr $C$DW$88, DW_AT_TI_end_line(0x6a)
    1356                      .dwattr $C$DW$88, DW_AT_TI_end_column(0x01)
    1357                      .dwendentry
    1358                      .dwendtag $C$DW$88
    1359              
    1360 00000181               .sect   ".text"
    1361                      .clink
    1362                      .global _GPIO_getPortData
    1363              
    1364              $C$DW$93        .dwtag  DW_TAG_subprogram, DW_AT_name("GPIO_getPortData")
    1365                      .dwattr $C$DW$93, DW_AT_low_pc(_GPIO_getPortData)
    1366                      .dwattr $C$DW$93, DW_AT_high_pc(0x00)
    1367                      .dwattr $C$DW$93, DW_AT_TI_symbol_name("_GPIO_getPortData")
    1368                      .dwattr $C$DW$93, DW_AT_external
    1369                      .dwattr $C$DW$93, DW_AT_type(*$C$DW$T$21)
    1370                      .dwattr $C$DW$93, DW_AT_TI_begin_file("C:/ti/motorware/motorware_1_01_00_14/sw/drivers/gpio/src/32b/f
    1371                      .dwattr $C$DW$93, DW_AT_TI_begin_line(0x4a)
    1372                      .dwattr $C$DW$93, DW_AT_TI_begin_column(0x0a)
    1373                      .dwattr $C$DW$93, DW_AT_TI_max_frame_size(-2)
    1374                      .dwpsn  file "C:/ti/motorware/motorware_1_01_00_14/sw/drivers/gpio/src/32b/f28x/f2806x/gpio.c",line 7
    1375              
    1376                      .dwfde $C$DW$CIE, _GPIO_getPortData
    1377              $C$DW$94        .dwtag  DW_TAG_formal_parameter, DW_AT_name("gpioHandle")
    1378                      .dwattr $C$DW$94, DW_AT_TI_symbol_name("_gpioHandle")
    1379                      .dwattr $C$DW$94, DW_AT_type(*$C$DW$T$53)
    1380                      .dwattr $C$DW$94, DW_AT_location[DW_OP_reg12]
    1381              $C$DW$95        .dwtag  DW_TAG_formal_parameter, DW_AT_name("gpioPort")
    1382                      .dwattr $C$DW$95, DW_AT_TI_symbol_name("_gpioPort")
    1383                      .dwattr $C$DW$95, DW_AT_type(*$C$DW$T$35)
    1384                      .dwattr $C$DW$95, DW_AT_location[DW_OP_reg0]
TMS320C2000 Assembler PC v6.4.4 Wed Jul 08 10:29:38 2015

Tools Copyright (c) 1996-2015 Texas Instruments Incorporated
C:\Users\grant\AppData\Local\Temp\0693210                            PAGE   27

    1385              
    1386              ;***************************************************************
    1387              ;* FNAME: _GPIO_getPortData             FR SIZE:   0           *
    1388              ;*                                                             *
    1389              ;* FUNCTION ENVIRONMENT                                        *
    1390              ;*                                                             *
    1391              ;* FUNCTION PROPERTIES                                         *
    1392              ;*                            0 Parameter,  0 Auto,  0 SOE     *
    1393              ;***************************************************************
    1394              
    1395              _GPIO_getPortData:
    1396              ;* AL    assigned to _gpioPort
    1397              $C$DW$96        .dwtag  DW_TAG_variable, DW_AT_name("gpioPort")
    1398                      .dwattr $C$DW$96, DW_AT_TI_symbol_name("_gpioPort")
    1399                      .dwattr $C$DW$96, DW_AT_type(*$C$DW$T$35)
    1400                      .dwattr $C$DW$96, DW_AT_location[DW_OP_reg0]
    1401              ;* AR4   assigned to _gpioHandle
    1402              $C$DW$97        .dwtag  DW_TAG_variable, DW_AT_name("gpioHandle")
    1403                      .dwattr $C$DW$97, DW_AT_TI_symbol_name("_gpioHandle")
    1404                      .dwattr $C$DW$97, DW_AT_type(*$C$DW$T$54)
    1405                      .dwattr $C$DW$97, DW_AT_location[DW_OP_reg12]
    1406                      .dwcfi  cfa_offset, -2
    1407                      .dwcfi  save_reg_to_mem, 26, 0
    1408                      .dwpsn  file "C:/ti/motorware/motorware_1_01_00_14/sw/drivers/gpio/src/32b/f28x/f2806x/gpio.c",line 8
    1409 00000181 5201          CMPB      AL,#1                 ; [CPU_] |80| 
    1410 00000182 EC03          BF        $C$L38,EQ             ; [CPU_] |80| 
    1411                      ; branchcc occurs ; [] |80| 
    1412 00000183 D040          MOVB      XAR0,#64              ; [CPU_] |80| 
    1413 00000184 6F02          B         $C$L39,UNC            ; [CPU_] |80| 
    1414                      ; branch occurs ; [] |80| 
    1415 00000185       $C$L38:    
    1416 00000185 D048          MOVB      XAR0,#72              ; [CPU_] |80| 
    1417 00000186       $C$L39:    
    1418 00000186 0694          MOVL      ACC,*+XAR4[AR0]       ; [CPU_] |80| 
    1419              $C$DW$98        .dwtag  DW_TAG_TI_branch
    1420                      .dwattr $C$DW$98, DW_AT_low_pc(0x00)
    1421                      .dwattr $C$DW$98, DW_AT_TI_return
    1422 00000187 0006          LRETR     ; [CPU_] 
    1423                      ; return occurs ; [] 
    1424                      .dwattr $C$DW$93, DW_AT_TI_end_file("C:/ti/motorware/motorware_1_01_00_14/sw/drivers/gpio/src/32b/f28
    1425                      .dwattr $C$DW$93, DW_AT_TI_end_line(0x59)
    1426                      .dwattr $C$DW$93, DW_AT_TI_end_column(0x01)
    1427                      .dwendentry
    1428                      .dwendtag $C$DW$93
    1429              
    1430 00000188               .sect   ".text"
    1431                      .clink
    1432                      .global _GPIO_getData
    1433              
    1434              $C$DW$99        .dwtag  DW_TAG_subprogram, DW_AT_name("GPIO_getData")
    1435                      .dwattr $C$DW$99, DW_AT_low_pc(_GPIO_getData)
    1436                      .dwattr $C$DW$99, DW_AT_high_pc(0x00)
    1437                      .dwattr $C$DW$99, DW_AT_TI_symbol_name("_GPIO_getData")
    1438                      .dwattr $C$DW$99, DW_AT_external
    1439                      .dwattr $C$DW$99, DW_AT_type(*$C$DW$T$81)
TMS320C2000 Assembler PC v6.4.4 Wed Jul 08 10:29:38 2015

Tools Copyright (c) 1996-2015 Texas Instruments Incorporated
C:\Users\grant\AppData\Local\Temp\0693210                            PAGE   28

    1440                      .dwattr $C$DW$99, DW_AT_TI_begin_file("C:/ti/motorware/motorware_1_01_00_14/sw/drivers/gpio/src/32b/f
    1441                      .dwattr $C$DW$99, DW_AT_TI_begin_line(0x39)
    1442                      .dwattr $C$DW$99, DW_AT_TI_begin_column(0x06)
    1443                      .dwattr $C$DW$99, DW_AT_TI_max_frame_size(-2)
    1444                      .dwpsn  file "C:/ti/motorware/motorware_1_01_00_14/sw/drivers/gpio/src/32b/f28x/f2806x/gpio.c",line 5
    1445              
    1446                      .dwfde $C$DW$CIE, _GPIO_getData
    1447              $C$DW$100       .dwtag  DW_TAG_formal_parameter, DW_AT_name("gpioHandle")
    1448                      .dwattr $C$DW$100, DW_AT_TI_symbol_name("_gpioHandle")
    1449                      .dwattr $C$DW$100, DW_AT_type(*$C$DW$T$53)
    1450                      .dwattr $C$DW$100, DW_AT_location[DW_OP_reg12]
    1451              $C$DW$101       .dwtag  DW_TAG_formal_parameter, DW_AT_name("gpioNumber")
    1452                      .dwattr $C$DW$101, DW_AT_TI_symbol_name("_gpioNumber")
    1453                      .dwattr $C$DW$101, DW_AT_type(*$C$DW$T$32)
    1454                      .dwattr $C$DW$101, DW_AT_location[DW_OP_reg0]
    1455              
    1456              ;***************************************************************
    1457              ;* FNAME: _GPIO_getData                 FR SIZE:   0           *
    1458              ;*                                                             *
    1459              ;* FUNCTION ENVIRONMENT                                        *
    1460              ;*                                                             *
    1461              ;* FUNCTION PROPERTIES                                         *
    1462              ;*                            0 Parameter,  0 Auto,  0 SOE     *
    1463              ;***************************************************************
    1464              
    1465              _GPIO_getData:
    1466              ;* AR4   assigned to _gpioHandle
    1467              $C$DW$102       .dwtag  DW_TAG_variable, DW_AT_name("gpioHandle")
    1468                      .dwattr $C$DW$102, DW_AT_TI_symbol_name("_gpioHandle")
    1469                      .dwattr $C$DW$102, DW_AT_type(*$C$DW$T$54)
    1470                      .dwattr $C$DW$102, DW_AT_location[DW_OP_reg12]
    1471                      .dwcfi  cfa_offset, -2
    1472                      .dwcfi  save_reg_to_mem, 26, 0
    1473                      .dwpsn  file "C:/ti/motorware/motorware_1_01_00_14/sw/drivers/gpio/src/32b/f28x/f2806x/gpio.c",line 6
    1474 00000188 5220          CMPB      AL,#32                ; [CPU_] |64| 
    1475                      .dwpsn  file "C:/ti/motorware/motorware_1_01_00_14/sw/drivers/gpio/src/32b/f28x/f2806x/gpio.c",line 5
    1476 00000189 2DA9          MOV       T,AL                  ; [CPU_] |58| 
    1477                      .dwpsn  file "C:/ti/motorware/motorware_1_01_00_14/sw/drivers/gpio/src/32b/f28x/f2806x/gpio.c",line 6
    1478 0000018a 56C7          BF        $C$L40,HIS            ; [CPU_] |64| 
         0000018b 0005 
    1479                      ; branchcc occurs ; [] |64| 
    1480 0000018c D040          MOVB      XAR0,#64              ; [CPU_] |64| 
    1481 0000018d 0694          MOVL      ACC,*+XAR4[AR0]       ; [CPU_] |64| 
    1482 0000018e 6F06          B         $C$L41,UNC            ; [CPU_] |64| 
    1483                      ; branch occurs ; [] |64| 
    1484 0000018f       $C$L40:    
    1485 0000018f D048          MOVB      XAR0,#72              ; [CPU_] |64| 
    1486 00000190 0694          MOVL      ACC,*+XAR4[AR0]       ; [CPU_] |64| 
    1487 00000191 5CAC          MOVZ      AR4,T                 ; [CPU_] |64| 
    1488 00000192 DCA0          SUBB      XAR4,#32              ; [CPU_U] |64| 
    1489 00000193 2DA4          MOV       T,AR4                 ; [CPU_] |64| 
    1490 00000194       $C$L41:    
    1491 00000194 5622          LSRL      ACC,T                 ; [CPU_] |64| 
    1492 00000195 9001          ANDB      AL,#0x01              ; [CPU_] |64| 
    1493              $C$DW$103       .dwtag  DW_TAG_TI_branch
TMS320C2000 Assembler PC v6.4.4 Wed Jul 08 10:29:38 2015

Tools Copyright (c) 1996-2015 Texas Instruments Incorporated
C:\Users\grant\AppData\Local\Temp\0693210                            PAGE   29

    1494                      .dwattr $C$DW$103, DW_AT_low_pc(0x00)
    1495                      .dwattr $C$DW$103, DW_AT_TI_return
    1496 00000196 0006          LRETR     ; [CPU_] 
    1497                      ; return occurs ; [] 
    1498                      .dwattr $C$DW$99, DW_AT_TI_end_file("C:/ti/motorware/motorware_1_01_00_14/sw/drivers/gpio/src/32b/f28
    1499                      .dwattr $C$DW$99, DW_AT_TI_end_line(0x47)
    1500                      .dwattr $C$DW$99, DW_AT_TI_end_column(0x01)
    1501                      .dwendentry
    1502                      .dwendtag $C$DW$99
    1503              
    1504              
    1505              ;***************************************************************
    1506              ;* TYPE INFORMATION                                            *
    1507              ;***************************************************************
    1508              
    1509              $C$DW$T$30      .dwtag  DW_TAG_enumeration_type
    1510                      .dwattr $C$DW$T$30, DW_AT_byte_size(0x01)
    1511              $C$DW$104       .dwtag  DW_TAG_enumerator, DW_AT_name("GPIO_Number_0"), DW_AT_const_value(0x00)
    1512              $C$DW$105       .dwtag  DW_TAG_enumerator, DW_AT_name("GPIO_Number_1"), DW_AT_const_value(0x01)
    1513              $C$DW$106       .dwtag  DW_TAG_enumerator, DW_AT_name("GPIO_Number_2"), DW_AT_const_value(0x02)
    1514              $C$DW$107       .dwtag  DW_TAG_enumerator, DW_AT_name("GPIO_Number_3"), DW_AT_const_value(0x03)
    1515              $C$DW$108       .dwtag  DW_TAG_enumerator, DW_AT_name("GPIO_Number_4"), DW_AT_const_value(0x04)
    1516              $C$DW$109       .dwtag  DW_TAG_enumerator, DW_AT_name("GPIO_Number_5"), DW_AT_const_value(0x05)
    1517              $C$DW$110       .dwtag  DW_TAG_enumerator, DW_AT_name("GPIO_Number_6"), DW_AT_const_value(0x06)
    1518              $C$DW$111       .dwtag  DW_TAG_enumerator, DW_AT_name("GPIO_Number_7"), DW_AT_const_value(0x07)
    1519              $C$DW$112       .dwtag  DW_TAG_enumerator, DW_AT_name("GPIO_Number_8"), DW_AT_const_value(0x08)
    1520              $C$DW$113       .dwtag  DW_TAG_enumerator, DW_AT_name("GPIO_Number_9"), DW_AT_const_value(0x09)
    1521              $C$DW$114       .dwtag  DW_TAG_enumerator, DW_AT_name("GPIO_Number_10"), DW_AT_const_value(0x0a)
    1522              $C$DW$115       .dwtag  DW_TAG_enumerator, DW_AT_name("GPIO_Number_11"), DW_AT_const_value(0x0b)
    1523              $C$DW$116       .dwtag  DW_TAG_enumerator, DW_AT_name("GPIO_Number_12"), DW_AT_const_value(0x0c)
    1524              $C$DW$117       .dwtag  DW_TAG_enumerator, DW_AT_name("GPIO_Number_13"), DW_AT_const_value(0x0d)
    1525              $C$DW$118       .dwtag  DW_TAG_enumerator, DW_AT_name("GPIO_Number_14"), DW_AT_const_value(0x0e)
    1526              $C$DW$119       .dwtag  DW_TAG_enumerator, DW_AT_name("GPIO_Number_15"), DW_AT_const_value(0x0f)
    1527              $C$DW$120       .dwtag  DW_TAG_enumerator, DW_AT_name("GPIO_Number_16"), DW_AT_const_value(0x10)
    1528              $C$DW$121       .dwtag  DW_TAG_enumerator, DW_AT_name("GPIO_Number_17"), DW_AT_const_value(0x11)
    1529              $C$DW$122       .dwtag  DW_TAG_enumerator, DW_AT_name("GPIO_Number_18"), DW_AT_const_value(0x12)
    1530              $C$DW$123       .dwtag  DW_TAG_enumerator, DW_AT_name("GPIO_Number_19"), DW_AT_const_value(0x13)
    1531              $C$DW$124       .dwtag  DW_TAG_enumerator, DW_AT_name("GPIO_Number_20"), DW_AT_const_value(0x14)
    1532              $C$DW$125       .dwtag  DW_TAG_enumerator, DW_AT_name("GPIO_Number_21"), DW_AT_const_value(0x15)
    1533              $C$DW$126       .dwtag  DW_TAG_enumerator, DW_AT_name("GPIO_Number_22"), DW_AT_const_value(0x16)
    1534              $C$DW$127       .dwtag  DW_TAG_enumerator, DW_AT_name("GPIO_Number_23"), DW_AT_const_value(0x17)
    1535              $C$DW$128       .dwtag  DW_TAG_enumerator, DW_AT_name("GPIO_Number_24"), DW_AT_const_value(0x18)
    1536              $C$DW$129       .dwtag  DW_TAG_enumerator, DW_AT_name("GPIO_Number_25"), DW_AT_const_value(0x19)
    1537              $C$DW$130       .dwtag  DW_TAG_enumerator, DW_AT_name("GPIO_Number_26"), DW_AT_const_value(0x1a)
    1538              $C$DW$131       .dwtag  DW_TAG_enumerator, DW_AT_name("GPIO_Number_27"), DW_AT_const_value(0x1b)
    1539              $C$DW$132       .dwtag  DW_TAG_enumerator, DW_AT_name("GPIO_Number_28"), DW_AT_const_value(0x1c)
    1540              $C$DW$133       .dwtag  DW_TAG_enumerator, DW_AT_name("GPIO_Number_29"), DW_AT_const_value(0x1d)
    1541              $C$DW$134       .dwtag  DW_TAG_enumerator, DW_AT_name("GPIO_Number_30"), DW_AT_const_value(0x1e)
    1542              $C$DW$135       .dwtag  DW_TAG_enumerator, DW_AT_name("GPIO_Number_31"), DW_AT_const_value(0x1f)
    1543              $C$DW$136       .dwtag  DW_TAG_enumerator, DW_AT_name("GPIO_Number_32"), DW_AT_const_value(0x20)
    1544              $C$DW$137       .dwtag  DW_TAG_enumerator, DW_AT_name("GPIO_Number_33"), DW_AT_const_value(0x21)
    1545              $C$DW$138       .dwtag  DW_TAG_enumerator, DW_AT_name("GPIO_Number_34"), DW_AT_const_value(0x22)
    1546              $C$DW$139       .dwtag  DW_TAG_enumerator, DW_AT_name("GPIO_Number_35"), DW_AT_const_value(0x23)
    1547              $C$DW$140       .dwtag  DW_TAG_enumerator, DW_AT_name("GPIO_Number_36"), DW_AT_const_value(0x24)
    1548              $C$DW$141       .dwtag  DW_TAG_enumerator, DW_AT_name("GPIO_Number_37"), DW_AT_const_value(0x25)
TMS320C2000 Assembler PC v6.4.4 Wed Jul 08 10:29:38 2015

Tools Copyright (c) 1996-2015 Texas Instruments Incorporated
C:\Users\grant\AppData\Local\Temp\0693210                            PAGE   30

    1549              $C$DW$142       .dwtag  DW_TAG_enumerator, DW_AT_name("GPIO_Number_38"), DW_AT_const_value(0x26)
    1550              $C$DW$143       .dwtag  DW_TAG_enumerator, DW_AT_name("GPIO_Number_39"), DW_AT_const_value(0x27)
    1551              $C$DW$144       .dwtag  DW_TAG_enumerator, DW_AT_name("GPIO_Number_40"), DW_AT_const_value(0x28)
    1552              $C$DW$145       .dwtag  DW_TAG_enumerator, DW_AT_name("GPIO_Number_41"), DW_AT_const_value(0x29)
    1553              $C$DW$146       .dwtag  DW_TAG_enumerator, DW_AT_name("GPIO_Number_42"), DW_AT_const_value(0x2a)
    1554              $C$DW$147       .dwtag  DW_TAG_enumerator, DW_AT_name("GPIO_Number_43"), DW_AT_const_value(0x2b)
    1555              $C$DW$148       .dwtag  DW_TAG_enumerator, DW_AT_name("GPIO_Number_44"), DW_AT_const_value(0x2c)
    1556              $C$DW$149       .dwtag  DW_TAG_enumerator, DW_AT_name("GPIO_Number_50"), DW_AT_const_value(0x32)
    1557              $C$DW$150       .dwtag  DW_TAG_enumerator, DW_AT_name("GPIO_Number_51"), DW_AT_const_value(0x33)
    1558              $C$DW$151       .dwtag  DW_TAG_enumerator, DW_AT_name("GPIO_Number_52"), DW_AT_const_value(0x34)
    1559              $C$DW$152       .dwtag  DW_TAG_enumerator, DW_AT_name("GPIO_Number_53"), DW_AT_const_value(0x35)
    1560              $C$DW$153       .dwtag  DW_TAG_enumerator, DW_AT_name("GPIO_Number_54"), DW_AT_const_value(0x36)
    1561              $C$DW$154       .dwtag  DW_TAG_enumerator, DW_AT_name("GPIO_Number_55"), DW_AT_const_value(0x37)
    1562              $C$DW$155       .dwtag  DW_TAG_enumerator, DW_AT_name("GPIO_Number_56"), DW_AT_const_value(0x38)
    1563              $C$DW$156       .dwtag  DW_TAG_enumerator, DW_AT_name("GPIO_Number_57"), DW_AT_const_value(0x39)
    1564              $C$DW$157       .dwtag  DW_TAG_enumerator, DW_AT_name("GPIO_Number_58"), DW_AT_const_value(0x3a)
    1565              $C$DW$158       .dwtag  DW_TAG_enumerator, DW_AT_name("GPIO_numGpios"), DW_AT_const_value(0x3b)
    1566                      .dwendtag $C$DW$T$30
    1567              
    1568              $C$DW$T$31      .dwtag  DW_TAG_typedef, DW_AT_name("GPIO_Number_e")
    1569                      .dwattr $C$DW$T$31, DW_AT_type(*$C$DW$T$30)
    1570                      .dwattr $C$DW$T$31, DW_AT_language(DW_LANG_C)
    1571              $C$DW$159       .dwtag  DW_TAG_TI_far_type
    1572                      .dwattr $C$DW$159, DW_AT_type(*$C$DW$T$31)
    1573              $C$DW$T$32      .dwtag  DW_TAG_const_type
    1574                      .dwattr $C$DW$T$32, DW_AT_type(*$C$DW$159)
    1575              
    1576              $C$DW$T$33      .dwtag  DW_TAG_enumeration_type
    1577                      .dwattr $C$DW$T$33, DW_AT_byte_size(0x01)
    1578              $C$DW$160       .dwtag  DW_TAG_enumerator, DW_AT_name("GPIO_Port_A"), DW_AT_const_value(0x00)
    1579              $C$DW$161       .dwtag  DW_TAG_enumerator, DW_AT_name("GPIO_Port_B"), DW_AT_const_value(0x01)
    1580                      .dwendtag $C$DW$T$33
    1581              
    1582              $C$DW$T$34      .dwtag  DW_TAG_typedef, DW_AT_name("GPIO_Port_e")
    1583                      .dwattr $C$DW$T$34, DW_AT_type(*$C$DW$T$33)
    1584                      .dwattr $C$DW$T$34, DW_AT_language(DW_LANG_C)
    1585              $C$DW$162       .dwtag  DW_TAG_TI_far_type
    1586                      .dwattr $C$DW$162, DW_AT_type(*$C$DW$T$34)
    1587              $C$DW$T$35      .dwtag  DW_TAG_const_type
    1588                      .dwattr $C$DW$T$35, DW_AT_type(*$C$DW$162)
    1589              
    1590              $C$DW$T$36      .dwtag  DW_TAG_enumeration_type
    1591                      .dwattr $C$DW$T$36, DW_AT_byte_size(0x01)
    1592              $C$DW$163       .dwtag  DW_TAG_enumerator, DW_AT_name("GPIO_Pullup_Enable"), DW_AT_const_value(0x00)
    1593              $C$DW$164       .dwtag  DW_TAG_enumerator, DW_AT_name("GPIO_Pullup_Disable"), DW_AT_const_value(0x01)
    1594                      .dwendtag $C$DW$T$36
    1595              
    1596              $C$DW$T$37      .dwtag  DW_TAG_typedef, DW_AT_name("GPIO_Pullup_e")
    1597                      .dwattr $C$DW$T$37, DW_AT_type(*$C$DW$T$36)
    1598                      .dwattr $C$DW$T$37, DW_AT_language(DW_LANG_C)
    1599              $C$DW$165       .dwtag  DW_TAG_TI_far_type
    1600                      .dwattr $C$DW$165, DW_AT_type(*$C$DW$T$37)
    1601              $C$DW$T$38      .dwtag  DW_TAG_const_type
    1602                      .dwattr $C$DW$T$38, DW_AT_type(*$C$DW$165)
    1603              
TMS320C2000 Assembler PC v6.4.4 Wed Jul 08 10:29:38 2015

Tools Copyright (c) 1996-2015 Texas Instruments Incorporated
C:\Users\grant\AppData\Local\Temp\0693210                            PAGE   31

    1604              $C$DW$T$39      .dwtag  DW_TAG_enumeration_type
    1605                      .dwattr $C$DW$T$39, DW_AT_byte_size(0x01)
    1606              $C$DW$166       .dwtag  DW_TAG_enumerator, DW_AT_name("GPIO_Direction_Input"), DW_AT_const_value(0x00)
    1607              $C$DW$167       .dwtag  DW_TAG_enumerator, DW_AT_name("GPIO_Direction_Output"), DW_AT_const_value(0x01)
    1608                      .dwendtag $C$DW$T$39
    1609              
    1610              $C$DW$T$40      .dwtag  DW_TAG_typedef, DW_AT_name("GPIO_Direction_e")
    1611                      .dwattr $C$DW$T$40, DW_AT_type(*$C$DW$T$39)
    1612                      .dwattr $C$DW$T$40, DW_AT_language(DW_LANG_C)
    1613              $C$DW$168       .dwtag  DW_TAG_TI_far_type
    1614                      .dwattr $C$DW$168, DW_AT_type(*$C$DW$T$40)
    1615              $C$DW$T$41      .dwtag  DW_TAG_const_type
    1616                      .dwattr $C$DW$T$41, DW_AT_type(*$C$DW$168)
    1617              
    1618              $C$DW$T$42      .dwtag  DW_TAG_enumeration_type
    1619                      .dwattr $C$DW$T$42, DW_AT_byte_size(0x01)
    1620              $C$DW$169       .dwtag  DW_TAG_enumerator, DW_AT_name("CPU_ExtIntNumber_1"), DW_AT_const_value(0x00)
    1621              $C$DW$170       .dwtag  DW_TAG_enumerator, DW_AT_name("CPU_ExtIntNumber_2"), DW_AT_const_value(0x01)
    1622              $C$DW$171       .dwtag  DW_TAG_enumerator, DW_AT_name("CPU_ExtIntNumber_3"), DW_AT_const_value(0x02)
    1623                      .dwendtag $C$DW$T$42
    1624              
    1625              $C$DW$T$43      .dwtag  DW_TAG_typedef, DW_AT_name("CPU_ExtIntNumber_e")
    1626                      .dwattr $C$DW$T$43, DW_AT_type(*$C$DW$T$42)
    1627                      .dwattr $C$DW$T$43, DW_AT_language(DW_LANG_C)
    1628              $C$DW$172       .dwtag  DW_TAG_TI_far_type
    1629                      .dwattr $C$DW$172, DW_AT_type(*$C$DW$T$43)
    1630              $C$DW$T$44      .dwtag  DW_TAG_const_type
    1631                      .dwattr $C$DW$T$44, DW_AT_type(*$C$DW$172)
    1632              
    1633              $C$DW$T$45      .dwtag  DW_TAG_enumeration_type
    1634                      .dwattr $C$DW$T$45, DW_AT_byte_size(0x01)
    1635              $C$DW$173       .dwtag  DW_TAG_enumerator, DW_AT_name("GPIO_0_Mode_GeneralPurpose"), DW_AT_const_value(0x00)
    1636              $C$DW$174       .dwtag  DW_TAG_enumerator, DW_AT_name("GPIO_0_Mode_EPWM1A"), DW_AT_const_value(0x01)
    1637              $C$DW$175       .dwtag  DW_TAG_enumerator, DW_AT_name("GPIO_0_Mode_Rsvd_2"), DW_AT_const_value(0x02)
    1638              $C$DW$176       .dwtag  DW_TAG_enumerator, DW_AT_name("GPIO_0_Mode_Rsvd_3"), DW_AT_const_value(0x03)
    1639              $C$DW$177       .dwtag  DW_TAG_enumerator, DW_AT_name("GPIO_1_Mode_GeneralPurpose"), DW_AT_const_value(0x00)
    1640              $C$DW$178       .dwtag  DW_TAG_enumerator, DW_AT_name("GPIO_1_Mode_EPWM1B"), DW_AT_const_value(0x01)
    1641              $C$DW$179       .dwtag  DW_TAG_enumerator, DW_AT_name("GPIO_1_Mode_Rsvd_2"), DW_AT_const_value(0x02)
    1642              $C$DW$180       .dwtag  DW_TAG_enumerator, DW_AT_name("GPIO_1_Mode_COMP1OUT"), DW_AT_const_value(0x03)
    1643              $C$DW$181       .dwtag  DW_TAG_enumerator, DW_AT_name("GPIO_2_Mode_GeneralPurpose"), DW_AT_const_value(0x00)
    1644              $C$DW$182       .dwtag  DW_TAG_enumerator, DW_AT_name("GPIO_2_Mode_EPWM2A"), DW_AT_const_value(0x01)
    1645              $C$DW$183       .dwtag  DW_TAG_enumerator, DW_AT_name("GPIO_2_Mode_Rsvd_2"), DW_AT_const_value(0x02)
    1646              $C$DW$184       .dwtag  DW_TAG_enumerator, DW_AT_name("GPIO_2_Mode_Rsvd_3"), DW_AT_const_value(0x03)
    1647              $C$DW$185       .dwtag  DW_TAG_enumerator, DW_AT_name("GPIO_3_Mode_GeneralPurpose"), DW_AT_const_value(0x00)
    1648              $C$DW$186       .dwtag  DW_TAG_enumerator, DW_AT_name("GPIO_3_Mode_EPWM2B"), DW_AT_const_value(0x01)
    1649              $C$DW$187       .dwtag  DW_TAG_enumerator, DW_AT_name("GPIO_3_Mode_SPISOMIA"), DW_AT_const_value(0x02)
    1650              $C$DW$188       .dwtag  DW_TAG_enumerator, DW_AT_name("GPIO_3_Mode_COMP2OUT"), DW_AT_const_value(0x03)
    1651              $C$DW$189       .dwtag  DW_TAG_enumerator, DW_AT_name("GPIO_4_Mode_GeneralPurpose"), DW_AT_const_value(0x00)
    1652              $C$DW$190       .dwtag  DW_TAG_enumerator, DW_AT_name("GPIO_4_Mode_EPWM3A"), DW_AT_const_value(0x01)
    1653              $C$DW$191       .dwtag  DW_TAG_enumerator, DW_AT_name("GPIO_4_Mode_Rsvd_2"), DW_AT_const_value(0x02)
    1654              $C$DW$192       .dwtag  DW_TAG_enumerator, DW_AT_name("GPIO_4_Mode_Rsvd_3"), DW_AT_const_value(0x03)
    1655              $C$DW$193       .dwtag  DW_TAG_enumerator, DW_AT_name("GPIO_5_Mode_GeneralPurpose"), DW_AT_const_value(0x00)
    1656              $C$DW$194       .dwtag  DW_TAG_enumerator, DW_AT_name("GPIO_5_Mode_EPWM3B"), DW_AT_const_value(0x01)
    1657              $C$DW$195       .dwtag  DW_TAG_enumerator, DW_AT_name("GPIO_5_Mode_SPISIMOA"), DW_AT_const_value(0x02)
    1658              $C$DW$196       .dwtag  DW_TAG_enumerator, DW_AT_name("GPIO_5_Mode_ECAP1"), DW_AT_const_value(0x03)
TMS320C2000 Assembler PC v6.4.4 Wed Jul 08 10:29:38 2015

Tools Copyright (c) 1996-2015 Texas Instruments Incorporated
C:\Users\grant\AppData\Local\Temp\0693210                            PAGE   32

    1659              $C$DW$197       .dwtag  DW_TAG_enumerator, DW_AT_name("GPIO_6_Mode_GeneralPurpose"), DW_AT_const_value(0x00)
    1660              $C$DW$198       .dwtag  DW_TAG_enumerator, DW_AT_name("GPIO_6_Mode_EPWM4A"), DW_AT_const_value(0x01)
    1661              $C$DW$199       .dwtag  DW_TAG_enumerator, DW_AT_name("GPIO_6_Mode_EPWMSYNCI"), DW_AT_const_value(0x02)
    1662              $C$DW$200       .dwtag  DW_TAG_enumerator, DW_AT_name("GPIO_6_Mode_EPWMSYNCO"), DW_AT_const_value(0x03)
    1663              $C$DW$201       .dwtag  DW_TAG_enumerator, DW_AT_name("GPIO_7_Mode_GeneralPurpose"), DW_AT_const_value(0x00)
    1664              $C$DW$202       .dwtag  DW_TAG_enumerator, DW_AT_name("GPIO_7_Mode_EPWM4B"), DW_AT_const_value(0x01)
    1665              $C$DW$203       .dwtag  DW_TAG_enumerator, DW_AT_name("GPIO_7_Mode_SCIRXDA"), DW_AT_const_value(0x02)
    1666              $C$DW$204       .dwtag  DW_TAG_enumerator, DW_AT_name("GPIO_7_Mode_ECAP2"), DW_AT_const_value(0x03)
    1667              $C$DW$205       .dwtag  DW_TAG_enumerator, DW_AT_name("GPIO_8_Mode_GeneralPurpose"), DW_AT_const_value(0x00)
    1668              $C$DW$206       .dwtag  DW_TAG_enumerator, DW_AT_name("GPIO_8_Mode_EPWM5A"), DW_AT_const_value(0x01)
    1669              $C$DW$207       .dwtag  DW_TAG_enumerator, DW_AT_name("GPIO_8_Mode_Rsvd_2"), DW_AT_const_value(0x02)
    1670              $C$DW$208       .dwtag  DW_TAG_enumerator, DW_AT_name("GPIO_8_Mode_ADCSOCAO_NOT"), DW_AT_const_value(0x03)
    1671              $C$DW$209       .dwtag  DW_TAG_enumerator, DW_AT_name("GPIO_9_Mode_GeneralPurpose"), DW_AT_const_value(0x00)
    1672              $C$DW$210       .dwtag  DW_TAG_enumerator, DW_AT_name("GPIO_9_Mode_EPWM5B"), DW_AT_const_value(0x01)
    1673              $C$DW$211       .dwtag  DW_TAG_enumerator, DW_AT_name("GPIO_9_Mode_SCITXDB"), DW_AT_const_value(0x02)
    1674              $C$DW$212       .dwtag  DW_TAG_enumerator, DW_AT_name("GPIO_9_Mode_ECAP3"), DW_AT_const_value(0x03)
    1675              $C$DW$213       .dwtag  DW_TAG_enumerator, DW_AT_name("GPIO_10_Mode_GeneralPurpose"), DW_AT_const_value(0x00)
    1676              $C$DW$214       .dwtag  DW_TAG_enumerator, DW_AT_name("GPIO_10_Mode_EPWM6A"), DW_AT_const_value(0x01)
    1677              $C$DW$215       .dwtag  DW_TAG_enumerator, DW_AT_name("GPIO_10_Mode_Rsvd_2"), DW_AT_const_value(0x02)
    1678              $C$DW$216       .dwtag  DW_TAG_enumerator, DW_AT_name("GPIO_10_Mode_ADCSOCBO_NOT"), DW_AT_const_value(0x03)
    1679              $C$DW$217       .dwtag  DW_TAG_enumerator, DW_AT_name("GPIO_11_Mode_GeneralPurpose"), DW_AT_const_value(0x00)
    1680              $C$DW$218       .dwtag  DW_TAG_enumerator, DW_AT_name("GPIO_11_Mode_EPWM6B"), DW_AT_const_value(0x01)
    1681              $C$DW$219       .dwtag  DW_TAG_enumerator, DW_AT_name("GPIO_11_Mode_SCIRXDB"), DW_AT_const_value(0x02)
    1682              $C$DW$220       .dwtag  DW_TAG_enumerator, DW_AT_name("GPIO_11_Mode_ECAP1"), DW_AT_const_value(0x03)
    1683              $C$DW$221       .dwtag  DW_TAG_enumerator, DW_AT_name("GPIO_12_Mode_GeneralPurpose"), DW_AT_const_value(0x00)
    1684              $C$DW$222       .dwtag  DW_TAG_enumerator, DW_AT_name("GPIO_12_Mode_TZ1_NOT"), DW_AT_const_value(0x01)
    1685              $C$DW$223       .dwtag  DW_TAG_enumerator, DW_AT_name("GPIO_12_Mode_SCITXDA"), DW_AT_const_value(0x02)
    1686              $C$DW$224       .dwtag  DW_TAG_enumerator, DW_AT_name("GPIO_12_Mode_SPISIMOB"), DW_AT_const_value(0x03)
    1687              $C$DW$225       .dwtag  DW_TAG_enumerator, DW_AT_name("GPIO_13_Mode_GeneralPurpose"), DW_AT_const_value(0x00)
    1688              $C$DW$226       .dwtag  DW_TAG_enumerator, DW_AT_name("GPIO_13_Mode_TZ2_NOT"), DW_AT_const_value(0x01)
    1689              $C$DW$227       .dwtag  DW_TAG_enumerator, DW_AT_name("GPIO_13_Mode_Rsvd_2"), DW_AT_const_value(0x02)
    1690              $C$DW$228       .dwtag  DW_TAG_enumerator, DW_AT_name("GPIO_13_Mode_SPISOMIB"), DW_AT_const_value(0x03)
    1691              $C$DW$229       .dwtag  DW_TAG_enumerator, DW_AT_name("GPIO_14_Mode_GeneralPurpose"), DW_AT_const_value(0x00)
    1692              $C$DW$230       .dwtag  DW_TAG_enumerator, DW_AT_name("GPIO_14_Mode_TZ3_NOT"), DW_AT_const_value(0x01)
    1693              $C$DW$231       .dwtag  DW_TAG_enumerator, DW_AT_name("GPIO_14_Mode_SCITXDB"), DW_AT_const_value(0x02)
    1694              $C$DW$232       .dwtag  DW_TAG_enumerator, DW_AT_name("GPIO_14_Mode_SPICLKB"), DW_AT_const_value(0x03)
    1695              $C$DW$233       .dwtag  DW_TAG_enumerator, DW_AT_name("GPIO_15_Mode_GeneralPurpose"), DW_AT_const_value(0x00)
    1696              $C$DW$234       .dwtag  DW_TAG_enumerator, DW_AT_name("GPIO_15_Mode_ECAP2"), DW_AT_const_value(0x01)
    1697              $C$DW$235       .dwtag  DW_TAG_enumerator, DW_AT_name("GPIO_15_Mode_SCIRXDB"), DW_AT_const_value(0x02)
    1698              $C$DW$236       .dwtag  DW_TAG_enumerator, DW_AT_name("GPIO_15_Mode_SPISTEB_NOT"), DW_AT_const_value(0x03)
    1699              $C$DW$237       .dwtag  DW_TAG_enumerator, DW_AT_name("GPIO_16_Mode_GeneralPurpose"), DW_AT_const_value(0x00)
    1700              $C$DW$238       .dwtag  DW_TAG_enumerator, DW_AT_name("GPIO_16_Mode_SPISIMOA"), DW_AT_const_value(0x01)
    1701              $C$DW$239       .dwtag  DW_TAG_enumerator, DW_AT_name("GPIO_16_Mode_Rsvd_2"), DW_AT_const_value(0x02)
    1702              $C$DW$240       .dwtag  DW_TAG_enumerator, DW_AT_name("GPIO_16_Mode_TZ2_NOT"), DW_AT_const_value(0x03)
    1703              $C$DW$241       .dwtag  DW_TAG_enumerator, DW_AT_name("GPIO_17_Mode_GeneralPurpose"), DW_AT_const_value(0x00)
    1704              $C$DW$242       .dwtag  DW_TAG_enumerator, DW_AT_name("GPIO_17_Mode_SPISOMIA"), DW_AT_const_value(0x01)
    1705              $C$DW$243       .dwtag  DW_TAG_enumerator, DW_AT_name("GPIO_17_Mode_Rsvd_2"), DW_AT_const_value(0x02)
    1706              $C$DW$244       .dwtag  DW_TAG_enumerator, DW_AT_name("GPIO_17_Mode_TZ3_NOT"), DW_AT_const_value(0x03)
    1707              $C$DW$245       .dwtag  DW_TAG_enumerator, DW_AT_name("GPIO_18_Mode_GeneralPurpose"), DW_AT_const_value(0x00)
    1708              $C$DW$246       .dwtag  DW_TAG_enumerator, DW_AT_name("GPIO_18_Mode_SPICLKA"), DW_AT_const_value(0x01)
    1709              $C$DW$247       .dwtag  DW_TAG_enumerator, DW_AT_name("GPIO_18_Mode_SCITXDB"), DW_AT_const_value(0x02)
    1710              $C$DW$248       .dwtag  DW_TAG_enumerator, DW_AT_name("GPIO_18_Mode_XCLKOUT"), DW_AT_const_value(0x03)
    1711              $C$DW$249       .dwtag  DW_TAG_enumerator, DW_AT_name("GPIO_19_Mode_GeneralPurpose"), DW_AT_const_value(0x00)
    1712              $C$DW$250       .dwtag  DW_TAG_enumerator, DW_AT_name("GPIO_19_Mode_SPISTEA_NOT"), DW_AT_const_value(0x01)
    1713              $C$DW$251       .dwtag  DW_TAG_enumerator, DW_AT_name("GPIO_19_Mode_SCIRXDB"), DW_AT_const_value(0x02)
TMS320C2000 Assembler PC v6.4.4 Wed Jul 08 10:29:38 2015

Tools Copyright (c) 1996-2015 Texas Instruments Incorporated
C:\Users\grant\AppData\Local\Temp\0693210                            PAGE   33

    1714              $C$DW$252       .dwtag  DW_TAG_enumerator, DW_AT_name("GPIO_19_Mode_ECAP1"), DW_AT_const_value(0x03)
    1715              $C$DW$253       .dwtag  DW_TAG_enumerator, DW_AT_name("GPIO_20_Mode_GeneralPurpose"), DW_AT_const_value(0x00)
    1716              $C$DW$254       .dwtag  DW_TAG_enumerator, DW_AT_name("GPIO_20_Mode_EQEP1A"), DW_AT_const_value(0x01)
    1717              $C$DW$255       .dwtag  DW_TAG_enumerator, DW_AT_name("GPIO_20_Mode_MDXA"), DW_AT_const_value(0x02)
    1718              $C$DW$256       .dwtag  DW_TAG_enumerator, DW_AT_name("GPIO_20_Mode_COMP1OUT"), DW_AT_const_value(0x03)
    1719              $C$DW$257       .dwtag  DW_TAG_enumerator, DW_AT_name("GPIO_21_Mode_GeneralPurpose"), DW_AT_const_value(0x00)
    1720              $C$DW$258       .dwtag  DW_TAG_enumerator, DW_AT_name("GPIO_21_Mode_EQEP1B"), DW_AT_const_value(0x01)
    1721              $C$DW$259       .dwtag  DW_TAG_enumerator, DW_AT_name("GPIO_21_Mode_MDRA"), DW_AT_const_value(0x02)
    1722              $C$DW$260       .dwtag  DW_TAG_enumerator, DW_AT_name("GPIO_21_Mode_COMP2OUT"), DW_AT_const_value(0x03)
    1723              $C$DW$261       .dwtag  DW_TAG_enumerator, DW_AT_name("GPIO_22_Mode_GeneralPurpose"), DW_AT_const_value(0x00)
    1724              $C$DW$262       .dwtag  DW_TAG_enumerator, DW_AT_name("GPIO_22_Mode_EQEP1S"), DW_AT_const_value(0x01)
    1725              $C$DW$263       .dwtag  DW_TAG_enumerator, DW_AT_name("GPIO_22_Mode_MCLKXA"), DW_AT_const_value(0x02)
    1726              $C$DW$264       .dwtag  DW_TAG_enumerator, DW_AT_name("GPIO_22_Mode_SCITXDB"), DW_AT_const_value(0x03)
    1727              $C$DW$265       .dwtag  DW_TAG_enumerator, DW_AT_name("GPIO_23_Mode_GeneralPurpose"), DW_AT_const_value(0x00)
    1728              $C$DW$266       .dwtag  DW_TAG_enumerator, DW_AT_name("GPIO_23_Mode_EQEP1I"), DW_AT_const_value(0x01)
    1729              $C$DW$267       .dwtag  DW_TAG_enumerator, DW_AT_name("GPIO_23_Mode_MFSXA"), DW_AT_const_value(0x02)
    1730              $C$DW$268       .dwtag  DW_TAG_enumerator, DW_AT_name("GPIO_23_Mode_SCIRXDB"), DW_AT_const_value(0x03)
    1731              $C$DW$269       .dwtag  DW_TAG_enumerator, DW_AT_name("GPIO_24_Mode_GeneralPurpose"), DW_AT_const_value(0x00)
    1732              $C$DW$270       .dwtag  DW_TAG_enumerator, DW_AT_name("GPIO_24_Mode_ECAP1"), DW_AT_const_value(0x01)
    1733              $C$DW$271       .dwtag  DW_TAG_enumerator, DW_AT_name("GPIO_24_Mode_EQEP2A"), DW_AT_const_value(0x02)
    1734              $C$DW$272       .dwtag  DW_TAG_enumerator, DW_AT_name("GPIO_24_Mode_SPISIMOB"), DW_AT_const_value(0x03)
    1735              $C$DW$273       .dwtag  DW_TAG_enumerator, DW_AT_name("GPIO_25_Mode_GeneralPurpose"), DW_AT_const_value(0x00)
    1736              $C$DW$274       .dwtag  DW_TAG_enumerator, DW_AT_name("GPIO_25_Mode_ECAP2"), DW_AT_const_value(0x01)
    1737              $C$DW$275       .dwtag  DW_TAG_enumerator, DW_AT_name("GPIO_25_Mode_EQEP2B"), DW_AT_const_value(0x02)
    1738              $C$DW$276       .dwtag  DW_TAG_enumerator, DW_AT_name("GPIO_25_Mode_SPISOMIB"), DW_AT_const_value(0x03)
    1739              $C$DW$277       .dwtag  DW_TAG_enumerator, DW_AT_name("GPIO_26_Mode_GeneralPurpose"), DW_AT_const_value(0x00)
    1740              $C$DW$278       .dwtag  DW_TAG_enumerator, DW_AT_name("GPIO_26_Mode_ECAP3"), DW_AT_const_value(0x01)
    1741              $C$DW$279       .dwtag  DW_TAG_enumerator, DW_AT_name("GPIO_26_Mode_EQEP2I"), DW_AT_const_value(0x02)
    1742              $C$DW$280       .dwtag  DW_TAG_enumerator, DW_AT_name("GPIO_26_Mode_SPICLKB"), DW_AT_const_value(0x03)
    1743              $C$DW$281       .dwtag  DW_TAG_enumerator, DW_AT_name("GPIO_27_Mode_GeneralPurpose"), DW_AT_const_value(0x00)
    1744              $C$DW$282       .dwtag  DW_TAG_enumerator, DW_AT_name("GPIO_27_Mode_HRCAP2"), DW_AT_const_value(0x01)
    1745              $C$DW$283       .dwtag  DW_TAG_enumerator, DW_AT_name("GPIO_27_Mode_EQEP2S"), DW_AT_const_value(0x02)
    1746              $C$DW$284       .dwtag  DW_TAG_enumerator, DW_AT_name("GPIO_27_Mode_SPISTEB_NOT"), DW_AT_const_value(0x03)
    1747              $C$DW$285       .dwtag  DW_TAG_enumerator, DW_AT_name("GPIO_28_Mode_GeneralPurpose"), DW_AT_const_value(0x00)
    1748              $C$DW$286       .dwtag  DW_TAG_enumerator, DW_AT_name("GPIO_28_Mode_SCIRXDA"), DW_AT_const_value(0x01)
    1749              $C$DW$287       .dwtag  DW_TAG_enumerator, DW_AT_name("GPIO_28_Mode_SDDA"), DW_AT_const_value(0x02)
    1750              $C$DW$288       .dwtag  DW_TAG_enumerator, DW_AT_name("GPIO_28_Mode_TZ2_NOT"), DW_AT_const_value(0x03)
    1751              $C$DW$289       .dwtag  DW_TAG_enumerator, DW_AT_name("GPIO_29_Mode_GeneralPurpose"), DW_AT_const_value(0x00)
    1752              $C$DW$290       .dwtag  DW_TAG_enumerator, DW_AT_name("GPIO_29_Mode_SCITXDA"), DW_AT_const_value(0x01)
    1753              $C$DW$291       .dwtag  DW_TAG_enumerator, DW_AT_name("GPIO_29_Mode_SCLA"), DW_AT_const_value(0x02)
    1754              $C$DW$292       .dwtag  DW_TAG_enumerator, DW_AT_name("GPIO_29_Mode_TZ3_NOT"), DW_AT_const_value(0x03)
    1755              $C$DW$293       .dwtag  DW_TAG_enumerator, DW_AT_name("GPIO_30_Mode_GeneralPurpose"), DW_AT_const_value(0x00)
    1756              $C$DW$294       .dwtag  DW_TAG_enumerator, DW_AT_name("GPIO_30_Mode_CANRXA"), DW_AT_const_value(0x01)
    1757              $C$DW$295       .dwtag  DW_TAG_enumerator, DW_AT_name("GPIO_30_Mode_EQEP2I"), DW_AT_const_value(0x02)
    1758              $C$DW$296       .dwtag  DW_TAG_enumerator, DW_AT_name("GPIO_30_Mode_EPWM7A"), DW_AT_const_value(0x03)
    1759              $C$DW$297       .dwtag  DW_TAG_enumerator, DW_AT_name("GPIO_31_Mode_GeneralPurpose"), DW_AT_const_value(0x00)
    1760              $C$DW$298       .dwtag  DW_TAG_enumerator, DW_AT_name("GPIO_31_Mode_CANTXA"), DW_AT_const_value(0x01)
    1761              $C$DW$299       .dwtag  DW_TAG_enumerator, DW_AT_name("GPIO_31_Mode_EQEP2S"), DW_AT_const_value(0x02)
    1762              $C$DW$300       .dwtag  DW_TAG_enumerator, DW_AT_name("GPIO_31_Mode_EPWM8A"), DW_AT_const_value(0x03)
    1763              $C$DW$301       .dwtag  DW_TAG_enumerator, DW_AT_name("GPIO_32_Mode_GeneralPurpose"), DW_AT_const_value(0x00)
    1764              $C$DW$302       .dwtag  DW_TAG_enumerator, DW_AT_name("GPIO_32_Mode_SDAA"), DW_AT_const_value(0x01)
    1765              $C$DW$303       .dwtag  DW_TAG_enumerator, DW_AT_name("GPIO_32_Mode_EPWMSYNCI"), DW_AT_const_value(0x02)
    1766              $C$DW$304       .dwtag  DW_TAG_enumerator, DW_AT_name("GPIO_32_Mode_ADCSOCAO_NOT"), DW_AT_const_value(0x03)
    1767              $C$DW$305       .dwtag  DW_TAG_enumerator, DW_AT_name("GPIO_33_Mode_GeneralPurpose"), DW_AT_const_value(0x00)
    1768              $C$DW$306       .dwtag  DW_TAG_enumerator, DW_AT_name("GPIO_33_Mode_SCLA"), DW_AT_const_value(0x01)
TMS320C2000 Assembler PC v6.4.4 Wed Jul 08 10:29:38 2015

Tools Copyright (c) 1996-2015 Texas Instruments Incorporated
C:\Users\grant\AppData\Local\Temp\0693210                            PAGE   34

    1769              $C$DW$307       .dwtag  DW_TAG_enumerator, DW_AT_name("GPIO_33_Mode_EPWMSYNCO"), DW_AT_const_value(0x02)
    1770              $C$DW$308       .dwtag  DW_TAG_enumerator, DW_AT_name("GPIO_33_Mode_ADCSOCBO_NOT"), DW_AT_const_value(0x03)
    1771              $C$DW$309       .dwtag  DW_TAG_enumerator, DW_AT_name("GPIO_34_Mode_GeneralPurpose"), DW_AT_const_value(0x00)
    1772              $C$DW$310       .dwtag  DW_TAG_enumerator, DW_AT_name("GPIO_34_Mode_COMP2OUT"), DW_AT_const_value(0x01)
    1773              $C$DW$311       .dwtag  DW_TAG_enumerator, DW_AT_name("GPIO_34_Mode_Rsvd_2"), DW_AT_const_value(0x02)
    1774              $C$DW$312       .dwtag  DW_TAG_enumerator, DW_AT_name("GPIO_34_Mode_COMP3OUT"), DW_AT_const_value(0x03)
    1775              $C$DW$313       .dwtag  DW_TAG_enumerator, DW_AT_name("GPIO_35_Mode_JTAG_TDI"), DW_AT_const_value(0x00)
    1776              $C$DW$314       .dwtag  DW_TAG_enumerator, DW_AT_name("GPIO_35_Mode_Rsvd_1"), DW_AT_const_value(0x01)
    1777              $C$DW$315       .dwtag  DW_TAG_enumerator, DW_AT_name("GPIO_35_Mode_Rsvd_2"), DW_AT_const_value(0x02)
    1778              $C$DW$316       .dwtag  DW_TAG_enumerator, DW_AT_name("GPIO_35_Mode_Rsvd_3"), DW_AT_const_value(0x03)
    1779              $C$DW$317       .dwtag  DW_TAG_enumerator, DW_AT_name("GPIO_36_Mode_JTAG_TMS"), DW_AT_const_value(0x00)
    1780              $C$DW$318       .dwtag  DW_TAG_enumerator, DW_AT_name("GPIO_36_Mode_Rsvd_1"), DW_AT_const_value(0x01)
    1781              $C$DW$319       .dwtag  DW_TAG_enumerator, DW_AT_name("GPIO_36_Mode_Rsvd_2"), DW_AT_const_value(0x02)
    1782              $C$DW$320       .dwtag  DW_TAG_enumerator, DW_AT_name("GPIO_36_Mode_Rsvd_3"), DW_AT_const_value(0x03)
    1783              $C$DW$321       .dwtag  DW_TAG_enumerator, DW_AT_name("GPIO_37_Mode_JTAG_TDO"), DW_AT_const_value(0x00)
    1784              $C$DW$322       .dwtag  DW_TAG_enumerator, DW_AT_name("GPIO_37_Mode_Rsvd_1"), DW_AT_const_value(0x01)
    1785              $C$DW$323       .dwtag  DW_TAG_enumerator, DW_AT_name("GPIO_37_Mode_Rsvd_2"), DW_AT_const_value(0x02)
    1786              $C$DW$324       .dwtag  DW_TAG_enumerator, DW_AT_name("GPIO_37_Mode_Rsvd_3"), DW_AT_const_value(0x03)
    1787              $C$DW$325       .dwtag  DW_TAG_enumerator, DW_AT_name("GPIO_38_Mode_JTAG_TCK"), DW_AT_const_value(0x00)
    1788              $C$DW$326       .dwtag  DW_TAG_enumerator, DW_AT_name("GPIO_38_Mode_Rsvd_1"), DW_AT_const_value(0x01)
    1789              $C$DW$327       .dwtag  DW_TAG_enumerator, DW_AT_name("GPIO_38_Mode_Rsvd_2"), DW_AT_const_value(0x02)
    1790              $C$DW$328       .dwtag  DW_TAG_enumerator, DW_AT_name("GPIO_38_Mode_Rsvd_3"), DW_AT_const_value(0x03)
    1791              $C$DW$329       .dwtag  DW_TAG_enumerator, DW_AT_name("GPIO_39_Mode_GeneralPurpose"), DW_AT_const_value(0x00)
    1792              $C$DW$330       .dwtag  DW_TAG_enumerator, DW_AT_name("GPIO_39_Mode_Rsvd_1"), DW_AT_const_value(0x01)
    1793              $C$DW$331       .dwtag  DW_TAG_enumerator, DW_AT_name("GPIO_39_Mode_Rsvd_2"), DW_AT_const_value(0x02)
    1794              $C$DW$332       .dwtag  DW_TAG_enumerator, DW_AT_name("GPIO_39_Mode_Rsvd_3"), DW_AT_const_value(0x03)
    1795              $C$DW$333       .dwtag  DW_TAG_enumerator, DW_AT_name("GPIO_40_Mode_GeneralPurpose"), DW_AT_const_value(0x00)
    1796              $C$DW$334       .dwtag  DW_TAG_enumerator, DW_AT_name("GPIO_40_Mode_EPWM7A"), DW_AT_const_value(0x01)
    1797              $C$DW$335       .dwtag  DW_TAG_enumerator, DW_AT_name("GPIO_40_Mode_SCITXDB"), DW_AT_const_value(0x02)
    1798              $C$DW$336       .dwtag  DW_TAG_enumerator, DW_AT_name("GPIO_40_Mode_Rsvd_3"), DW_AT_const_value(0x03)
    1799              $C$DW$337       .dwtag  DW_TAG_enumerator, DW_AT_name("GPIO_41_Mode_GeneralPurpose"), DW_AT_const_value(0x00)
    1800              $C$DW$338       .dwtag  DW_TAG_enumerator, DW_AT_name("GPIO_41_Mode_EPWM7B"), DW_AT_const_value(0x01)
    1801              $C$DW$339       .dwtag  DW_TAG_enumerator, DW_AT_name("GPIO_41_Mode_SCIRXDB"), DW_AT_const_value(0x02)
    1802              $C$DW$340       .dwtag  DW_TAG_enumerator, DW_AT_name("GPIO_41_Mode_Rsvd_3"), DW_AT_const_value(0x03)
    1803              $C$DW$341       .dwtag  DW_TAG_enumerator, DW_AT_name("GPIO_42_Mode_GeneralPurpose"), DW_AT_const_value(0x00)
    1804              $C$DW$342       .dwtag  DW_TAG_enumerator, DW_AT_name("GPIO_42_Mode_EPWM8A"), DW_AT_const_value(0x01)
    1805              $C$DW$343       .dwtag  DW_TAG_enumerator, DW_AT_name("GPIO_42_Mode_TZ1_NOT"), DW_AT_const_value(0x02)
    1806              $C$DW$344       .dwtag  DW_TAG_enumerator, DW_AT_name("GPIO_42_Mode_COMP1OUT"), DW_AT_const_value(0x03)
    1807              $C$DW$345       .dwtag  DW_TAG_enumerator, DW_AT_name("GPIO_43_Mode_GeneralPurpose"), DW_AT_const_value(0x00)
    1808              $C$DW$346       .dwtag  DW_TAG_enumerator, DW_AT_name("GPIO_43_Mode_EPWM8B"), DW_AT_const_value(0x01)
    1809              $C$DW$347       .dwtag  DW_TAG_enumerator, DW_AT_name("GPIO_43_Mode_TZ2_NOT"), DW_AT_const_value(0x02)
    1810              $C$DW$348       .dwtag  DW_TAG_enumerator, DW_AT_name("GPIO_43_Mode_COMP2OUT"), DW_AT_const_value(0x03)
    1811              $C$DW$349       .dwtag  DW_TAG_enumerator, DW_AT_name("GPIO_44_Mode_GeneralPurpose"), DW_AT_const_value(0x00)
    1812              $C$DW$350       .dwtag  DW_TAG_enumerator, DW_AT_name("GPIO_44_Mode_MFSRA"), DW_AT_const_value(0x01)
    1813              $C$DW$351       .dwtag  DW_TAG_enumerator, DW_AT_name("GPIO_44_Mode_SCIRXDB"), DW_AT_const_value(0x02)
    1814              $C$DW$352       .dwtag  DW_TAG_enumerator, DW_AT_name("GPIO_44_Mode_EPWM7B"), DW_AT_const_value(0x03)
    1815              $C$DW$353       .dwtag  DW_TAG_enumerator, DW_AT_name("GPIO_50_Mode_GeneralPurpose"), DW_AT_const_value(0x00)
    1816              $C$DW$354       .dwtag  DW_TAG_enumerator, DW_AT_name("GPIO_50_Mode_EQEP1A"), DW_AT_const_value(0x01)
    1817              $C$DW$355       .dwtag  DW_TAG_enumerator, DW_AT_name("GPIO_50_Mode_MDXA"), DW_AT_const_value(0x02)
    1818              $C$DW$356       .dwtag  DW_TAG_enumerator, DW_AT_name("GPIO_50_Mode_TZ1_NOT"), DW_AT_const_value(0x03)
    1819              $C$DW$357       .dwtag  DW_TAG_enumerator, DW_AT_name("GPIO_51_Mode_GeneralPurpose"), DW_AT_const_value(0x00)
    1820              $C$DW$358       .dwtag  DW_TAG_enumerator, DW_AT_name("GPIO_51_Mode_EQEP1B"), DW_AT_const_value(0x01)
    1821              $C$DW$359       .dwtag  DW_TAG_enumerator, DW_AT_name("GPIO_51_Mode_MDRA"), DW_AT_const_value(0x02)
    1822              $C$DW$360       .dwtag  DW_TAG_enumerator, DW_AT_name("GPIO_51_Mode_TZ2_NOT"), DW_AT_const_value(0x03)
    1823              $C$DW$361       .dwtag  DW_TAG_enumerator, DW_AT_name("GPIO_52_Mode_GeneralPurpose"), DW_AT_const_value(0x00)
TMS320C2000 Assembler PC v6.4.4 Wed Jul 08 10:29:38 2015

Tools Copyright (c) 1996-2015 Texas Instruments Incorporated
C:\Users\grant\AppData\Local\Temp\0693210                            PAGE   35

    1824              $C$DW$362       .dwtag  DW_TAG_enumerator, DW_AT_name("GPIO_52_Mode_EQEP1S"), DW_AT_const_value(0x01)
    1825              $C$DW$363       .dwtag  DW_TAG_enumerator, DW_AT_name("GPIO_52_Mode_MCLKXA"), DW_AT_const_value(0x02)
    1826              $C$DW$364       .dwtag  DW_TAG_enumerator, DW_AT_name("GPIO_52_Mode_TZ3_NOT"), DW_AT_const_value(0x03)
    1827              $C$DW$365       .dwtag  DW_TAG_enumerator, DW_AT_name("GPIO_53_Mode_GeneralPurpose"), DW_AT_const_value(0x00)
    1828              $C$DW$366       .dwtag  DW_TAG_enumerator, DW_AT_name("GPIO_53_Mode_EQEP1I"), DW_AT_const_value(0x01)
    1829              $C$DW$367       .dwtag  DW_TAG_enumerator, DW_AT_name("GPIO_53_Mode_MFSXA"), DW_AT_const_value(0x02)
    1830              $C$DW$368       .dwtag  DW_TAG_enumerator, DW_AT_name("GPIO_53_Mode_Rsvd_1"), DW_AT_const_value(0x03)
    1831              $C$DW$369       .dwtag  DW_TAG_enumerator, DW_AT_name("GPIO_54_Mode_GeneralPurpose"), DW_AT_const_value(0x00)
    1832              $C$DW$370       .dwtag  DW_TAG_enumerator, DW_AT_name("GPIO_54_Mode_SPISIMOA"), DW_AT_const_value(0x01)
    1833              $C$DW$371       .dwtag  DW_TAG_enumerator, DW_AT_name("GPIO_54_Mode_EQEP2A"), DW_AT_const_value(0x02)
    1834              $C$DW$372       .dwtag  DW_TAG_enumerator, DW_AT_name("GPIO_54_Mode_HRCAP1"), DW_AT_const_value(0x03)
    1835              $C$DW$373       .dwtag  DW_TAG_enumerator, DW_AT_name("GPIO_55_Mode_GeneralPurpose"), DW_AT_const_value(0x00)
    1836              $C$DW$374       .dwtag  DW_TAG_enumerator, DW_AT_name("GPIO_55_Mode_SPISOMIA"), DW_AT_const_value(0x01)
    1837              $C$DW$375       .dwtag  DW_TAG_enumerator, DW_AT_name("GPIO_55_Mode_EQEP2B"), DW_AT_const_value(0x02)
    1838              $C$DW$376       .dwtag  DW_TAG_enumerator, DW_AT_name("GPIO_55_Mode_HRCAP2"), DW_AT_const_value(0x03)
    1839              $C$DW$377       .dwtag  DW_TAG_enumerator, DW_AT_name("GPIO_56_Mode_GeneralPurpose"), DW_AT_const_value(0x00)
    1840              $C$DW$378       .dwtag  DW_TAG_enumerator, DW_AT_name("GPIO_56_Mode_SPICLKA"), DW_AT_const_value(0x01)
    1841              $C$DW$379       .dwtag  DW_TAG_enumerator, DW_AT_name("GPIO_56_Mode_EQEP2I"), DW_AT_const_value(0x02)
    1842              $C$DW$380       .dwtag  DW_TAG_enumerator, DW_AT_name("GPIO_56_Mode_HRCAP3"), DW_AT_const_value(0x03)
    1843              $C$DW$381       .dwtag  DW_TAG_enumerator, DW_AT_name("GPIO_57_Mode_GeneralPurpose"), DW_AT_const_value(0x00)
    1844              $C$DW$382       .dwtag  DW_TAG_enumerator, DW_AT_name("GPIO_57_Mode_SPISTEA_NOT"), DW_AT_const_value(0x01)
    1845              $C$DW$383       .dwtag  DW_TAG_enumerator, DW_AT_name("GPIO_57_Mode_EQEP2S"), DW_AT_const_value(0x02)
    1846              $C$DW$384       .dwtag  DW_TAG_enumerator, DW_AT_name("GPIO_57_Mode_HRCAP4"), DW_AT_const_value(0x03)
    1847              $C$DW$385       .dwtag  DW_TAG_enumerator, DW_AT_name("GPIO_58_Mode_GeneralPurpose"), DW_AT_const_value(0x00)
    1848              $C$DW$386       .dwtag  DW_TAG_enumerator, DW_AT_name("GPIO_58_Mode_MCLKRA"), DW_AT_const_value(0x01)
    1849              $C$DW$387       .dwtag  DW_TAG_enumerator, DW_AT_name("GPIO_58_Mode_SCITXDB"), DW_AT_const_value(0x02)
    1850              $C$DW$388       .dwtag  DW_TAG_enumerator, DW_AT_name("GPIO_58_Mode_EPWM7A"), DW_AT_const_value(0x03)
    1851                      .dwendtag $C$DW$T$45
    1852              
    1853              $C$DW$T$46      .dwtag  DW_TAG_typedef, DW_AT_name("GPIO_Mode_e")
    1854                      .dwattr $C$DW$T$46, DW_AT_type(*$C$DW$T$45)
    1855                      .dwattr $C$DW$T$46, DW_AT_language(DW_LANG_C)
    1856              $C$DW$389       .dwtag  DW_TAG_TI_far_type
    1857                      .dwattr $C$DW$389, DW_AT_type(*$C$DW$T$46)
    1858              $C$DW$T$47      .dwtag  DW_TAG_const_type
    1859                      .dwattr $C$DW$T$47, DW_AT_type(*$C$DW$389)
    1860              
    1861              $C$DW$T$48      .dwtag  DW_TAG_enumeration_type
    1862                      .dwattr $C$DW$T$48, DW_AT_byte_size(0x01)
    1863              $C$DW$390       .dwtag  DW_TAG_enumerator, DW_AT_name("GPIO_Qual_Sync"), DW_AT_const_value(0x00)
    1864              $C$DW$391       .dwtag  DW_TAG_enumerator, DW_AT_name("GPIO_Qual_Sample_3"), DW_AT_const_value(0x01)
    1865              $C$DW$392       .dwtag  DW_TAG_enumerator, DW_AT_name("GPIO_Qual_Sample_6"), DW_AT_const_value(0x02)
    1866              $C$DW$393       .dwtag  DW_TAG_enumerator, DW_AT_name("GPIO_Qual_ASync"), DW_AT_const_value(0x03)
    1867                      .dwendtag $C$DW$T$48
    1868              
    1869              $C$DW$T$49      .dwtag  DW_TAG_typedef, DW_AT_name("GPIO_Qual_e")
    1870                      .dwattr $C$DW$T$49, DW_AT_type(*$C$DW$T$48)
    1871                      .dwattr $C$DW$T$49, DW_AT_language(DW_LANG_C)
    1872              $C$DW$394       .dwtag  DW_TAG_TI_far_type
    1873                      .dwattr $C$DW$394, DW_AT_type(*$C$DW$T$49)
    1874              $C$DW$T$50      .dwtag  DW_TAG_const_type
    1875                      .dwattr $C$DW$T$50, DW_AT_type(*$C$DW$394)
    1876              
    1877              $C$DW$T$29      .dwtag  DW_TAG_structure_type
    1878                      .dwattr $C$DW$T$29, DW_AT_name("_GPIO_Obj_")
TMS320C2000 Assembler PC v6.4.4 Wed Jul 08 10:29:38 2015

Tools Copyright (c) 1996-2015 Texas Instruments Incorporated
C:\Users\grant\AppData\Local\Temp\0693210                            PAGE   36

    1879                      .dwattr $C$DW$T$29, DW_AT_byte_size(0x6a)
    1880              $C$DW$395       .dwtag  DW_TAG_member
    1881                      .dwattr $C$DW$395, DW_AT_type(*$C$DW$T$20)
    1882                      .dwattr $C$DW$395, DW_AT_name("GPACTRL")
    1883                      .dwattr $C$DW$395, DW_AT_TI_symbol_name("_GPACTRL")
    1884                      .dwattr $C$DW$395, DW_AT_data_member_location[DW_OP_plus_uconst 0x0]
    1885                      .dwattr $C$DW$395, DW_AT_accessibility(DW_ACCESS_public)
    1886              $C$DW$396       .dwtag  DW_TAG_member
    1887                      .dwattr $C$DW$396, DW_AT_type(*$C$DW$T$20)
    1888                      .dwattr $C$DW$396, DW_AT_name("GPAQSEL1")
    1889                      .dwattr $C$DW$396, DW_AT_TI_symbol_name("_GPAQSEL1")
    1890                      .dwattr $C$DW$396, DW_AT_data_member_location[DW_OP_plus_uconst 0x2]
    1891                      .dwattr $C$DW$396, DW_AT_accessibility(DW_ACCESS_public)
    1892              $C$DW$397       .dwtag  DW_TAG_member
    1893                      .dwattr $C$DW$397, DW_AT_type(*$C$DW$T$20)
    1894                      .dwattr $C$DW$397, DW_AT_name("GPAQSEL2")
    1895                      .dwattr $C$DW$397, DW_AT_TI_symbol_name("_GPAQSEL2")
    1896                      .dwattr $C$DW$397, DW_AT_data_member_location[DW_OP_plus_uconst 0x4]
    1897                      .dwattr $C$DW$397, DW_AT_accessibility(DW_ACCESS_public)
    1898              $C$DW$398       .dwtag  DW_TAG_member
    1899                      .dwattr $C$DW$398, DW_AT_type(*$C$DW$T$20)
    1900                      .dwattr $C$DW$398, DW_AT_name("GPAMUX1")
    1901                      .dwattr $C$DW$398, DW_AT_TI_symbol_name("_GPAMUX1")
    1902                      .dwattr $C$DW$398, DW_AT_data_member_location[DW_OP_plus_uconst 0x6]
    1903                      .dwattr $C$DW$398, DW_AT_accessibility(DW_ACCESS_public)
    1904              $C$DW$399       .dwtag  DW_TAG_member
    1905                      .dwattr $C$DW$399, DW_AT_type(*$C$DW$T$20)
    1906                      .dwattr $C$DW$399, DW_AT_name("GPAMUX2")
    1907                      .dwattr $C$DW$399, DW_AT_TI_symbol_name("_GPAMUX2")
    1908                      .dwattr $C$DW$399, DW_AT_data_member_location[DW_OP_plus_uconst 0x8]
    1909                      .dwattr $C$DW$399, DW_AT_accessibility(DW_ACCESS_public)
    1910              $C$DW$400       .dwtag  DW_TAG_member
    1911                      .dwattr $C$DW$400, DW_AT_type(*$C$DW$T$20)
    1912                      .dwattr $C$DW$400, DW_AT_name("GPADIR")
    1913                      .dwattr $C$DW$400, DW_AT_TI_symbol_name("_GPADIR")
    1914                      .dwattr $C$DW$400, DW_AT_data_member_location[DW_OP_plus_uconst 0xa]
    1915                      .dwattr $C$DW$400, DW_AT_accessibility(DW_ACCESS_public)
    1916              $C$DW$401       .dwtag  DW_TAG_member
    1917                      .dwattr $C$DW$401, DW_AT_type(*$C$DW$T$20)
    1918                      .dwattr $C$DW$401, DW_AT_name("GPAPUD")
    1919                      .dwattr $C$DW$401, DW_AT_TI_symbol_name("_GPAPUD")
    1920                      .dwattr $C$DW$401, DW_AT_data_member_location[DW_OP_plus_uconst 0xc]
    1921                      .dwattr $C$DW$401, DW_AT_accessibility(DW_ACCESS_public)
    1922              $C$DW$402       .dwtag  DW_TAG_member
    1923                      .dwattr $C$DW$402, DW_AT_type(*$C$DW$T$23)
    1924                      .dwattr $C$DW$402, DW_AT_name("rsvd_1")
    1925                      .dwattr $C$DW$402, DW_AT_TI_symbol_name("_rsvd_1")
    1926                      .dwattr $C$DW$402, DW_AT_data_member_location[DW_OP_plus_uconst 0xe]
    1927                      .dwattr $C$DW$402, DW_AT_accessibility(DW_ACCESS_public)
    1928              $C$DW$403       .dwtag  DW_TAG_member
    1929                      .dwattr $C$DW$403, DW_AT_type(*$C$DW$T$20)
    1930                      .dwattr $C$DW$403, DW_AT_name("GPBCTRL")
    1931                      .dwattr $C$DW$403, DW_AT_TI_symbol_name("_GPBCTRL")
    1932                      .dwattr $C$DW$403, DW_AT_data_member_location[DW_OP_plus_uconst 0x10]
    1933                      .dwattr $C$DW$403, DW_AT_accessibility(DW_ACCESS_public)
TMS320C2000 Assembler PC v6.4.4 Wed Jul 08 10:29:38 2015

Tools Copyright (c) 1996-2015 Texas Instruments Incorporated
C:\Users\grant\AppData\Local\Temp\0693210                            PAGE   37

    1934              $C$DW$404       .dwtag  DW_TAG_member
    1935                      .dwattr $C$DW$404, DW_AT_type(*$C$DW$T$20)
    1936                      .dwattr $C$DW$404, DW_AT_name("GPBQSEL1")
    1937                      .dwattr $C$DW$404, DW_AT_TI_symbol_name("_GPBQSEL1")
    1938                      .dwattr $C$DW$404, DW_AT_data_member_location[DW_OP_plus_uconst 0x12]
    1939                      .dwattr $C$DW$404, DW_AT_accessibility(DW_ACCESS_public)
    1940              $C$DW$405       .dwtag  DW_TAG_member
    1941                      .dwattr $C$DW$405, DW_AT_type(*$C$DW$T$20)
    1942                      .dwattr $C$DW$405, DW_AT_name("GPBQSEL2")
    1943                      .dwattr $C$DW$405, DW_AT_TI_symbol_name("_GPBQSEL2")
    1944                      .dwattr $C$DW$405, DW_AT_data_member_location[DW_OP_plus_uconst 0x14]
    1945                      .dwattr $C$DW$405, DW_AT_accessibility(DW_ACCESS_public)
    1946              $C$DW$406       .dwtag  DW_TAG_member
    1947                      .dwattr $C$DW$406, DW_AT_type(*$C$DW$T$20)
    1948                      .dwattr $C$DW$406, DW_AT_name("GPBMUX1")
    1949                      .dwattr $C$DW$406, DW_AT_TI_symbol_name("_GPBMUX1")
    1950                      .dwattr $C$DW$406, DW_AT_data_member_location[DW_OP_plus_uconst 0x16]
    1951                      .dwattr $C$DW$406, DW_AT_accessibility(DW_ACCESS_public)
    1952              $C$DW$407       .dwtag  DW_TAG_member
    1953                      .dwattr $C$DW$407, DW_AT_type(*$C$DW$T$20)
    1954                      .dwattr $C$DW$407, DW_AT_name("GPBMUX2")
    1955                      .dwattr $C$DW$407, DW_AT_TI_symbol_name("_GPBMUX2")
    1956                      .dwattr $C$DW$407, DW_AT_data_member_location[DW_OP_plus_uconst 0x18]
    1957                      .dwattr $C$DW$407, DW_AT_accessibility(DW_ACCESS_public)
    1958              $C$DW$408       .dwtag  DW_TAG_member
    1959                      .dwattr $C$DW$408, DW_AT_type(*$C$DW$T$20)
    1960                      .dwattr $C$DW$408, DW_AT_name("GPBDIR")
    1961                      .dwattr $C$DW$408, DW_AT_TI_symbol_name("_GPBDIR")
    1962                      .dwattr $C$DW$408, DW_AT_data_member_location[DW_OP_plus_uconst 0x1a]
    1963                      .dwattr $C$DW$408, DW_AT_accessibility(DW_ACCESS_public)
    1964              $C$DW$409       .dwtag  DW_TAG_member
    1965                      .dwattr $C$DW$409, DW_AT_type(*$C$DW$T$20)
    1966                      .dwattr $C$DW$409, DW_AT_name("GPBPUD")
    1967                      .dwattr $C$DW$409, DW_AT_TI_symbol_name("_GPBPUD")
    1968                      .dwattr $C$DW$409, DW_AT_data_member_location[DW_OP_plus_uconst 0x1c]
    1969                      .dwattr $C$DW$409, DW_AT_accessibility(DW_ACCESS_public)
    1970              $C$DW$410       .dwtag  DW_TAG_member
    1971                      .dwattr $C$DW$410, DW_AT_type(*$C$DW$T$24)
    1972                      .dwattr $C$DW$410, DW_AT_name("rsvd_4")
    1973                      .dwattr $C$DW$410, DW_AT_TI_symbol_name("_rsvd_4")
    1974                      .dwattr $C$DW$410, DW_AT_data_member_location[DW_OP_plus_uconst 0x1e]
    1975                      .dwattr $C$DW$410, DW_AT_accessibility(DW_ACCESS_public)
    1976              $C$DW$411       .dwtag  DW_TAG_member
    1977                      .dwattr $C$DW$411, DW_AT_type(*$C$DW$T$20)
    1978                      .dwattr $C$DW$411, DW_AT_name("AIOMUX1")
    1979                      .dwattr $C$DW$411, DW_AT_TI_symbol_name("_AIOMUX1")
    1980                      .dwattr $C$DW$411, DW_AT_data_member_location[DW_OP_plus_uconst 0x36]
    1981                      .dwattr $C$DW$411, DW_AT_accessibility(DW_ACCESS_public)
    1982              $C$DW$412       .dwtag  DW_TAG_member
    1983                      .dwattr $C$DW$412, DW_AT_type(*$C$DW$T$23)
    1984                      .dwattr $C$DW$412, DW_AT_name("rsvd_5")
    1985                      .dwattr $C$DW$412, DW_AT_TI_symbol_name("_rsvd_5")
    1986                      .dwattr $C$DW$412, DW_AT_data_member_location[DW_OP_plus_uconst 0x38]
    1987                      .dwattr $C$DW$412, DW_AT_accessibility(DW_ACCESS_public)
    1988              $C$DW$413       .dwtag  DW_TAG_member
TMS320C2000 Assembler PC v6.4.4 Wed Jul 08 10:29:38 2015

Tools Copyright (c) 1996-2015 Texas Instruments Incorporated
C:\Users\grant\AppData\Local\Temp\0693210                            PAGE   38

    1989                      .dwattr $C$DW$413, DW_AT_type(*$C$DW$T$20)
    1990                      .dwattr $C$DW$413, DW_AT_name("AIODIR")
    1991                      .dwattr $C$DW$413, DW_AT_TI_symbol_name("_AIODIR")
    1992                      .dwattr $C$DW$413, DW_AT_data_member_location[DW_OP_plus_uconst 0x3a]
    1993                      .dwattr $C$DW$413, DW_AT_accessibility(DW_ACCESS_public)
    1994              $C$DW$414       .dwtag  DW_TAG_member
    1995                      .dwattr $C$DW$414, DW_AT_type(*$C$DW$T$25)
    1996                      .dwattr $C$DW$414, DW_AT_name("rsvd_6")
    1997                      .dwattr $C$DW$414, DW_AT_TI_symbol_name("_rsvd_6")
    1998                      .dwattr $C$DW$414, DW_AT_data_member_location[DW_OP_plus_uconst 0x3c]
    1999                      .dwattr $C$DW$414, DW_AT_accessibility(DW_ACCESS_public)
    2000              $C$DW$415       .dwtag  DW_TAG_member
    2001                      .dwattr $C$DW$415, DW_AT_type(*$C$DW$T$20)
    2002                      .dwattr $C$DW$415, DW_AT_name("GPADAT")
    2003                      .dwattr $C$DW$415, DW_AT_TI_symbol_name("_GPADAT")
    2004                      .dwattr $C$DW$415, DW_AT_data_member_location[DW_OP_plus_uconst 0x40]
    2005                      .dwattr $C$DW$415, DW_AT_accessibility(DW_ACCESS_public)
    2006              $C$DW$416       .dwtag  DW_TAG_member
    2007                      .dwattr $C$DW$416, DW_AT_type(*$C$DW$T$20)
    2008                      .dwattr $C$DW$416, DW_AT_name("GPASET")
    2009                      .dwattr $C$DW$416, DW_AT_TI_symbol_name("_GPASET")
    2010                      .dwattr $C$DW$416, DW_AT_data_member_location[DW_OP_plus_uconst 0x42]
    2011                      .dwattr $C$DW$416, DW_AT_accessibility(DW_ACCESS_public)
    2012              $C$DW$417       .dwtag  DW_TAG_member
    2013                      .dwattr $C$DW$417, DW_AT_type(*$C$DW$T$20)
    2014                      .dwattr $C$DW$417, DW_AT_name("GPACLEAR")
    2015                      .dwattr $C$DW$417, DW_AT_TI_symbol_name("_GPACLEAR")
    2016                      .dwattr $C$DW$417, DW_AT_data_member_location[DW_OP_plus_uconst 0x44]
    2017                      .dwattr $C$DW$417, DW_AT_accessibility(DW_ACCESS_public)
    2018              $C$DW$418       .dwtag  DW_TAG_member
    2019                      .dwattr $C$DW$418, DW_AT_type(*$C$DW$T$20)
    2020                      .dwattr $C$DW$418, DW_AT_name("GPATOGGLE")
    2021                      .dwattr $C$DW$418, DW_AT_TI_symbol_name("_GPATOGGLE")
    2022                      .dwattr $C$DW$418, DW_AT_data_member_location[DW_OP_plus_uconst 0x46]
    2023                      .dwattr $C$DW$418, DW_AT_accessibility(DW_ACCESS_public)
    2024              $C$DW$419       .dwtag  DW_TAG_member
    2025                      .dwattr $C$DW$419, DW_AT_type(*$C$DW$T$20)
    2026                      .dwattr $C$DW$419, DW_AT_name("GPBDAT")
    2027                      .dwattr $C$DW$419, DW_AT_TI_symbol_name("_GPBDAT")
    2028                      .dwattr $C$DW$419, DW_AT_data_member_location[DW_OP_plus_uconst 0x48]
    2029                      .dwattr $C$DW$419, DW_AT_accessibility(DW_ACCESS_public)
    2030              $C$DW$420       .dwtag  DW_TAG_member
    2031                      .dwattr $C$DW$420, DW_AT_type(*$C$DW$T$20)
    2032                      .dwattr $C$DW$420, DW_AT_name("GPBSET")
    2033                      .dwattr $C$DW$420, DW_AT_TI_symbol_name("_GPBSET")
    2034                      .dwattr $C$DW$420, DW_AT_data_member_location[DW_OP_plus_uconst 0x4a]
    2035                      .dwattr $C$DW$420, DW_AT_accessibility(DW_ACCESS_public)
    2036              $C$DW$421       .dwtag  DW_TAG_member
    2037                      .dwattr $C$DW$421, DW_AT_type(*$C$DW$T$20)
    2038                      .dwattr $C$DW$421, DW_AT_name("GPBCLEAR")
    2039                      .dwattr $C$DW$421, DW_AT_TI_symbol_name("_GPBCLEAR")
    2040                      .dwattr $C$DW$421, DW_AT_data_member_location[DW_OP_plus_uconst 0x4c]
    2041                      .dwattr $C$DW$421, DW_AT_accessibility(DW_ACCESS_public)
    2042              $C$DW$422       .dwtag  DW_TAG_member
    2043                      .dwattr $C$DW$422, DW_AT_type(*$C$DW$T$20)
TMS320C2000 Assembler PC v6.4.4 Wed Jul 08 10:29:38 2015

Tools Copyright (c) 1996-2015 Texas Instruments Incorporated
C:\Users\grant\AppData\Local\Temp\0693210                            PAGE   39

    2044                      .dwattr $C$DW$422, DW_AT_name("GPBTOGGLE")
    2045                      .dwattr $C$DW$422, DW_AT_TI_symbol_name("_GPBTOGGLE")
    2046                      .dwattr $C$DW$422, DW_AT_data_member_location[DW_OP_plus_uconst 0x4e]
    2047                      .dwattr $C$DW$422, DW_AT_accessibility(DW_ACCESS_public)
    2048              $C$DW$423       .dwtag  DW_TAG_member
    2049                      .dwattr $C$DW$423, DW_AT_type(*$C$DW$T$26)
    2050                      .dwattr $C$DW$423, DW_AT_name("rsvd_7")
    2051                      .dwattr $C$DW$423, DW_AT_TI_symbol_name("_rsvd_7")
    2052                      .dwattr $C$DW$423, DW_AT_data_member_location[DW_OP_plus_uconst 0x50]
    2053                      .dwattr $C$DW$423, DW_AT_accessibility(DW_ACCESS_public)
    2054              $C$DW$424       .dwtag  DW_TAG_member
    2055                      .dwattr $C$DW$424, DW_AT_type(*$C$DW$T$20)
    2056                      .dwattr $C$DW$424, DW_AT_name("AIODAT")
    2057                      .dwattr $C$DW$424, DW_AT_TI_symbol_name("_AIODAT")
    2058                      .dwattr $C$DW$424, DW_AT_data_member_location[DW_OP_plus_uconst 0x58]
    2059                      .dwattr $C$DW$424, DW_AT_accessibility(DW_ACCESS_public)
    2060              $C$DW$425       .dwtag  DW_TAG_member
    2061                      .dwattr $C$DW$425, DW_AT_type(*$C$DW$T$20)
    2062                      .dwattr $C$DW$425, DW_AT_name("AIOSET")
    2063                      .dwattr $C$DW$425, DW_AT_TI_symbol_name("_AIOSET")
    2064                      .dwattr $C$DW$425, DW_AT_data_member_location[DW_OP_plus_uconst 0x5a]
    2065                      .dwattr $C$DW$425, DW_AT_accessibility(DW_ACCESS_public)
    2066              $C$DW$426       .dwtag  DW_TAG_member
    2067                      .dwattr $C$DW$426, DW_AT_type(*$C$DW$T$20)
    2068                      .dwattr $C$DW$426, DW_AT_name("AIOCLEAR")
    2069                      .dwattr $C$DW$426, DW_AT_TI_symbol_name("_AIOCLEAR")
    2070                      .dwattr $C$DW$426, DW_AT_data_member_location[DW_OP_plus_uconst 0x5c]
    2071                      .dwattr $C$DW$426, DW_AT_accessibility(DW_ACCESS_public)
    2072              $C$DW$427       .dwtag  DW_TAG_member
    2073                      .dwattr $C$DW$427, DW_AT_type(*$C$DW$T$20)
    2074                      .dwattr $C$DW$427, DW_AT_name("AIOTOGGLE")
    2075                      .dwattr $C$DW$427, DW_AT_TI_symbol_name("_AIOTOGGLE")
    2076                      .dwattr $C$DW$427, DW_AT_data_member_location[DW_OP_plus_uconst 0x5e]
    2077                      .dwattr $C$DW$427, DW_AT_accessibility(DW_ACCESS_public)
    2078              $C$DW$428       .dwtag  DW_TAG_member
    2079                      .dwattr $C$DW$428, DW_AT_type(*$C$DW$T$27)
    2080                      .dwattr $C$DW$428, DW_AT_name("GPIOXINTnSEL")
    2081                      .dwattr $C$DW$428, DW_AT_TI_symbol_name("_GPIOXINTnSEL")
    2082                      .dwattr $C$DW$428, DW_AT_data_member_location[DW_OP_plus_uconst 0x60]
    2083                      .dwattr $C$DW$428, DW_AT_accessibility(DW_ACCESS_public)
    2084              $C$DW$429       .dwtag  DW_TAG_member
    2085                      .dwattr $C$DW$429, DW_AT_type(*$C$DW$T$28)
    2086                      .dwattr $C$DW$429, DW_AT_name("rsvd_8")
    2087                      .dwattr $C$DW$429, DW_AT_TI_symbol_name("_rsvd_8")
    2088                      .dwattr $C$DW$429, DW_AT_data_member_location[DW_OP_plus_uconst 0x63]
    2089                      .dwattr $C$DW$429, DW_AT_accessibility(DW_ACCESS_public)
    2090              $C$DW$430       .dwtag  DW_TAG_member
    2091                      .dwattr $C$DW$430, DW_AT_type(*$C$DW$T$20)
    2092                      .dwattr $C$DW$430, DW_AT_name("GPIOLPMSEL")
    2093                      .dwattr $C$DW$430, DW_AT_TI_symbol_name("_GPIOLPMSEL")
    2094                      .dwattr $C$DW$430, DW_AT_data_member_location[DW_OP_plus_uconst 0x68]
    2095                      .dwattr $C$DW$430, DW_AT_accessibility(DW_ACCESS_public)
    2096                      .dwendtag $C$DW$T$29
    2097              
    2098              $C$DW$T$51      .dwtag  DW_TAG_typedef, DW_AT_name("GPIO_Obj")
TMS320C2000 Assembler PC v6.4.4 Wed Jul 08 10:29:38 2015

Tools Copyright (c) 1996-2015 Texas Instruments Incorporated
C:\Users\grant\AppData\Local\Temp\0693210                            PAGE   40

    2099                      .dwattr $C$DW$T$51, DW_AT_type(*$C$DW$T$29)
    2100                      .dwattr $C$DW$T$51, DW_AT_language(DW_LANG_C)
    2101              $C$DW$T$52      .dwtag  DW_TAG_pointer_type
    2102                      .dwattr $C$DW$T$52, DW_AT_type(*$C$DW$T$29)
    2103                      .dwattr $C$DW$T$52, DW_AT_address_class(0x20)
    2104              $C$DW$T$53      .dwtag  DW_TAG_typedef, DW_AT_name("GPIO_Handle")
    2105                      .dwattr $C$DW$T$53, DW_AT_type(*$C$DW$T$52)
    2106                      .dwattr $C$DW$T$53, DW_AT_language(DW_LANG_C)
    2107              $C$DW$431       .dwtag  DW_TAG_TI_far_type
    2108                      .dwattr $C$DW$431, DW_AT_type(*$C$DW$T$53)
    2109              $C$DW$T$54      .dwtag  DW_TAG_const_type
    2110                      .dwattr $C$DW$T$54, DW_AT_type(*$C$DW$431)
    2111              $C$DW$T$2       .dwtag  DW_TAG_unspecified_type
    2112                      .dwattr $C$DW$T$2, DW_AT_name("void")
    2113              $C$DW$T$3       .dwtag  DW_TAG_pointer_type
    2114                      .dwattr $C$DW$T$3, DW_AT_type(*$C$DW$T$2)
    2115                      .dwattr $C$DW$T$3, DW_AT_address_class(0x20)
    2116              $C$DW$T$4       .dwtag  DW_TAG_base_type
    2117                      .dwattr $C$DW$T$4, DW_AT_encoding(DW_ATE_boolean)
    2118                      .dwattr $C$DW$T$4, DW_AT_name("bool")
    2119                      .dwattr $C$DW$T$4, DW_AT_byte_size(0x01)
    2120              $C$DW$T$5       .dwtag  DW_TAG_base_type
    2121                      .dwattr $C$DW$T$5, DW_AT_encoding(DW_ATE_signed_char)
    2122                      .dwattr $C$DW$T$5, DW_AT_name("signed char")
    2123                      .dwattr $C$DW$T$5, DW_AT_byte_size(0x01)
    2124              $C$DW$T$6       .dwtag  DW_TAG_base_type
    2125                      .dwattr $C$DW$T$6, DW_AT_encoding(DW_ATE_unsigned_char)
    2126                      .dwattr $C$DW$T$6, DW_AT_name("unsigned char")
    2127                      .dwattr $C$DW$T$6, DW_AT_byte_size(0x01)
    2128              $C$DW$T$7       .dwtag  DW_TAG_base_type
    2129                      .dwattr $C$DW$T$7, DW_AT_encoding(DW_ATE_signed_char)
    2130                      .dwattr $C$DW$T$7, DW_AT_name("wchar_t")
    2131                      .dwattr $C$DW$T$7, DW_AT_byte_size(0x01)
    2132              $C$DW$T$8       .dwtag  DW_TAG_base_type
    2133                      .dwattr $C$DW$T$8, DW_AT_encoding(DW_ATE_signed)
    2134                      .dwattr $C$DW$T$8, DW_AT_name("short")
    2135                      .dwattr $C$DW$T$8, DW_AT_byte_size(0x01)
    2136              $C$DW$T$9       .dwtag  DW_TAG_base_type
    2137                      .dwattr $C$DW$T$9, DW_AT_encoding(DW_ATE_unsigned)
    2138                      .dwattr $C$DW$T$9, DW_AT_name("unsigned short")
    2139                      .dwattr $C$DW$T$9, DW_AT_byte_size(0x01)
    2140              $C$DW$T$10      .dwtag  DW_TAG_base_type
    2141                      .dwattr $C$DW$T$10, DW_AT_encoding(DW_ATE_signed)
    2142                      .dwattr $C$DW$T$10, DW_AT_name("int")
    2143                      .dwattr $C$DW$T$10, DW_AT_byte_size(0x01)
    2144              $C$DW$T$11      .dwtag  DW_TAG_base_type
    2145                      .dwattr $C$DW$T$11, DW_AT_encoding(DW_ATE_unsigned)
    2146                      .dwattr $C$DW$T$11, DW_AT_name("unsigned int")
    2147                      .dwattr $C$DW$T$11, DW_AT_byte_size(0x01)
    2148              $C$DW$T$21      .dwtag  DW_TAG_typedef, DW_AT_name("uint16_t")
    2149                      .dwattr $C$DW$T$21, DW_AT_type(*$C$DW$T$11)
    2150                      .dwattr $C$DW$T$21, DW_AT_language(DW_LANG_C)
    2151              $C$DW$432       .dwtag  DW_TAG_TI_far_type
    2152                      .dwattr $C$DW$432, DW_AT_type(*$C$DW$T$21)
    2153              $C$DW$T$22      .dwtag  DW_TAG_volatile_type
TMS320C2000 Assembler PC v6.4.4 Wed Jul 08 10:29:38 2015

Tools Copyright (c) 1996-2015 Texas Instruments Incorporated
C:\Users\grant\AppData\Local\Temp\0693210                            PAGE   41

    2154                      .dwattr $C$DW$T$22, DW_AT_type(*$C$DW$432)
    2155              
    2156              $C$DW$T$23      .dwtag  DW_TAG_array_type
    2157                      .dwattr $C$DW$T$23, DW_AT_type(*$C$DW$T$22)
    2158                      .dwattr $C$DW$T$23, DW_AT_language(DW_LANG_C)
    2159                      .dwattr $C$DW$T$23, DW_AT_byte_size(0x02)
    2160              $C$DW$433       .dwtag  DW_TAG_subrange_type
    2161                      .dwattr $C$DW$433, DW_AT_upper_bound(0x01)
    2162                      .dwendtag $C$DW$T$23
    2163              
    2164              
    2165              $C$DW$T$24      .dwtag  DW_TAG_array_type
    2166                      .dwattr $C$DW$T$24, DW_AT_type(*$C$DW$T$22)
    2167                      .dwattr $C$DW$T$24, DW_AT_language(DW_LANG_C)
    2168                      .dwattr $C$DW$T$24, DW_AT_byte_size(0x18)
    2169              $C$DW$434       .dwtag  DW_TAG_subrange_type
    2170                      .dwattr $C$DW$434, DW_AT_upper_bound(0x17)
    2171                      .dwendtag $C$DW$T$24
    2172              
    2173              
    2174              $C$DW$T$25      .dwtag  DW_TAG_array_type
    2175                      .dwattr $C$DW$T$25, DW_AT_type(*$C$DW$T$22)
    2176                      .dwattr $C$DW$T$25, DW_AT_language(DW_LANG_C)
    2177                      .dwattr $C$DW$T$25, DW_AT_byte_size(0x04)
    2178              $C$DW$435       .dwtag  DW_TAG_subrange_type
    2179                      .dwattr $C$DW$435, DW_AT_upper_bound(0x03)
    2180                      .dwendtag $C$DW$T$25
    2181              
    2182              
    2183              $C$DW$T$26      .dwtag  DW_TAG_array_type
    2184                      .dwattr $C$DW$T$26, DW_AT_type(*$C$DW$T$22)
    2185                      .dwattr $C$DW$T$26, DW_AT_language(DW_LANG_C)
    2186                      .dwattr $C$DW$T$26, DW_AT_byte_size(0x08)
    2187              $C$DW$436       .dwtag  DW_TAG_subrange_type
    2188                      .dwattr $C$DW$436, DW_AT_upper_bound(0x07)
    2189                      .dwendtag $C$DW$T$26
    2190              
    2191              
    2192              $C$DW$T$27      .dwtag  DW_TAG_array_type
    2193                      .dwattr $C$DW$T$27, DW_AT_type(*$C$DW$T$22)
    2194                      .dwattr $C$DW$T$27, DW_AT_language(DW_LANG_C)
    2195                      .dwattr $C$DW$T$27, DW_AT_byte_size(0x03)
    2196              $C$DW$437       .dwtag  DW_TAG_subrange_type
    2197                      .dwattr $C$DW$437, DW_AT_upper_bound(0x02)
    2198                      .dwendtag $C$DW$T$27
    2199              
    2200              
    2201              $C$DW$T$28      .dwtag  DW_TAG_array_type
    2202                      .dwattr $C$DW$T$28, DW_AT_type(*$C$DW$T$22)
    2203                      .dwattr $C$DW$T$28, DW_AT_language(DW_LANG_C)
    2204                      .dwattr $C$DW$T$28, DW_AT_byte_size(0x05)
    2205              $C$DW$438       .dwtag  DW_TAG_subrange_type
    2206                      .dwattr $C$DW$438, DW_AT_upper_bound(0x04)
    2207                      .dwendtag $C$DW$T$28
    2208              
TMS320C2000 Assembler PC v6.4.4 Wed Jul 08 10:29:38 2015

Tools Copyright (c) 1996-2015 Texas Instruments Incorporated
C:\Users\grant\AppData\Local\Temp\0693210                            PAGE   42

    2209              $C$DW$439       .dwtag  DW_TAG_TI_far_type
    2210                      .dwattr $C$DW$439, DW_AT_type(*$C$DW$T$21)
    2211              $C$DW$T$66      .dwtag  DW_TAG_const_type
    2212                      .dwattr $C$DW$T$66, DW_AT_type(*$C$DW$439)
    2213              $C$DW$T$69      .dwtag  DW_TAG_typedef, DW_AT_name("uint_least8_t")
    2214                      .dwattr $C$DW$T$69, DW_AT_type(*$C$DW$T$21)
    2215                      .dwattr $C$DW$T$69, DW_AT_language(DW_LANG_C)
    2216              $C$DW$440       .dwtag  DW_TAG_TI_far_type
    2217                      .dwattr $C$DW$440, DW_AT_type(*$C$DW$T$69)
    2218              $C$DW$T$70      .dwtag  DW_TAG_const_type
    2219                      .dwattr $C$DW$T$70, DW_AT_type(*$C$DW$440)
    2220              $C$DW$T$12      .dwtag  DW_TAG_base_type
    2221                      .dwattr $C$DW$T$12, DW_AT_encoding(DW_ATE_signed)
    2222                      .dwattr $C$DW$T$12, DW_AT_name("long")
    2223                      .dwattr $C$DW$T$12, DW_AT_byte_size(0x02)
    2224              $C$DW$T$13      .dwtag  DW_TAG_base_type
    2225                      .dwattr $C$DW$T$13, DW_AT_encoding(DW_ATE_unsigned)
    2226                      .dwattr $C$DW$T$13, DW_AT_name("unsigned long")
    2227                      .dwattr $C$DW$T$13, DW_AT_byte_size(0x02)
    2228              $C$DW$T$55      .dwtag  DW_TAG_typedef, DW_AT_name("size_t")
    2229                      .dwattr $C$DW$T$55, DW_AT_type(*$C$DW$T$13)
    2230                      .dwattr $C$DW$T$55, DW_AT_language(DW_LANG_C)
    2231              $C$DW$441       .dwtag  DW_TAG_TI_far_type
    2232                      .dwattr $C$DW$441, DW_AT_type(*$C$DW$T$55)
    2233              $C$DW$T$56      .dwtag  DW_TAG_const_type
    2234                      .dwattr $C$DW$T$56, DW_AT_type(*$C$DW$441)
    2235              $C$DW$T$19      .dwtag  DW_TAG_typedef, DW_AT_name("uint32_t")
    2236                      .dwattr $C$DW$T$19, DW_AT_type(*$C$DW$T$13)
    2237                      .dwattr $C$DW$T$19, DW_AT_language(DW_LANG_C)
    2238              $C$DW$442       .dwtag  DW_TAG_TI_far_type
    2239                      .dwattr $C$DW$442, DW_AT_type(*$C$DW$T$19)
    2240              $C$DW$T$20      .dwtag  DW_TAG_volatile_type
    2241                      .dwattr $C$DW$T$20, DW_AT_type(*$C$DW$442)
    2242              $C$DW$T$14      .dwtag  DW_TAG_base_type
    2243                      .dwattr $C$DW$T$14, DW_AT_encoding(DW_ATE_signed)
    2244                      .dwattr $C$DW$T$14, DW_AT_name("long long")
    2245                      .dwattr $C$DW$T$14, DW_AT_byte_size(0x04)
    2246              $C$DW$T$15      .dwtag  DW_TAG_base_type
    2247                      .dwattr $C$DW$T$15, DW_AT_encoding(DW_ATE_unsigned)
    2248                      .dwattr $C$DW$T$15, DW_AT_name("unsigned long long")
    2249                      .dwattr $C$DW$T$15, DW_AT_byte_size(0x04)
    2250              $C$DW$T$16      .dwtag  DW_TAG_base_type
    2251                      .dwattr $C$DW$T$16, DW_AT_encoding(DW_ATE_float)
    2252                      .dwattr $C$DW$T$16, DW_AT_name("float")
    2253                      .dwattr $C$DW$T$16, DW_AT_byte_size(0x02)
    2254              $C$DW$T$17      .dwtag  DW_TAG_base_type
    2255                      .dwattr $C$DW$T$17, DW_AT_encoding(DW_ATE_float)
    2256                      .dwattr $C$DW$T$17, DW_AT_name("double")
    2257                      .dwattr $C$DW$T$17, DW_AT_byte_size(0x02)
    2258              $C$DW$T$18      .dwtag  DW_TAG_base_type
    2259                      .dwattr $C$DW$T$18, DW_AT_encoding(DW_ATE_float)
    2260                      .dwattr $C$DW$T$18, DW_AT_name("long double")
    2261                      .dwattr $C$DW$T$18, DW_AT_byte_size(0x04)
    2262              $C$DW$T$81      .dwtag  DW_TAG_base_type
    2263                      .dwattr $C$DW$T$81, DW_AT_encoding(DW_ATE_unsigned_char)
TMS320C2000 Assembler PC v6.4.4 Wed Jul 08 10:29:38 2015

Tools Copyright (c) 1996-2015 Texas Instruments Incorporated
C:\Users\grant\AppData\Local\Temp\0693210                            PAGE   43

    2264                      .dwattr $C$DW$T$81, DW_AT_name("unsigned char")
    2265                      .dwattr $C$DW$T$81, DW_AT_byte_size(0x01)
    2266                      .dwattr $C$DW$CU, DW_AT_language(DW_LANG_C)
    2267              
    2268              ;***************************************************************
    2269              ;* DWARF CIE ENTRIES                                           *
    2270              ;***************************************************************
    2271              
    2272              $C$DW$CIE       .dwcie 26
    2273                      .dwcfi  cfa_register, 20
    2274                      .dwcfi  cfa_offset, 0
    2275                      .dwcfi  undefined, 0
    2276                      .dwcfi  undefined, 1
    2277                      .dwcfi  undefined, 2
    2278                      .dwcfi  undefined, 3
    2279                      .dwcfi  undefined, 20
    2280                      .dwcfi  undefined, 21
    2281                      .dwcfi  undefined, 22
    2282                      .dwcfi  undefined, 23
    2283                      .dwcfi  undefined, 24
    2284                      .dwcfi  undefined, 25
    2285                      .dwcfi  undefined, 26
    2286                      .dwcfi  same_value, 28
    2287                      .dwcfi  undefined, 29
    2288                      .dwcfi  undefined, 30
    2289                      .dwcfi  undefined, 31
    2290                      .dwcfi  undefined, 32
    2291                      .dwcfi  undefined, 33
    2292                      .dwcfi  undefined, 34
    2293                      .dwcfi  undefined, 35
    2294                      .dwcfi  undefined, 36
    2295                      .dwcfi  undefined, 37
    2296                      .dwcfi  undefined, 38
    2297                      .dwcfi  undefined, 75
    2298                      .dwcfi  undefined, 76
    2299                      .dwcfi  undefined, 77
    2300                      .dwcfi  undefined, 4
    2301                      .dwcfi  undefined, 5
    2302                      .dwcfi  same_value, 6
    2303                      .dwcfi  same_value, 7
    2304                      .dwcfi  same_value, 8
    2305                      .dwcfi  same_value, 9
    2306                      .dwcfi  same_value, 10
    2307                      .dwcfi  same_value, 11
    2308                      .dwcfi  undefined, 12
    2309                      .dwcfi  undefined, 13
    2310                      .dwcfi  undefined, 14
    2311                      .dwcfi  undefined, 15
    2312                      .dwcfi  undefined, 16
    2313                      .dwcfi  undefined, 17
    2314                      .dwcfi  undefined, 18
    2315                      .dwcfi  undefined, 19
    2316                      .dwendentry
    2317              
    2318              ;***************************************************************
TMS320C2000 Assembler PC v6.4.4 Wed Jul 08 10:29:38 2015

Tools Copyright (c) 1996-2015 Texas Instruments Incorporated
C:\Users\grant\AppData\Local\Temp\0693210                            PAGE   44

    2319              ;* DWARF REGISTER MAP                                          *
    2320              ;***************************************************************
    2321              
    2322              $C$DW$443       .dwtag  DW_TAG_TI_assign_register, DW_AT_name("AL")
    2323                      .dwattr $C$DW$443, DW_AT_location[DW_OP_reg0]
    2324              $C$DW$444       .dwtag  DW_TAG_TI_assign_register, DW_AT_name("AH")
    2325                      .dwattr $C$DW$444, DW_AT_location[DW_OP_reg1]
    2326              $C$DW$445       .dwtag  DW_TAG_TI_assign_register, DW_AT_name("PL")
    2327                      .dwattr $C$DW$445, DW_AT_location[DW_OP_reg2]
    2328              $C$DW$446       .dwtag  DW_TAG_TI_assign_register, DW_AT_name("PH")
    2329                      .dwattr $C$DW$446, DW_AT_location[DW_OP_reg3]
    2330              $C$DW$447       .dwtag  DW_TAG_TI_assign_register, DW_AT_name("SP")
    2331                      .dwattr $C$DW$447, DW_AT_location[DW_OP_reg20]
    2332              $C$DW$448       .dwtag  DW_TAG_TI_assign_register, DW_AT_name("XT")
    2333                      .dwattr $C$DW$448, DW_AT_location[DW_OP_reg21]
    2334              $C$DW$449       .dwtag  DW_TAG_TI_assign_register, DW_AT_name("T")
    2335                      .dwattr $C$DW$449, DW_AT_location[DW_OP_reg22]
    2336              $C$DW$450       .dwtag  DW_TAG_TI_assign_register, DW_AT_name("ST0")
    2337                      .dwattr $C$DW$450, DW_AT_location[DW_OP_reg23]
    2338              $C$DW$451       .dwtag  DW_TAG_TI_assign_register, DW_AT_name("ST1")
    2339                      .dwattr $C$DW$451, DW_AT_location[DW_OP_reg24]
    2340              $C$DW$452       .dwtag  DW_TAG_TI_assign_register, DW_AT_name("PC")
    2341                      .dwattr $C$DW$452, DW_AT_location[DW_OP_reg25]
    2342              $C$DW$453       .dwtag  DW_TAG_TI_assign_register, DW_AT_name("RPC")
    2343                      .dwattr $C$DW$453, DW_AT_location[DW_OP_reg26]
    2344              $C$DW$454       .dwtag  DW_TAG_TI_assign_register, DW_AT_name("FP")
    2345                      .dwattr $C$DW$454, DW_AT_location[DW_OP_reg28]
    2346              $C$DW$455       .dwtag  DW_TAG_TI_assign_register, DW_AT_name("DP")
    2347                      .dwattr $C$DW$455, DW_AT_location[DW_OP_reg29]
    2348              $C$DW$456       .dwtag  DW_TAG_TI_assign_register, DW_AT_name("SXM")
    2349                      .dwattr $C$DW$456, DW_AT_location[DW_OP_reg30]
    2350              $C$DW$457       .dwtag  DW_TAG_TI_assign_register, DW_AT_name("PM")
    2351                      .dwattr $C$DW$457, DW_AT_location[DW_OP_reg31]
    2352              $C$DW$458       .dwtag  DW_TAG_TI_assign_register, DW_AT_name("OVM")
    2353                      .dwattr $C$DW$458, DW_AT_location[DW_OP_regx 0x20]
    2354              $C$DW$459       .dwtag  DW_TAG_TI_assign_register, DW_AT_name("PAGE0")
    2355                      .dwattr $C$DW$459, DW_AT_location[DW_OP_regx 0x21]
    2356              $C$DW$460       .dwtag  DW_TAG_TI_assign_register, DW_AT_name("AMODE")
    2357                      .dwattr $C$DW$460, DW_AT_location[DW_OP_regx 0x22]
    2358              $C$DW$461       .dwtag  DW_TAG_TI_assign_register, DW_AT_name("INTM")
    2359                      .dwattr $C$DW$461, DW_AT_location[DW_OP_regx 0x23]
    2360              $C$DW$462       .dwtag  DW_TAG_TI_assign_register, DW_AT_name("IFR")
    2361                      .dwattr $C$DW$462, DW_AT_location[DW_OP_regx 0x24]
    2362              $C$DW$463       .dwtag  DW_TAG_TI_assign_register, DW_AT_name("IER")
    2363                      .dwattr $C$DW$463, DW_AT_location[DW_OP_regx 0x25]
    2364              $C$DW$464       .dwtag  DW_TAG_TI_assign_register, DW_AT_name("V")
    2365                      .dwattr $C$DW$464, DW_AT_location[DW_OP_regx 0x26]
    2366              $C$DW$465       .dwtag  DW_TAG_TI_assign_register, DW_AT_name("PSEUDOH")
    2367                      .dwattr $C$DW$465, DW_AT_location[DW_OP_regx 0x4c]
    2368              $C$DW$466       .dwtag  DW_TAG_TI_assign_register, DW_AT_name("VOL")
    2369                      .dwattr $C$DW$466, DW_AT_location[DW_OP_regx 0x4d]
    2370              $C$DW$467       .dwtag  DW_TAG_TI_assign_register, DW_AT_name("AR0")
    2371                      .dwattr $C$DW$467, DW_AT_location[DW_OP_reg4]
    2372              $C$DW$468       .dwtag  DW_TAG_TI_assign_register, DW_AT_name("XAR0")
    2373                      .dwattr $C$DW$468, DW_AT_location[DW_OP_reg5]
TMS320C2000 Assembler PC v6.4.4 Wed Jul 08 10:29:38 2015

Tools Copyright (c) 1996-2015 Texas Instruments Incorporated
C:\Users\grant\AppData\Local\Temp\0693210                            PAGE   45

    2374              $C$DW$469       .dwtag  DW_TAG_TI_assign_register, DW_AT_name("AR1")
    2375                      .dwattr $C$DW$469, DW_AT_location[DW_OP_reg6]
    2376              $C$DW$470       .dwtag  DW_TAG_TI_assign_register, DW_AT_name("XAR1")
    2377                      .dwattr $C$DW$470, DW_AT_location[DW_OP_reg7]
    2378              $C$DW$471       .dwtag  DW_TAG_TI_assign_register, DW_AT_name("AR2")
    2379                      .dwattr $C$DW$471, DW_AT_location[DW_OP_reg8]
    2380              $C$DW$472       .dwtag  DW_TAG_TI_assign_register, DW_AT_name("XAR2")
    2381                      .dwattr $C$DW$472, DW_AT_location[DW_OP_reg9]
    2382              $C$DW$473       .dwtag  DW_TAG_TI_assign_register, DW_AT_name("AR3")
    2383                      .dwattr $C$DW$473, DW_AT_location[DW_OP_reg10]
    2384              $C$DW$474       .dwtag  DW_TAG_TI_assign_register, DW_AT_name("XAR3")
    2385                      .dwattr $C$DW$474, DW_AT_location[DW_OP_reg11]
    2386              $C$DW$475       .dwtag  DW_TAG_TI_assign_register, DW_AT_name("AR4")
    2387                      .dwattr $C$DW$475, DW_AT_location[DW_OP_reg12]
    2388              $C$DW$476       .dwtag  DW_TAG_TI_assign_register, DW_AT_name("XAR4")
    2389                      .dwattr $C$DW$476, DW_AT_location[DW_OP_reg13]
    2390              $C$DW$477       .dwtag  DW_TAG_TI_assign_register, DW_AT_name("AR5")
    2391                      .dwattr $C$DW$477, DW_AT_location[DW_OP_reg14]
    2392              $C$DW$478       .dwtag  DW_TAG_TI_assign_register, DW_AT_name("XAR5")
    2393                      .dwattr $C$DW$478, DW_AT_location[DW_OP_reg15]
    2394              $C$DW$479       .dwtag  DW_TAG_TI_assign_register, DW_AT_name("AR6")
    2395                      .dwattr $C$DW$479, DW_AT_location[DW_OP_reg16]
    2396              $C$DW$480       .dwtag  DW_TAG_TI_assign_register, DW_AT_name("XAR6")
    2397                      .dwattr $C$DW$480, DW_AT_location[DW_OP_reg17]
    2398              $C$DW$481       .dwtag  DW_TAG_TI_assign_register, DW_AT_name("AR7")
    2399                      .dwattr $C$DW$481, DW_AT_location[DW_OP_reg18]
    2400              $C$DW$482       .dwtag  DW_TAG_TI_assign_register, DW_AT_name("XAR7")
    2401                      .dwattr $C$DW$482, DW_AT_location[DW_OP_reg19]
    2402                      .dwendtag $C$DW$CU
    2403              

No Assembly Errors, No Assembly Warnings
