TMS320C2000 Assembler PC v6.4.4 Wed Jul 08 10:29:40 2015

Tools Copyright (c) 1996-2015 Texas Instruments Incorporated
C:\Users\grant\AppData\Local\Temp\0779611                            PAGE    1

       1              ;***************************************************************
       2              ;* TMS320C2000 C/C++ Codegen                         PC v6.4.4 *
       3              ;* Date/Time created: Wed Jul 08 10:29:40 2015                 *
       4              ;***************************************************************
       5                      .compiler_opts --float_support=softlib --hll_source=on --mem_model:code=flat --mem_model:data=large -
       6        0002  FP      .set    XAR2
       7              
       8              $C$DW$CU        .dwtag  DW_TAG_compile_unit
       9                      .dwattr $C$DW$CU, DW_AT_name("C:/ti/motorware/motorware_1_01_00_14/sw/modules/offset/src/32b/offset.c
      10                      .dwattr $C$DW$CU, DW_AT_producer("TI TMS320C2000 C/C++ Codegen PC v6.4.4 Copyright (c) 1996-2015 Texa
      11                      .dwattr $C$DW$CU, DW_AT_TI_version(0x01)
      12                      .dwattr $C$DW$CU, DW_AT_comp_dir("C:\work\ws_ccs_motorware\foc_proj_lab20\Release")
      13              
      14              $C$DW$1 .dwtag  DW_TAG_subprogram, DW_AT_name("FILTER_FO_setNumCoeffs")
      15                      .dwattr $C$DW$1, DW_AT_TI_symbol_name("_FILTER_FO_setNumCoeffs")
      16                      .dwattr $C$DW$1, DW_AT_declaration
      17                      .dwattr $C$DW$1, DW_AT_external
      18              $C$DW$2 .dwtag  DW_TAG_formal_parameter
      19                      .dwattr $C$DW$2, DW_AT_type(*$C$DW$T$25)
      20              $C$DW$3 .dwtag  DW_TAG_formal_parameter
      21                      .dwattr $C$DW$3, DW_AT_type(*$C$DW$T$45)
      22              $C$DW$4 .dwtag  DW_TAG_formal_parameter
      23                      .dwattr $C$DW$4, DW_AT_type(*$C$DW$T$45)
      24                      .dwendtag $C$DW$1
      25              
      26              
      27              $C$DW$5 .dwtag  DW_TAG_subprogram, DW_AT_name("FILTER_FO_setInitialConditions")
      28                      .dwattr $C$DW$5, DW_AT_TI_symbol_name("_FILTER_FO_setInitialConditions")
      29                      .dwattr $C$DW$5, DW_AT_declaration
      30                      .dwattr $C$DW$5, DW_AT_external
      31              $C$DW$6 .dwtag  DW_TAG_formal_parameter
      32                      .dwattr $C$DW$6, DW_AT_type(*$C$DW$T$25)
      33              $C$DW$7 .dwtag  DW_TAG_formal_parameter
      34                      .dwattr $C$DW$7, DW_AT_type(*$C$DW$T$45)
      35              $C$DW$8 .dwtag  DW_TAG_formal_parameter
      36                      .dwattr $C$DW$8, DW_AT_type(*$C$DW$T$45)
      37                      .dwendtag $C$DW$5
      38              
      39              
      40              $C$DW$9 .dwtag  DW_TAG_subprogram, DW_AT_name("FILTER_FO_getNumCoeffs")
      41                      .dwattr $C$DW$9, DW_AT_TI_symbol_name("_FILTER_FO_getNumCoeffs")
      42                      .dwattr $C$DW$9, DW_AT_declaration
      43                      .dwattr $C$DW$9, DW_AT_external
      44              $C$DW$10        .dwtag  DW_TAG_formal_parameter
      45                      .dwattr $C$DW$10, DW_AT_type(*$C$DW$T$25)
      46              $C$DW$11        .dwtag  DW_TAG_formal_parameter
      47                      .dwattr $C$DW$11, DW_AT_type(*$C$DW$T$42)
      48              $C$DW$12        .dwtag  DW_TAG_formal_parameter
      49                      .dwattr $C$DW$12, DW_AT_type(*$C$DW$T$42)
      50                      .dwendtag $C$DW$9
      51              
      52              
      53              $C$DW$13        .dwtag  DW_TAG_subprogram, DW_AT_name("FILTER_FO_setDenCoeffs")
      54                      .dwattr $C$DW$13, DW_AT_TI_symbol_name("_FILTER_FO_setDenCoeffs")
      55                      .dwattr $C$DW$13, DW_AT_declaration
TMS320C2000 Assembler PC v6.4.4 Wed Jul 08 10:29:40 2015

Tools Copyright (c) 1996-2015 Texas Instruments Incorporated
C:\Users\grant\AppData\Local\Temp\0779611                            PAGE    2

      56                      .dwattr $C$DW$13, DW_AT_external
      57              $C$DW$14        .dwtag  DW_TAG_formal_parameter
      58                      .dwattr $C$DW$14, DW_AT_type(*$C$DW$T$25)
      59              $C$DW$15        .dwtag  DW_TAG_formal_parameter
      60                      .dwattr $C$DW$15, DW_AT_type(*$C$DW$T$45)
      61                      .dwendtag $C$DW$13
      62              
      63              
      64              $C$DW$16        .dwtag  DW_TAG_subprogram, DW_AT_name("FILTER_FO_init")
      65                      .dwattr $C$DW$16, DW_AT_TI_symbol_name("_FILTER_FO_init")
      66                      .dwattr $C$DW$16, DW_AT_type(*$C$DW$T$25)
      67                      .dwattr $C$DW$16, DW_AT_declaration
      68                      .dwattr $C$DW$16, DW_AT_external
      69              $C$DW$17        .dwtag  DW_TAG_formal_parameter
      70                      .dwattr $C$DW$17, DW_AT_type(*$C$DW$T$3)
      71              $C$DW$18        .dwtag  DW_TAG_formal_parameter
      72                      .dwattr $C$DW$18, DW_AT_type(*$C$DW$T$29)
      73                      .dwendtag $C$DW$16
      74              
      75              ;       C:\ti\ccsv6\tools\compiler\ti-cgt-c2000_6.4.4\bin\opt2000.exe C:\\Users\\grant\\AppData\\Local\\Temp\
      76              ;       C:\ti\ccsv6\tools\compiler\ti-cgt-c2000_6.4.4\bin\ac2000.exe -@C:\\Users\\grant\\AppData\\Local\\Temp
      77 00000000               .sect   ".text"
      78                      .clink
      79                      .global _OFFSET_setOffset
      80              
      81              $C$DW$19        .dwtag  DW_TAG_subprogram, DW_AT_name("OFFSET_setOffset")
      82                      .dwattr $C$DW$19, DW_AT_low_pc(_OFFSET_setOffset)
      83                      .dwattr $C$DW$19, DW_AT_high_pc(0x00)
      84                      .dwattr $C$DW$19, DW_AT_TI_symbol_name("_OFFSET_setOffset")
      85                      .dwattr $C$DW$19, DW_AT_external
      86                      .dwattr $C$DW$19, DW_AT_TI_begin_file("C:/ti/motorware/motorware_1_01_00_14/sw/modules/offset/src/32b
      87                      .dwattr $C$DW$19, DW_AT_TI_begin_line(0x71)
      88                      .dwattr $C$DW$19, DW_AT_TI_begin_column(0x06)
      89                      .dwattr $C$DW$19, DW_AT_TI_max_frame_size(-2)
      90                      .dwpsn  file "C:/ti/motorware/motorware_1_01_00_14/sw/modules/offset/src/32b/offset.c",line 114,colum
      91              
      92                      .dwfde $C$DW$CIE, _OFFSET_setOffset
      93              $C$DW$20        .dwtag  DW_TAG_formal_parameter, DW_AT_name("handle")
      94                      .dwattr $C$DW$20, DW_AT_TI_symbol_name("_handle")
      95                      .dwattr $C$DW$20, DW_AT_type(*$C$DW$T$36)
      96                      .dwattr $C$DW$20, DW_AT_location[DW_OP_reg12]
      97              $C$DW$21        .dwtag  DW_TAG_formal_parameter, DW_AT_name("offsetValue")
      98                      .dwattr $C$DW$21, DW_AT_TI_symbol_name("_offsetValue")
      99                      .dwattr $C$DW$21, DW_AT_type(*$C$DW$T$21)
     100                      .dwattr $C$DW$21, DW_AT_location[DW_OP_reg0]
     101              
     102              ;***************************************************************
     103              ;* FNAME: _OFFSET_setOffset             FR SIZE:   0           *
     104              ;*                                                             *
     105              ;* FUNCTION ENVIRONMENT                                        *
     106              ;*                                                             *
     107              ;* FUNCTION PROPERTIES                                         *
     108              ;*                            0 Parameter,  0 Auto,  0 SOE     *
     109              ;***************************************************************
     110              
TMS320C2000 Assembler PC v6.4.4 Wed Jul 08 10:29:40 2015

Tools Copyright (c) 1996-2015 Texas Instruments Incorporated
C:\Users\grant\AppData\Local\Temp\0779611                            PAGE    3

     111              _OFFSET_setOffset:
     112              ;* AR4   assigned to _handle
     113              $C$DW$22        .dwtag  DW_TAG_variable, DW_AT_name("handle")
     114                      .dwattr $C$DW$22, DW_AT_TI_symbol_name("_handle")
     115                      .dwattr $C$DW$22, DW_AT_type(*$C$DW$T$37)
     116                      .dwattr $C$DW$22, DW_AT_location[DW_OP_reg12]
     117              ;* AL    assigned to _offsetValue
     118              $C$DW$23        .dwtag  DW_TAG_variable, DW_AT_name("offsetValue")
     119                      .dwattr $C$DW$23, DW_AT_TI_symbol_name("_offsetValue")
     120                      .dwattr $C$DW$23, DW_AT_type(*$C$DW$T$45)
     121                      .dwattr $C$DW$23, DW_AT_location[DW_OP_reg0]
     122                      .dwcfi  cfa_offset, -2
     123                      .dwcfi  save_reg_to_mem, 26, 0
     124                      .dwpsn  file "C:/ti/motorware/motorware_1_01_00_14/sw/modules/offset/src/32b/offset.c",line 117,colum
     125 00000000 1EC4          MOVL      *+XAR4[0],ACC         ; [CPU_] |117| 
     126              $C$DW$24        .dwtag  DW_TAG_TI_branch
     127                      .dwattr $C$DW$24, DW_AT_low_pc(0x00)
     128                      .dwattr $C$DW$24, DW_AT_TI_return
     129 00000001 0006          LRETR     ; [CPU_] 
     130                      ; return occurs ; [] 
     131                      .dwattr $C$DW$19, DW_AT_TI_end_file("C:/ti/motorware/motorware_1_01_00_14/sw/modules/offset/src/32b/o
     132                      .dwattr $C$DW$19, DW_AT_TI_end_line(0x78)
     133                      .dwattr $C$DW$19, DW_AT_TI_end_column(0x01)
     134                      .dwendentry
     135                      .dwendtag $C$DW$19
     136              
     137 00000002               .sect   ".text"
     138                      .clink
     139                      .global _OFFSET_setInitCond
     140              
     141              $C$DW$25        .dwtag  DW_TAG_subprogram, DW_AT_name("OFFSET_setInitCond")
     142                      .dwattr $C$DW$25, DW_AT_low_pc(_OFFSET_setInitCond)
     143                      .dwattr $C$DW$25, DW_AT_high_pc(0x00)
     144                      .dwattr $C$DW$25, DW_AT_TI_symbol_name("_OFFSET_setInitCond")
     145                      .dwattr $C$DW$25, DW_AT_external
     146                      .dwattr $C$DW$25, DW_AT_TI_begin_file("C:/ti/motorware/motorware_1_01_00_14/sw/modules/offset/src/32b
     147                      .dwattr $C$DW$25, DW_AT_TI_begin_line(0x66)
     148                      .dwattr $C$DW$25, DW_AT_TI_begin_column(0x06)
     149                      .dwattr $C$DW$25, DW_AT_TI_max_frame_size(-8)
     150                      .dwpsn  file "C:/ti/motorware/motorware_1_01_00_14/sw/modules/offset/src/32b/offset.c",line 103,colum
     151              
     152                      .dwfde $C$DW$CIE, _OFFSET_setInitCond
     153              $C$DW$26        .dwtag  DW_TAG_formal_parameter, DW_AT_name("handle")
     154                      .dwattr $C$DW$26, DW_AT_TI_symbol_name("_handle")
     155                      .dwattr $C$DW$26, DW_AT_type(*$C$DW$T$36)
     156                      .dwattr $C$DW$26, DW_AT_location[DW_OP_reg12]
     157              $C$DW$27        .dwtag  DW_TAG_formal_parameter, DW_AT_name("initCond")
     158                      .dwattr $C$DW$27, DW_AT_TI_symbol_name("_initCond")
     159                      .dwattr $C$DW$27, DW_AT_type(*$C$DW$T$45)
     160                      .dwattr $C$DW$27, DW_AT_location[DW_OP_reg0]
     161              
     162              ;***************************************************************
     163              ;* FNAME: _OFFSET_setInitCond           FR SIZE:   6           *
     164              ;*                                                             *
     165              ;* FUNCTION ENVIRONMENT                                        *
TMS320C2000 Assembler PC v6.4.4 Wed Jul 08 10:29:40 2015

Tools Copyright (c) 1996-2015 Texas Instruments Incorporated
C:\Users\grant\AppData\Local\Temp\0779611                            PAGE    4

     166              ;*                                                             *
     167              ;* FUNCTION PROPERTIES                                         *
     168              ;*                            2 Parameter,  0 Auto,  4 SOE     *
     169              ;***************************************************************
     170              
     171              _OFFSET_setInitCond:
     172              ;* AR2   assigned to _handle
     173              $C$DW$28        .dwtag  DW_TAG_variable, DW_AT_name("handle")
     174                      .dwattr $C$DW$28, DW_AT_TI_symbol_name("_handle")
     175                      .dwattr $C$DW$28, DW_AT_type(*$C$DW$T$37)
     176                      .dwattr $C$DW$28, DW_AT_location[DW_OP_reg8]
     177              ;* AR1   assigned to _initCond
     178              $C$DW$29        .dwtag  DW_TAG_variable, DW_AT_name("initCond")
     179                      .dwattr $C$DW$29, DW_AT_TI_symbol_name("_initCond")
     180                      .dwattr $C$DW$29, DW_AT_type(*$C$DW$T$45)
     181                      .dwattr $C$DW$29, DW_AT_location[DW_OP_reg6]
     182                      .dwcfi  cfa_offset, -2
     183                      .dwcfi  save_reg_to_mem, 26, 0
     184 00000002 B2BD          MOVL      *SP++,XAR1            ; [CPU_] 
     185                      .dwcfi  save_reg_to_mem, 7, 2
     186                      .dwcfi  cfa_offset, -4
     187 00000003 AABD          MOVL      *SP++,XAR2            ; [CPU_] 
     188                      .dwcfi  save_reg_to_mem, 9, 4
     189                      .dwcfi  cfa_offset, -6
     190 00000004 FE02          ADDB      SP,#2                 ; [CPU_U] 
     191                      .dwcfi  cfa_offset, -8
     192 00000005 86A4          MOVL      XAR2,XAR4             ; [CPU_] |103| 
     193                      .dwpsn  file "C:/ti/motorware/motorware_1_01_00_14/sw/modules/offset/src/32b/offset.c",line 106,colum
     194 00000006 D00C          MOVB      XAR0,#12              ; [CPU_] |106| 
     195                      .dwpsn  file "C:/ti/motorware/motorware_1_01_00_14/sw/modules/offset/src/32b/offset.c",line 103,colum
     196 00000007 8BA9          MOVL      XAR1,ACC              ; [CPU_] |103| 
     197                      .dwpsn  file "C:/ti/motorware/motorware_1_01_00_14/sw/modules/offset/src/32b/offset.c",line 106,colum
     198 00000008 1E42          MOVL      *-SP[2],ACC           ; [CPU_] |106| 
     199 00000009 8A92          MOVL      XAR4,*+XAR2[AR0]      ; [CPU_] |106| 
     200              $C$DW$30        .dwtag  DW_TAG_TI_branch
     201                      .dwattr $C$DW$30, DW_AT_low_pc(0x00)
     202                      .dwattr $C$DW$30, DW_AT_name("_FILTER_FO_setInitialConditions")
     203                      .dwattr $C$DW$30, DW_AT_TI_call
     204 0000000a 7640!         LCR       #_FILTER_FO_setInitialConditions ; [CPU_] |106| 
         0000000b 0000 
     205                      ; call occurs [#_FILTER_FO_setInitialConditions] ; [] |106| 
     206 0000000c FE82          SUBB      SP,#2                 ; [CPU_U] 
     207                      .dwcfi  cfa_offset, -6
     208                      .dwpsn  file "C:/ti/motorware/motorware_1_01_00_14/sw/modules/offset/src/32b/offset.c",line 107,colum
     209 0000000d B2C2          MOVL      *+XAR2[0],XAR1        ; [CPU_] |107| 
     210 0000000e 86BE          MOVL      XAR2,*--SP            ; [CPU_] 
     211                      .dwcfi  cfa_offset, -4
     212                      .dwcfi  restore_reg, 9
     213 0000000f 8BBE          MOVL      XAR1,*--SP            ; [CPU_] 
     214                      .dwcfi  cfa_offset, -2
     215                      .dwcfi  restore_reg, 7
     216              $C$DW$31        .dwtag  DW_TAG_TI_branch
     217                      .dwattr $C$DW$31, DW_AT_low_pc(0x00)
     218                      .dwattr $C$DW$31, DW_AT_TI_return
     219 00000010 0006          LRETR     ; [CPU_] 
TMS320C2000 Assembler PC v6.4.4 Wed Jul 08 10:29:40 2015

Tools Copyright (c) 1996-2015 Texas Instruments Incorporated
C:\Users\grant\AppData\Local\Temp\0779611                            PAGE    5

     220                      ; return occurs ; [] 
     221                      .dwattr $C$DW$25, DW_AT_TI_end_file("C:/ti/motorware/motorware_1_01_00_14/sw/modules/offset/src/32b/o
     222                      .dwattr $C$DW$25, DW_AT_TI_end_line(0x6e)
     223                      .dwattr $C$DW$25, DW_AT_TI_end_column(0x01)
     224                      .dwendentry
     225                      .dwendtag $C$DW$25
     226              
     227 00000011               .sect   ".text"
     228                      .clink
     229                      .global _OFFSET_setBeta
     230              
     231              $C$DW$32        .dwtag  DW_TAG_subprogram, DW_AT_name("OFFSET_setBeta")
     232                      .dwattr $C$DW$32, DW_AT_low_pc(_OFFSET_setBeta)
     233                      .dwattr $C$DW$32, DW_AT_high_pc(0x00)
     234                      .dwattr $C$DW$32, DW_AT_TI_symbol_name("_OFFSET_setBeta")
     235                      .dwattr $C$DW$32, DW_AT_external
     236                      .dwattr $C$DW$32, DW_AT_TI_begin_file("C:/ti/motorware/motorware_1_01_00_14/sw/modules/offset/src/32b
     237                      .dwattr $C$DW$32, DW_AT_TI_begin_line(0x58)
     238                      .dwattr $C$DW$32, DW_AT_TI_begin_column(0x06)
     239                      .dwattr $C$DW$32, DW_AT_TI_max_frame_size(-8)
     240                      .dwpsn  file "C:/ti/motorware/motorware_1_01_00_14/sw/modules/offset/src/32b/offset.c",line 89,column
     241              
     242                      .dwfde $C$DW$CIE, _OFFSET_setBeta
     243              $C$DW$33        .dwtag  DW_TAG_formal_parameter, DW_AT_name("handle")
     244                      .dwattr $C$DW$33, DW_AT_TI_symbol_name("_handle")
     245                      .dwattr $C$DW$33, DW_AT_type(*$C$DW$T$36)
     246                      .dwattr $C$DW$33, DW_AT_location[DW_OP_reg12]
     247              $C$DW$34        .dwtag  DW_TAG_formal_parameter, DW_AT_name("beta")
     248                      .dwattr $C$DW$34, DW_AT_TI_symbol_name("_beta")
     249                      .dwattr $C$DW$34, DW_AT_type(*$C$DW$T$45)
     250                      .dwattr $C$DW$34, DW_AT_location[DW_OP_reg0]
     251              
     252              ;***************************************************************
     253              ;* FNAME: _OFFSET_setBeta               FR SIZE:   6           *
     254              ;*                                                             *
     255              ;* FUNCTION ENVIRONMENT                                        *
     256              ;*                                                             *
     257              ;* FUNCTION PROPERTIES                                         *
     258              ;*                            2 Parameter,  0 Auto,  4 SOE     *
     259              ;***************************************************************
     260              
     261              _OFFSET_setBeta:
     262              ;* AR1   assigned to _handle
     263              $C$DW$35        .dwtag  DW_TAG_variable, DW_AT_name("handle")
     264                      .dwattr $C$DW$35, DW_AT_TI_symbol_name("_handle")
     265                      .dwattr $C$DW$35, DW_AT_type(*$C$DW$T$37)
     266                      .dwattr $C$DW$35, DW_AT_location[DW_OP_reg6]
     267              ;* AR2   assigned to _beta
     268              $C$DW$36        .dwtag  DW_TAG_variable, DW_AT_name("beta")
     269                      .dwattr $C$DW$36, DW_AT_TI_symbol_name("_beta")
     270                      .dwattr $C$DW$36, DW_AT_type(*$C$DW$T$45)
     271                      .dwattr $C$DW$36, DW_AT_location[DW_OP_reg8]
     272                      .dwcfi  cfa_offset, -2
     273                      .dwcfi  save_reg_to_mem, 26, 0
     274 00000011 B2BD          MOVL      *SP++,XAR1            ; [CPU_] 
TMS320C2000 Assembler PC v6.4.4 Wed Jul 08 10:29:40 2015

Tools Copyright (c) 1996-2015 Texas Instruments Incorporated
C:\Users\grant\AppData\Local\Temp\0779611                            PAGE    6

     275                      .dwcfi  save_reg_to_mem, 7, 2
     276                      .dwcfi  cfa_offset, -4
     277 00000012 AABD          MOVL      *SP++,XAR2            ; [CPU_] 
     278                      .dwcfi  save_reg_to_mem, 9, 4
     279                      .dwcfi  cfa_offset, -6
     280 00000013 FE02          ADDB      SP,#2                 ; [CPU_U] 
     281                      .dwcfi  cfa_offset, -8
     282 00000014 8BA4          MOVL      XAR1,XAR4             ; [CPU_] |89| 
     283                      .dwpsn  file "C:/ti/motorware/motorware_1_01_00_14/sw/modules/offset/src/32b/offset.c",line 95,column
     284 00000015 D00C          MOVB      XAR0,#12              ; [CPU_] |95| 
     285                      .dwpsn  file "C:/ti/motorware/motorware_1_01_00_14/sw/modules/offset/src/32b/offset.c",line 89,column
     286 00000016 86A9          MOVL      XAR2,ACC              ; [CPU_] |89| 
     287                      .dwpsn  file "C:/ti/motorware/motorware_1_01_00_14/sw/modules/offset/src/32b/offset.c",line 95,column
     288 00000017 FF0F          SUB       ACC,#512 << 15        ; [CPU_] |95| 
         00000018 0200 
     289 00000019 8A91          MOVL      XAR4,*+XAR1[AR0]      ; [CPU_] |95| 
     290              $C$DW$37        .dwtag  DW_TAG_TI_branch
     291                      .dwattr $C$DW$37, DW_AT_low_pc(0x00)
     292                      .dwattr $C$DW$37, DW_AT_name("_FILTER_FO_setDenCoeffs")
     293                      .dwattr $C$DW$37, DW_AT_TI_call
     294 0000001a 7640!         LCR       #_FILTER_FO_setDenCoeffs ; [CPU_] |95| 
         0000001b 0000 
     295                      ; call occurs [#_FILTER_FO_setDenCoeffs] ; [] |95| 
     296                      .dwpsn  file "C:/ti/motorware/motorware_1_01_00_14/sw/modules/offset/src/32b/offset.c",line 96,column
     297 0000001c 0200          MOVB      ACC,#0                ; [CPU_] |96| 
     298 0000001d D00C          MOVB      XAR0,#12              ; [CPU_] |96| 
     299 0000001e 1E42          MOVL      *-SP[2],ACC           ; [CPU_] |96| 
     300 0000001f AAA9          MOVL      ACC,XAR2              ; [CPU_] |96| 
     301 00000020 8A91          MOVL      XAR4,*+XAR1[AR0]      ; [CPU_] |96| 
     302              $C$DW$38        .dwtag  DW_TAG_TI_branch
     303                      .dwattr $C$DW$38, DW_AT_low_pc(0x00)
     304                      .dwattr $C$DW$38, DW_AT_name("_FILTER_FO_setNumCoeffs")
     305                      .dwattr $C$DW$38, DW_AT_TI_call
     306 00000021 7640!         LCR       #_FILTER_FO_setNumCoeffs ; [CPU_] |96| 
         00000022 0000 
     307                      ; call occurs [#_FILTER_FO_setNumCoeffs] ; [] |96| 
     308 00000023 FE82          SUBB      SP,#2                 ; [CPU_U] 
     309                      .dwcfi  cfa_offset, -6
     310 00000024 86BE          MOVL      XAR2,*--SP            ; [CPU_] 
     311                      .dwcfi  cfa_offset, -4
     312                      .dwcfi  restore_reg, 9
     313 00000025 8BBE          MOVL      XAR1,*--SP            ; [CPU_] 
     314                      .dwcfi  cfa_offset, -2
     315                      .dwcfi  restore_reg, 7
     316              $C$DW$39        .dwtag  DW_TAG_TI_branch
     317                      .dwattr $C$DW$39, DW_AT_low_pc(0x00)
     318                      .dwattr $C$DW$39, DW_AT_TI_return
     319 00000026 0006          LRETR     ; [CPU_] 
     320                      ; return occurs ; [] 
     321                      .dwattr $C$DW$32, DW_AT_TI_end_file("C:/ti/motorware/motorware_1_01_00_14/sw/modules/offset/src/32b/o
     322                      .dwattr $C$DW$32, DW_AT_TI_end_line(0x63)
     323                      .dwattr $C$DW$32, DW_AT_TI_end_column(0x01)
     324                      .dwendentry
     325                      .dwendtag $C$DW$32
     326              
TMS320C2000 Assembler PC v6.4.4 Wed Jul 08 10:29:40 2015

Tools Copyright (c) 1996-2015 Texas Instruments Incorporated
C:\Users\grant\AppData\Local\Temp\0779611                            PAGE    7

     327 00000027               .sect   ".text"
     328                      .clink
     329                      .global _OFFSET_init
     330              
     331              $C$DW$40        .dwtag  DW_TAG_subprogram, DW_AT_name("OFFSET_init")
     332                      .dwattr $C$DW$40, DW_AT_low_pc(_OFFSET_init)
     333                      .dwattr $C$DW$40, DW_AT_high_pc(0x00)
     334                      .dwattr $C$DW$40, DW_AT_TI_symbol_name("_OFFSET_init")
     335                      .dwattr $C$DW$40, DW_AT_external
     336                      .dwattr $C$DW$40, DW_AT_type(*$C$DW$T$36)
     337                      .dwattr $C$DW$40, DW_AT_TI_begin_file("C:/ti/motorware/motorware_1_01_00_14/sw/modules/offset/src/32b
     338                      .dwattr $C$DW$40, DW_AT_TI_begin_line(0x46)
     339                      .dwattr $C$DW$40, DW_AT_TI_begin_column(0x0f)
     340                      .dwattr $C$DW$40, DW_AT_TI_max_frame_size(-4)
     341                      .dwpsn  file "C:/ti/motorware/motorware_1_01_00_14/sw/modules/offset/src/32b/offset.c",line 71,column
     342              
     343                      .dwfde $C$DW$CIE, _OFFSET_init
     344              $C$DW$41        .dwtag  DW_TAG_formal_parameter, DW_AT_name("pMemory")
     345                      .dwattr $C$DW$41, DW_AT_TI_symbol_name("_pMemory")
     346                      .dwattr $C$DW$41, DW_AT_type(*$C$DW$T$3)
     347                      .dwattr $C$DW$41, DW_AT_location[DW_OP_reg12]
     348              $C$DW$42        .dwtag  DW_TAG_formal_parameter, DW_AT_name("numBytes")
     349                      .dwattr $C$DW$42, DW_AT_TI_symbol_name("_numBytes")
     350                      .dwattr $C$DW$42, DW_AT_type(*$C$DW$T$29)
     351                      .dwattr $C$DW$42, DW_AT_location[DW_OP_reg0]
     352              
     353              ;***************************************************************
     354              ;* FNAME: _OFFSET_init                  FR SIZE:   2           *
     355              ;*                                                             *
     356              ;* FUNCTION ENVIRONMENT                                        *
     357              ;*                                                             *
     358              ;* FUNCTION PROPERTIES                                         *
     359              ;*                            0 Parameter,  0 Auto,  2 SOE     *
     360              ;***************************************************************
     361              
     362              _OFFSET_init:
     363              ;* AR6   assigned to _numBytes
     364              $C$DW$43        .dwtag  DW_TAG_variable, DW_AT_name("numBytes")
     365                      .dwattr $C$DW$43, DW_AT_TI_symbol_name("_numBytes")
     366                      .dwattr $C$DW$43, DW_AT_type(*$C$DW$T$29)
     367                      .dwattr $C$DW$43, DW_AT_location[DW_OP_reg16]
     368              ;* AR1   assigned to _pMemory
     369              $C$DW$44        .dwtag  DW_TAG_variable, DW_AT_name("pMemory")
     370                      .dwattr $C$DW$44, DW_AT_TI_symbol_name("_pMemory")
     371                      .dwattr $C$DW$44, DW_AT_type(*$C$DW$T$41)
     372                      .dwattr $C$DW$44, DW_AT_location[DW_OP_reg6]
     373                      .dwcfi  cfa_offset, -2
     374                      .dwcfi  save_reg_to_mem, 26, 0
     375 00000027 1EA6          MOVL      XAR6,ACC              ; [CPU_] |71| 
     376 00000028 B2BD          MOVL      *SP++,XAR1            ; [CPU_] 
     377                      .dwcfi  save_reg_to_mem, 7, 2
     378                      .dwcfi  cfa_offset, -4
     379                      .dwpsn  file "C:/ti/motorware/motorware_1_01_00_14/sw/modules/offset/src/32b/offset.c",line 75,column
     380 00000029 020E          MOVB      ACC,#14               ; [CPU_] |75| 
     381                      .dwpsn  file "C:/ti/motorware/motorware_1_01_00_14/sw/modules/offset/src/32b/offset.c",line 71,column
TMS320C2000 Assembler PC v6.4.4 Wed Jul 08 10:29:40 2015

Tools Copyright (c) 1996-2015 Texas Instruments Incorporated
C:\Users\grant\AppData\Local\Temp\0779611                            PAGE    8

     382 0000002a 8BA4          MOVL      XAR1,XAR4             ; [CPU_] |71| 
     383                      .dwpsn  file "C:/ti/motorware/motorware_1_01_00_14/sw/modules/offset/src/32b/offset.c",line 75,column
     384 0000002b 0FA6          CMPL      ACC,XAR6              ; [CPU_] |75| 
     385 0000002c 56C9          BF        $C$L1,LOS             ; [CPU_] |75| 
         0000002d 0004 
     386                      ; branchcc occurs ; [] |75| 
     387                      .dwpsn  file "C:/ti/motorware/motorware_1_01_00_14/sw/modules/offset/src/32b/offset.c",line 76,column
     388 0000002e D400          MOVB      XAR4,#0               ; [CPU_] |76| 
     389 0000002f 6F08          B         $C$L2,UNC             ; [CPU_] |76| 
     390                      ; branch occurs ; [] |76| 
     391 00000030       $C$L1:    
     392                      .dwpsn  file "C:/ti/motorware/motorware_1_01_00_14/sw/modules/offset/src/32b/offset.c",line 82,column
     393 00000030 DC02          ADDB      XAR4,#2               ; [CPU_] |82| 
     394 00000031 020A          MOVB      ACC,#10               ; [CPU_] |82| 
     395              $C$DW$45        .dwtag  DW_TAG_TI_branch
     396                      .dwattr $C$DW$45, DW_AT_low_pc(0x00)
     397                      .dwattr $C$DW$45, DW_AT_name("_FILTER_FO_init")
     398                      .dwattr $C$DW$45, DW_AT_TI_call
     399 00000032 7640!         LCR       #_FILTER_FO_init      ; [CPU_] |82| 
         00000033 0000 
     400                      ; call occurs [#_FILTER_FO_init] ; [] |82| 
     401 00000034 D00C          MOVB      XAR0,#12              ; [CPU_] |82| 
     402 00000035 A891          MOVL      *+XAR1[AR0],XAR4      ; [CPU_] |82| 
     403                      .dwpsn  file "C:/ti/motorware/motorware_1_01_00_14/sw/modules/offset/src/32b/offset.c",line 84,column
     404 00000036 8AA1          MOVL      XAR4,XAR1             ; [CPU_] |84| 
     405 00000037       $C$L2:    
     406 00000037 8BBE          MOVL      XAR1,*--SP            ; [CPU_] 
     407                      .dwcfi  cfa_offset, -2
     408                      .dwcfi  restore_reg, 7
     409              $C$DW$46        .dwtag  DW_TAG_TI_branch
     410                      .dwattr $C$DW$46, DW_AT_low_pc(0x00)
     411                      .dwattr $C$DW$46, DW_AT_TI_return
     412 00000038 0006          LRETR     ; [CPU_] 
     413                      ; return occurs ; [] 
     414                      .dwattr $C$DW$40, DW_AT_TI_end_file("C:/ti/motorware/motorware_1_01_00_14/sw/modules/offset/src/32b/o
     415                      .dwattr $C$DW$40, DW_AT_TI_end_line(0x55)
     416                      .dwattr $C$DW$40, DW_AT_TI_end_column(0x01)
     417                      .dwendentry
     418                      .dwendtag $C$DW$40
     419              
     420 00000039               .sect   ".text"
     421                      .clink
     422                      .global _OFFSET_getBeta
     423              
     424              $C$DW$47        .dwtag  DW_TAG_subprogram, DW_AT_name("OFFSET_getBeta")
     425                      .dwattr $C$DW$47, DW_AT_low_pc(_OFFSET_getBeta)
     426                      .dwattr $C$DW$47, DW_AT_high_pc(0x00)
     427                      .dwattr $C$DW$47, DW_AT_TI_symbol_name("_OFFSET_getBeta")
     428                      .dwattr $C$DW$47, DW_AT_external
     429                      .dwattr $C$DW$47, DW_AT_type(*$C$DW$T$21)
     430                      .dwattr $C$DW$47, DW_AT_TI_begin_file("C:/ti/motorware/motorware_1_01_00_14/sw/modules/offset/src/32b
     431                      .dwattr $C$DW$47, DW_AT_TI_begin_line(0x3a)
     432                      .dwattr $C$DW$47, DW_AT_TI_begin_column(0x05)
     433                      .dwattr $C$DW$47, DW_AT_TI_max_frame_size(-8)
     434                      .dwpsn  file "C:/ti/motorware/motorware_1_01_00_14/sw/modules/offset/src/32b/offset.c",line 59,column
TMS320C2000 Assembler PC v6.4.4 Wed Jul 08 10:29:40 2015

Tools Copyright (c) 1996-2015 Texas Instruments Incorporated
C:\Users\grant\AppData\Local\Temp\0779611                            PAGE    9

     435              
     436                      .dwfde $C$DW$CIE, _OFFSET_getBeta
     437              $C$DW$48        .dwtag  DW_TAG_formal_parameter, DW_AT_name("handle")
     438                      .dwattr $C$DW$48, DW_AT_TI_symbol_name("_handle")
     439                      .dwattr $C$DW$48, DW_AT_type(*$C$DW$T$36)
     440                      .dwattr $C$DW$48, DW_AT_location[DW_OP_reg12]
     441              
     442              ;***************************************************************
     443              ;* FNAME: _OFFSET_getBeta               FR SIZE:   6           *
     444              ;*                                                             *
     445              ;* FUNCTION ENVIRONMENT                                        *
     446              ;*                                                             *
     447              ;* FUNCTION PROPERTIES                                         *
     448              ;*                            2 Parameter,  4 Auto,  0 SOE     *
     449              ;***************************************************************
     450              
     451              _OFFSET_getBeta:
     452              ;* AR4   assigned to _handle
     453              $C$DW$49        .dwtag  DW_TAG_variable, DW_AT_name("handle")
     454                      .dwattr $C$DW$49, DW_AT_TI_symbol_name("_handle")
     455                      .dwattr $C$DW$49, DW_AT_type(*$C$DW$T$37)
     456                      .dwattr $C$DW$49, DW_AT_location[DW_OP_reg12]
     457              $C$DW$50        .dwtag  DW_TAG_variable, DW_AT_name("b0")
     458                      .dwattr $C$DW$50, DW_AT_TI_symbol_name("_b0")
     459                      .dwattr $C$DW$50, DW_AT_type(*$C$DW$T$21)
     460                      .dwattr $C$DW$50, DW_AT_location[DW_OP_breg20 -4]
     461              $C$DW$51        .dwtag  DW_TAG_variable, DW_AT_name("b1")
     462                      .dwattr $C$DW$51, DW_AT_TI_symbol_name("_b1")
     463                      .dwattr $C$DW$51, DW_AT_type(*$C$DW$T$21)
     464                      .dwattr $C$DW$51, DW_AT_location[DW_OP_breg20 -6]
     465                      .dwcfi  cfa_offset, -2
     466                      .dwcfi  save_reg_to_mem, 26, 0
     467 00000039 FE06          ADDB      SP,#6                 ; [CPU_U] 
     468                      .dwcfi  cfa_offset, -8
     469                      .dwpsn  file "C:/ti/motorware/motorware_1_01_00_14/sw/modules/offset/src/32b/offset.c",line 64,column
     470 0000003a 5DAD          MOVZ      AR5,SP                ; [CPU_] |64| 
     471 0000003b DD86          SUBB      XAR5,#6               ; [CPU_U] |64| 
     472 0000003c 0EA5          MOVU      ACC,AR5               ; [CPU_] |64| 
     473 0000003d 5DAD          MOVZ      AR5,SP                ; [CPU_] |64| 
     474 0000003e D00C          MOVB      XAR0,#12              ; [CPU_] |64| 
     475 0000003f 1E42          MOVL      *-SP[2],ACC           ; [CPU_] |64| 
     476 00000040 8A94          MOVL      XAR4,*+XAR4[AR0]      ; [CPU_] |64| 
     477 00000041 DD84          SUBB      XAR5,#4               ; [CPU_U] |64| 
     478 00000042 5DA5          MOVZ      AR5,AR5               ; [CPU_] |64| 
     479              $C$DW$52        .dwtag  DW_TAG_TI_branch
     480                      .dwattr $C$DW$52, DW_AT_low_pc(0x00)
     481                      .dwattr $C$DW$52, DW_AT_name("_FILTER_FO_getNumCoeffs")
     482                      .dwattr $C$DW$52, DW_AT_TI_call
     483 00000043 7640!         LCR       #_FILTER_FO_getNumCoeffs ; [CPU_] |64| 
         00000044 0000 
     484                      ; call occurs [#_FILTER_FO_getNumCoeffs] ; [] |64| 
     485                      .dwpsn  file "C:/ti/motorware/motorware_1_01_00_14/sw/modules/offset/src/32b/offset.c",line 66,column
     486 00000045 0644          MOVL      ACC,*-SP[4]           ; [CPU_] |66| 
     487 00000046 FE86          SUBB      SP,#6                 ; [CPU_U] 
     488                      .dwcfi  cfa_offset, -2
TMS320C2000 Assembler PC v6.4.4 Wed Jul 08 10:29:40 2015

Tools Copyright (c) 1996-2015 Texas Instruments Incorporated
C:\Users\grant\AppData\Local\Temp\0779611                            PAGE   10

     489              $C$DW$53        .dwtag  DW_TAG_TI_branch
     490                      .dwattr $C$DW$53, DW_AT_low_pc(0x00)
     491                      .dwattr $C$DW$53, DW_AT_TI_return
     492 00000047 0006          LRETR     ; [CPU_] 
     493                      ; return occurs ; [] 
     494                      .dwattr $C$DW$47, DW_AT_TI_end_file("C:/ti/motorware/motorware_1_01_00_14/sw/modules/offset/src/32b/o
     495                      .dwattr $C$DW$47, DW_AT_TI_end_line(0x43)
     496                      .dwattr $C$DW$47, DW_AT_TI_end_column(0x01)
     497                      .dwendentry
     498                      .dwendtag $C$DW$47
     499              
     500              ;**************************************************************
     501              ;* UNDEFINED EXTERNAL REFERENCES                              *
     502              ;**************************************************************
     503                      .global _FILTER_FO_setNumCoeffs
     504                      .global _FILTER_FO_setInitialConditions
     505                      .global _FILTER_FO_getNumCoeffs
     506                      .global _FILTER_FO_setDenCoeffs
     507                      .global _FILTER_FO_init
     508              
     509              ;***************************************************************
     510              ;* TYPE INFORMATION                                            *
     511              ;***************************************************************
     512              
     513              $C$DW$T$22      .dwtag  DW_TAG_structure_type
     514                      .dwattr $C$DW$T$22, DW_AT_name("_FILTER_FO_")
     515                      .dwattr $C$DW$T$22, DW_AT_byte_size(0x0a)
     516              $C$DW$54        .dwtag  DW_TAG_member
     517                      .dwattr $C$DW$54, DW_AT_type(*$C$DW$T$21)
     518                      .dwattr $C$DW$54, DW_AT_name("a1")
     519                      .dwattr $C$DW$54, DW_AT_TI_symbol_name("_a1")
     520                      .dwattr $C$DW$54, DW_AT_data_member_location[DW_OP_plus_uconst 0x0]
     521                      .dwattr $C$DW$54, DW_AT_accessibility(DW_ACCESS_public)
     522              $C$DW$55        .dwtag  DW_TAG_member
     523                      .dwattr $C$DW$55, DW_AT_type(*$C$DW$T$21)
     524                      .dwattr $C$DW$55, DW_AT_name("b0")
     525                      .dwattr $C$DW$55, DW_AT_TI_symbol_name("_b0")
     526                      .dwattr $C$DW$55, DW_AT_data_member_location[DW_OP_plus_uconst 0x2]
     527                      .dwattr $C$DW$55, DW_AT_accessibility(DW_ACCESS_public)
     528              $C$DW$56        .dwtag  DW_TAG_member
     529                      .dwattr $C$DW$56, DW_AT_type(*$C$DW$T$21)
     530                      .dwattr $C$DW$56, DW_AT_name("b1")
     531                      .dwattr $C$DW$56, DW_AT_TI_symbol_name("_b1")
     532                      .dwattr $C$DW$56, DW_AT_data_member_location[DW_OP_plus_uconst 0x4]
     533                      .dwattr $C$DW$56, DW_AT_accessibility(DW_ACCESS_public)
     534              $C$DW$57        .dwtag  DW_TAG_member
     535                      .dwattr $C$DW$57, DW_AT_type(*$C$DW$T$21)
     536                      .dwattr $C$DW$57, DW_AT_name("x1")
     537                      .dwattr $C$DW$57, DW_AT_TI_symbol_name("_x1")
     538                      .dwattr $C$DW$57, DW_AT_data_member_location[DW_OP_plus_uconst 0x6]
     539                      .dwattr $C$DW$57, DW_AT_accessibility(DW_ACCESS_public)
     540              $C$DW$58        .dwtag  DW_TAG_member
     541                      .dwattr $C$DW$58, DW_AT_type(*$C$DW$T$21)
     542                      .dwattr $C$DW$58, DW_AT_name("y1")
     543                      .dwattr $C$DW$58, DW_AT_TI_symbol_name("_y1")
TMS320C2000 Assembler PC v6.4.4 Wed Jul 08 10:29:40 2015

Tools Copyright (c) 1996-2015 Texas Instruments Incorporated
C:\Users\grant\AppData\Local\Temp\0779611                            PAGE   11

     544                      .dwattr $C$DW$58, DW_AT_data_member_location[DW_OP_plus_uconst 0x8]
     545                      .dwattr $C$DW$58, DW_AT_accessibility(DW_ACCESS_public)
     546                      .dwendtag $C$DW$T$22
     547              
     548              $C$DW$T$23      .dwtag  DW_TAG_typedef, DW_AT_name("FILTER_FO_Obj")
     549                      .dwattr $C$DW$T$23, DW_AT_type(*$C$DW$T$22)
     550                      .dwattr $C$DW$T$23, DW_AT_language(DW_LANG_C)
     551              
     552              $C$DW$T$19      .dwtag  DW_TAG_structure_type
     553                      .dwattr $C$DW$T$19, DW_AT_name("_FILTER_FO_Obj_")
     554                      .dwattr $C$DW$T$19, DW_AT_declaration
     555                      .dwendtag $C$DW$T$19
     556              
     557              $C$DW$T$24      .dwtag  DW_TAG_pointer_type
     558                      .dwattr $C$DW$T$24, DW_AT_type(*$C$DW$T$19)
     559                      .dwattr $C$DW$T$24, DW_AT_address_class(0x20)
     560              $C$DW$T$25      .dwtag  DW_TAG_typedef, DW_AT_name("FILTER_FO_Handle")
     561                      .dwattr $C$DW$T$25, DW_AT_type(*$C$DW$T$24)
     562                      .dwattr $C$DW$T$25, DW_AT_language(DW_LANG_C)
     563              
     564              $C$DW$T$26      .dwtag  DW_TAG_structure_type
     565                      .dwattr $C$DW$T$26, DW_AT_name("_OFFSET_")
     566                      .dwattr $C$DW$T$26, DW_AT_byte_size(0x0e)
     567              $C$DW$59        .dwtag  DW_TAG_member
     568                      .dwattr $C$DW$59, DW_AT_type(*$C$DW$T$21)
     569                      .dwattr $C$DW$59, DW_AT_name("value")
     570                      .dwattr $C$DW$59, DW_AT_TI_symbol_name("_value")
     571                      .dwattr $C$DW$59, DW_AT_data_member_location[DW_OP_plus_uconst 0x0]
     572                      .dwattr $C$DW$59, DW_AT_accessibility(DW_ACCESS_public)
     573              $C$DW$60        .dwtag  DW_TAG_member
     574                      .dwattr $C$DW$60, DW_AT_type(*$C$DW$T$23)
     575                      .dwattr $C$DW$60, DW_AT_name("filter")
     576                      .dwattr $C$DW$60, DW_AT_TI_symbol_name("_filter")
     577                      .dwattr $C$DW$60, DW_AT_data_member_location[DW_OP_plus_uconst 0x2]
     578                      .dwattr $C$DW$60, DW_AT_accessibility(DW_ACCESS_public)
     579              $C$DW$61        .dwtag  DW_TAG_member
     580                      .dwattr $C$DW$61, DW_AT_type(*$C$DW$T$25)
     581                      .dwattr $C$DW$61, DW_AT_name("filterHandle")
     582                      .dwattr $C$DW$61, DW_AT_TI_symbol_name("_filterHandle")
     583                      .dwattr $C$DW$61, DW_AT_data_member_location[DW_OP_plus_uconst 0xc]
     584                      .dwattr $C$DW$61, DW_AT_accessibility(DW_ACCESS_public)
     585                      .dwendtag $C$DW$T$26
     586              
     587              $C$DW$T$33      .dwtag  DW_TAG_typedef, DW_AT_name("OFFSET_Obj")
     588                      .dwattr $C$DW$T$33, DW_AT_type(*$C$DW$T$26)
     589                      .dwattr $C$DW$T$33, DW_AT_language(DW_LANG_C)
     590              
     591              $C$DW$T$20      .dwtag  DW_TAG_structure_type
     592                      .dwattr $C$DW$T$20, DW_AT_name("_OFFSET_Obj_")
     593                      .dwattr $C$DW$T$20, DW_AT_declaration
     594                      .dwendtag $C$DW$T$20
     595              
     596              $C$DW$T$35      .dwtag  DW_TAG_pointer_type
     597                      .dwattr $C$DW$T$35, DW_AT_type(*$C$DW$T$20)
     598                      .dwattr $C$DW$T$35, DW_AT_address_class(0x20)
TMS320C2000 Assembler PC v6.4.4 Wed Jul 08 10:29:40 2015

Tools Copyright (c) 1996-2015 Texas Instruments Incorporated
C:\Users\grant\AppData\Local\Temp\0779611                            PAGE   12

     599              $C$DW$T$36      .dwtag  DW_TAG_typedef, DW_AT_name("OFFSET_Handle")
     600                      .dwattr $C$DW$T$36, DW_AT_type(*$C$DW$T$35)
     601                      .dwattr $C$DW$T$36, DW_AT_language(DW_LANG_C)
     602              $C$DW$62        .dwtag  DW_TAG_TI_far_type
     603                      .dwattr $C$DW$62, DW_AT_type(*$C$DW$T$36)
     604              $C$DW$T$37      .dwtag  DW_TAG_const_type
     605                      .dwattr $C$DW$T$37, DW_AT_type(*$C$DW$62)
     606              $C$DW$T$2       .dwtag  DW_TAG_unspecified_type
     607                      .dwattr $C$DW$T$2, DW_AT_name("void")
     608              $C$DW$T$3       .dwtag  DW_TAG_pointer_type
     609                      .dwattr $C$DW$T$3, DW_AT_type(*$C$DW$T$2)
     610                      .dwattr $C$DW$T$3, DW_AT_address_class(0x20)
     611              $C$DW$63        .dwtag  DW_TAG_TI_far_type
     612                      .dwattr $C$DW$63, DW_AT_type(*$C$DW$T$3)
     613              $C$DW$T$41      .dwtag  DW_TAG_const_type
     614                      .dwattr $C$DW$T$41, DW_AT_type(*$C$DW$63)
     615              $C$DW$T$4       .dwtag  DW_TAG_base_type
     616                      .dwattr $C$DW$T$4, DW_AT_encoding(DW_ATE_boolean)
     617                      .dwattr $C$DW$T$4, DW_AT_name("bool")
     618                      .dwattr $C$DW$T$4, DW_AT_byte_size(0x01)
     619              $C$DW$T$5       .dwtag  DW_TAG_base_type
     620                      .dwattr $C$DW$T$5, DW_AT_encoding(DW_ATE_signed_char)
     621                      .dwattr $C$DW$T$5, DW_AT_name("signed char")
     622                      .dwattr $C$DW$T$5, DW_AT_byte_size(0x01)
     623              $C$DW$T$6       .dwtag  DW_TAG_base_type
     624                      .dwattr $C$DW$T$6, DW_AT_encoding(DW_ATE_unsigned_char)
     625                      .dwattr $C$DW$T$6, DW_AT_name("unsigned char")
     626                      .dwattr $C$DW$T$6, DW_AT_byte_size(0x01)
     627              $C$DW$T$7       .dwtag  DW_TAG_base_type
     628                      .dwattr $C$DW$T$7, DW_AT_encoding(DW_ATE_signed_char)
     629                      .dwattr $C$DW$T$7, DW_AT_name("wchar_t")
     630                      .dwattr $C$DW$T$7, DW_AT_byte_size(0x01)
     631              $C$DW$T$8       .dwtag  DW_TAG_base_type
     632                      .dwattr $C$DW$T$8, DW_AT_encoding(DW_ATE_signed)
     633                      .dwattr $C$DW$T$8, DW_AT_name("short")
     634                      .dwattr $C$DW$T$8, DW_AT_byte_size(0x01)
     635              $C$DW$T$9       .dwtag  DW_TAG_base_type
     636                      .dwattr $C$DW$T$9, DW_AT_encoding(DW_ATE_unsigned)
     637                      .dwattr $C$DW$T$9, DW_AT_name("unsigned short")
     638                      .dwattr $C$DW$T$9, DW_AT_byte_size(0x01)
     639              $C$DW$T$10      .dwtag  DW_TAG_base_type
     640                      .dwattr $C$DW$T$10, DW_AT_encoding(DW_ATE_signed)
     641                      .dwattr $C$DW$T$10, DW_AT_name("int")
     642                      .dwattr $C$DW$T$10, DW_AT_byte_size(0x01)
     643              $C$DW$T$11      .dwtag  DW_TAG_base_type
     644                      .dwattr $C$DW$T$11, DW_AT_encoding(DW_ATE_unsigned)
     645                      .dwattr $C$DW$T$11, DW_AT_name("unsigned int")
     646                      .dwattr $C$DW$T$11, DW_AT_byte_size(0x01)
     647              $C$DW$T$12      .dwtag  DW_TAG_base_type
     648                      .dwattr $C$DW$T$12, DW_AT_encoding(DW_ATE_signed)
     649                      .dwattr $C$DW$T$12, DW_AT_name("long")
     650                      .dwattr $C$DW$T$12, DW_AT_byte_size(0x02)
     651              $C$DW$T$21      .dwtag  DW_TAG_typedef, DW_AT_name("_iq")
     652                      .dwattr $C$DW$T$21, DW_AT_type(*$C$DW$T$12)
     653                      .dwattr $C$DW$T$21, DW_AT_language(DW_LANG_C)
TMS320C2000 Assembler PC v6.4.4 Wed Jul 08 10:29:40 2015

Tools Copyright (c) 1996-2015 Texas Instruments Incorporated
C:\Users\grant\AppData\Local\Temp\0779611                            PAGE   13

     654              $C$DW$T$42      .dwtag  DW_TAG_pointer_type
     655                      .dwattr $C$DW$T$42, DW_AT_type(*$C$DW$T$21)
     656                      .dwattr $C$DW$T$42, DW_AT_address_class(0x20)
     657              $C$DW$64        .dwtag  DW_TAG_TI_far_type
     658                      .dwattr $C$DW$64, DW_AT_type(*$C$DW$T$21)
     659              $C$DW$T$45      .dwtag  DW_TAG_const_type
     660                      .dwattr $C$DW$T$45, DW_AT_type(*$C$DW$64)
     661              $C$DW$T$13      .dwtag  DW_TAG_base_type
     662                      .dwattr $C$DW$T$13, DW_AT_encoding(DW_ATE_unsigned)
     663                      .dwattr $C$DW$T$13, DW_AT_name("unsigned long")
     664                      .dwattr $C$DW$T$13, DW_AT_byte_size(0x02)
     665              $C$DW$T$28      .dwtag  DW_TAG_typedef, DW_AT_name("size_t")
     666                      .dwattr $C$DW$T$28, DW_AT_type(*$C$DW$T$13)
     667                      .dwattr $C$DW$T$28, DW_AT_language(DW_LANG_C)
     668              $C$DW$65        .dwtag  DW_TAG_TI_far_type
     669                      .dwattr $C$DW$65, DW_AT_type(*$C$DW$T$28)
     670              $C$DW$T$29      .dwtag  DW_TAG_const_type
     671                      .dwattr $C$DW$T$29, DW_AT_type(*$C$DW$65)
     672              $C$DW$T$14      .dwtag  DW_TAG_base_type
     673                      .dwattr $C$DW$T$14, DW_AT_encoding(DW_ATE_signed)
     674                      .dwattr $C$DW$T$14, DW_AT_name("long long")
     675                      .dwattr $C$DW$T$14, DW_AT_byte_size(0x04)
     676              $C$DW$T$15      .dwtag  DW_TAG_base_type
     677                      .dwattr $C$DW$T$15, DW_AT_encoding(DW_ATE_unsigned)
     678                      .dwattr $C$DW$T$15, DW_AT_name("unsigned long long")
     679                      .dwattr $C$DW$T$15, DW_AT_byte_size(0x04)
     680              $C$DW$T$16      .dwtag  DW_TAG_base_type
     681                      .dwattr $C$DW$T$16, DW_AT_encoding(DW_ATE_float)
     682                      .dwattr $C$DW$T$16, DW_AT_name("float")
     683                      .dwattr $C$DW$T$16, DW_AT_byte_size(0x02)
     684              $C$DW$T$17      .dwtag  DW_TAG_base_type
     685                      .dwattr $C$DW$T$17, DW_AT_encoding(DW_ATE_float)
     686                      .dwattr $C$DW$T$17, DW_AT_name("double")
     687                      .dwattr $C$DW$T$17, DW_AT_byte_size(0x02)
     688              $C$DW$T$18      .dwtag  DW_TAG_base_type
     689                      .dwattr $C$DW$T$18, DW_AT_encoding(DW_ATE_float)
     690                      .dwattr $C$DW$T$18, DW_AT_name("long double")
     691                      .dwattr $C$DW$T$18, DW_AT_byte_size(0x04)
     692                      .dwattr $C$DW$CU, DW_AT_language(DW_LANG_C)
     693              
     694              ;***************************************************************
     695              ;* DWARF CIE ENTRIES                                           *
     696              ;***************************************************************
     697              
     698              $C$DW$CIE       .dwcie 26
     699                      .dwcfi  cfa_register, 20
     700                      .dwcfi  cfa_offset, 0
     701                      .dwcfi  undefined, 0
     702                      .dwcfi  undefined, 1
     703                      .dwcfi  undefined, 2
     704                      .dwcfi  undefined, 3
     705                      .dwcfi  undefined, 20
     706                      .dwcfi  undefined, 21
     707                      .dwcfi  undefined, 22
     708                      .dwcfi  undefined, 23
TMS320C2000 Assembler PC v6.4.4 Wed Jul 08 10:29:40 2015

Tools Copyright (c) 1996-2015 Texas Instruments Incorporated
C:\Users\grant\AppData\Local\Temp\0779611                            PAGE   14

     709                      .dwcfi  undefined, 24
     710                      .dwcfi  undefined, 25
     711                      .dwcfi  undefined, 26
     712                      .dwcfi  same_value, 28
     713                      .dwcfi  undefined, 29
     714                      .dwcfi  undefined, 30
     715                      .dwcfi  undefined, 31
     716                      .dwcfi  undefined, 32
     717                      .dwcfi  undefined, 33
     718                      .dwcfi  undefined, 34
     719                      .dwcfi  undefined, 35
     720                      .dwcfi  undefined, 36
     721                      .dwcfi  undefined, 37
     722                      .dwcfi  undefined, 38
     723                      .dwcfi  undefined, 75
     724                      .dwcfi  undefined, 76
     725                      .dwcfi  undefined, 77
     726                      .dwcfi  undefined, 4
     727                      .dwcfi  undefined, 5
     728                      .dwcfi  same_value, 6
     729                      .dwcfi  same_value, 7
     730                      .dwcfi  same_value, 8
     731                      .dwcfi  same_value, 9
     732                      .dwcfi  same_value, 10
     733                      .dwcfi  same_value, 11
     734                      .dwcfi  undefined, 12
     735                      .dwcfi  undefined, 13
     736                      .dwcfi  undefined, 14
     737                      .dwcfi  undefined, 15
     738                      .dwcfi  undefined, 16
     739                      .dwcfi  undefined, 17
     740                      .dwcfi  undefined, 18
     741                      .dwcfi  undefined, 19
     742                      .dwendentry
     743              
     744              ;***************************************************************
     745              ;* DWARF REGISTER MAP                                          *
     746              ;***************************************************************
     747              
     748              $C$DW$66        .dwtag  DW_TAG_TI_assign_register, DW_AT_name("AL")
     749                      .dwattr $C$DW$66, DW_AT_location[DW_OP_reg0]
     750              $C$DW$67        .dwtag  DW_TAG_TI_assign_register, DW_AT_name("AH")
     751                      .dwattr $C$DW$67, DW_AT_location[DW_OP_reg1]
     752              $C$DW$68        .dwtag  DW_TAG_TI_assign_register, DW_AT_name("PL")
     753                      .dwattr $C$DW$68, DW_AT_location[DW_OP_reg2]
     754              $C$DW$69        .dwtag  DW_TAG_TI_assign_register, DW_AT_name("PH")
     755                      .dwattr $C$DW$69, DW_AT_location[DW_OP_reg3]
     756              $C$DW$70        .dwtag  DW_TAG_TI_assign_register, DW_AT_name("SP")
     757                      .dwattr $C$DW$70, DW_AT_location[DW_OP_reg20]
     758              $C$DW$71        .dwtag  DW_TAG_TI_assign_register, DW_AT_name("XT")
     759                      .dwattr $C$DW$71, DW_AT_location[DW_OP_reg21]
     760              $C$DW$72        .dwtag  DW_TAG_TI_assign_register, DW_AT_name("T")
     761                      .dwattr $C$DW$72, DW_AT_location[DW_OP_reg22]
     762              $C$DW$73        .dwtag  DW_TAG_TI_assign_register, DW_AT_name("ST0")
     763                      .dwattr $C$DW$73, DW_AT_location[DW_OP_reg23]
TMS320C2000 Assembler PC v6.4.4 Wed Jul 08 10:29:40 2015

Tools Copyright (c) 1996-2015 Texas Instruments Incorporated
C:\Users\grant\AppData\Local\Temp\0779611                            PAGE   15

     764              $C$DW$74        .dwtag  DW_TAG_TI_assign_register, DW_AT_name("ST1")
     765                      .dwattr $C$DW$74, DW_AT_location[DW_OP_reg24]
     766              $C$DW$75        .dwtag  DW_TAG_TI_assign_register, DW_AT_name("PC")
     767                      .dwattr $C$DW$75, DW_AT_location[DW_OP_reg25]
     768              $C$DW$76        .dwtag  DW_TAG_TI_assign_register, DW_AT_name("RPC")
     769                      .dwattr $C$DW$76, DW_AT_location[DW_OP_reg26]
     770              $C$DW$77        .dwtag  DW_TAG_TI_assign_register, DW_AT_name("FP")
     771                      .dwattr $C$DW$77, DW_AT_location[DW_OP_reg28]
     772              $C$DW$78        .dwtag  DW_TAG_TI_assign_register, DW_AT_name("DP")
     773                      .dwattr $C$DW$78, DW_AT_location[DW_OP_reg29]
     774              $C$DW$79        .dwtag  DW_TAG_TI_assign_register, DW_AT_name("SXM")
     775                      .dwattr $C$DW$79, DW_AT_location[DW_OP_reg30]
     776              $C$DW$80        .dwtag  DW_TAG_TI_assign_register, DW_AT_name("PM")
     777                      .dwattr $C$DW$80, DW_AT_location[DW_OP_reg31]
     778              $C$DW$81        .dwtag  DW_TAG_TI_assign_register, DW_AT_name("OVM")
     779                      .dwattr $C$DW$81, DW_AT_location[DW_OP_regx 0x20]
     780              $C$DW$82        .dwtag  DW_TAG_TI_assign_register, DW_AT_name("PAGE0")
     781                      .dwattr $C$DW$82, DW_AT_location[DW_OP_regx 0x21]
     782              $C$DW$83        .dwtag  DW_TAG_TI_assign_register, DW_AT_name("AMODE")
     783                      .dwattr $C$DW$83, DW_AT_location[DW_OP_regx 0x22]
     784              $C$DW$84        .dwtag  DW_TAG_TI_assign_register, DW_AT_name("INTM")
     785                      .dwattr $C$DW$84, DW_AT_location[DW_OP_regx 0x23]
     786              $C$DW$85        .dwtag  DW_TAG_TI_assign_register, DW_AT_name("IFR")
     787                      .dwattr $C$DW$85, DW_AT_location[DW_OP_regx 0x24]
     788              $C$DW$86        .dwtag  DW_TAG_TI_assign_register, DW_AT_name("IER")
     789                      .dwattr $C$DW$86, DW_AT_location[DW_OP_regx 0x25]
     790              $C$DW$87        .dwtag  DW_TAG_TI_assign_register, DW_AT_name("V")
     791                      .dwattr $C$DW$87, DW_AT_location[DW_OP_regx 0x26]
     792              $C$DW$88        .dwtag  DW_TAG_TI_assign_register, DW_AT_name("PSEUDOH")
     793                      .dwattr $C$DW$88, DW_AT_location[DW_OP_regx 0x4c]
     794              $C$DW$89        .dwtag  DW_TAG_TI_assign_register, DW_AT_name("VOL")
     795                      .dwattr $C$DW$89, DW_AT_location[DW_OP_regx 0x4d]
     796              $C$DW$90        .dwtag  DW_TAG_TI_assign_register, DW_AT_name("AR0")
     797                      .dwattr $C$DW$90, DW_AT_location[DW_OP_reg4]
     798              $C$DW$91        .dwtag  DW_TAG_TI_assign_register, DW_AT_name("XAR0")
     799                      .dwattr $C$DW$91, DW_AT_location[DW_OP_reg5]
     800              $C$DW$92        .dwtag  DW_TAG_TI_assign_register, DW_AT_name("AR1")
     801                      .dwattr $C$DW$92, DW_AT_location[DW_OP_reg6]
     802              $C$DW$93        .dwtag  DW_TAG_TI_assign_register, DW_AT_name("XAR1")
     803                      .dwattr $C$DW$93, DW_AT_location[DW_OP_reg7]
     804              $C$DW$94        .dwtag  DW_TAG_TI_assign_register, DW_AT_name("AR2")
     805                      .dwattr $C$DW$94, DW_AT_location[DW_OP_reg8]
     806              $C$DW$95        .dwtag  DW_TAG_TI_assign_register, DW_AT_name("XAR2")
     807                      .dwattr $C$DW$95, DW_AT_location[DW_OP_reg9]
     808              $C$DW$96        .dwtag  DW_TAG_TI_assign_register, DW_AT_name("AR3")
     809                      .dwattr $C$DW$96, DW_AT_location[DW_OP_reg10]
     810              $C$DW$97        .dwtag  DW_TAG_TI_assign_register, DW_AT_name("XAR3")
     811                      .dwattr $C$DW$97, DW_AT_location[DW_OP_reg11]
     812              $C$DW$98        .dwtag  DW_TAG_TI_assign_register, DW_AT_name("AR4")
     813                      .dwattr $C$DW$98, DW_AT_location[DW_OP_reg12]
     814              $C$DW$99        .dwtag  DW_TAG_TI_assign_register, DW_AT_name("XAR4")
     815                      .dwattr $C$DW$99, DW_AT_location[DW_OP_reg13]
     816              $C$DW$100       .dwtag  DW_TAG_TI_assign_register, DW_AT_name("AR5")
     817                      .dwattr $C$DW$100, DW_AT_location[DW_OP_reg14]
     818              $C$DW$101       .dwtag  DW_TAG_TI_assign_register, DW_AT_name("XAR5")
TMS320C2000 Assembler PC v6.4.4 Wed Jul 08 10:29:40 2015

Tools Copyright (c) 1996-2015 Texas Instruments Incorporated
C:\Users\grant\AppData\Local\Temp\0779611                            PAGE   16

     819                      .dwattr $C$DW$101, DW_AT_location[DW_OP_reg15]
     820              $C$DW$102       .dwtag  DW_TAG_TI_assign_register, DW_AT_name("AR6")
     821                      .dwattr $C$DW$102, DW_AT_location[DW_OP_reg16]
     822              $C$DW$103       .dwtag  DW_TAG_TI_assign_register, DW_AT_name("XAR6")
     823                      .dwattr $C$DW$103, DW_AT_location[DW_OP_reg17]
     824              $C$DW$104       .dwtag  DW_TAG_TI_assign_register, DW_AT_name("AR7")
     825                      .dwattr $C$DW$104, DW_AT_location[DW_OP_reg18]
     826              $C$DW$105       .dwtag  DW_TAG_TI_assign_register, DW_AT_name("XAR7")
     827                      .dwattr $C$DW$105, DW_AT_location[DW_OP_reg19]
     828                      .dwendtag $C$DW$CU
     829              

No Assembly Errors, No Assembly Warnings
