TMS320C2000 Assembler PC v6.4.4 Wed Jul 08 12:49:30 2015

Tools Copyright (c) 1996-2015 Texas Instruments Incorporated
C:\Users\grant\AppData\Local\Temp\0440810                            PAGE    1

       1              ;***************************************************************
       2              ;* TMS320C2000 C/C++ Codegen                         PC v6.4.4 *
       3              ;* Date/Time created: Wed Jul 08 12:49:30 2015                 *
       4              ;***************************************************************
       5                      .compiler_opts --float_support=softlib --hll_source=on --mem_model:code=flat --mem_model:data=large -
       6        0002  FP      .set    XAR2
       7              
       8              $C$DW$CU        .dwtag  DW_TAG_compile_unit
       9                      .dwattr $C$DW$CU, DW_AT_name("C:/ti/motorware/motorware_1_01_00_14/sw/drivers/spi/src/32b/f28x/f2806x
      10                      .dwattr $C$DW$CU, DW_AT_producer("TI TMS320C2000 C/C++ Codegen PC v6.4.4 Copyright (c) 1996-2015 Texa
      11                      .dwattr $C$DW$CU, DW_AT_TI_version(0x01)
      12                      .dwattr $C$DW$CU, DW_AT_comp_dir("C:\work\ws_ccs_motorware\foc_proj_lab20\Release")
      13              ;       C:\ti\ccsv6\tools\compiler\ti-cgt-c2000_6.4.4\bin\opt2000.exe C:\\Users\\grant\\AppData\\Local\\Temp\
      14              ;       C:\ti\ccsv6\tools\compiler\ti-cgt-c2000_6.4.4\bin\ac2000.exe -@C:\\Users\\grant\\AppData\\Local\\Temp
      15 00000000               .sect   ".text"
      16                      .clink
      17                      .global _SPI_setTxFifoIntLevel
      18              
      19              $C$DW$1 .dwtag  DW_TAG_subprogram, DW_AT_name("SPI_setTxFifoIntLevel")
      20                      .dwattr $C$DW$1, DW_AT_low_pc(_SPI_setTxFifoIntLevel)
      21                      .dwattr $C$DW$1, DW_AT_high_pc(0x00)
      22                      .dwattr $C$DW$1, DW_AT_TI_symbol_name("_SPI_setTxFifoIntLevel")
      23                      .dwattr $C$DW$1, DW_AT_external
      24                      .dwattr $C$DW$1, DW_AT_TI_begin_file("C:/ti/motorware/motorware_1_01_00_14/sw/drivers/spi/src/32b/f28
      25                      .dwattr $C$DW$1, DW_AT_TI_begin_line(0x233)
      26                      .dwattr $C$DW$1, DW_AT_TI_begin_column(0x06)
      27                      .dwattr $C$DW$1, DW_AT_TI_max_frame_size(-2)
      28                      .dwpsn  file "C:/ti/motorware/motorware_1_01_00_14/sw/drivers/spi/src/32b/f28x/f2806x/spi.c",line 564
      29              
      30                      .dwfde $C$DW$CIE, _SPI_setTxFifoIntLevel
      31              $C$DW$2 .dwtag  DW_TAG_formal_parameter, DW_AT_name("spiHandle")
      32                      .dwattr $C$DW$2, DW_AT_TI_symbol_name("_spiHandle")
      33                      .dwattr $C$DW$2, DW_AT_type(*$C$DW$T$26)
      34                      .dwattr $C$DW$2, DW_AT_location[DW_OP_reg12]
      35              $C$DW$3 .dwtag  DW_TAG_formal_parameter, DW_AT_name("fifoLevel")
      36                      .dwattr $C$DW$3, DW_AT_TI_symbol_name("_fifoLevel")
      37                      .dwattr $C$DW$3, DW_AT_type(*$C$DW$T$57)
      38                      .dwattr $C$DW$3, DW_AT_location[DW_OP_reg0]
      39              
      40              ;***************************************************************
      41              ;* FNAME: _SPI_setTxFifoIntLevel        FR SIZE:   0           *
      42              ;*                                                             *
      43              ;* FUNCTION ENVIRONMENT                                        *
      44              ;*                                                             *
      45              ;* FUNCTION PROPERTIES                                         *
      46              ;*                            0 Parameter,  0 Auto,  0 SOE     *
      47              ;***************************************************************
      48              
      49              _SPI_setTxFifoIntLevel:
      50              ;* AR4   assigned to _spiHandle
      51              $C$DW$4 .dwtag  DW_TAG_variable, DW_AT_name("spiHandle")
      52                      .dwattr $C$DW$4, DW_AT_TI_symbol_name("_spiHandle")
      53                      .dwattr $C$DW$4, DW_AT_type(*$C$DW$T$68)
      54                      .dwattr $C$DW$4, DW_AT_location[DW_OP_reg12]
      55              ;* AL    assigned to _fifoLevel
TMS320C2000 Assembler PC v6.4.4 Wed Jul 08 12:49:30 2015

Tools Copyright (c) 1996-2015 Texas Instruments Incorporated
C:\Users\grant\AppData\Local\Temp\0440810                            PAGE    2

      56              $C$DW$5 .dwtag  DW_TAG_variable, DW_AT_name("fifoLevel")
      57                      .dwattr $C$DW$5, DW_AT_TI_symbol_name("_fifoLevel")
      58                      .dwattr $C$DW$5, DW_AT_type(*$C$DW$T$57)
      59                      .dwattr $C$DW$5, DW_AT_location[DW_OP_reg0]
      60                      .dwcfi  cfa_offset, -2
      61                      .dwcfi  save_reg_to_mem, 26, 0
      62                      .dwpsn  file "C:/ti/motorware/motorware_1_01_00_14/sw/drivers/spi/src/32b/f28x/f2806x/spi.c",line 569
      63 00000000 83A4          MOVL      XAR5,XAR4             ; [CPU_] |569| 
      64 00000001 DD0A          ADDB      XAR5,#10              ; [CPU_] |569| 
      65 00000002 18C5          AND       *+XAR5[0],#0xffe0     ; [CPU_] |569| 
         00000003 FFE0 
      66                      .dwpsn  file "C:/ti/motorware/motorware_1_01_00_14/sw/drivers/spi/src/32b/f28x/f2806x/spi.c",line 572
      67 00000004 DC0A          ADDB      XAR4,#10              ; [CPU_] |572| 
      68 00000005 98C4          OR        *+XAR4[0],AL          ; [CPU_] |572| 
      69              $C$DW$6 .dwtag  DW_TAG_TI_branch
      70                      .dwattr $C$DW$6, DW_AT_low_pc(0x00)
      71                      .dwattr $C$DW$6, DW_AT_TI_return
      72 00000006 0006          LRETR     ; [CPU_] 
      73                      ; return occurs ; [] 
      74                      .dwattr $C$DW$1, DW_AT_TI_end_file("C:/ti/motorware/motorware_1_01_00_14/sw/drivers/spi/src/32b/f28x/
      75                      .dwattr $C$DW$1, DW_AT_TI_end_line(0x23f)
      76                      .dwattr $C$DW$1, DW_AT_TI_end_column(0x01)
      77                      .dwendentry
      78                      .dwendtag $C$DW$1
      79              
      80 00000007               .sect   ".text"
      81                      .clink
      82                      .global _SPI_setTxDelay
      83              
      84              $C$DW$7 .dwtag  DW_TAG_subprogram, DW_AT_name("SPI_setTxDelay")
      85                      .dwattr $C$DW$7, DW_AT_low_pc(_SPI_setTxDelay)
      86                      .dwattr $C$DW$7, DW_AT_high_pc(0x00)
      87                      .dwattr $C$DW$7, DW_AT_TI_symbol_name("_SPI_setTxDelay")
      88                      .dwattr $C$DW$7, DW_AT_external
      89                      .dwattr $C$DW$7, DW_AT_TI_begin_file("C:/ti/motorware/motorware_1_01_00_14/sw/drivers/spi/src/32b/f28
      90                      .dwattr $C$DW$7, DW_AT_TI_begin_line(0x227)
      91                      .dwattr $C$DW$7, DW_AT_TI_begin_column(0x06)
      92                      .dwattr $C$DW$7, DW_AT_TI_max_frame_size(-2)
      93                      .dwpsn  file "C:/ti/motorware/motorware_1_01_00_14/sw/drivers/spi/src/32b/f28x/f2806x/spi.c",line 552
      94              
      95                      .dwfde $C$DW$CIE, _SPI_setTxDelay
      96              $C$DW$8 .dwtag  DW_TAG_formal_parameter, DW_AT_name("spiHandle")
      97                      .dwattr $C$DW$8, DW_AT_TI_symbol_name("_spiHandle")
      98                      .dwattr $C$DW$8, DW_AT_type(*$C$DW$T$26)
      99                      .dwattr $C$DW$8, DW_AT_location[DW_OP_reg12]
     100              $C$DW$9 .dwtag  DW_TAG_formal_parameter, DW_AT_name("delay")
     101                      .dwattr $C$DW$9, DW_AT_TI_symbol_name("_delay")
     102                      .dwattr $C$DW$9, DW_AT_type(*$C$DW$T$87)
     103                      .dwattr $C$DW$9, DW_AT_location[DW_OP_reg0]
     104              
     105              ;***************************************************************
     106              ;* FNAME: _SPI_setTxDelay               FR SIZE:   0           *
     107              ;*                                                             *
     108              ;* FUNCTION ENVIRONMENT                                        *
     109              ;*                                                             *
TMS320C2000 Assembler PC v6.4.4 Wed Jul 08 12:49:30 2015

Tools Copyright (c) 1996-2015 Texas Instruments Incorporated
C:\Users\grant\AppData\Local\Temp\0440810                            PAGE    3

     110              ;* FUNCTION PROPERTIES                                         *
     111              ;*                            0 Parameter,  0 Auto,  0 SOE     *
     112              ;***************************************************************
     113              
     114              _SPI_setTxDelay:
     115              ;* AR4   assigned to _spiHandle
     116              $C$DW$10        .dwtag  DW_TAG_variable, DW_AT_name("spiHandle")
     117                      .dwattr $C$DW$10, DW_AT_TI_symbol_name("_spiHandle")
     118                      .dwattr $C$DW$10, DW_AT_type(*$C$DW$T$68)
     119                      .dwattr $C$DW$10, DW_AT_location[DW_OP_reg12]
     120              ;* AL    assigned to _delay
     121              $C$DW$11        .dwtag  DW_TAG_variable, DW_AT_name("delay")
     122                      .dwattr $C$DW$11, DW_AT_TI_symbol_name("_delay")
     123                      .dwattr $C$DW$11, DW_AT_type(*$C$DW$T$87)
     124                      .dwattr $C$DW$11, DW_AT_location[DW_OP_reg0]
     125                      .dwcfi  cfa_offset, -2
     126                      .dwcfi  save_reg_to_mem, 26, 0
     127                      .dwpsn  file "C:/ti/motorware/motorware_1_01_00_14/sw/drivers/spi/src/32b/f28x/f2806x/spi.c",line 557
     128 00000007 D00C          MOVB      XAR0,#12              ; [CPU_] |557| 
     129 00000008 9694          MOV       *+XAR4[AR0],AL        ; [CPU_] |557| 
     130              $C$DW$12        .dwtag  DW_TAG_TI_branch
     131                      .dwattr $C$DW$12, DW_AT_low_pc(0x00)
     132                      .dwattr $C$DW$12, DW_AT_TI_return
     133 00000009 0006          LRETR     ; [CPU_] 
     134                      ; return occurs ; [] 
     135                      .dwattr $C$DW$7, DW_AT_TI_end_file("C:/ti/motorware/motorware_1_01_00_14/sw/drivers/spi/src/32b/f28x/
     136                      .dwattr $C$DW$7, DW_AT_TI_end_line(0x230)
     137                      .dwattr $C$DW$7, DW_AT_TI_end_column(0x01)
     138                      .dwendentry
     139                      .dwendtag $C$DW$7
     140              
     141 0000000a               .sect   ".text"
     142                      .clink
     143                      .global _SPI_setTriWire
     144              
     145              $C$DW$13        .dwtag  DW_TAG_subprogram, DW_AT_name("SPI_setTriWire")
     146                      .dwattr $C$DW$13, DW_AT_low_pc(_SPI_setTriWire)
     147                      .dwattr $C$DW$13, DW_AT_high_pc(0x00)
     148                      .dwattr $C$DW$13, DW_AT_TI_symbol_name("_SPI_setTriWire")
     149                      .dwattr $C$DW$13, DW_AT_external
     150                      .dwattr $C$DW$13, DW_AT_TI_begin_file("C:/ti/motorware/motorware_1_01_00_14/sw/drivers/spi/src/32b/f2
     151                      .dwattr $C$DW$13, DW_AT_TI_begin_line(0x21a)
     152                      .dwattr $C$DW$13, DW_AT_TI_begin_column(0x06)
     153                      .dwattr $C$DW$13, DW_AT_TI_max_frame_size(-2)
     154                      .dwpsn  file "C:/ti/motorware/motorware_1_01_00_14/sw/drivers/spi/src/32b/f28x/f2806x/spi.c",line 539
     155              
     156                      .dwfde $C$DW$CIE, _SPI_setTriWire
     157              $C$DW$14        .dwtag  DW_TAG_formal_parameter, DW_AT_name("spiHandle")
     158                      .dwattr $C$DW$14, DW_AT_TI_symbol_name("_spiHandle")
     159                      .dwattr $C$DW$14, DW_AT_type(*$C$DW$T$26)
     160                      .dwattr $C$DW$14, DW_AT_location[DW_OP_reg12]
     161              $C$DW$15        .dwtag  DW_TAG_formal_parameter, DW_AT_name("triwire")
     162                      .dwattr $C$DW$15, DW_AT_TI_symbol_name("_triwire")
     163                      .dwattr $C$DW$15, DW_AT_type(*$C$DW$T$66)
     164                      .dwattr $C$DW$15, DW_AT_location[DW_OP_reg0]
TMS320C2000 Assembler PC v6.4.4 Wed Jul 08 12:49:30 2015

Tools Copyright (c) 1996-2015 Texas Instruments Incorporated
C:\Users\grant\AppData\Local\Temp\0440810                            PAGE    4

     165              
     166              ;***************************************************************
     167              ;* FNAME: _SPI_setTriWire               FR SIZE:   0           *
     168              ;*                                                             *
     169              ;* FUNCTION ENVIRONMENT                                        *
     170              ;*                                                             *
     171              ;* FUNCTION PROPERTIES                                         *
     172              ;*                            0 Parameter,  0 Auto,  0 SOE     *
     173              ;***************************************************************
     174              
     175              _SPI_setTriWire:
     176              ;* AR4   assigned to _spiHandle
     177              $C$DW$16        .dwtag  DW_TAG_variable, DW_AT_name("spiHandle")
     178                      .dwattr $C$DW$16, DW_AT_TI_symbol_name("_spiHandle")
     179                      .dwattr $C$DW$16, DW_AT_type(*$C$DW$T$68)
     180                      .dwattr $C$DW$16, DW_AT_location[DW_OP_reg12]
     181              ;* AL    assigned to _triwire
     182              $C$DW$17        .dwtag  DW_TAG_variable, DW_AT_name("triwire")
     183                      .dwattr $C$DW$17, DW_AT_TI_symbol_name("_triwire")
     184                      .dwattr $C$DW$17, DW_AT_type(*$C$DW$T$66)
     185                      .dwattr $C$DW$17, DW_AT_location[DW_OP_reg0]
     186                      .dwcfi  cfa_offset, -2
     187                      .dwcfi  save_reg_to_mem, 26, 0
     188                      .dwpsn  file "C:/ti/motorware/motorware_1_01_00_14/sw/drivers/spi/src/32b/f28x/f2806x/spi.c",line 543
     189 0000000a 83A4          MOVL      XAR5,XAR4             ; [CPU_] |543| 
     190 0000000b DD0F          ADDB      XAR5,#15              ; [CPU_] |543| 
     191 0000000c 18C5          AND       *+XAR5[0],#0xfffe     ; [CPU_] |543| 
         0000000d FFFE 
     192                      .dwpsn  file "C:/ti/motorware/motorware_1_01_00_14/sw/drivers/spi/src/32b/f28x/f2806x/spi.c",line 545
     193 0000000e DC0F          ADDB      XAR4,#15              ; [CPU_] |545| 
     194 0000000f 98C4          OR        *+XAR4[0],AL          ; [CPU_] |545| 
     195              $C$DW$18        .dwtag  DW_TAG_TI_branch
     196                      .dwattr $C$DW$18, DW_AT_low_pc(0x00)
     197                      .dwattr $C$DW$18, DW_AT_TI_return
     198 00000010 0006          LRETR     ; [CPU_] 
     199                      ; return occurs ; [] 
     200                      .dwattr $C$DW$13, DW_AT_TI_end_file("C:/ti/motorware/motorware_1_01_00_14/sw/drivers/spi/src/32b/f28x
     201                      .dwattr $C$DW$13, DW_AT_TI_end_line(0x224)
     202                      .dwattr $C$DW$13, DW_AT_TI_end_column(0x01)
     203                      .dwendentry
     204                      .dwendtag $C$DW$13
     205              
     206 00000011               .sect   ".text"
     207                      .clink
     208                      .global _SPI_setSuspend
     209              
     210              $C$DW$19        .dwtag  DW_TAG_subprogram, DW_AT_name("SPI_setSuspend")
     211                      .dwattr $C$DW$19, DW_AT_low_pc(_SPI_setSuspend)
     212                      .dwattr $C$DW$19, DW_AT_high_pc(0x00)
     213                      .dwattr $C$DW$19, DW_AT_TI_symbol_name("_SPI_setSuspend")
     214                      .dwattr $C$DW$19, DW_AT_external
     215                      .dwattr $C$DW$19, DW_AT_TI_begin_file("C:/ti/motorware/motorware_1_01_00_14/sw/drivers/spi/src/32b/f2
     216                      .dwattr $C$DW$19, DW_AT_TI_begin_line(0x20c)
     217                      .dwattr $C$DW$19, DW_AT_TI_begin_column(0x06)
     218                      .dwattr $C$DW$19, DW_AT_TI_max_frame_size(-2)
TMS320C2000 Assembler PC v6.4.4 Wed Jul 08 12:49:30 2015

Tools Copyright (c) 1996-2015 Texas Instruments Incorporated
C:\Users\grant\AppData\Local\Temp\0440810                            PAGE    5

     219                      .dwpsn  file "C:/ti/motorware/motorware_1_01_00_14/sw/drivers/spi/src/32b/f28x/f2806x/spi.c",line 525
     220              
     221                      .dwfde $C$DW$CIE, _SPI_setSuspend
     222              $C$DW$20        .dwtag  DW_TAG_formal_parameter, DW_AT_name("spiHandle")
     223                      .dwattr $C$DW$20, DW_AT_TI_symbol_name("_spiHandle")
     224                      .dwattr $C$DW$20, DW_AT_type(*$C$DW$T$26)
     225                      .dwattr $C$DW$20, DW_AT_location[DW_OP_reg12]
     226              $C$DW$21        .dwtag  DW_TAG_formal_parameter, DW_AT_name("emuSuspend")
     227                      .dwattr $C$DW$21, DW_AT_TI_symbol_name("_emuSuspend")
     228                      .dwattr $C$DW$21, DW_AT_type(*$C$DW$T$63)
     229                      .dwattr $C$DW$21, DW_AT_location[DW_OP_reg0]
     230              
     231              ;***************************************************************
     232              ;* FNAME: _SPI_setSuspend               FR SIZE:   0           *
     233              ;*                                                             *
     234              ;* FUNCTION ENVIRONMENT                                        *
     235              ;*                                                             *
     236              ;* FUNCTION PROPERTIES                                         *
     237              ;*                            0 Parameter,  0 Auto,  0 SOE     *
     238              ;***************************************************************
     239              
     240              _SPI_setSuspend:
     241              ;* AR4   assigned to _spiHandle
     242              $C$DW$22        .dwtag  DW_TAG_variable, DW_AT_name("spiHandle")
     243                      .dwattr $C$DW$22, DW_AT_TI_symbol_name("_spiHandle")
     244                      .dwattr $C$DW$22, DW_AT_type(*$C$DW$T$68)
     245                      .dwattr $C$DW$22, DW_AT_location[DW_OP_reg12]
     246              ;* AL    assigned to _emuSuspend
     247              $C$DW$23        .dwtag  DW_TAG_variable, DW_AT_name("emuSuspend")
     248                      .dwattr $C$DW$23, DW_AT_TI_symbol_name("_emuSuspend")
     249                      .dwattr $C$DW$23, DW_AT_type(*$C$DW$T$63)
     250                      .dwattr $C$DW$23, DW_AT_location[DW_OP_reg0]
     251                      .dwcfi  cfa_offset, -2
     252                      .dwcfi  save_reg_to_mem, 26, 0
     253                      .dwpsn  file "C:/ti/motorware/motorware_1_01_00_14/sw/drivers/spi/src/32b/f28x/f2806x/spi.c",line 529
     254 00000011 83A4          MOVL      XAR5,XAR4             ; [CPU_] |529| 
     255 00000012 DD0F          ADDB      XAR5,#15              ; [CPU_] |529| 
     256 00000013 18C5          AND       *+XAR5[0],#0xffcf     ; [CPU_] |529| 
         00000014 FFCF 
     257                      .dwpsn  file "C:/ti/motorware/motorware_1_01_00_14/sw/drivers/spi/src/32b/f28x/f2806x/spi.c",line 532
     258 00000015 DC0F          ADDB      XAR4,#15              ; [CPU_] |532| 
     259 00000016 98C4          OR        *+XAR4[0],AL          ; [CPU_] |532| 
     260              $C$DW$24        .dwtag  DW_TAG_TI_branch
     261                      .dwattr $C$DW$24, DW_AT_low_pc(0x00)
     262                      .dwattr $C$DW$24, DW_AT_TI_return
     263 00000017 0006          LRETR     ; [CPU_] 
     264                      ; return occurs ; [] 
     265                      .dwattr $C$DW$19, DW_AT_TI_end_file("C:/ti/motorware/motorware_1_01_00_14/sw/drivers/spi/src/32b/f28x
     266                      .dwattr $C$DW$19, DW_AT_TI_end_line(0x217)
     267                      .dwattr $C$DW$19, DW_AT_TI_end_column(0x01)
     268                      .dwendentry
     269                      .dwendtag $C$DW$19
     270              
     271 00000018               .sect   ".text"
     272                      .clink
TMS320C2000 Assembler PC v6.4.4 Wed Jul 08 12:49:30 2015

Tools Copyright (c) 1996-2015 Texas Instruments Incorporated
C:\Users\grant\AppData\Local\Temp\0440810                            PAGE    6

     273                      .global _SPI_setSteInv
     274              
     275              $C$DW$25        .dwtag  DW_TAG_subprogram, DW_AT_name("SPI_setSteInv")
     276                      .dwattr $C$DW$25, DW_AT_low_pc(_SPI_setSteInv)
     277                      .dwattr $C$DW$25, DW_AT_high_pc(0x00)
     278                      .dwattr $C$DW$25, DW_AT_TI_symbol_name("_SPI_setSteInv")
     279                      .dwattr $C$DW$25, DW_AT_external
     280                      .dwattr $C$DW$25, DW_AT_TI_begin_file("C:/ti/motorware/motorware_1_01_00_14/sw/drivers/spi/src/32b/f2
     281                      .dwattr $C$DW$25, DW_AT_TI_begin_line(0x1ff)
     282                      .dwattr $C$DW$25, DW_AT_TI_begin_column(0x06)
     283                      .dwattr $C$DW$25, DW_AT_TI_max_frame_size(-2)
     284                      .dwpsn  file "C:/ti/motorware/motorware_1_01_00_14/sw/drivers/spi/src/32b/f28x/f2806x/spi.c",line 512
     285              
     286                      .dwfde $C$DW$CIE, _SPI_setSteInv
     287              $C$DW$26        .dwtag  DW_TAG_formal_parameter, DW_AT_name("spiHandle")
     288                      .dwattr $C$DW$26, DW_AT_TI_symbol_name("_spiHandle")
     289                      .dwattr $C$DW$26, DW_AT_type(*$C$DW$T$26)
     290                      .dwattr $C$DW$26, DW_AT_location[DW_OP_reg12]
     291              $C$DW$27        .dwtag  DW_TAG_formal_parameter, DW_AT_name("steinv")
     292                      .dwattr $C$DW$27, DW_AT_TI_symbol_name("_steinv")
     293                      .dwattr $C$DW$27, DW_AT_type(*$C$DW$T$60)
     294                      .dwattr $C$DW$27, DW_AT_location[DW_OP_reg0]
     295              
     296              ;***************************************************************
     297              ;* FNAME: _SPI_setSteInv                FR SIZE:   0           *
     298              ;*                                                             *
     299              ;* FUNCTION ENVIRONMENT                                        *
     300              ;*                                                             *
     301              ;* FUNCTION PROPERTIES                                         *
     302              ;*                            0 Parameter,  0 Auto,  0 SOE     *
     303              ;***************************************************************
     304              
     305              _SPI_setSteInv:
     306              ;* AR4   assigned to _spiHandle
     307              $C$DW$28        .dwtag  DW_TAG_variable, DW_AT_name("spiHandle")
     308                      .dwattr $C$DW$28, DW_AT_TI_symbol_name("_spiHandle")
     309                      .dwattr $C$DW$28, DW_AT_type(*$C$DW$T$68)
     310                      .dwattr $C$DW$28, DW_AT_location[DW_OP_reg12]
     311              ;* AL    assigned to _steinv
     312              $C$DW$29        .dwtag  DW_TAG_variable, DW_AT_name("steinv")
     313                      .dwattr $C$DW$29, DW_AT_TI_symbol_name("_steinv")
     314                      .dwattr $C$DW$29, DW_AT_type(*$C$DW$T$60)
     315                      .dwattr $C$DW$29, DW_AT_location[DW_OP_reg0]
     316                      .dwcfi  cfa_offset, -2
     317                      .dwcfi  save_reg_to_mem, 26, 0
     318                      .dwpsn  file "C:/ti/motorware/motorware_1_01_00_14/sw/drivers/spi/src/32b/f28x/f2806x/spi.c",line 516
     319 00000018 83A4          MOVL      XAR5,XAR4             ; [CPU_] |516| 
     320 00000019 DD0F          ADDB      XAR5,#15              ; [CPU_] |516| 
     321 0000001a 18C5          AND       *+XAR5[0],#0xfffd     ; [CPU_] |516| 
         0000001b FFFD 
     322                      .dwpsn  file "C:/ti/motorware/motorware_1_01_00_14/sw/drivers/spi/src/32b/f28x/f2806x/spi.c",line 518
     323 0000001c DC0F          ADDB      XAR4,#15              ; [CPU_] |518| 
     324 0000001d 98C4          OR        *+XAR4[0],AL          ; [CPU_] |518| 
     325              $C$DW$30        .dwtag  DW_TAG_TI_branch
     326                      .dwattr $C$DW$30, DW_AT_low_pc(0x00)
TMS320C2000 Assembler PC v6.4.4 Wed Jul 08 12:49:30 2015

Tools Copyright (c) 1996-2015 Texas Instruments Incorporated
C:\Users\grant\AppData\Local\Temp\0440810                            PAGE    7

     327                      .dwattr $C$DW$30, DW_AT_TI_return
     328 0000001e 0006          LRETR     ; [CPU_] 
     329                      ; return occurs ; [] 
     330                      .dwattr $C$DW$25, DW_AT_TI_end_file("C:/ti/motorware/motorware_1_01_00_14/sw/drivers/spi/src/32b/f28x
     331                      .dwattr $C$DW$25, DW_AT_TI_end_line(0x209)
     332                      .dwattr $C$DW$25, DW_AT_TI_end_column(0x01)
     333                      .dwendentry
     334                      .dwendtag $C$DW$25
     335              
     336 0000001f               .sect   ".text"
     337                      .clink
     338                      .global _SPI_setRxFifoIntLevel
     339              
     340              $C$DW$31        .dwtag  DW_TAG_subprogram, DW_AT_name("SPI_setRxFifoIntLevel")
     341                      .dwattr $C$DW$31, DW_AT_low_pc(_SPI_setRxFifoIntLevel)
     342                      .dwattr $C$DW$31, DW_AT_high_pc(0x00)
     343                      .dwattr $C$DW$31, DW_AT_TI_symbol_name("_SPI_setRxFifoIntLevel")
     344                      .dwattr $C$DW$31, DW_AT_external
     345                      .dwattr $C$DW$31, DW_AT_TI_begin_file("C:/ti/motorware/motorware_1_01_00_14/sw/drivers/spi/src/32b/f2
     346                      .dwattr $C$DW$31, DW_AT_TI_begin_line(0x1f0)
     347                      .dwattr $C$DW$31, DW_AT_TI_begin_column(0x06)
     348                      .dwattr $C$DW$31, DW_AT_TI_max_frame_size(-2)
     349                      .dwpsn  file "C:/ti/motorware/motorware_1_01_00_14/sw/drivers/spi/src/32b/f28x/f2806x/spi.c",line 497
     350              
     351                      .dwfde $C$DW$CIE, _SPI_setRxFifoIntLevel
     352              $C$DW$32        .dwtag  DW_TAG_formal_parameter, DW_AT_name("spiHandle")
     353                      .dwattr $C$DW$32, DW_AT_TI_symbol_name("_spiHandle")
     354                      .dwattr $C$DW$32, DW_AT_type(*$C$DW$T$26)
     355                      .dwattr $C$DW$32, DW_AT_location[DW_OP_reg12]
     356              $C$DW$33        .dwtag  DW_TAG_formal_parameter, DW_AT_name("fifoLevel")
     357                      .dwattr $C$DW$33, DW_AT_TI_symbol_name("_fifoLevel")
     358                      .dwattr $C$DW$33, DW_AT_type(*$C$DW$T$57)
     359                      .dwattr $C$DW$33, DW_AT_location[DW_OP_reg0]
     360              
     361              ;***************************************************************
     362              ;* FNAME: _SPI_setRxFifoIntLevel        FR SIZE:   0           *
     363              ;*                                                             *
     364              ;* FUNCTION ENVIRONMENT                                        *
     365              ;*                                                             *
     366              ;* FUNCTION PROPERTIES                                         *
     367              ;*                            0 Parameter,  0 Auto,  0 SOE     *
     368              ;***************************************************************
     369              
     370              _SPI_setRxFifoIntLevel:
     371              ;* AR4   assigned to _spiHandle
     372              $C$DW$34        .dwtag  DW_TAG_variable, DW_AT_name("spiHandle")
     373                      .dwattr $C$DW$34, DW_AT_TI_symbol_name("_spiHandle")
     374                      .dwattr $C$DW$34, DW_AT_type(*$C$DW$T$68)
     375                      .dwattr $C$DW$34, DW_AT_location[DW_OP_reg12]
     376              ;* AL    assigned to _fifoLevel
     377              $C$DW$35        .dwtag  DW_TAG_variable, DW_AT_name("fifoLevel")
     378                      .dwattr $C$DW$35, DW_AT_TI_symbol_name("_fifoLevel")
     379                      .dwattr $C$DW$35, DW_AT_type(*$C$DW$T$57)
     380                      .dwattr $C$DW$35, DW_AT_location[DW_OP_reg0]
     381                      .dwcfi  cfa_offset, -2
TMS320C2000 Assembler PC v6.4.4 Wed Jul 08 12:49:30 2015

Tools Copyright (c) 1996-2015 Texas Instruments Incorporated
C:\Users\grant\AppData\Local\Temp\0440810                            PAGE    8

     382                      .dwcfi  save_reg_to_mem, 26, 0
     383                      .dwpsn  file "C:/ti/motorware/motorware_1_01_00_14/sw/drivers/spi/src/32b/f28x/f2806x/spi.c",line 502
     384 0000001f 83A4          MOVL      XAR5,XAR4             ; [CPU_] |502| 
     385 00000020 DD0B          ADDB      XAR5,#11              ; [CPU_] |502| 
     386 00000021 18C5          AND       *+XAR5[0],#0xffe0     ; [CPU_] |502| 
         00000022 FFE0 
     387                      .dwpsn  file "C:/ti/motorware/motorware_1_01_00_14/sw/drivers/spi/src/32b/f28x/f2806x/spi.c",line 505
     388 00000023 DC0B          ADDB      XAR4,#11              ; [CPU_] |505| 
     389 00000024 98C4          OR        *+XAR4[0],AL          ; [CPU_] |505| 
     390              $C$DW$36        .dwtag  DW_TAG_TI_branch
     391                      .dwattr $C$DW$36, DW_AT_low_pc(0x00)
     392                      .dwattr $C$DW$36, DW_AT_TI_return
     393 00000025 0006          LRETR     ; [CPU_] 
     394                      ; return occurs ; [] 
     395                      .dwattr $C$DW$31, DW_AT_TI_end_file("C:/ti/motorware/motorware_1_01_00_14/sw/drivers/spi/src/32b/f28x
     396                      .dwattr $C$DW$31, DW_AT_TI_end_line(0x1fc)
     397                      .dwattr $C$DW$31, DW_AT_TI_end_column(0x01)
     398                      .dwendentry
     399                      .dwendtag $C$DW$31
     400              
     401 00000026               .sect   ".text"
     402                      .clink
     403                      .global _SPI_setPriority
     404              
     405              $C$DW$37        .dwtag  DW_TAG_subprogram, DW_AT_name("SPI_setPriority")
     406                      .dwattr $C$DW$37, DW_AT_low_pc(_SPI_setPriority)
     407                      .dwattr $C$DW$37, DW_AT_high_pc(0x00)
     408                      .dwattr $C$DW$37, DW_AT_TI_symbol_name("_SPI_setPriority")
     409                      .dwattr $C$DW$37, DW_AT_external
     410                      .dwattr $C$DW$37, DW_AT_TI_begin_file("C:/ti/motorware/motorware_1_01_00_14/sw/drivers/spi/src/32b/f2
     411                      .dwattr $C$DW$37, DW_AT_TI_begin_line(0x1e2)
     412                      .dwattr $C$DW$37, DW_AT_TI_begin_column(0x06)
     413                      .dwattr $C$DW$37, DW_AT_TI_max_frame_size(-2)
     414                      .dwpsn  file "C:/ti/motorware/motorware_1_01_00_14/sw/drivers/spi/src/32b/f28x/f2806x/spi.c",line 483
     415              
     416                      .dwfde $C$DW$CIE, _SPI_setPriority
     417              $C$DW$38        .dwtag  DW_TAG_formal_parameter, DW_AT_name("spiHandle")
     418                      .dwattr $C$DW$38, DW_AT_TI_symbol_name("_spiHandle")
     419                      .dwattr $C$DW$38, DW_AT_type(*$C$DW$T$26)
     420                      .dwattr $C$DW$38, DW_AT_location[DW_OP_reg12]
     421              $C$DW$39        .dwtag  DW_TAG_formal_parameter, DW_AT_name("priority")
     422                      .dwattr $C$DW$39, DW_AT_TI_symbol_name("_priority")
     423                      .dwattr $C$DW$39, DW_AT_type(*$C$DW$T$54)
     424                      .dwattr $C$DW$39, DW_AT_location[DW_OP_reg0]
     425              
     426              ;***************************************************************
     427              ;* FNAME: _SPI_setPriority              FR SIZE:   0           *
     428              ;*                                                             *
     429              ;* FUNCTION ENVIRONMENT                                        *
     430              ;*                                                             *
     431              ;* FUNCTION PROPERTIES                                         *
     432              ;*                            0 Parameter,  0 Auto,  0 SOE     *
     433              ;***************************************************************
     434              
     435              _SPI_setPriority:
TMS320C2000 Assembler PC v6.4.4 Wed Jul 08 12:49:30 2015

Tools Copyright (c) 1996-2015 Texas Instruments Incorporated
C:\Users\grant\AppData\Local\Temp\0440810                            PAGE    9

     436              ;* AR4   assigned to _spiHandle
     437              $C$DW$40        .dwtag  DW_TAG_variable, DW_AT_name("spiHandle")
     438                      .dwattr $C$DW$40, DW_AT_TI_symbol_name("_spiHandle")
     439                      .dwattr $C$DW$40, DW_AT_type(*$C$DW$T$68)
     440                      .dwattr $C$DW$40, DW_AT_location[DW_OP_reg12]
     441              ;* AL    assigned to _priority
     442              $C$DW$41        .dwtag  DW_TAG_variable, DW_AT_name("priority")
     443                      .dwattr $C$DW$41, DW_AT_TI_symbol_name("_priority")
     444                      .dwattr $C$DW$41, DW_AT_type(*$C$DW$T$54)
     445                      .dwattr $C$DW$41, DW_AT_location[DW_OP_reg0]
     446                      .dwcfi  cfa_offset, -2
     447                      .dwcfi  save_reg_to_mem, 26, 0
     448                      .dwpsn  file "C:/ti/motorware/motorware_1_01_00_14/sw/drivers/spi/src/32b/f28x/f2806x/spi.c",line 488
     449 00000026 83A4          MOVL      XAR5,XAR4             ; [CPU_] |488| 
     450 00000027 DD0F          ADDB      XAR5,#15              ; [CPU_] |488| 
     451 00000028 18C5          AND       *+XAR5[0],#0xffcf     ; [CPU_] |488| 
         00000029 FFCF 
     452                      .dwpsn  file "C:/ti/motorware/motorware_1_01_00_14/sw/drivers/spi/src/32b/f28x/f2806x/spi.c",line 490
     453 0000002a DC0F          ADDB      XAR4,#15              ; [CPU_] |490| 
     454 0000002b 98C4          OR        *+XAR4[0],AL          ; [CPU_] |490| 
     455              $C$DW$42        .dwtag  DW_TAG_TI_branch
     456                      .dwattr $C$DW$42, DW_AT_low_pc(0x00)
     457                      .dwattr $C$DW$42, DW_AT_TI_return
     458 0000002c 0006          LRETR     ; [CPU_] 
     459                      ; return occurs ; [] 
     460                      .dwattr $C$DW$37, DW_AT_TI_end_file("C:/ti/motorware/motorware_1_01_00_14/sw/drivers/spi/src/32b/f28x
     461                      .dwattr $C$DW$37, DW_AT_TI_end_line(0x1ed)
     462                      .dwattr $C$DW$37, DW_AT_TI_end_column(0x01)
     463                      .dwendentry
     464                      .dwendtag $C$DW$37
     465              
     466 0000002d               .sect   ".text"
     467                      .clink
     468                      .global _SPI_setMode
     469              
     470              $C$DW$43        .dwtag  DW_TAG_subprogram, DW_AT_name("SPI_setMode")
     471                      .dwattr $C$DW$43, DW_AT_low_pc(_SPI_setMode)
     472                      .dwattr $C$DW$43, DW_AT_high_pc(0x00)
     473                      .dwattr $C$DW$43, DW_AT_TI_symbol_name("_SPI_setMode")
     474                      .dwattr $C$DW$43, DW_AT_external
     475                      .dwattr $C$DW$43, DW_AT_TI_begin_file("C:/ti/motorware/motorware_1_01_00_14/sw/drivers/spi/src/32b/f2
     476                      .dwattr $C$DW$43, DW_AT_TI_begin_line(0x1d6)
     477                      .dwattr $C$DW$43, DW_AT_TI_begin_column(0x06)
     478                      .dwattr $C$DW$43, DW_AT_TI_max_frame_size(-2)
     479                      .dwpsn  file "C:/ti/motorware/motorware_1_01_00_14/sw/drivers/spi/src/32b/f28x/f2806x/spi.c",line 471
     480              
     481                      .dwfde $C$DW$CIE, _SPI_setMode
     482              $C$DW$44        .dwtag  DW_TAG_formal_parameter, DW_AT_name("spiHandle")
     483                      .dwattr $C$DW$44, DW_AT_TI_symbol_name("_spiHandle")
     484                      .dwattr $C$DW$44, DW_AT_type(*$C$DW$T$26)
     485                      .dwattr $C$DW$44, DW_AT_location[DW_OP_reg12]
     486              $C$DW$45        .dwtag  DW_TAG_formal_parameter, DW_AT_name("mode")
     487                      .dwattr $C$DW$45, DW_AT_TI_symbol_name("_mode")
     488                      .dwattr $C$DW$45, DW_AT_type(*$C$DW$T$51)
     489                      .dwattr $C$DW$45, DW_AT_location[DW_OP_reg0]
TMS320C2000 Assembler PC v6.4.4 Wed Jul 08 12:49:30 2015

Tools Copyright (c) 1996-2015 Texas Instruments Incorporated
C:\Users\grant\AppData\Local\Temp\0440810                            PAGE   10

     490              
     491              ;***************************************************************
     492              ;* FNAME: _SPI_setMode                  FR SIZE:   0           *
     493              ;*                                                             *
     494              ;* FUNCTION ENVIRONMENT                                        *
     495              ;*                                                             *
     496              ;* FUNCTION PROPERTIES                                         *
     497              ;*                            0 Parameter,  0 Auto,  0 SOE     *
     498              ;***************************************************************
     499              
     500              _SPI_setMode:
     501              ;* AR4   assigned to _spiHandle
     502              $C$DW$46        .dwtag  DW_TAG_variable, DW_AT_name("spiHandle")
     503                      .dwattr $C$DW$46, DW_AT_TI_symbol_name("_spiHandle")
     504                      .dwattr $C$DW$46, DW_AT_type(*$C$DW$T$68)
     505                      .dwattr $C$DW$46, DW_AT_location[DW_OP_reg12]
     506              ;* AL    assigned to _mode
     507              $C$DW$47        .dwtag  DW_TAG_variable, DW_AT_name("mode")
     508                      .dwattr $C$DW$47, DW_AT_TI_symbol_name("_mode")
     509                      .dwattr $C$DW$47, DW_AT_type(*$C$DW$T$51)
     510                      .dwattr $C$DW$47, DW_AT_location[DW_OP_reg0]
     511                      .dwcfi  cfa_offset, -2
     512                      .dwcfi  save_reg_to_mem, 26, 0
     513                      .dwpsn  file "C:/ti/motorware/motorware_1_01_00_14/sw/drivers/spi/src/32b/f28x/f2806x/spi.c",line 476
     514 0000002d 98CC          OR        *+XAR4[1],AL          ; [CPU_] |476| 
     515              $C$DW$48        .dwtag  DW_TAG_TI_branch
     516                      .dwattr $C$DW$48, DW_AT_low_pc(0x00)
     517                      .dwattr $C$DW$48, DW_AT_TI_return
     518 0000002e 0006          LRETR     ; [CPU_] 
     519                      ; return occurs ; [] 
     520                      .dwattr $C$DW$43, DW_AT_TI_end_file("C:/ti/motorware/motorware_1_01_00_14/sw/drivers/spi/src/32b/f28x
     521                      .dwattr $C$DW$43, DW_AT_TI_end_line(0x1df)
     522                      .dwattr $C$DW$43, DW_AT_TI_end_column(0x01)
     523                      .dwendentry
     524                      .dwendtag $C$DW$43
     525              
     526 0000002f               .sect   ".text"
     527                      .clink
     528                      .global _SPI_setClkPolarity
     529              
     530              $C$DW$49        .dwtag  DW_TAG_subprogram, DW_AT_name("SPI_setClkPolarity")
     531                      .dwattr $C$DW$49, DW_AT_low_pc(_SPI_setClkPolarity)
     532                      .dwattr $C$DW$49, DW_AT_high_pc(0x00)
     533                      .dwattr $C$DW$49, DW_AT_TI_symbol_name("_SPI_setClkPolarity")
     534                      .dwattr $C$DW$49, DW_AT_external
     535                      .dwattr $C$DW$49, DW_AT_TI_begin_file("C:/ti/motorware/motorware_1_01_00_14/sw/drivers/spi/src/32b/f2
     536                      .dwattr $C$DW$49, DW_AT_TI_begin_line(0x1c7)
     537                      .dwattr $C$DW$49, DW_AT_TI_begin_column(0x06)
     538                      .dwattr $C$DW$49, DW_AT_TI_max_frame_size(-2)
     539                      .dwpsn  file "C:/ti/motorware/motorware_1_01_00_14/sw/drivers/spi/src/32b/f28x/f2806x/spi.c",line 456
     540              
     541                      .dwfde $C$DW$CIE, _SPI_setClkPolarity
     542              $C$DW$50        .dwtag  DW_TAG_formal_parameter, DW_AT_name("spiHandle")
     543                      .dwattr $C$DW$50, DW_AT_TI_symbol_name("_spiHandle")
     544                      .dwattr $C$DW$50, DW_AT_type(*$C$DW$T$26)
TMS320C2000 Assembler PC v6.4.4 Wed Jul 08 12:49:30 2015

Tools Copyright (c) 1996-2015 Texas Instruments Incorporated
C:\Users\grant\AppData\Local\Temp\0440810                            PAGE   11

     545                      .dwattr $C$DW$50, DW_AT_location[DW_OP_reg12]
     546              $C$DW$51        .dwtag  DW_TAG_formal_parameter, DW_AT_name("polarity")
     547                      .dwattr $C$DW$51, DW_AT_TI_symbol_name("_polarity")
     548                      .dwattr $C$DW$51, DW_AT_type(*$C$DW$T$48)
     549                      .dwattr $C$DW$51, DW_AT_location[DW_OP_reg0]
     550              
     551              ;***************************************************************
     552              ;* FNAME: _SPI_setClkPolarity           FR SIZE:   0           *
     553              ;*                                                             *
     554              ;* FUNCTION ENVIRONMENT                                        *
     555              ;*                                                             *
     556              ;* FUNCTION PROPERTIES                                         *
     557              ;*                            0 Parameter,  0 Auto,  0 SOE     *
     558              ;***************************************************************
     559              
     560              _SPI_setClkPolarity:
     561              ;* AR4   assigned to _spiHandle
     562              $C$DW$52        .dwtag  DW_TAG_variable, DW_AT_name("spiHandle")
     563                      .dwattr $C$DW$52, DW_AT_TI_symbol_name("_spiHandle")
     564                      .dwattr $C$DW$52, DW_AT_type(*$C$DW$T$68)
     565                      .dwattr $C$DW$52, DW_AT_location[DW_OP_reg12]
     566              ;* AL    assigned to _polarity
     567              $C$DW$53        .dwtag  DW_TAG_variable, DW_AT_name("polarity")
     568                      .dwattr $C$DW$53, DW_AT_TI_symbol_name("_polarity")
     569                      .dwattr $C$DW$53, DW_AT_type(*$C$DW$T$48)
     570                      .dwattr $C$DW$53, DW_AT_location[DW_OP_reg0]
     571                      .dwcfi  cfa_offset, -2
     572                      .dwcfi  save_reg_to_mem, 26, 0
     573                      .dwpsn  file "C:/ti/motorware/motorware_1_01_00_14/sw/drivers/spi/src/32b/f28x/f2806x/spi.c",line 461
     574 0000002f 18C4          AND       *+XAR4[0],#0xffbf     ; [CPU_] |461| 
         00000030 FFBF 
     575                      .dwpsn  file "C:/ti/motorware/motorware_1_01_00_14/sw/drivers/spi/src/32b/f28x/f2806x/spi.c",line 464
     576 00000031 98C4          OR        *+XAR4[0],AL          ; [CPU_] |464| 
     577              $C$DW$54        .dwtag  DW_TAG_TI_branch
     578                      .dwattr $C$DW$54, DW_AT_low_pc(0x00)
     579                      .dwattr $C$DW$54, DW_AT_TI_return
     580 00000032 0006          LRETR     ; [CPU_] 
     581                      ; return occurs ; [] 
     582                      .dwattr $C$DW$49, DW_AT_TI_end_file("C:/ti/motorware/motorware_1_01_00_14/sw/drivers/spi/src/32b/f28x
     583                      .dwattr $C$DW$49, DW_AT_TI_end_line(0x1d3)
     584                      .dwattr $C$DW$49, DW_AT_TI_end_column(0x01)
     585                      .dwendentry
     586                      .dwendtag $C$DW$49
     587              
     588 00000033               .sect   ".text"
     589                      .clink
     590                      .global _SPI_setClkPhase
     591              
     592              $C$DW$55        .dwtag  DW_TAG_subprogram, DW_AT_name("SPI_setClkPhase")
     593                      .dwattr $C$DW$55, DW_AT_low_pc(_SPI_setClkPhase)
     594                      .dwattr $C$DW$55, DW_AT_high_pc(0x00)
     595                      .dwattr $C$DW$55, DW_AT_TI_symbol_name("_SPI_setClkPhase")
     596                      .dwattr $C$DW$55, DW_AT_external
     597                      .dwattr $C$DW$55, DW_AT_TI_begin_file("C:/ti/motorware/motorware_1_01_00_14/sw/drivers/spi/src/32b/f2
     598                      .dwattr $C$DW$55, DW_AT_TI_begin_line(0x1bb)
TMS320C2000 Assembler PC v6.4.4 Wed Jul 08 12:49:30 2015

Tools Copyright (c) 1996-2015 Texas Instruments Incorporated
C:\Users\grant\AppData\Local\Temp\0440810                            PAGE   12

     599                      .dwattr $C$DW$55, DW_AT_TI_begin_column(0x06)
     600                      .dwattr $C$DW$55, DW_AT_TI_max_frame_size(-2)
     601                      .dwpsn  file "C:/ti/motorware/motorware_1_01_00_14/sw/drivers/spi/src/32b/f28x/f2806x/spi.c",line 444
     602              
     603                      .dwfde $C$DW$CIE, _SPI_setClkPhase
     604              $C$DW$56        .dwtag  DW_TAG_formal_parameter, DW_AT_name("spiHandle")
     605                      .dwattr $C$DW$56, DW_AT_TI_symbol_name("_spiHandle")
     606                      .dwattr $C$DW$56, DW_AT_type(*$C$DW$T$26)
     607                      .dwattr $C$DW$56, DW_AT_location[DW_OP_reg12]
     608              $C$DW$57        .dwtag  DW_TAG_formal_parameter, DW_AT_name("clkPhase")
     609                      .dwattr $C$DW$57, DW_AT_TI_symbol_name("_clkPhase")
     610                      .dwattr $C$DW$57, DW_AT_type(*$C$DW$T$45)
     611                      .dwattr $C$DW$57, DW_AT_location[DW_OP_reg0]
     612              
     613              ;***************************************************************
     614              ;* FNAME: _SPI_setClkPhase              FR SIZE:   0           *
     615              ;*                                                             *
     616              ;* FUNCTION ENVIRONMENT                                        *
     617              ;*                                                             *
     618              ;* FUNCTION PROPERTIES                                         *
     619              ;*                            0 Parameter,  0 Auto,  0 SOE     *
     620              ;***************************************************************
     621              
     622              _SPI_setClkPhase:
     623              ;* AR4   assigned to _spiHandle
     624              $C$DW$58        .dwtag  DW_TAG_variable, DW_AT_name("spiHandle")
     625                      .dwattr $C$DW$58, DW_AT_TI_symbol_name("_spiHandle")
     626                      .dwattr $C$DW$58, DW_AT_type(*$C$DW$T$68)
     627                      .dwattr $C$DW$58, DW_AT_location[DW_OP_reg12]
     628              ;* AL    assigned to _clkPhase
     629              $C$DW$59        .dwtag  DW_TAG_variable, DW_AT_name("clkPhase")
     630                      .dwattr $C$DW$59, DW_AT_TI_symbol_name("_clkPhase")
     631                      .dwattr $C$DW$59, DW_AT_type(*$C$DW$T$45)
     632                      .dwattr $C$DW$59, DW_AT_location[DW_OP_reg0]
     633                      .dwcfi  cfa_offset, -2
     634                      .dwcfi  save_reg_to_mem, 26, 0
     635                      .dwpsn  file "C:/ti/motorware/motorware_1_01_00_14/sw/drivers/spi/src/32b/f28x/f2806x/spi.c",line 449
     636 00000033 98CC          OR        *+XAR4[1],AL          ; [CPU_] |449| 
     637              $C$DW$60        .dwtag  DW_TAG_TI_branch
     638                      .dwattr $C$DW$60, DW_AT_low_pc(0x00)
     639                      .dwattr $C$DW$60, DW_AT_TI_return
     640 00000034 0006          LRETR     ; [CPU_] 
     641                      ; return occurs ; [] 
     642                      .dwattr $C$DW$55, DW_AT_TI_end_file("C:/ti/motorware/motorware_1_01_00_14/sw/drivers/spi/src/32b/f28x
     643                      .dwattr $C$DW$55, DW_AT_TI_end_line(0x1c4)
     644                      .dwattr $C$DW$55, DW_AT_TI_end_column(0x01)
     645                      .dwendentry
     646                      .dwendtag $C$DW$55
     647              
     648 00000035               .sect   ".text"
     649                      .clink
     650                      .global _SPI_setCharLength
     651              
     652              $C$DW$61        .dwtag  DW_TAG_subprogram, DW_AT_name("SPI_setCharLength")
     653                      .dwattr $C$DW$61, DW_AT_low_pc(_SPI_setCharLength)
TMS320C2000 Assembler PC v6.4.4 Wed Jul 08 12:49:30 2015

Tools Copyright (c) 1996-2015 Texas Instruments Incorporated
C:\Users\grant\AppData\Local\Temp\0440810                            PAGE   13

     654                      .dwattr $C$DW$61, DW_AT_high_pc(0x00)
     655                      .dwattr $C$DW$61, DW_AT_TI_symbol_name("_SPI_setCharLength")
     656                      .dwattr $C$DW$61, DW_AT_external
     657                      .dwattr $C$DW$61, DW_AT_TI_begin_file("C:/ti/motorware/motorware_1_01_00_14/sw/drivers/spi/src/32b/f2
     658                      .dwattr $C$DW$61, DW_AT_TI_begin_line(0x1ac)
     659                      .dwattr $C$DW$61, DW_AT_TI_begin_column(0x06)
     660                      .dwattr $C$DW$61, DW_AT_TI_max_frame_size(-2)
     661                      .dwpsn  file "C:/ti/motorware/motorware_1_01_00_14/sw/drivers/spi/src/32b/f28x/f2806x/spi.c",line 429
     662              
     663                      .dwfde $C$DW$CIE, _SPI_setCharLength
     664              $C$DW$62        .dwtag  DW_TAG_formal_parameter, DW_AT_name("spiHandle")
     665                      .dwattr $C$DW$62, DW_AT_TI_symbol_name("_spiHandle")
     666                      .dwattr $C$DW$62, DW_AT_type(*$C$DW$T$26)
     667                      .dwattr $C$DW$62, DW_AT_location[DW_OP_reg12]
     668              $C$DW$63        .dwtag  DW_TAG_formal_parameter, DW_AT_name("length")
     669                      .dwattr $C$DW$63, DW_AT_TI_symbol_name("_length")
     670                      .dwattr $C$DW$63, DW_AT_type(*$C$DW$T$42)
     671                      .dwattr $C$DW$63, DW_AT_location[DW_OP_reg0]
     672              
     673              ;***************************************************************
     674              ;* FNAME: _SPI_setCharLength            FR SIZE:   0           *
     675              ;*                                                             *
     676              ;* FUNCTION ENVIRONMENT                                        *
     677              ;*                                                             *
     678              ;* FUNCTION PROPERTIES                                         *
     679              ;*                            0 Parameter,  0 Auto,  0 SOE     *
     680              ;***************************************************************
     681              
     682              _SPI_setCharLength:
     683              ;* AR4   assigned to _spiHandle
     684              $C$DW$64        .dwtag  DW_TAG_variable, DW_AT_name("spiHandle")
     685                      .dwattr $C$DW$64, DW_AT_TI_symbol_name("_spiHandle")
     686                      .dwattr $C$DW$64, DW_AT_type(*$C$DW$T$68)
     687                      .dwattr $C$DW$64, DW_AT_location[DW_OP_reg12]
     688              ;* AL    assigned to _length
     689              $C$DW$65        .dwtag  DW_TAG_variable, DW_AT_name("length")
     690                      .dwattr $C$DW$65, DW_AT_TI_symbol_name("_length")
     691                      .dwattr $C$DW$65, DW_AT_type(*$C$DW$T$42)
     692                      .dwattr $C$DW$65, DW_AT_location[DW_OP_reg0]
     693                      .dwcfi  cfa_offset, -2
     694                      .dwcfi  save_reg_to_mem, 26, 0
     695                      .dwpsn  file "C:/ti/motorware/motorware_1_01_00_14/sw/drivers/spi/src/32b/f28x/f2806x/spi.c",line 434
     696 00000035 18C4          AND       *+XAR4[0],#0xfff0     ; [CPU_] |434| 
         00000036 FFF0 
     697                      .dwpsn  file "C:/ti/motorware/motorware_1_01_00_14/sw/drivers/spi/src/32b/f28x/f2806x/spi.c",line 437
     698 00000037 98C4          OR        *+XAR4[0],AL          ; [CPU_] |437| 
     699              $C$DW$66        .dwtag  DW_TAG_TI_branch
     700                      .dwattr $C$DW$66, DW_AT_low_pc(0x00)
     701                      .dwattr $C$DW$66, DW_AT_TI_return
     702 00000038 0006          LRETR     ; [CPU_] 
     703                      ; return occurs ; [] 
     704                      .dwattr $C$DW$61, DW_AT_TI_end_file("C:/ti/motorware/motorware_1_01_00_14/sw/drivers/spi/src/32b/f28x
     705                      .dwattr $C$DW$61, DW_AT_TI_end_line(0x1b8)
     706                      .dwattr $C$DW$61, DW_AT_TI_end_column(0x01)
     707                      .dwendentry
TMS320C2000 Assembler PC v6.4.4 Wed Jul 08 12:49:30 2015

Tools Copyright (c) 1996-2015 Texas Instruments Incorporated
C:\Users\grant\AppData\Local\Temp\0440810                            PAGE   14

     708                      .dwendtag $C$DW$61
     709              
     710 00000039               .sect   ".text"
     711                      .clink
     712                      .global _SPI_setBaudRate
     713              
     714              $C$DW$67        .dwtag  DW_TAG_subprogram, DW_AT_name("SPI_setBaudRate")
     715                      .dwattr $C$DW$67, DW_AT_low_pc(_SPI_setBaudRate)
     716                      .dwattr $C$DW$67, DW_AT_high_pc(0x00)
     717                      .dwattr $C$DW$67, DW_AT_TI_symbol_name("_SPI_setBaudRate")
     718                      .dwattr $C$DW$67, DW_AT_external
     719                      .dwattr $C$DW$67, DW_AT_TI_begin_file("C:/ti/motorware/motorware_1_01_00_14/sw/drivers/spi/src/32b/f2
     720                      .dwattr $C$DW$67, DW_AT_TI_begin_line(0x1a2)
     721                      .dwattr $C$DW$67, DW_AT_TI_begin_column(0x06)
     722                      .dwattr $C$DW$67, DW_AT_TI_max_frame_size(-2)
     723                      .dwpsn  file "C:/ti/motorware/motorware_1_01_00_14/sw/drivers/spi/src/32b/f28x/f2806x/spi.c",line 419
     724              
     725                      .dwfde $C$DW$CIE, _SPI_setBaudRate
     726              $C$DW$68        .dwtag  DW_TAG_formal_parameter, DW_AT_name("spiHandle")
     727                      .dwattr $C$DW$68, DW_AT_TI_symbol_name("_spiHandle")
     728                      .dwattr $C$DW$68, DW_AT_type(*$C$DW$T$26)
     729                      .dwattr $C$DW$68, DW_AT_location[DW_OP_reg12]
     730              $C$DW$69        .dwtag  DW_TAG_formal_parameter, DW_AT_name("baudRate")
     731                      .dwattr $C$DW$69, DW_AT_TI_symbol_name("_baudRate")
     732                      .dwattr $C$DW$69, DW_AT_type(*$C$DW$T$39)
     733                      .dwattr $C$DW$69, DW_AT_location[DW_OP_reg0]
     734              
     735              ;***************************************************************
     736              ;* FNAME: _SPI_setBaudRate              FR SIZE:   0           *
     737              ;*                                                             *
     738              ;* FUNCTION ENVIRONMENT                                        *
     739              ;*                                                             *
     740              ;* FUNCTION PROPERTIES                                         *
     741              ;*                            0 Parameter,  0 Auto,  0 SOE     *
     742              ;***************************************************************
     743              
     744              _SPI_setBaudRate:
     745              ;* AR4   assigned to _spiHandle
     746              $C$DW$70        .dwtag  DW_TAG_variable, DW_AT_name("spiHandle")
     747                      .dwattr $C$DW$70, DW_AT_TI_symbol_name("_spiHandle")
     748                      .dwattr $C$DW$70, DW_AT_type(*$C$DW$T$68)
     749                      .dwattr $C$DW$70, DW_AT_location[DW_OP_reg12]
     750              ;* AL    assigned to _baudRate
     751              $C$DW$71        .dwtag  DW_TAG_variable, DW_AT_name("baudRate")
     752                      .dwattr $C$DW$71, DW_AT_TI_symbol_name("_baudRate")
     753                      .dwattr $C$DW$71, DW_AT_type(*$C$DW$T$39)
     754                      .dwattr $C$DW$71, DW_AT_location[DW_OP_reg0]
     755                      .dwcfi  cfa_offset, -2
     756                      .dwcfi  save_reg_to_mem, 26, 0
     757                      .dwpsn  file "C:/ti/motorware/motorware_1_01_00_14/sw/drivers/spi/src/32b/f28x/f2806x/spi.c",line 423
     758 00000039 96E4          MOV       *+XAR4[4],AL          ; [CPU_] |423| 
     759              $C$DW$72        .dwtag  DW_TAG_TI_branch
     760                      .dwattr $C$DW$72, DW_AT_low_pc(0x00)
     761                      .dwattr $C$DW$72, DW_AT_TI_return
     762 0000003a 0006          LRETR     ; [CPU_] 
TMS320C2000 Assembler PC v6.4.4 Wed Jul 08 12:49:30 2015

Tools Copyright (c) 1996-2015 Texas Instruments Incorporated
C:\Users\grant\AppData\Local\Temp\0440810                            PAGE   15

     763                      ; return occurs ; [] 
     764                      .dwattr $C$DW$67, DW_AT_TI_end_file("C:/ti/motorware/motorware_1_01_00_14/sw/drivers/spi/src/32b/f28x
     765                      .dwattr $C$DW$67, DW_AT_TI_end_line(0x1a9)
     766                      .dwattr $C$DW$67, DW_AT_TI_end_column(0x01)
     767                      .dwendentry
     768                      .dwendtag $C$DW$67
     769              
     770 0000003b               .sect   ".text"
     771                      .clink
     772                      .global _SPI_resetTxFifo
     773              
     774              $C$DW$73        .dwtag  DW_TAG_subprogram, DW_AT_name("SPI_resetTxFifo")
     775                      .dwattr $C$DW$73, DW_AT_low_pc(_SPI_resetTxFifo)
     776                      .dwattr $C$DW$73, DW_AT_high_pc(0x00)
     777                      .dwattr $C$DW$73, DW_AT_TI_symbol_name("_SPI_resetTxFifo")
     778                      .dwattr $C$DW$73, DW_AT_external
     779                      .dwattr $C$DW$73, DW_AT_TI_begin_file("C:/ti/motorware/motorware_1_01_00_14/sw/drivers/spi/src/32b/f2
     780                      .dwattr $C$DW$73, DW_AT_TI_begin_line(0x196)
     781                      .dwattr $C$DW$73, DW_AT_TI_begin_column(0x06)
     782                      .dwattr $C$DW$73, DW_AT_TI_max_frame_size(-2)
     783                      .dwpsn  file "C:/ti/motorware/motorware_1_01_00_14/sw/drivers/spi/src/32b/f28x/f2806x/spi.c",line 407
     784              
     785                      .dwfde $C$DW$CIE, _SPI_resetTxFifo
     786              $C$DW$74        .dwtag  DW_TAG_formal_parameter, DW_AT_name("spiHandle")
     787                      .dwattr $C$DW$74, DW_AT_TI_symbol_name("_spiHandle")
     788                      .dwattr $C$DW$74, DW_AT_type(*$C$DW$T$26)
     789                      .dwattr $C$DW$74, DW_AT_location[DW_OP_reg12]
     790              
     791              ;***************************************************************
     792              ;* FNAME: _SPI_resetTxFifo              FR SIZE:   0           *
     793              ;*                                                             *
     794              ;* FUNCTION ENVIRONMENT                                        *
     795              ;*                                                             *
     796              ;* FUNCTION PROPERTIES                                         *
     797              ;*                            0 Parameter,  0 Auto,  0 SOE     *
     798              ;***************************************************************
     799              
     800 0000003b       _SPI_resetTxFifo:
     801                      .dwcfi  cfa_offset, -2
     802                      .dwcfi  save_reg_to_mem, 26, 0
     803                      .dwpsn  file "C:/ti/motorware/motorware_1_01_00_14/sw/drivers/spi/src/32b/f28x/f2806x/spi.c",line 412
     804 0000003b DC0A          ADDB      XAR4,#10              ; [CPU_] |412| 
     805 0000003c 18C4          AND       *+XAR4[0],#0xdfff     ; [CPU_] |412| 
         0000003d DFFF 
     806              $C$DW$75        .dwtag  DW_TAG_TI_branch
     807                      .dwattr $C$DW$75, DW_AT_low_pc(0x00)
     808                      .dwattr $C$DW$75, DW_AT_TI_return
     809 0000003e 0006          LRETR     ; [CPU_] 
     810                      ; return occurs ; [] 
     811                      .dwattr $C$DW$73, DW_AT_TI_end_file("C:/ti/motorware/motorware_1_01_00_14/sw/drivers/spi/src/32b/f28x
     812                      .dwattr $C$DW$73, DW_AT_TI_end_line(0x19f)
     813                      .dwattr $C$DW$73, DW_AT_TI_end_column(0x01)
     814                      .dwendentry
     815                      .dwendtag $C$DW$73
     816              
TMS320C2000 Assembler PC v6.4.4 Wed Jul 08 12:49:30 2015

Tools Copyright (c) 1996-2015 Texas Instruments Incorporated
C:\Users\grant\AppData\Local\Temp\0440810                            PAGE   16

     817 0000003f               .sect   ".text"
     818                      .clink
     819                      .global _SPI_resetRxFifo
     820              
     821              $C$DW$76        .dwtag  DW_TAG_subprogram, DW_AT_name("SPI_resetRxFifo")
     822                      .dwattr $C$DW$76, DW_AT_low_pc(_SPI_resetRxFifo)
     823                      .dwattr $C$DW$76, DW_AT_high_pc(0x00)
     824                      .dwattr $C$DW$76, DW_AT_TI_symbol_name("_SPI_resetRxFifo")
     825                      .dwattr $C$DW$76, DW_AT_external
     826                      .dwattr $C$DW$76, DW_AT_TI_begin_file("C:/ti/motorware/motorware_1_01_00_14/sw/drivers/spi/src/32b/f2
     827                      .dwattr $C$DW$76, DW_AT_TI_begin_line(0x18a)
     828                      .dwattr $C$DW$76, DW_AT_TI_begin_column(0x06)
     829                      .dwattr $C$DW$76, DW_AT_TI_max_frame_size(-2)
     830                      .dwpsn  file "C:/ti/motorware/motorware_1_01_00_14/sw/drivers/spi/src/32b/f28x/f2806x/spi.c",line 395
     831              
     832                      .dwfde $C$DW$CIE, _SPI_resetRxFifo
     833              $C$DW$77        .dwtag  DW_TAG_formal_parameter, DW_AT_name("spiHandle")
     834                      .dwattr $C$DW$77, DW_AT_TI_symbol_name("_spiHandle")
     835                      .dwattr $C$DW$77, DW_AT_type(*$C$DW$T$26)
     836                      .dwattr $C$DW$77, DW_AT_location[DW_OP_reg12]
     837              
     838              ;***************************************************************
     839              ;* FNAME: _SPI_resetRxFifo              FR SIZE:   0           *
     840              ;*                                                             *
     841              ;* FUNCTION ENVIRONMENT                                        *
     842              ;*                                                             *
     843              ;* FUNCTION PROPERTIES                                         *
     844              ;*                            0 Parameter,  0 Auto,  0 SOE     *
     845              ;***************************************************************
     846              
     847 0000003f       _SPI_resetRxFifo:
     848                      .dwcfi  cfa_offset, -2
     849                      .dwcfi  save_reg_to_mem, 26, 0
     850                      .dwpsn  file "C:/ti/motorware/motorware_1_01_00_14/sw/drivers/spi/src/32b/f28x/f2806x/spi.c",line 400
     851 0000003f DC0B          ADDB      XAR4,#11              ; [CPU_] |400| 
     852 00000040 18C4          AND       *+XAR4[0],#0xdfff     ; [CPU_] |400| 
         00000041 DFFF 
     853              $C$DW$78        .dwtag  DW_TAG_TI_branch
     854                      .dwattr $C$DW$78, DW_AT_low_pc(0x00)
     855                      .dwattr $C$DW$78, DW_AT_TI_return
     856 00000042 0006          LRETR     ; [CPU_] 
     857                      ; return occurs ; [] 
     858                      .dwattr $C$DW$76, DW_AT_TI_end_file("C:/ti/motorware/motorware_1_01_00_14/sw/drivers/spi/src/32b/f28x
     859                      .dwattr $C$DW$76, DW_AT_TI_end_line(0x193)
     860                      .dwattr $C$DW$76, DW_AT_TI_end_column(0x01)
     861                      .dwendentry
     862                      .dwendtag $C$DW$76
     863              
     864 00000043               .sect   ".text"
     865                      .clink
     866                      .global _SPI_resetChannels
     867              
     868              $C$DW$79        .dwtag  DW_TAG_subprogram, DW_AT_name("SPI_resetChannels")
     869                      .dwattr $C$DW$79, DW_AT_low_pc(_SPI_resetChannels)
     870                      .dwattr $C$DW$79, DW_AT_high_pc(0x00)
TMS320C2000 Assembler PC v6.4.4 Wed Jul 08 12:49:30 2015

Tools Copyright (c) 1996-2015 Texas Instruments Incorporated
C:\Users\grant\AppData\Local\Temp\0440810                            PAGE   17

     871                      .dwattr $C$DW$79, DW_AT_TI_symbol_name("_SPI_resetChannels")
     872                      .dwattr $C$DW$79, DW_AT_external
     873                      .dwattr $C$DW$79, DW_AT_TI_begin_file("C:/ti/motorware/motorware_1_01_00_14/sw/drivers/spi/src/32b/f2
     874                      .dwattr $C$DW$79, DW_AT_TI_begin_line(0x17e)
     875                      .dwattr $C$DW$79, DW_AT_TI_begin_column(0x06)
     876                      .dwattr $C$DW$79, DW_AT_TI_max_frame_size(-2)
     877                      .dwpsn  file "C:/ti/motorware/motorware_1_01_00_14/sw/drivers/spi/src/32b/f28x/f2806x/spi.c",line 383
     878              
     879                      .dwfde $C$DW$CIE, _SPI_resetChannels
     880              $C$DW$80        .dwtag  DW_TAG_formal_parameter, DW_AT_name("spiHandle")
     881                      .dwattr $C$DW$80, DW_AT_TI_symbol_name("_spiHandle")
     882                      .dwattr $C$DW$80, DW_AT_type(*$C$DW$T$26)
     883                      .dwattr $C$DW$80, DW_AT_location[DW_OP_reg12]
     884              
     885              ;***************************************************************
     886              ;* FNAME: _SPI_resetChannels            FR SIZE:   0           *
     887              ;*                                                             *
     888              ;* FUNCTION ENVIRONMENT                                        *
     889              ;*                                                             *
     890              ;* FUNCTION PROPERTIES                                         *
     891              ;*                            0 Parameter,  0 Auto,  0 SOE     *
     892              ;***************************************************************
     893              
     894 00000043       _SPI_resetChannels:
     895                      .dwcfi  cfa_offset, -2
     896                      .dwcfi  save_reg_to_mem, 26, 0
     897                      .dwpsn  file "C:/ti/motorware/motorware_1_01_00_14/sw/drivers/spi/src/32b/f28x/f2806x/spi.c",line 388
     898 00000043 DC0A          ADDB      XAR4,#10              ; [CPU_] |388| 
     899 00000044 18C4          AND       *+XAR4[0],#0x7fff     ; [CPU_] |388| 
         00000045 7FFF 
     900              $C$DW$81        .dwtag  DW_TAG_TI_branch
     901                      .dwattr $C$DW$81, DW_AT_low_pc(0x00)
     902                      .dwattr $C$DW$81, DW_AT_TI_return
     903 00000046 0006          LRETR     ; [CPU_] 
     904                      ; return occurs ; [] 
     905                      .dwattr $C$DW$79, DW_AT_TI_end_file("C:/ti/motorware/motorware_1_01_00_14/sw/drivers/spi/src/32b/f28x
     906                      .dwattr $C$DW$79, DW_AT_TI_end_line(0x187)
     907                      .dwattr $C$DW$79, DW_AT_TI_end_column(0x01)
     908                      .dwendentry
     909                      .dwendtag $C$DW$79
     910              
     911 00000047               .sect   ".text"
     912                      .clink
     913                      .global _SPI_reset
     914              
     915              $C$DW$82        .dwtag  DW_TAG_subprogram, DW_AT_name("SPI_reset")
     916                      .dwattr $C$DW$82, DW_AT_low_pc(_SPI_reset)
     917                      .dwattr $C$DW$82, DW_AT_high_pc(0x00)
     918                      .dwattr $C$DW$82, DW_AT_TI_symbol_name("_SPI_reset")
     919                      .dwattr $C$DW$82, DW_AT_external
     920                      .dwattr $C$DW$82, DW_AT_TI_begin_file("C:/ti/motorware/motorware_1_01_00_14/sw/drivers/spi/src/32b/f2
     921                      .dwattr $C$DW$82, DW_AT_TI_begin_line(0x172)
     922                      .dwattr $C$DW$82, DW_AT_TI_begin_column(0x06)
     923                      .dwattr $C$DW$82, DW_AT_TI_max_frame_size(-2)
     924                      .dwpsn  file "C:/ti/motorware/motorware_1_01_00_14/sw/drivers/spi/src/32b/f28x/f2806x/spi.c",line 371
TMS320C2000 Assembler PC v6.4.4 Wed Jul 08 12:49:30 2015

Tools Copyright (c) 1996-2015 Texas Instruments Incorporated
C:\Users\grant\AppData\Local\Temp\0440810                            PAGE   18

     925              
     926                      .dwfde $C$DW$CIE, _SPI_reset
     927              $C$DW$83        .dwtag  DW_TAG_formal_parameter, DW_AT_name("spiHandle")
     928                      .dwattr $C$DW$83, DW_AT_TI_symbol_name("_spiHandle")
     929                      .dwattr $C$DW$83, DW_AT_type(*$C$DW$T$26)
     930                      .dwattr $C$DW$83, DW_AT_location[DW_OP_reg12]
     931              
     932              ;***************************************************************
     933              ;* FNAME: _SPI_reset                    FR SIZE:   0           *
     934              ;*                                                             *
     935              ;* FUNCTION ENVIRONMENT                                        *
     936              ;*                                                             *
     937              ;* FUNCTION PROPERTIES                                         *
     938              ;*                            0 Parameter,  0 Auto,  0 SOE     *
     939              ;***************************************************************
     940              
     941              _SPI_reset:
     942              ;* AR4   assigned to _spiHandle
     943              $C$DW$84        .dwtag  DW_TAG_variable, DW_AT_name("spiHandle")
     944                      .dwattr $C$DW$84, DW_AT_TI_symbol_name("_spiHandle")
     945                      .dwattr $C$DW$84, DW_AT_type(*$C$DW$T$68)
     946                      .dwattr $C$DW$84, DW_AT_location[DW_OP_reg12]
     947                      .dwcfi  cfa_offset, -2
     948                      .dwcfi  save_reg_to_mem, 26, 0
     949                      .dwpsn  file "C:/ti/motorware/motorware_1_01_00_14/sw/drivers/spi/src/32b/f28x/f2806x/spi.c",line 376
     950 00000047 18C4          AND       *+XAR4[0],#0xff7f     ; [CPU_] |376| 
         00000048 FF7F 
     951              $C$DW$85        .dwtag  DW_TAG_TI_branch
     952                      .dwattr $C$DW$85, DW_AT_low_pc(0x00)
     953                      .dwattr $C$DW$85, DW_AT_TI_return
     954 00000049 0006          LRETR     ; [CPU_] 
     955                      ; return occurs ; [] 
     956                      .dwattr $C$DW$82, DW_AT_TI_end_file("C:/ti/motorware/motorware_1_01_00_14/sw/drivers/spi/src/32b/f28x
     957                      .dwattr $C$DW$82, DW_AT_TI_end_line(0x17b)
     958                      .dwattr $C$DW$82, DW_AT_TI_end_column(0x01)
     959                      .dwendentry
     960                      .dwendtag $C$DW$82
     961              
     962 0000004a               .sect   ".text"
     963                      .clink
     964                      .global _SPI_init
     965              
     966              $C$DW$86        .dwtag  DW_TAG_subprogram, DW_AT_name("SPI_init")
     967                      .dwattr $C$DW$86, DW_AT_low_pc(_SPI_init)
     968                      .dwattr $C$DW$86, DW_AT_high_pc(0x00)
     969                      .dwattr $C$DW$86, DW_AT_TI_symbol_name("_SPI_init")
     970                      .dwattr $C$DW$86, DW_AT_external
     971                      .dwattr $C$DW$86, DW_AT_type(*$C$DW$T$26)
     972                      .dwattr $C$DW$86, DW_AT_TI_begin_file("C:/ti/motorware/motorware_1_01_00_14/sw/drivers/spi/src/32b/f2
     973                      .dwattr $C$DW$86, DW_AT_TI_begin_line(0x163)
     974                      .dwattr $C$DW$86, DW_AT_TI_begin_column(0x0c)
     975                      .dwattr $C$DW$86, DW_AT_TI_max_frame_size(-2)
     976                      .dwpsn  file "C:/ti/motorware/motorware_1_01_00_14/sw/drivers/spi/src/32b/f28x/f2806x/spi.c",line 356
     977              
     978                      .dwfde $C$DW$CIE, _SPI_init
TMS320C2000 Assembler PC v6.4.4 Wed Jul 08 12:49:30 2015

Tools Copyright (c) 1996-2015 Texas Instruments Incorporated
C:\Users\grant\AppData\Local\Temp\0440810                            PAGE   19

     979              $C$DW$87        .dwtag  DW_TAG_formal_parameter, DW_AT_name("pMemory")
     980                      .dwattr $C$DW$87, DW_AT_TI_symbol_name("_pMemory")
     981                      .dwattr $C$DW$87, DW_AT_type(*$C$DW$T$3)
     982                      .dwattr $C$DW$87, DW_AT_location[DW_OP_reg12]
     983              $C$DW$88        .dwtag  DW_TAG_formal_parameter, DW_AT_name("numBytes")
     984                      .dwattr $C$DW$88, DW_AT_TI_symbol_name("_numBytes")
     985                      .dwattr $C$DW$88, DW_AT_type(*$C$DW$T$70)
     986                      .dwattr $C$DW$88, DW_AT_location[DW_OP_reg0]
     987              
     988              ;***************************************************************
     989              ;* FNAME: _SPI_init                     FR SIZE:   0           *
     990              ;*                                                             *
     991              ;* FUNCTION ENVIRONMENT                                        *
     992              ;*                                                             *
     993              ;* FUNCTION PROPERTIES                                         *
     994              ;*                            0 Parameter,  0 Auto,  0 SOE     *
     995              ;***************************************************************
     996              
     997              _SPI_init:
     998              ;* AR6   assigned to _numBytes
     999              $C$DW$89        .dwtag  DW_TAG_variable, DW_AT_name("numBytes")
    1000                      .dwattr $C$DW$89, DW_AT_TI_symbol_name("_numBytes")
    1001                      .dwattr $C$DW$89, DW_AT_type(*$C$DW$T$70)
    1002                      .dwattr $C$DW$89, DW_AT_location[DW_OP_reg16]
    1003                      .dwcfi  cfa_offset, -2
    1004                      .dwcfi  save_reg_to_mem, 26, 0
    1005 0000004a 1EA6          MOVL      XAR6,ACC              ; [CPU_] |356| 
    1006                      .dwpsn  file "C:/ti/motorware/motorware_1_01_00_14/sw/drivers/spi/src/32b/f28x/f2806x/spi.c",line 361
    1007 0000004b 0210          MOVB      ACC,#16               ; [CPU_] |361| 
    1008 0000004c 0FA6          CMPL      ACC,XAR6              ; [CPU_] |361| 
    1009 0000004d 56C9          BF        $C$L1,LOS             ; [CPU_] |361| 
         0000004e 0003 
    1010                      ; branchcc occurs ; [] |361| 
    1011 0000004f D400          MOVB      XAR4,#0               ; [CPU_] |361| 
    1012              $C$L1:    
    1013              $C$DW$90        .dwtag  DW_TAG_TI_branch
    1014                      .dwattr $C$DW$90, DW_AT_low_pc(0x00)
    1015                      .dwattr $C$DW$90, DW_AT_TI_return
    1016 00000050 0006          LRETR     ; [CPU_] 
    1017                      ; return occurs ; [] 
    1018                      .dwattr $C$DW$86, DW_AT_TI_end_file("C:/ti/motorware/motorware_1_01_00_14/sw/drivers/spi/src/32b/f28x
    1019                      .dwattr $C$DW$86, DW_AT_TI_end_line(0x16f)
    1020                      .dwattr $C$DW$86, DW_AT_TI_end_column(0x01)
    1021                      .dwendentry
    1022                      .dwendtag $C$DW$86
    1023              
    1024 00000051               .sect   ".text"
    1025                      .clink
    1026                      .global _SPI_getTxFifoStatus
    1027              
    1028              $C$DW$91        .dwtag  DW_TAG_subprogram, DW_AT_name("SPI_getTxFifoStatus")
    1029                      .dwattr $C$DW$91, DW_AT_low_pc(_SPI_getTxFifoStatus)
    1030                      .dwattr $C$DW$91, DW_AT_high_pc(0x00)
    1031                      .dwattr $C$DW$91, DW_AT_TI_symbol_name("_SPI_getTxFifoStatus")
    1032                      .dwattr $C$DW$91, DW_AT_external
TMS320C2000 Assembler PC v6.4.4 Wed Jul 08 12:49:30 2015

Tools Copyright (c) 1996-2015 Texas Instruments Incorporated
C:\Users\grant\AppData\Local\Temp\0440810                            PAGE   20

    1033                      .dwattr $C$DW$91, DW_AT_type(*$C$DW$T$24)
    1034                      .dwattr $C$DW$91, DW_AT_TI_begin_file("C:/ti/motorware/motorware_1_01_00_14/sw/drivers/spi/src/32b/f2
    1035                      .dwattr $C$DW$91, DW_AT_TI_begin_line(0x13f)
    1036                      .dwattr $C$DW$91, DW_AT_TI_begin_column(0x12)
    1037                      .dwattr $C$DW$91, DW_AT_TI_max_frame_size(-2)
    1038                      .dwpsn  file "C:/ti/motorware/motorware_1_01_00_14/sw/drivers/spi/src/32b/f28x/f2806x/spi.c",line 320
    1039              
    1040                      .dwfde $C$DW$CIE, _SPI_getTxFifoStatus
    1041              $C$DW$92        .dwtag  DW_TAG_formal_parameter, DW_AT_name("spiHandle")
    1042                      .dwattr $C$DW$92, DW_AT_TI_symbol_name("_spiHandle")
    1043                      .dwattr $C$DW$92, DW_AT_type(*$C$DW$T$26)
    1044                      .dwattr $C$DW$92, DW_AT_location[DW_OP_reg12]
    1045              
    1046              ;***************************************************************
    1047              ;* FNAME: _SPI_getTxFifoStatus          FR SIZE:   0           *
    1048              ;*                                                             *
    1049              ;* FUNCTION ENVIRONMENT                                        *
    1050              ;*                                                             *
    1051              ;* FUNCTION PROPERTIES                                         *
    1052              ;*                            0 Parameter,  0 Auto,  0 SOE     *
    1053              ;***************************************************************
    1054              
    1055              _SPI_getTxFifoStatus:
    1056              ;* AR4   assigned to _spiHandle
    1057              $C$DW$93        .dwtag  DW_TAG_variable, DW_AT_name("spiHandle")
    1058                      .dwattr $C$DW$93, DW_AT_TI_symbol_name("_spiHandle")
    1059                      .dwattr $C$DW$93, DW_AT_type(*$C$DW$T$68)
    1060                      .dwattr $C$DW$93, DW_AT_location[DW_OP_reg12]
    1061              ;* AL    assigned to _status
    1062              $C$DW$94        .dwtag  DW_TAG_variable, DW_AT_name("status")
    1063                      .dwattr $C$DW$94, DW_AT_TI_symbol_name("_status")
    1064                      .dwattr $C$DW$94, DW_AT_type(*$C$DW$T$24)
    1065                      .dwattr $C$DW$94, DW_AT_location[DW_OP_reg0]
    1066                      .dwcfi  cfa_offset, -2
    1067                      .dwcfi  save_reg_to_mem, 26, 0
    1068                      .dwpsn  file "C:/ti/motorware/motorware_1_01_00_14/sw/drivers/spi/src/32b/f28x/f2806x/spi.c",line 325
    1069 00000051 D00A          MOVB      XAR0,#10              ; [CPU_] |325| 
    1070 00000052 CC94          AND       AL,*+XAR4[AR0],#0x1f00 ; [CPU_] |325| 
         00000053 1F00 
    1071              $C$DW$95        .dwtag  DW_TAG_TI_branch
    1072                      .dwattr $C$DW$95, DW_AT_low_pc(0x00)
    1073                      .dwattr $C$DW$95, DW_AT_TI_return
    1074 00000054 0006          LRETR     ; [CPU_] 
    1075                      ; return occurs ; [] 
    1076                      .dwattr $C$DW$91, DW_AT_TI_end_file("C:/ti/motorware/motorware_1_01_00_14/sw/drivers/spi/src/32b/f28x
    1077                      .dwattr $C$DW$91, DW_AT_TI_end_line(0x148)
    1078                      .dwattr $C$DW$91, DW_AT_TI_end_column(0x01)
    1079                      .dwendentry
    1080                      .dwendtag $C$DW$91
    1081              
    1082 00000055               .sect   ".text"
    1083                      .clink
    1084                      .global _SPI_getTxBufferStatus
    1085              
    1086              $C$DW$96        .dwtag  DW_TAG_subprogram, DW_AT_name("SPI_getTxBufferStatus")
TMS320C2000 Assembler PC v6.4.4 Wed Jul 08 12:49:30 2015

Tools Copyright (c) 1996-2015 Texas Instruments Incorporated
C:\Users\grant\AppData\Local\Temp\0440810                            PAGE   21

    1087                      .dwattr $C$DW$96, DW_AT_low_pc(_SPI_getTxBufferStatus)
    1088                      .dwattr $C$DW$96, DW_AT_high_pc(0x00)
    1089                      .dwattr $C$DW$96, DW_AT_TI_symbol_name("_SPI_getTxBufferStatus")
    1090                      .dwattr $C$DW$96, DW_AT_external
    1091                      .dwattr $C$DW$96, DW_AT_type(*$C$DW$T$34)
    1092                      .dwattr $C$DW$96, DW_AT_TI_begin_file("C:/ti/motorware/motorware_1_01_00_14/sw/drivers/spi/src/32b/f2
    1093                      .dwattr $C$DW$96, DW_AT_TI_begin_line(0x157)
    1094                      .dwattr $C$DW$96, DW_AT_TI_begin_column(0x16)
    1095                      .dwattr $C$DW$96, DW_AT_TI_max_frame_size(-2)
    1096                      .dwpsn  file "C:/ti/motorware/motorware_1_01_00_14/sw/drivers/spi/src/32b/f28x/f2806x/spi.c",line 344
    1097              
    1098                      .dwfde $C$DW$CIE, _SPI_getTxBufferStatus
    1099              $C$DW$97        .dwtag  DW_TAG_formal_parameter, DW_AT_name("spiHandle")
    1100                      .dwattr $C$DW$97, DW_AT_TI_symbol_name("_spiHandle")
    1101                      .dwattr $C$DW$97, DW_AT_type(*$C$DW$T$26)
    1102                      .dwattr $C$DW$97, DW_AT_location[DW_OP_reg12]
    1103              
    1104              ;***************************************************************
    1105              ;* FNAME: _SPI_getTxBufferStatus        FR SIZE:   0           *
    1106              ;*                                                             *
    1107              ;* FUNCTION ENVIRONMENT                                        *
    1108              ;*                                                             *
    1109              ;* FUNCTION PROPERTIES                                         *
    1110              ;*                            0 Parameter,  0 Auto,  0 SOE     *
    1111              ;***************************************************************
    1112              
    1113              _SPI_getTxBufferStatus:
    1114              ;* AR4   assigned to _spiHandle
    1115              $C$DW$98        .dwtag  DW_TAG_variable, DW_AT_name("spiHandle")
    1116                      .dwattr $C$DW$98, DW_AT_TI_symbol_name("_spiHandle")
    1117                      .dwattr $C$DW$98, DW_AT_type(*$C$DW$T$68)
    1118                      .dwattr $C$DW$98, DW_AT_location[DW_OP_reg12]
    1119              ;* AL    assigned to _status
    1120              $C$DW$99        .dwtag  DW_TAG_variable, DW_AT_name("status")
    1121                      .dwattr $C$DW$99, DW_AT_TI_symbol_name("_status")
    1122                      .dwattr $C$DW$99, DW_AT_type(*$C$DW$T$34)
    1123                      .dwattr $C$DW$99, DW_AT_location[DW_OP_reg0]
    1124                      .dwcfi  cfa_offset, -2
    1125                      .dwcfi  save_reg_to_mem, 26, 0
    1126                      .dwpsn  file "C:/ti/motorware/motorware_1_01_00_14/sw/drivers/spi/src/32b/f28x/f2806x/spi.c",line 349
    1127 00000055 CCD4          AND       AL,*+XAR4[2],#0x0020  ; [CPU_] |349| 
         00000056 0020 
    1128              $C$DW$100       .dwtag  DW_TAG_TI_branch
    1129                      .dwattr $C$DW$100, DW_AT_low_pc(0x00)
    1130                      .dwattr $C$DW$100, DW_AT_TI_return
    1131 00000057 0006          LRETR     ; [CPU_] 
    1132                      ; return occurs ; [] 
    1133                      .dwattr $C$DW$96, DW_AT_TI_end_file("C:/ti/motorware/motorware_1_01_00_14/sw/drivers/spi/src/32b/f28x
    1134                      .dwattr $C$DW$96, DW_AT_TI_end_line(0x160)
    1135                      .dwattr $C$DW$96, DW_AT_TI_end_column(0x01)
    1136                      .dwendentry
    1137                      .dwendtag $C$DW$96
    1138              
    1139 00000058               .sect   ".text"
    1140                      .clink
TMS320C2000 Assembler PC v6.4.4 Wed Jul 08 12:49:30 2015

Tools Copyright (c) 1996-2015 Texas Instruments Incorporated
C:\Users\grant\AppData\Local\Temp\0440810                            PAGE   22

    1141                      .global _SPI_getRxFifoStatus
    1142              
    1143              $C$DW$101       .dwtag  DW_TAG_subprogram, DW_AT_name("SPI_getRxFifoStatus")
    1144                      .dwattr $C$DW$101, DW_AT_low_pc(_SPI_getRxFifoStatus)
    1145                      .dwattr $C$DW$101, DW_AT_high_pc(0x00)
    1146                      .dwattr $C$DW$101, DW_AT_TI_symbol_name("_SPI_getRxFifoStatus")
    1147                      .dwattr $C$DW$101, DW_AT_external
    1148                      .dwattr $C$DW$101, DW_AT_type(*$C$DW$T$24)
    1149                      .dwattr $C$DW$101, DW_AT_TI_begin_file("C:/ti/motorware/motorware_1_01_00_14/sw/drivers/spi/src/32b/f
    1150                      .dwattr $C$DW$101, DW_AT_TI_begin_line(0x133)
    1151                      .dwattr $C$DW$101, DW_AT_TI_begin_column(0x12)
    1152                      .dwattr $C$DW$101, DW_AT_TI_max_frame_size(-2)
    1153                      .dwpsn  file "C:/ti/motorware/motorware_1_01_00_14/sw/drivers/spi/src/32b/f28x/f2806x/spi.c",line 308
    1154              
    1155                      .dwfde $C$DW$CIE, _SPI_getRxFifoStatus
    1156              $C$DW$102       .dwtag  DW_TAG_formal_parameter, DW_AT_name("spiHandle")
    1157                      .dwattr $C$DW$102, DW_AT_TI_symbol_name("_spiHandle")
    1158                      .dwattr $C$DW$102, DW_AT_type(*$C$DW$T$26)
    1159                      .dwattr $C$DW$102, DW_AT_location[DW_OP_reg12]
    1160              
    1161              ;***************************************************************
    1162              ;* FNAME: _SPI_getRxFifoStatus          FR SIZE:   0           *
    1163              ;*                                                             *
    1164              ;* FUNCTION ENVIRONMENT                                        *
    1165              ;*                                                             *
    1166              ;* FUNCTION PROPERTIES                                         *
    1167              ;*                            0 Parameter,  0 Auto,  0 SOE     *
    1168              ;***************************************************************
    1169              
    1170              _SPI_getRxFifoStatus:
    1171              ;* AR4   assigned to _spiHandle
    1172              $C$DW$103       .dwtag  DW_TAG_variable, DW_AT_name("spiHandle")
    1173                      .dwattr $C$DW$103, DW_AT_TI_symbol_name("_spiHandle")
    1174                      .dwattr $C$DW$103, DW_AT_type(*$C$DW$T$68)
    1175                      .dwattr $C$DW$103, DW_AT_location[DW_OP_reg12]
    1176              ;* AL    assigned to _status
    1177              $C$DW$104       .dwtag  DW_TAG_variable, DW_AT_name("status")
    1178                      .dwattr $C$DW$104, DW_AT_TI_symbol_name("_status")
    1179                      .dwattr $C$DW$104, DW_AT_type(*$C$DW$T$24)
    1180                      .dwattr $C$DW$104, DW_AT_location[DW_OP_reg0]
    1181                      .dwcfi  cfa_offset, -2
    1182                      .dwcfi  save_reg_to_mem, 26, 0
    1183                      .dwpsn  file "C:/ti/motorware/motorware_1_01_00_14/sw/drivers/spi/src/32b/f28x/f2806x/spi.c",line 313
    1184 00000058 D00B          MOVB      XAR0,#11              ; [CPU_] |313| 
    1185 00000059 CC94          AND       AL,*+XAR4[AR0],#0x1f00 ; [CPU_] |313| 
         0000005a 1F00 
    1186              $C$DW$105       .dwtag  DW_TAG_TI_branch
    1187                      .dwattr $C$DW$105, DW_AT_low_pc(0x00)
    1188                      .dwattr $C$DW$105, DW_AT_TI_return
    1189 0000005b 0006          LRETR     ; [CPU_] 
    1190                      ; return occurs ; [] 
    1191                      .dwattr $C$DW$101, DW_AT_TI_end_file("C:/ti/motorware/motorware_1_01_00_14/sw/drivers/spi/src/32b/f28
    1192                      .dwattr $C$DW$101, DW_AT_TI_end_line(0x13c)
    1193                      .dwattr $C$DW$101, DW_AT_TI_end_column(0x01)
    1194                      .dwendentry
TMS320C2000 Assembler PC v6.4.4 Wed Jul 08 12:49:30 2015

Tools Copyright (c) 1996-2015 Texas Instruments Incorporated
C:\Users\grant\AppData\Local\Temp\0440810                            PAGE   23

    1195                      .dwendtag $C$DW$101
    1196              
    1197 0000005c               .sect   ".text"
    1198                      .clink
    1199                      .global _SPI_getIntFlagStatus
    1200              
    1201              $C$DW$106       .dwtag  DW_TAG_subprogram, DW_AT_name("SPI_getIntFlagStatus")
    1202                      .dwattr $C$DW$106, DW_AT_low_pc(_SPI_getIntFlagStatus)
    1203                      .dwattr $C$DW$106, DW_AT_high_pc(0x00)
    1204                      .dwattr $C$DW$106, DW_AT_TI_symbol_name("_SPI_getIntFlagStatus")
    1205                      .dwattr $C$DW$106, DW_AT_external
    1206                      .dwattr $C$DW$106, DW_AT_type(*$C$DW$T$30)
    1207                      .dwattr $C$DW$106, DW_AT_TI_begin_file("C:/ti/motorware/motorware_1_01_00_14/sw/drivers/spi/src/32b/f
    1208                      .dwattr $C$DW$106, DW_AT_TI_begin_line(0x14b)
    1209                      .dwattr $C$DW$106, DW_AT_TI_begin_column(0x15)
    1210                      .dwattr $C$DW$106, DW_AT_TI_max_frame_size(-2)
    1211                      .dwpsn  file "C:/ti/motorware/motorware_1_01_00_14/sw/drivers/spi/src/32b/f28x/f2806x/spi.c",line 332
    1212              
    1213                      .dwfde $C$DW$CIE, _SPI_getIntFlagStatus
    1214              $C$DW$107       .dwtag  DW_TAG_formal_parameter, DW_AT_name("spiHandle")
    1215                      .dwattr $C$DW$107, DW_AT_TI_symbol_name("_spiHandle")
    1216                      .dwattr $C$DW$107, DW_AT_type(*$C$DW$T$26)
    1217                      .dwattr $C$DW$107, DW_AT_location[DW_OP_reg12]
    1218              
    1219              ;***************************************************************
    1220              ;* FNAME: _SPI_getIntFlagStatus         FR SIZE:   0           *
    1221              ;*                                                             *
    1222              ;* FUNCTION ENVIRONMENT                                        *
    1223              ;*                                                             *
    1224              ;* FUNCTION PROPERTIES                                         *
    1225              ;*                            0 Parameter,  0 Auto,  0 SOE     *
    1226              ;***************************************************************
    1227              
    1228              _SPI_getIntFlagStatus:
    1229              ;* AR4   assigned to _spiHandle
    1230              $C$DW$108       .dwtag  DW_TAG_variable, DW_AT_name("spiHandle")
    1231                      .dwattr $C$DW$108, DW_AT_TI_symbol_name("_spiHandle")
    1232                      .dwattr $C$DW$108, DW_AT_type(*$C$DW$T$68)
    1233                      .dwattr $C$DW$108, DW_AT_location[DW_OP_reg12]
    1234              ;* AL    assigned to _status
    1235              $C$DW$109       .dwtag  DW_TAG_variable, DW_AT_name("status")
    1236                      .dwattr $C$DW$109, DW_AT_TI_symbol_name("_status")
    1237                      .dwattr $C$DW$109, DW_AT_type(*$C$DW$T$30)
    1238                      .dwattr $C$DW$109, DW_AT_location[DW_OP_reg0]
    1239                      .dwcfi  cfa_offset, -2
    1240                      .dwcfi  save_reg_to_mem, 26, 0
    1241                      .dwpsn  file "C:/ti/motorware/motorware_1_01_00_14/sw/drivers/spi/src/32b/f28x/f2806x/spi.c",line 337
    1242 0000005c CCD4          AND       AL,*+XAR4[2],#0x0040  ; [CPU_] |337| 
         0000005d 0040 
    1243              $C$DW$110       .dwtag  DW_TAG_TI_branch
    1244                      .dwattr $C$DW$110, DW_AT_low_pc(0x00)
    1245                      .dwattr $C$DW$110, DW_AT_TI_return
    1246 0000005e 0006          LRETR     ; [CPU_] 
    1247                      ; return occurs ; [] 
    1248                      .dwattr $C$DW$106, DW_AT_TI_end_file("C:/ti/motorware/motorware_1_01_00_14/sw/drivers/spi/src/32b/f28
TMS320C2000 Assembler PC v6.4.4 Wed Jul 08 12:49:30 2015

Tools Copyright (c) 1996-2015 Texas Instruments Incorporated
C:\Users\grant\AppData\Local\Temp\0440810                            PAGE   24

    1249                      .dwattr $C$DW$106, DW_AT_TI_end_line(0x154)
    1250                      .dwattr $C$DW$106, DW_AT_TI_end_column(0x01)
    1251                      .dwendentry
    1252                      .dwendtag $C$DW$106
    1253              
    1254 0000005f               .sect   ".text"
    1255                      .clink
    1256                      .global _SPI_enableTxFifoInt
    1257              
    1258              $C$DW$111       .dwtag  DW_TAG_subprogram, DW_AT_name("SPI_enableTxFifoInt")
    1259                      .dwattr $C$DW$111, DW_AT_low_pc(_SPI_enableTxFifoInt)
    1260                      .dwattr $C$DW$111, DW_AT_high_pc(0x00)
    1261                      .dwattr $C$DW$111, DW_AT_TI_symbol_name("_SPI_enableTxFifoInt")
    1262                      .dwattr $C$DW$111, DW_AT_external
    1263                      .dwattr $C$DW$111, DW_AT_TI_begin_file("C:/ti/motorware/motorware_1_01_00_14/sw/drivers/spi/src/32b/f
    1264                      .dwattr $C$DW$111, DW_AT_TI_begin_line(0x127)
    1265                      .dwattr $C$DW$111, DW_AT_TI_begin_column(0x06)
    1266                      .dwattr $C$DW$111, DW_AT_TI_max_frame_size(-2)
    1267                      .dwpsn  file "C:/ti/motorware/motorware_1_01_00_14/sw/drivers/spi/src/32b/f28x/f2806x/spi.c",line 296
    1268              
    1269                      .dwfde $C$DW$CIE, _SPI_enableTxFifoInt
    1270              $C$DW$112       .dwtag  DW_TAG_formal_parameter, DW_AT_name("spiHandle")
    1271                      .dwattr $C$DW$112, DW_AT_TI_symbol_name("_spiHandle")
    1272                      .dwattr $C$DW$112, DW_AT_type(*$C$DW$T$26)
    1273                      .dwattr $C$DW$112, DW_AT_location[DW_OP_reg12]
    1274              
    1275              ;***************************************************************
    1276              ;* FNAME: _SPI_enableTxFifoInt          FR SIZE:   0           *
    1277              ;*                                                             *
    1278              ;* FUNCTION ENVIRONMENT                                        *
    1279              ;*                                                             *
    1280              ;* FUNCTION PROPERTIES                                         *
    1281              ;*                            0 Parameter,  0 Auto,  0 SOE     *
    1282              ;***************************************************************
    1283              
    1284 0000005f       _SPI_enableTxFifoInt:
    1285                      .dwcfi  cfa_offset, -2
    1286                      .dwcfi  save_reg_to_mem, 26, 0
    1287                      .dwpsn  file "C:/ti/motorware/motorware_1_01_00_14/sw/drivers/spi/src/32b/f28x/f2806x/spi.c",line 301
    1288 0000005f DC0A          ADDB      XAR4,#10              ; [CPU_] |301| 
    1289 00000060 1AC4          OR        *+XAR4[0],#0x0020     ; [CPU_] |301| 
         00000061 0020 
    1290              $C$DW$113       .dwtag  DW_TAG_TI_branch
    1291                      .dwattr $C$DW$113, DW_AT_low_pc(0x00)
    1292                      .dwattr $C$DW$113, DW_AT_TI_return
    1293 00000062 0006          LRETR     ; [CPU_] 
    1294                      ; return occurs ; [] 
    1295                      .dwattr $C$DW$111, DW_AT_TI_end_file("C:/ti/motorware/motorware_1_01_00_14/sw/drivers/spi/src/32b/f28
    1296                      .dwattr $C$DW$111, DW_AT_TI_end_line(0x130)
    1297                      .dwattr $C$DW$111, DW_AT_TI_end_column(0x01)
    1298                      .dwendentry
    1299                      .dwendtag $C$DW$111
    1300              
    1301 00000063               .sect   ".text"
    1302                      .clink
TMS320C2000 Assembler PC v6.4.4 Wed Jul 08 12:49:30 2015

Tools Copyright (c) 1996-2015 Texas Instruments Incorporated
C:\Users\grant\AppData\Local\Temp\0440810                            PAGE   25

    1303                      .global _SPI_enableTxFifoEnh
    1304              
    1305              $C$DW$114       .dwtag  DW_TAG_subprogram, DW_AT_name("SPI_enableTxFifoEnh")
    1306                      .dwattr $C$DW$114, DW_AT_low_pc(_SPI_enableTxFifoEnh)
    1307                      .dwattr $C$DW$114, DW_AT_high_pc(0x00)
    1308                      .dwattr $C$DW$114, DW_AT_TI_symbol_name("_SPI_enableTxFifoEnh")
    1309                      .dwattr $C$DW$114, DW_AT_external
    1310                      .dwattr $C$DW$114, DW_AT_TI_begin_file("C:/ti/motorware/motorware_1_01_00_14/sw/drivers/spi/src/32b/f
    1311                      .dwattr $C$DW$114, DW_AT_TI_begin_line(0x11b)
    1312                      .dwattr $C$DW$114, DW_AT_TI_begin_column(0x06)
    1313                      .dwattr $C$DW$114, DW_AT_TI_max_frame_size(-2)
    1314                      .dwpsn  file "C:/ti/motorware/motorware_1_01_00_14/sw/drivers/spi/src/32b/f28x/f2806x/spi.c",line 284
    1315              
    1316                      .dwfde $C$DW$CIE, _SPI_enableTxFifoEnh
    1317              $C$DW$115       .dwtag  DW_TAG_formal_parameter, DW_AT_name("spiHandle")
    1318                      .dwattr $C$DW$115, DW_AT_TI_symbol_name("_spiHandle")
    1319                      .dwattr $C$DW$115, DW_AT_type(*$C$DW$T$26)
    1320                      .dwattr $C$DW$115, DW_AT_location[DW_OP_reg12]
    1321              
    1322              ;***************************************************************
    1323              ;* FNAME: _SPI_enableTxFifoEnh          FR SIZE:   0           *
    1324              ;*                                                             *
    1325              ;* FUNCTION ENVIRONMENT                                        *
    1326              ;*                                                             *
    1327              ;* FUNCTION PROPERTIES                                         *
    1328              ;*                            0 Parameter,  0 Auto,  0 SOE     *
    1329              ;***************************************************************
    1330              
    1331 00000063       _SPI_enableTxFifoEnh:
    1332                      .dwcfi  cfa_offset, -2
    1333                      .dwcfi  save_reg_to_mem, 26, 0
    1334                      .dwpsn  file "C:/ti/motorware/motorware_1_01_00_14/sw/drivers/spi/src/32b/f28x/f2806x/spi.c",line 289
    1335 00000063 DC0A          ADDB      XAR4,#10              ; [CPU_] |289| 
    1336 00000064 1AC4          OR        *+XAR4[0],#0x4000     ; [CPU_] |289| 
         00000065 4000 
    1337              $C$DW$116       .dwtag  DW_TAG_TI_branch
    1338                      .dwattr $C$DW$116, DW_AT_low_pc(0x00)
    1339                      .dwattr $C$DW$116, DW_AT_TI_return
    1340 00000066 0006          LRETR     ; [CPU_] 
    1341                      ; return occurs ; [] 
    1342                      .dwattr $C$DW$114, DW_AT_TI_end_file("C:/ti/motorware/motorware_1_01_00_14/sw/drivers/spi/src/32b/f28
    1343                      .dwattr $C$DW$114, DW_AT_TI_end_line(0x124)
    1344                      .dwattr $C$DW$114, DW_AT_TI_end_column(0x01)
    1345                      .dwendentry
    1346                      .dwendtag $C$DW$114
    1347              
    1348 00000067               .sect   ".text"
    1349                      .clink
    1350                      .global _SPI_enableTxFifo
    1351              
    1352              $C$DW$117       .dwtag  DW_TAG_subprogram, DW_AT_name("SPI_enableTxFifo")
    1353                      .dwattr $C$DW$117, DW_AT_low_pc(_SPI_enableTxFifo)
    1354                      .dwattr $C$DW$117, DW_AT_high_pc(0x00)
    1355                      .dwattr $C$DW$117, DW_AT_TI_symbol_name("_SPI_enableTxFifo")
    1356                      .dwattr $C$DW$117, DW_AT_external
TMS320C2000 Assembler PC v6.4.4 Wed Jul 08 12:49:30 2015

Tools Copyright (c) 1996-2015 Texas Instruments Incorporated
C:\Users\grant\AppData\Local\Temp\0440810                            PAGE   26

    1357                      .dwattr $C$DW$117, DW_AT_TI_begin_file("C:/ti/motorware/motorware_1_01_00_14/sw/drivers/spi/src/32b/f
    1358                      .dwattr $C$DW$117, DW_AT_TI_begin_line(0x10f)
    1359                      .dwattr $C$DW$117, DW_AT_TI_begin_column(0x06)
    1360                      .dwattr $C$DW$117, DW_AT_TI_max_frame_size(-2)
    1361                      .dwpsn  file "C:/ti/motorware/motorware_1_01_00_14/sw/drivers/spi/src/32b/f28x/f2806x/spi.c",line 272
    1362              
    1363                      .dwfde $C$DW$CIE, _SPI_enableTxFifo
    1364              $C$DW$118       .dwtag  DW_TAG_formal_parameter, DW_AT_name("spiHandle")
    1365                      .dwattr $C$DW$118, DW_AT_TI_symbol_name("_spiHandle")
    1366                      .dwattr $C$DW$118, DW_AT_type(*$C$DW$T$26)
    1367                      .dwattr $C$DW$118, DW_AT_location[DW_OP_reg12]
    1368              
    1369              ;***************************************************************
    1370              ;* FNAME: _SPI_enableTxFifo             FR SIZE:   0           *
    1371              ;*                                                             *
    1372              ;* FUNCTION ENVIRONMENT                                        *
    1373              ;*                                                             *
    1374              ;* FUNCTION PROPERTIES                                         *
    1375              ;*                            0 Parameter,  0 Auto,  0 SOE     *
    1376              ;***************************************************************
    1377              
    1378 00000067       _SPI_enableTxFifo:
    1379                      .dwcfi  cfa_offset, -2
    1380                      .dwcfi  save_reg_to_mem, 26, 0
    1381                      .dwpsn  file "C:/ti/motorware/motorware_1_01_00_14/sw/drivers/spi/src/32b/f28x/f2806x/spi.c",line 277
    1382 00000067 DC0A          ADDB      XAR4,#10              ; [CPU_] |277| 
    1383 00000068 1AC4          OR        *+XAR4[0],#0x2000     ; [CPU_] |277| 
         00000069 2000 
    1384              $C$DW$119       .dwtag  DW_TAG_TI_branch
    1385                      .dwattr $C$DW$119, DW_AT_low_pc(0x00)
    1386                      .dwattr $C$DW$119, DW_AT_TI_return
    1387 0000006a 0006          LRETR     ; [CPU_] 
    1388                      ; return occurs ; [] 
    1389                      .dwattr $C$DW$117, DW_AT_TI_end_file("C:/ti/motorware/motorware_1_01_00_14/sw/drivers/spi/src/32b/f28
    1390                      .dwattr $C$DW$117, DW_AT_TI_end_line(0x118)
    1391                      .dwattr $C$DW$117, DW_AT_TI_end_column(0x01)
    1392                      .dwendentry
    1393                      .dwendtag $C$DW$117
    1394              
    1395 0000006b               .sect   ".text"
    1396                      .clink
    1397                      .global _SPI_enableTx
    1398              
    1399              $C$DW$120       .dwtag  DW_TAG_subprogram, DW_AT_name("SPI_enableTx")
    1400                      .dwattr $C$DW$120, DW_AT_low_pc(_SPI_enableTx)
    1401                      .dwattr $C$DW$120, DW_AT_high_pc(0x00)
    1402                      .dwattr $C$DW$120, DW_AT_TI_symbol_name("_SPI_enableTx")
    1403                      .dwattr $C$DW$120, DW_AT_external
    1404                      .dwattr $C$DW$120, DW_AT_TI_begin_file("C:/ti/motorware/motorware_1_01_00_14/sw/drivers/spi/src/32b/f
    1405                      .dwattr $C$DW$120, DW_AT_TI_begin_line(0x103)
    1406                      .dwattr $C$DW$120, DW_AT_TI_begin_column(0x06)
    1407                      .dwattr $C$DW$120, DW_AT_TI_max_frame_size(-2)
    1408                      .dwpsn  file "C:/ti/motorware/motorware_1_01_00_14/sw/drivers/spi/src/32b/f28x/f2806x/spi.c",line 260
    1409              
    1410                      .dwfde $C$DW$CIE, _SPI_enableTx
TMS320C2000 Assembler PC v6.4.4 Wed Jul 08 12:49:30 2015

Tools Copyright (c) 1996-2015 Texas Instruments Incorporated
C:\Users\grant\AppData\Local\Temp\0440810                            PAGE   27

    1411              $C$DW$121       .dwtag  DW_TAG_formal_parameter, DW_AT_name("spiHandle")
    1412                      .dwattr $C$DW$121, DW_AT_TI_symbol_name("_spiHandle")
    1413                      .dwattr $C$DW$121, DW_AT_type(*$C$DW$T$26)
    1414                      .dwattr $C$DW$121, DW_AT_location[DW_OP_reg12]
    1415              
    1416              ;***************************************************************
    1417              ;* FNAME: _SPI_enableTx                 FR SIZE:   0           *
    1418              ;*                                                             *
    1419              ;* FUNCTION ENVIRONMENT                                        *
    1420              ;*                                                             *
    1421              ;* FUNCTION PROPERTIES                                         *
    1422              ;*                            0 Parameter,  0 Auto,  0 SOE     *
    1423              ;***************************************************************
    1424              
    1425              _SPI_enableTx:
    1426              ;* AR4   assigned to _spiHandle
    1427              $C$DW$122       .dwtag  DW_TAG_variable, DW_AT_name("spiHandle")
    1428                      .dwattr $C$DW$122, DW_AT_TI_symbol_name("_spiHandle")
    1429                      .dwattr $C$DW$122, DW_AT_type(*$C$DW$T$68)
    1430                      .dwattr $C$DW$122, DW_AT_location[DW_OP_reg12]
    1431                      .dwcfi  cfa_offset, -2
    1432                      .dwcfi  save_reg_to_mem, 26, 0
    1433                      .dwpsn  file "C:/ti/motorware/motorware_1_01_00_14/sw/drivers/spi/src/32b/f28x/f2806x/spi.c",line 265
    1434 0000006b 1ACC          OR        *+XAR4[1],#0x0002     ; [CPU_] |265| 
         0000006c 0002 
    1435              $C$DW$123       .dwtag  DW_TAG_TI_branch
    1436                      .dwattr $C$DW$123, DW_AT_low_pc(0x00)
    1437                      .dwattr $C$DW$123, DW_AT_TI_return
    1438 0000006d 0006          LRETR     ; [CPU_] 
    1439                      ; return occurs ; [] 
    1440                      .dwattr $C$DW$120, DW_AT_TI_end_file("C:/ti/motorware/motorware_1_01_00_14/sw/drivers/spi/src/32b/f28
    1441                      .dwattr $C$DW$120, DW_AT_TI_end_line(0x10c)
    1442                      .dwattr $C$DW$120, DW_AT_TI_end_column(0x01)
    1443                      .dwendentry
    1444                      .dwendtag $C$DW$120
    1445              
    1446 0000006e               .sect   ".text"
    1447                      .clink
    1448                      .global _SPI_enableRxFifoInt
    1449              
    1450              $C$DW$124       .dwtag  DW_TAG_subprogram, DW_AT_name("SPI_enableRxFifoInt")
    1451                      .dwattr $C$DW$124, DW_AT_low_pc(_SPI_enableRxFifoInt)
    1452                      .dwattr $C$DW$124, DW_AT_high_pc(0x00)
    1453                      .dwattr $C$DW$124, DW_AT_TI_symbol_name("_SPI_enableRxFifoInt")
    1454                      .dwattr $C$DW$124, DW_AT_external
    1455                      .dwattr $C$DW$124, DW_AT_TI_begin_file("C:/ti/motorware/motorware_1_01_00_14/sw/drivers/spi/src/32b/f
    1456                      .dwattr $C$DW$124, DW_AT_TI_begin_line(0xf7)
    1457                      .dwattr $C$DW$124, DW_AT_TI_begin_column(0x06)
    1458                      .dwattr $C$DW$124, DW_AT_TI_max_frame_size(-2)
    1459                      .dwpsn  file "C:/ti/motorware/motorware_1_01_00_14/sw/drivers/spi/src/32b/f28x/f2806x/spi.c",line 248
    1460              
    1461                      .dwfde $C$DW$CIE, _SPI_enableRxFifoInt
    1462              $C$DW$125       .dwtag  DW_TAG_formal_parameter, DW_AT_name("spiHandle")
    1463                      .dwattr $C$DW$125, DW_AT_TI_symbol_name("_spiHandle")
    1464                      .dwattr $C$DW$125, DW_AT_type(*$C$DW$T$26)
TMS320C2000 Assembler PC v6.4.4 Wed Jul 08 12:49:30 2015

Tools Copyright (c) 1996-2015 Texas Instruments Incorporated
C:\Users\grant\AppData\Local\Temp\0440810                            PAGE   28

    1465                      .dwattr $C$DW$125, DW_AT_location[DW_OP_reg12]
    1466              
    1467              ;***************************************************************
    1468              ;* FNAME: _SPI_enableRxFifoInt          FR SIZE:   0           *
    1469              ;*                                                             *
    1470              ;* FUNCTION ENVIRONMENT                                        *
    1471              ;*                                                             *
    1472              ;* FUNCTION PROPERTIES                                         *
    1473              ;*                            0 Parameter,  0 Auto,  0 SOE     *
    1474              ;***************************************************************
    1475              
    1476 0000006e       _SPI_enableRxFifoInt:
    1477                      .dwcfi  cfa_offset, -2
    1478                      .dwcfi  save_reg_to_mem, 26, 0
    1479                      .dwpsn  file "C:/ti/motorware/motorware_1_01_00_14/sw/drivers/spi/src/32b/f28x/f2806x/spi.c",line 253
    1480 0000006e DC0B          ADDB      XAR4,#11              ; [CPU_] |253| 
    1481 0000006f 1AC4          OR        *+XAR4[0],#0x0020     ; [CPU_] |253| 
         00000070 0020 
    1482              $C$DW$126       .dwtag  DW_TAG_TI_branch
    1483                      .dwattr $C$DW$126, DW_AT_low_pc(0x00)
    1484                      .dwattr $C$DW$126, DW_AT_TI_return
    1485 00000071 0006          LRETR     ; [CPU_] 
    1486                      ; return occurs ; [] 
    1487                      .dwattr $C$DW$124, DW_AT_TI_end_file("C:/ti/motorware/motorware_1_01_00_14/sw/drivers/spi/src/32b/f28
    1488                      .dwattr $C$DW$124, DW_AT_TI_end_line(0x100)
    1489                      .dwattr $C$DW$124, DW_AT_TI_end_column(0x01)
    1490                      .dwendentry
    1491                      .dwendtag $C$DW$124
    1492              
    1493 00000072               .sect   ".text"
    1494                      .clink
    1495                      .global _SPI_enableRxFifo
    1496              
    1497              $C$DW$127       .dwtag  DW_TAG_subprogram, DW_AT_name("SPI_enableRxFifo")
    1498                      .dwattr $C$DW$127, DW_AT_low_pc(_SPI_enableRxFifo)
    1499                      .dwattr $C$DW$127, DW_AT_high_pc(0x00)
    1500                      .dwattr $C$DW$127, DW_AT_TI_symbol_name("_SPI_enableRxFifo")
    1501                      .dwattr $C$DW$127, DW_AT_external
    1502                      .dwattr $C$DW$127, DW_AT_TI_begin_file("C:/ti/motorware/motorware_1_01_00_14/sw/drivers/spi/src/32b/f
    1503                      .dwattr $C$DW$127, DW_AT_TI_begin_line(0xeb)
    1504                      .dwattr $C$DW$127, DW_AT_TI_begin_column(0x06)
    1505                      .dwattr $C$DW$127, DW_AT_TI_max_frame_size(-2)
    1506                      .dwpsn  file "C:/ti/motorware/motorware_1_01_00_14/sw/drivers/spi/src/32b/f28x/f2806x/spi.c",line 236
    1507              
    1508                      .dwfde $C$DW$CIE, _SPI_enableRxFifo
    1509              $C$DW$128       .dwtag  DW_TAG_formal_parameter, DW_AT_name("spiHandle")
    1510                      .dwattr $C$DW$128, DW_AT_TI_symbol_name("_spiHandle")
    1511                      .dwattr $C$DW$128, DW_AT_type(*$C$DW$T$26)
    1512                      .dwattr $C$DW$128, DW_AT_location[DW_OP_reg12]
    1513              
    1514              ;***************************************************************
    1515              ;* FNAME: _SPI_enableRxFifo             FR SIZE:   0           *
    1516              ;*                                                             *
    1517              ;* FUNCTION ENVIRONMENT                                        *
    1518              ;*                                                             *
TMS320C2000 Assembler PC v6.4.4 Wed Jul 08 12:49:30 2015

Tools Copyright (c) 1996-2015 Texas Instruments Incorporated
C:\Users\grant\AppData\Local\Temp\0440810                            PAGE   29

    1519              ;* FUNCTION PROPERTIES                                         *
    1520              ;*                            0 Parameter,  0 Auto,  0 SOE     *
    1521              ;***************************************************************
    1522              
    1523 00000072       _SPI_enableRxFifo:
    1524                      .dwcfi  cfa_offset, -2
    1525                      .dwcfi  save_reg_to_mem, 26, 0
    1526                      .dwpsn  file "C:/ti/motorware/motorware_1_01_00_14/sw/drivers/spi/src/32b/f28x/f2806x/spi.c",line 241
    1527 00000072 DC0B          ADDB      XAR4,#11              ; [CPU_] |241| 
    1528 00000073 1AC4          OR        *+XAR4[0],#0x2000     ; [CPU_] |241| 
         00000074 2000 
    1529              $C$DW$129       .dwtag  DW_TAG_TI_branch
    1530                      .dwattr $C$DW$129, DW_AT_low_pc(0x00)
    1531                      .dwattr $C$DW$129, DW_AT_TI_return
    1532 00000075 0006          LRETR     ; [CPU_] 
    1533                      ; return occurs ; [] 
    1534                      .dwattr $C$DW$127, DW_AT_TI_end_file("C:/ti/motorware/motorware_1_01_00_14/sw/drivers/spi/src/32b/f28
    1535                      .dwattr $C$DW$127, DW_AT_TI_end_line(0xf4)
    1536                      .dwattr $C$DW$127, DW_AT_TI_end_column(0x01)
    1537                      .dwendentry
    1538                      .dwendtag $C$DW$127
    1539              
    1540 00000076               .sect   ".text"
    1541                      .clink
    1542                      .global _SPI_enableOverRunInt
    1543              
    1544              $C$DW$130       .dwtag  DW_TAG_subprogram, DW_AT_name("SPI_enableOverRunInt")
    1545                      .dwattr $C$DW$130, DW_AT_low_pc(_SPI_enableOverRunInt)
    1546                      .dwattr $C$DW$130, DW_AT_high_pc(0x00)
    1547                      .dwattr $C$DW$130, DW_AT_TI_symbol_name("_SPI_enableOverRunInt")
    1548                      .dwattr $C$DW$130, DW_AT_external
    1549                      .dwattr $C$DW$130, DW_AT_TI_begin_file("C:/ti/motorware/motorware_1_01_00_14/sw/drivers/spi/src/32b/f
    1550                      .dwattr $C$DW$130, DW_AT_TI_begin_line(0xdf)
    1551                      .dwattr $C$DW$130, DW_AT_TI_begin_column(0x06)
    1552                      .dwattr $C$DW$130, DW_AT_TI_max_frame_size(-2)
    1553                      .dwpsn  file "C:/ti/motorware/motorware_1_01_00_14/sw/drivers/spi/src/32b/f28x/f2806x/spi.c",line 224
    1554              
    1555                      .dwfde $C$DW$CIE, _SPI_enableOverRunInt
    1556              $C$DW$131       .dwtag  DW_TAG_formal_parameter, DW_AT_name("spiHandle")
    1557                      .dwattr $C$DW$131, DW_AT_TI_symbol_name("_spiHandle")
    1558                      .dwattr $C$DW$131, DW_AT_type(*$C$DW$T$26)
    1559                      .dwattr $C$DW$131, DW_AT_location[DW_OP_reg12]
    1560              
    1561              ;***************************************************************
    1562              ;* FNAME: _SPI_enableOverRunInt         FR SIZE:   0           *
    1563              ;*                                                             *
    1564              ;* FUNCTION ENVIRONMENT                                        *
    1565              ;*                                                             *
    1566              ;* FUNCTION PROPERTIES                                         *
    1567              ;*                            0 Parameter,  0 Auto,  0 SOE     *
    1568              ;***************************************************************
    1569              
    1570              _SPI_enableOverRunInt:
    1571              ;* AR4   assigned to _spiHandle
    1572              $C$DW$132       .dwtag  DW_TAG_variable, DW_AT_name("spiHandle")
TMS320C2000 Assembler PC v6.4.4 Wed Jul 08 12:49:30 2015

Tools Copyright (c) 1996-2015 Texas Instruments Incorporated
C:\Users\grant\AppData\Local\Temp\0440810                            PAGE   30

    1573                      .dwattr $C$DW$132, DW_AT_TI_symbol_name("_spiHandle")
    1574                      .dwattr $C$DW$132, DW_AT_type(*$C$DW$T$68)
    1575                      .dwattr $C$DW$132, DW_AT_location[DW_OP_reg12]
    1576                      .dwcfi  cfa_offset, -2
    1577                      .dwcfi  save_reg_to_mem, 26, 0
    1578                      .dwpsn  file "C:/ti/motorware/motorware_1_01_00_14/sw/drivers/spi/src/32b/f28x/f2806x/spi.c",line 229
    1579 00000076 1ACC          OR        *+XAR4[1],#0x0010     ; [CPU_] |229| 
         00000077 0010 
    1580              $C$DW$133       .dwtag  DW_TAG_TI_branch
    1581                      .dwattr $C$DW$133, DW_AT_low_pc(0x00)
    1582                      .dwattr $C$DW$133, DW_AT_TI_return
    1583 00000078 0006          LRETR     ; [CPU_] 
    1584                      ; return occurs ; [] 
    1585                      .dwattr $C$DW$130, DW_AT_TI_end_file("C:/ti/motorware/motorware_1_01_00_14/sw/drivers/spi/src/32b/f28
    1586                      .dwattr $C$DW$130, DW_AT_TI_end_line(0xe8)
    1587                      .dwattr $C$DW$130, DW_AT_TI_end_column(0x01)
    1588                      .dwendentry
    1589                      .dwendtag $C$DW$130
    1590              
    1591 00000079               .sect   ".text"
    1592                      .clink
    1593                      .global _SPI_enableLoopBack
    1594              
    1595              $C$DW$134       .dwtag  DW_TAG_subprogram, DW_AT_name("SPI_enableLoopBack")
    1596                      .dwattr $C$DW$134, DW_AT_low_pc(_SPI_enableLoopBack)
    1597                      .dwattr $C$DW$134, DW_AT_high_pc(0x00)
    1598                      .dwattr $C$DW$134, DW_AT_TI_symbol_name("_SPI_enableLoopBack")
    1599                      .dwattr $C$DW$134, DW_AT_external
    1600                      .dwattr $C$DW$134, DW_AT_TI_begin_file("C:/ti/motorware/motorware_1_01_00_14/sw/drivers/spi/src/32b/f
    1601                      .dwattr $C$DW$134, DW_AT_TI_begin_line(0xd3)
    1602                      .dwattr $C$DW$134, DW_AT_TI_begin_column(0x06)
    1603                      .dwattr $C$DW$134, DW_AT_TI_max_frame_size(-2)
    1604                      .dwpsn  file "C:/ti/motorware/motorware_1_01_00_14/sw/drivers/spi/src/32b/f28x/f2806x/spi.c",line 212
    1605              
    1606                      .dwfde $C$DW$CIE, _SPI_enableLoopBack
    1607              $C$DW$135       .dwtag  DW_TAG_formal_parameter, DW_AT_name("spiHandle")
    1608                      .dwattr $C$DW$135, DW_AT_TI_symbol_name("_spiHandle")
    1609                      .dwattr $C$DW$135, DW_AT_type(*$C$DW$T$26)
    1610                      .dwattr $C$DW$135, DW_AT_location[DW_OP_reg12]
    1611              
    1612              ;***************************************************************
    1613              ;* FNAME: _SPI_enableLoopBack           FR SIZE:   0           *
    1614              ;*                                                             *
    1615              ;* FUNCTION ENVIRONMENT                                        *
    1616              ;*                                                             *
    1617              ;* FUNCTION PROPERTIES                                         *
    1618              ;*                            0 Parameter,  0 Auto,  0 SOE     *
    1619              ;***************************************************************
    1620              
    1621              _SPI_enableLoopBack:
    1622              ;* AR4   assigned to _spiHandle
    1623              $C$DW$136       .dwtag  DW_TAG_variable, DW_AT_name("spiHandle")
    1624                      .dwattr $C$DW$136, DW_AT_TI_symbol_name("_spiHandle")
    1625                      .dwattr $C$DW$136, DW_AT_type(*$C$DW$T$68)
    1626                      .dwattr $C$DW$136, DW_AT_location[DW_OP_reg12]
TMS320C2000 Assembler PC v6.4.4 Wed Jul 08 12:49:30 2015

Tools Copyright (c) 1996-2015 Texas Instruments Incorporated
C:\Users\grant\AppData\Local\Temp\0440810                            PAGE   31

    1627                      .dwcfi  cfa_offset, -2
    1628                      .dwcfi  save_reg_to_mem, 26, 0
    1629                      .dwpsn  file "C:/ti/motorware/motorware_1_01_00_14/sw/drivers/spi/src/32b/f28x/f2806x/spi.c",line 217
    1630 00000079 1AC4          OR        *+XAR4[0],#0x0010     ; [CPU_] |217| 
         0000007a 0010 
    1631              $C$DW$137       .dwtag  DW_TAG_TI_branch
    1632                      .dwattr $C$DW$137, DW_AT_low_pc(0x00)
    1633                      .dwattr $C$DW$137, DW_AT_TI_return
    1634 0000007b 0006          LRETR     ; [CPU_] 
    1635                      ; return occurs ; [] 
    1636                      .dwattr $C$DW$134, DW_AT_TI_end_file("C:/ti/motorware/motorware_1_01_00_14/sw/drivers/spi/src/32b/f28
    1637                      .dwattr $C$DW$134, DW_AT_TI_end_line(0xdc)
    1638                      .dwattr $C$DW$134, DW_AT_TI_end_column(0x01)
    1639                      .dwendentry
    1640                      .dwendtag $C$DW$134
    1641              
    1642 0000007c               .sect   ".text"
    1643                      .clink
    1644                      .global _SPI_enableInt
    1645              
    1646              $C$DW$138       .dwtag  DW_TAG_subprogram, DW_AT_name("SPI_enableInt")
    1647                      .dwattr $C$DW$138, DW_AT_low_pc(_SPI_enableInt)
    1648                      .dwattr $C$DW$138, DW_AT_high_pc(0x00)
    1649                      .dwattr $C$DW$138, DW_AT_TI_symbol_name("_SPI_enableInt")
    1650                      .dwattr $C$DW$138, DW_AT_external
    1651                      .dwattr $C$DW$138, DW_AT_TI_begin_file("C:/ti/motorware/motorware_1_01_00_14/sw/drivers/spi/src/32b/f
    1652                      .dwattr $C$DW$138, DW_AT_TI_begin_line(0xc7)
    1653                      .dwattr $C$DW$138, DW_AT_TI_begin_column(0x06)
    1654                      .dwattr $C$DW$138, DW_AT_TI_max_frame_size(-2)
    1655                      .dwpsn  file "C:/ti/motorware/motorware_1_01_00_14/sw/drivers/spi/src/32b/f28x/f2806x/spi.c",line 200
    1656              
    1657                      .dwfde $C$DW$CIE, _SPI_enableInt
    1658              $C$DW$139       .dwtag  DW_TAG_formal_parameter, DW_AT_name("spiHandle")
    1659                      .dwattr $C$DW$139, DW_AT_TI_symbol_name("_spiHandle")
    1660                      .dwattr $C$DW$139, DW_AT_type(*$C$DW$T$26)
    1661                      .dwattr $C$DW$139, DW_AT_location[DW_OP_reg12]
    1662              
    1663              ;***************************************************************
    1664              ;* FNAME: _SPI_enableInt                FR SIZE:   0           *
    1665              ;*                                                             *
    1666              ;* FUNCTION ENVIRONMENT                                        *
    1667              ;*                                                             *
    1668              ;* FUNCTION PROPERTIES                                         *
    1669              ;*                            0 Parameter,  0 Auto,  0 SOE     *
    1670              ;***************************************************************
    1671              
    1672              _SPI_enableInt:
    1673              ;* AR4   assigned to _spiHandle
    1674              $C$DW$140       .dwtag  DW_TAG_variable, DW_AT_name("spiHandle")
    1675                      .dwattr $C$DW$140, DW_AT_TI_symbol_name("_spiHandle")
    1676                      .dwattr $C$DW$140, DW_AT_type(*$C$DW$T$68)
    1677                      .dwattr $C$DW$140, DW_AT_location[DW_OP_reg12]
    1678                      .dwcfi  cfa_offset, -2
    1679                      .dwcfi  save_reg_to_mem, 26, 0
    1680                      .dwpsn  file "C:/ti/motorware/motorware_1_01_00_14/sw/drivers/spi/src/32b/f28x/f2806x/spi.c",line 205
TMS320C2000 Assembler PC v6.4.4 Wed Jul 08 12:49:30 2015

Tools Copyright (c) 1996-2015 Texas Instruments Incorporated
C:\Users\grant\AppData\Local\Temp\0440810                            PAGE   32

    1681 0000007c 1ACC          OR        *+XAR4[1],#0x0001     ; [CPU_] |205| 
         0000007d 0001 
    1682              $C$DW$141       .dwtag  DW_TAG_TI_branch
    1683                      .dwattr $C$DW$141, DW_AT_low_pc(0x00)
    1684                      .dwattr $C$DW$141, DW_AT_TI_return
    1685 0000007e 0006          LRETR     ; [CPU_] 
    1686                      ; return occurs ; [] 
    1687                      .dwattr $C$DW$138, DW_AT_TI_end_file("C:/ti/motorware/motorware_1_01_00_14/sw/drivers/spi/src/32b/f28
    1688                      .dwattr $C$DW$138, DW_AT_TI_end_line(0xd0)
    1689                      .dwattr $C$DW$138, DW_AT_TI_end_column(0x01)
    1690                      .dwendentry
    1691                      .dwendtag $C$DW$138
    1692              
    1693 0000007f               .sect   ".text"
    1694                      .clink
    1695                      .global _SPI_enableChannels
    1696              
    1697              $C$DW$142       .dwtag  DW_TAG_subprogram, DW_AT_name("SPI_enableChannels")
    1698                      .dwattr $C$DW$142, DW_AT_low_pc(_SPI_enableChannels)
    1699                      .dwattr $C$DW$142, DW_AT_high_pc(0x00)
    1700                      .dwattr $C$DW$142, DW_AT_TI_symbol_name("_SPI_enableChannels")
    1701                      .dwattr $C$DW$142, DW_AT_external
    1702                      .dwattr $C$DW$142, DW_AT_TI_begin_file("C:/ti/motorware/motorware_1_01_00_14/sw/drivers/spi/src/32b/f
    1703                      .dwattr $C$DW$142, DW_AT_TI_begin_line(0xbb)
    1704                      .dwattr $C$DW$142, DW_AT_TI_begin_column(0x06)
    1705                      .dwattr $C$DW$142, DW_AT_TI_max_frame_size(-2)
    1706                      .dwpsn  file "C:/ti/motorware/motorware_1_01_00_14/sw/drivers/spi/src/32b/f28x/f2806x/spi.c",line 188
    1707              
    1708                      .dwfde $C$DW$CIE, _SPI_enableChannels
    1709              $C$DW$143       .dwtag  DW_TAG_formal_parameter, DW_AT_name("spiHandle")
    1710                      .dwattr $C$DW$143, DW_AT_TI_symbol_name("_spiHandle")
    1711                      .dwattr $C$DW$143, DW_AT_type(*$C$DW$T$26)
    1712                      .dwattr $C$DW$143, DW_AT_location[DW_OP_reg12]
    1713              
    1714              ;***************************************************************
    1715              ;* FNAME: _SPI_enableChannels           FR SIZE:   0           *
    1716              ;*                                                             *
    1717              ;* FUNCTION ENVIRONMENT                                        *
    1718              ;*                                                             *
    1719              ;* FUNCTION PROPERTIES                                         *
    1720              ;*                            0 Parameter,  0 Auto,  0 SOE     *
    1721              ;***************************************************************
    1722              
    1723 0000007f       _SPI_enableChannels:
    1724                      .dwcfi  cfa_offset, -2
    1725                      .dwcfi  save_reg_to_mem, 26, 0
    1726                      .dwpsn  file "C:/ti/motorware/motorware_1_01_00_14/sw/drivers/spi/src/32b/f28x/f2806x/spi.c",line 193
    1727 0000007f DC0A          ADDB      XAR4,#10              ; [CPU_] |193| 
    1728 00000080 1AC4          OR        *+XAR4[0],#0x8000     ; [CPU_] |193| 
         00000081 8000 
    1729              $C$DW$144       .dwtag  DW_TAG_TI_branch
    1730                      .dwattr $C$DW$144, DW_AT_low_pc(0x00)
    1731                      .dwattr $C$DW$144, DW_AT_TI_return
    1732 00000082 0006          LRETR     ; [CPU_] 
    1733                      ; return occurs ; [] 
TMS320C2000 Assembler PC v6.4.4 Wed Jul 08 12:49:30 2015

Tools Copyright (c) 1996-2015 Texas Instruments Incorporated
C:\Users\grant\AppData\Local\Temp\0440810                            PAGE   33

    1734                      .dwattr $C$DW$142, DW_AT_TI_end_file("C:/ti/motorware/motorware_1_01_00_14/sw/drivers/spi/src/32b/f28
    1735                      .dwattr $C$DW$142, DW_AT_TI_end_line(0xc4)
    1736                      .dwattr $C$DW$142, DW_AT_TI_end_column(0x01)
    1737                      .dwendentry
    1738                      .dwendtag $C$DW$142
    1739              
    1740 00000083               .sect   ".text"
    1741                      .clink
    1742                      .global _SPI_enable
    1743              
    1744              $C$DW$145       .dwtag  DW_TAG_subprogram, DW_AT_name("SPI_enable")
    1745                      .dwattr $C$DW$145, DW_AT_low_pc(_SPI_enable)
    1746                      .dwattr $C$DW$145, DW_AT_high_pc(0x00)
    1747                      .dwattr $C$DW$145, DW_AT_TI_symbol_name("_SPI_enable")
    1748                      .dwattr $C$DW$145, DW_AT_external
    1749                      .dwattr $C$DW$145, DW_AT_TI_begin_file("C:/ti/motorware/motorware_1_01_00_14/sw/drivers/spi/src/32b/f
    1750                      .dwattr $C$DW$145, DW_AT_TI_begin_line(0xaf)
    1751                      .dwattr $C$DW$145, DW_AT_TI_begin_column(0x06)
    1752                      .dwattr $C$DW$145, DW_AT_TI_max_frame_size(-2)
    1753                      .dwpsn  file "C:/ti/motorware/motorware_1_01_00_14/sw/drivers/spi/src/32b/f28x/f2806x/spi.c",line 176
    1754              
    1755                      .dwfde $C$DW$CIE, _SPI_enable
    1756              $C$DW$146       .dwtag  DW_TAG_formal_parameter, DW_AT_name("spiHandle")
    1757                      .dwattr $C$DW$146, DW_AT_TI_symbol_name("_spiHandle")
    1758                      .dwattr $C$DW$146, DW_AT_type(*$C$DW$T$26)
    1759                      .dwattr $C$DW$146, DW_AT_location[DW_OP_reg12]
    1760              
    1761              ;***************************************************************
    1762              ;* FNAME: _SPI_enable                   FR SIZE:   0           *
    1763              ;*                                                             *
    1764              ;* FUNCTION ENVIRONMENT                                        *
    1765              ;*                                                             *
    1766              ;* FUNCTION PROPERTIES                                         *
    1767              ;*                            0 Parameter,  0 Auto,  0 SOE     *
    1768              ;***************************************************************
    1769              
    1770              _SPI_enable:
    1771              ;* AR4   assigned to _spiHandle
    1772              $C$DW$147       .dwtag  DW_TAG_variable, DW_AT_name("spiHandle")
    1773                      .dwattr $C$DW$147, DW_AT_TI_symbol_name("_spiHandle")
    1774                      .dwattr $C$DW$147, DW_AT_type(*$C$DW$T$68)
    1775                      .dwattr $C$DW$147, DW_AT_location[DW_OP_reg12]
    1776                      .dwcfi  cfa_offset, -2
    1777                      .dwcfi  save_reg_to_mem, 26, 0
    1778                      .dwpsn  file "C:/ti/motorware/motorware_1_01_00_14/sw/drivers/spi/src/32b/f28x/f2806x/spi.c",line 181
    1779 00000083 1AC4          OR        *+XAR4[0],#0x0080     ; [CPU_] |181| 
         00000084 0080 
    1780              $C$DW$148       .dwtag  DW_TAG_TI_branch
    1781                      .dwattr $C$DW$148, DW_AT_low_pc(0x00)
    1782                      .dwattr $C$DW$148, DW_AT_TI_return
    1783 00000085 0006          LRETR     ; [CPU_] 
    1784                      ; return occurs ; [] 
    1785                      .dwattr $C$DW$145, DW_AT_TI_end_file("C:/ti/motorware/motorware_1_01_00_14/sw/drivers/spi/src/32b/f28
    1786                      .dwattr $C$DW$145, DW_AT_TI_end_line(0xb8)
    1787                      .dwattr $C$DW$145, DW_AT_TI_end_column(0x01)
TMS320C2000 Assembler PC v6.4.4 Wed Jul 08 12:49:30 2015

Tools Copyright (c) 1996-2015 Texas Instruments Incorporated
C:\Users\grant\AppData\Local\Temp\0440810                            PAGE   34

    1788                      .dwendentry
    1789                      .dwendtag $C$DW$145
    1790              
    1791 00000086               .sect   ".text"
    1792                      .clink
    1793                      .global _SPI_disableTxFifoInt
    1794              
    1795              $C$DW$149       .dwtag  DW_TAG_subprogram, DW_AT_name("SPI_disableTxFifoInt")
    1796                      .dwattr $C$DW$149, DW_AT_low_pc(_SPI_disableTxFifoInt)
    1797                      .dwattr $C$DW$149, DW_AT_high_pc(0x00)
    1798                      .dwattr $C$DW$149, DW_AT_TI_symbol_name("_SPI_disableTxFifoInt")
    1799                      .dwattr $C$DW$149, DW_AT_external
    1800                      .dwattr $C$DW$149, DW_AT_TI_begin_file("C:/ti/motorware/motorware_1_01_00_14/sw/drivers/spi/src/32b/f
    1801                      .dwattr $C$DW$149, DW_AT_TI_begin_line(0xa3)
    1802                      .dwattr $C$DW$149, DW_AT_TI_begin_column(0x06)
    1803                      .dwattr $C$DW$149, DW_AT_TI_max_frame_size(-2)
    1804                      .dwpsn  file "C:/ti/motorware/motorware_1_01_00_14/sw/drivers/spi/src/32b/f28x/f2806x/spi.c",line 164
    1805              
    1806                      .dwfde $C$DW$CIE, _SPI_disableTxFifoInt
    1807              $C$DW$150       .dwtag  DW_TAG_formal_parameter, DW_AT_name("spiHandle")
    1808                      .dwattr $C$DW$150, DW_AT_TI_symbol_name("_spiHandle")
    1809                      .dwattr $C$DW$150, DW_AT_type(*$C$DW$T$26)
    1810                      .dwattr $C$DW$150, DW_AT_location[DW_OP_reg12]
    1811              
    1812              ;***************************************************************
    1813              ;* FNAME: _SPI_disableTxFifoInt         FR SIZE:   0           *
    1814              ;*                                                             *
    1815              ;* FUNCTION ENVIRONMENT                                        *
    1816              ;*                                                             *
    1817              ;* FUNCTION PROPERTIES                                         *
    1818              ;*                            0 Parameter,  0 Auto,  0 SOE     *
    1819              ;***************************************************************
    1820              
    1821 00000086       _SPI_disableTxFifoInt:
    1822                      .dwcfi  cfa_offset, -2
    1823                      .dwcfi  save_reg_to_mem, 26, 0
    1824                      .dwpsn  file "C:/ti/motorware/motorware_1_01_00_14/sw/drivers/spi/src/32b/f28x/f2806x/spi.c",line 169
    1825 00000086 DC0A          ADDB      XAR4,#10              ; [CPU_] |169| 
    1826 00000087 18C4          AND       *+XAR4[0],#0xffdf     ; [CPU_] |169| 
         00000088 FFDF 
    1827              $C$DW$151       .dwtag  DW_TAG_TI_branch
    1828                      .dwattr $C$DW$151, DW_AT_low_pc(0x00)
    1829                      .dwattr $C$DW$151, DW_AT_TI_return
    1830 00000089 0006          LRETR     ; [CPU_] 
    1831                      ; return occurs ; [] 
    1832                      .dwattr $C$DW$149, DW_AT_TI_end_file("C:/ti/motorware/motorware_1_01_00_14/sw/drivers/spi/src/32b/f28
    1833                      .dwattr $C$DW$149, DW_AT_TI_end_line(0xac)
    1834                      .dwattr $C$DW$149, DW_AT_TI_end_column(0x01)
    1835                      .dwendentry
    1836                      .dwendtag $C$DW$149
    1837              
    1838 0000008a               .sect   ".text"
    1839                      .clink
    1840                      .global _SPI_disableTxFifoEnh
    1841              
TMS320C2000 Assembler PC v6.4.4 Wed Jul 08 12:49:30 2015

Tools Copyright (c) 1996-2015 Texas Instruments Incorporated
C:\Users\grant\AppData\Local\Temp\0440810                            PAGE   35

    1842              $C$DW$152       .dwtag  DW_TAG_subprogram, DW_AT_name("SPI_disableTxFifoEnh")
    1843                      .dwattr $C$DW$152, DW_AT_low_pc(_SPI_disableTxFifoEnh)
    1844                      .dwattr $C$DW$152, DW_AT_high_pc(0x00)
    1845                      .dwattr $C$DW$152, DW_AT_TI_symbol_name("_SPI_disableTxFifoEnh")
    1846                      .dwattr $C$DW$152, DW_AT_external
    1847                      .dwattr $C$DW$152, DW_AT_TI_begin_file("C:/ti/motorware/motorware_1_01_00_14/sw/drivers/spi/src/32b/f
    1848                      .dwattr $C$DW$152, DW_AT_TI_begin_line(0x97)
    1849                      .dwattr $C$DW$152, DW_AT_TI_begin_column(0x06)
    1850                      .dwattr $C$DW$152, DW_AT_TI_max_frame_size(-2)
    1851                      .dwpsn  file "C:/ti/motorware/motorware_1_01_00_14/sw/drivers/spi/src/32b/f28x/f2806x/spi.c",line 152
    1852              
    1853                      .dwfde $C$DW$CIE, _SPI_disableTxFifoEnh
    1854              $C$DW$153       .dwtag  DW_TAG_formal_parameter, DW_AT_name("spiHandle")
    1855                      .dwattr $C$DW$153, DW_AT_TI_symbol_name("_spiHandle")
    1856                      .dwattr $C$DW$153, DW_AT_type(*$C$DW$T$26)
    1857                      .dwattr $C$DW$153, DW_AT_location[DW_OP_reg12]
    1858              
    1859              ;***************************************************************
    1860              ;* FNAME: _SPI_disableTxFifoEnh         FR SIZE:   0           *
    1861              ;*                                                             *
    1862              ;* FUNCTION ENVIRONMENT                                        *
    1863              ;*                                                             *
    1864              ;* FUNCTION PROPERTIES                                         *
    1865              ;*                            0 Parameter,  0 Auto,  0 SOE     *
    1866              ;***************************************************************
    1867              
    1868 0000008a       _SPI_disableTxFifoEnh:
    1869                      .dwcfi  cfa_offset, -2
    1870                      .dwcfi  save_reg_to_mem, 26, 0
    1871                      .dwpsn  file "C:/ti/motorware/motorware_1_01_00_14/sw/drivers/spi/src/32b/f28x/f2806x/spi.c",line 157
    1872 0000008a DC0A          ADDB      XAR4,#10              ; [CPU_] |157| 
    1873 0000008b 18C4          AND       *+XAR4[0],#0xbfff     ; [CPU_] |157| 
         0000008c BFFF 
    1874              $C$DW$154       .dwtag  DW_TAG_TI_branch
    1875                      .dwattr $C$DW$154, DW_AT_low_pc(0x00)
    1876                      .dwattr $C$DW$154, DW_AT_TI_return
    1877 0000008d 0006          LRETR     ; [CPU_] 
    1878                      ; return occurs ; [] 
    1879                      .dwattr $C$DW$152, DW_AT_TI_end_file("C:/ti/motorware/motorware_1_01_00_14/sw/drivers/spi/src/32b/f28
    1880                      .dwattr $C$DW$152, DW_AT_TI_end_line(0xa0)
    1881                      .dwattr $C$DW$152, DW_AT_TI_end_column(0x01)
    1882                      .dwendentry
    1883                      .dwendtag $C$DW$152
    1884              
    1885 0000008e               .sect   ".text"
    1886                      .clink
    1887                      .global _SPI_disableTx
    1888              
    1889              $C$DW$155       .dwtag  DW_TAG_subprogram, DW_AT_name("SPI_disableTx")
    1890                      .dwattr $C$DW$155, DW_AT_low_pc(_SPI_disableTx)
    1891                      .dwattr $C$DW$155, DW_AT_high_pc(0x00)
    1892                      .dwattr $C$DW$155, DW_AT_TI_symbol_name("_SPI_disableTx")
    1893                      .dwattr $C$DW$155, DW_AT_external
    1894                      .dwattr $C$DW$155, DW_AT_TI_begin_file("C:/ti/motorware/motorware_1_01_00_14/sw/drivers/spi/src/32b/f
    1895                      .dwattr $C$DW$155, DW_AT_TI_begin_line(0x8b)
TMS320C2000 Assembler PC v6.4.4 Wed Jul 08 12:49:30 2015

Tools Copyright (c) 1996-2015 Texas Instruments Incorporated
C:\Users\grant\AppData\Local\Temp\0440810                            PAGE   36

    1896                      .dwattr $C$DW$155, DW_AT_TI_begin_column(0x06)
    1897                      .dwattr $C$DW$155, DW_AT_TI_max_frame_size(-2)
    1898                      .dwpsn  file "C:/ti/motorware/motorware_1_01_00_14/sw/drivers/spi/src/32b/f28x/f2806x/spi.c",line 140
    1899              
    1900                      .dwfde $C$DW$CIE, _SPI_disableTx
    1901              $C$DW$156       .dwtag  DW_TAG_formal_parameter, DW_AT_name("spiHandle")
    1902                      .dwattr $C$DW$156, DW_AT_TI_symbol_name("_spiHandle")
    1903                      .dwattr $C$DW$156, DW_AT_type(*$C$DW$T$26)
    1904                      .dwattr $C$DW$156, DW_AT_location[DW_OP_reg12]
    1905              
    1906              ;***************************************************************
    1907              ;* FNAME: _SPI_disableTx                FR SIZE:   0           *
    1908              ;*                                                             *
    1909              ;* FUNCTION ENVIRONMENT                                        *
    1910              ;*                                                             *
    1911              ;* FUNCTION PROPERTIES                                         *
    1912              ;*                            0 Parameter,  0 Auto,  0 SOE     *
    1913              ;***************************************************************
    1914              
    1915              _SPI_disableTx:
    1916              ;* AR4   assigned to _spiHandle
    1917              $C$DW$157       .dwtag  DW_TAG_variable, DW_AT_name("spiHandle")
    1918                      .dwattr $C$DW$157, DW_AT_TI_symbol_name("_spiHandle")
    1919                      .dwattr $C$DW$157, DW_AT_type(*$C$DW$T$68)
    1920                      .dwattr $C$DW$157, DW_AT_location[DW_OP_reg12]
    1921                      .dwcfi  cfa_offset, -2
    1922                      .dwcfi  save_reg_to_mem, 26, 0
    1923                      .dwpsn  file "C:/ti/motorware/motorware_1_01_00_14/sw/drivers/spi/src/32b/f28x/f2806x/spi.c",line 145
    1924 0000008e 18CC          AND       *+XAR4[1],#0xfffd     ; [CPU_] |145| 
         0000008f FFFD 
    1925              $C$DW$158       .dwtag  DW_TAG_TI_branch
    1926                      .dwattr $C$DW$158, DW_AT_low_pc(0x00)
    1927                      .dwattr $C$DW$158, DW_AT_TI_return
    1928 00000090 0006          LRETR     ; [CPU_] 
    1929                      ; return occurs ; [] 
    1930                      .dwattr $C$DW$155, DW_AT_TI_end_file("C:/ti/motorware/motorware_1_01_00_14/sw/drivers/spi/src/32b/f28
    1931                      .dwattr $C$DW$155, DW_AT_TI_end_line(0x94)
    1932                      .dwattr $C$DW$155, DW_AT_TI_end_column(0x01)
    1933                      .dwendentry
    1934                      .dwendtag $C$DW$155
    1935              
    1936 00000091               .sect   ".text"
    1937                      .clink
    1938                      .global _SPI_disableRxFifoInt
    1939              
    1940              $C$DW$159       .dwtag  DW_TAG_subprogram, DW_AT_name("SPI_disableRxFifoInt")
    1941                      .dwattr $C$DW$159, DW_AT_low_pc(_SPI_disableRxFifoInt)
    1942                      .dwattr $C$DW$159, DW_AT_high_pc(0x00)
    1943                      .dwattr $C$DW$159, DW_AT_TI_symbol_name("_SPI_disableRxFifoInt")
    1944                      .dwattr $C$DW$159, DW_AT_external
    1945                      .dwattr $C$DW$159, DW_AT_TI_begin_file("C:/ti/motorware/motorware_1_01_00_14/sw/drivers/spi/src/32b/f
    1946                      .dwattr $C$DW$159, DW_AT_TI_begin_line(0x7f)
    1947                      .dwattr $C$DW$159, DW_AT_TI_begin_column(0x06)
    1948                      .dwattr $C$DW$159, DW_AT_TI_max_frame_size(-2)
    1949                      .dwpsn  file "C:/ti/motorware/motorware_1_01_00_14/sw/drivers/spi/src/32b/f28x/f2806x/spi.c",line 128
TMS320C2000 Assembler PC v6.4.4 Wed Jul 08 12:49:30 2015

Tools Copyright (c) 1996-2015 Texas Instruments Incorporated
C:\Users\grant\AppData\Local\Temp\0440810                            PAGE   37

    1950              
    1951                      .dwfde $C$DW$CIE, _SPI_disableRxFifoInt
    1952              $C$DW$160       .dwtag  DW_TAG_formal_parameter, DW_AT_name("spiHandle")
    1953                      .dwattr $C$DW$160, DW_AT_TI_symbol_name("_spiHandle")
    1954                      .dwattr $C$DW$160, DW_AT_type(*$C$DW$T$26)
    1955                      .dwattr $C$DW$160, DW_AT_location[DW_OP_reg12]
    1956              
    1957              ;***************************************************************
    1958              ;* FNAME: _SPI_disableRxFifoInt         FR SIZE:   0           *
    1959              ;*                                                             *
    1960              ;* FUNCTION ENVIRONMENT                                        *
    1961              ;*                                                             *
    1962              ;* FUNCTION PROPERTIES                                         *
    1963              ;*                            0 Parameter,  0 Auto,  0 SOE     *
    1964              ;***************************************************************
    1965              
    1966 00000091       _SPI_disableRxFifoInt:
    1967                      .dwcfi  cfa_offset, -2
    1968                      .dwcfi  save_reg_to_mem, 26, 0
    1969                      .dwpsn  file "C:/ti/motorware/motorware_1_01_00_14/sw/drivers/spi/src/32b/f28x/f2806x/spi.c",line 133
    1970 00000091 DC0B          ADDB      XAR4,#11              ; [CPU_] |133| 
    1971 00000092 18C4          AND       *+XAR4[0],#0xffdf     ; [CPU_] |133| 
         00000093 FFDF 
    1972              $C$DW$161       .dwtag  DW_TAG_TI_branch
    1973                      .dwattr $C$DW$161, DW_AT_low_pc(0x00)
    1974                      .dwattr $C$DW$161, DW_AT_TI_return
    1975 00000094 0006          LRETR     ; [CPU_] 
    1976                      ; return occurs ; [] 
    1977                      .dwattr $C$DW$159, DW_AT_TI_end_file("C:/ti/motorware/motorware_1_01_00_14/sw/drivers/spi/src/32b/f28
    1978                      .dwattr $C$DW$159, DW_AT_TI_end_line(0x88)
    1979                      .dwattr $C$DW$159, DW_AT_TI_end_column(0x01)
    1980                      .dwendentry
    1981                      .dwendtag $C$DW$159
    1982              
    1983 00000095               .sect   ".text"
    1984                      .clink
    1985                      .global _SPI_disableOverRunInt
    1986              
    1987              $C$DW$162       .dwtag  DW_TAG_subprogram, DW_AT_name("SPI_disableOverRunInt")
    1988                      .dwattr $C$DW$162, DW_AT_low_pc(_SPI_disableOverRunInt)
    1989                      .dwattr $C$DW$162, DW_AT_high_pc(0x00)
    1990                      .dwattr $C$DW$162, DW_AT_TI_symbol_name("_SPI_disableOverRunInt")
    1991                      .dwattr $C$DW$162, DW_AT_external
    1992                      .dwattr $C$DW$162, DW_AT_TI_begin_file("C:/ti/motorware/motorware_1_01_00_14/sw/drivers/spi/src/32b/f
    1993                      .dwattr $C$DW$162, DW_AT_TI_begin_line(0x74)
    1994                      .dwattr $C$DW$162, DW_AT_TI_begin_column(0x06)
    1995                      .dwattr $C$DW$162, DW_AT_TI_max_frame_size(-2)
    1996                      .dwpsn  file "C:/ti/motorware/motorware_1_01_00_14/sw/drivers/spi/src/32b/f28x/f2806x/spi.c",line 117
    1997              
    1998                      .dwfde $C$DW$CIE, _SPI_disableOverRunInt
    1999              $C$DW$163       .dwtag  DW_TAG_formal_parameter, DW_AT_name("spiHandle")
    2000                      .dwattr $C$DW$163, DW_AT_TI_symbol_name("_spiHandle")
    2001                      .dwattr $C$DW$163, DW_AT_type(*$C$DW$T$26)
    2002                      .dwattr $C$DW$163, DW_AT_location[DW_OP_reg12]
    2003              
TMS320C2000 Assembler PC v6.4.4 Wed Jul 08 12:49:30 2015

Tools Copyright (c) 1996-2015 Texas Instruments Incorporated
C:\Users\grant\AppData\Local\Temp\0440810                            PAGE   38

    2004              ;***************************************************************
    2005              ;* FNAME: _SPI_disableOverRunInt        FR SIZE:   0           *
    2006              ;*                                                             *
    2007              ;* FUNCTION ENVIRONMENT                                        *
    2008              ;*                                                             *
    2009              ;* FUNCTION PROPERTIES                                         *
    2010              ;*                            0 Parameter,  0 Auto,  0 SOE     *
    2011              ;***************************************************************
    2012              
    2013              _SPI_disableOverRunInt:
    2014              ;* AR4   assigned to _spiHandle
    2015              $C$DW$164       .dwtag  DW_TAG_variable, DW_AT_name("spiHandle")
    2016                      .dwattr $C$DW$164, DW_AT_TI_symbol_name("_spiHandle")
    2017                      .dwattr $C$DW$164, DW_AT_type(*$C$DW$T$68)
    2018                      .dwattr $C$DW$164, DW_AT_location[DW_OP_reg12]
    2019                      .dwcfi  cfa_offset, -2
    2020                      .dwcfi  save_reg_to_mem, 26, 0
    2021                      .dwpsn  file "C:/ti/motorware/motorware_1_01_00_14/sw/drivers/spi/src/32b/f28x/f2806x/spi.c",line 121
    2022 00000095 18CC          AND       *+XAR4[1],#0xffef     ; [CPU_] |121| 
         00000096 FFEF 
    2023              $C$DW$165       .dwtag  DW_TAG_TI_branch
    2024                      .dwattr $C$DW$165, DW_AT_low_pc(0x00)
    2025                      .dwattr $C$DW$165, DW_AT_TI_return
    2026 00000097 0006          LRETR     ; [CPU_] 
    2027                      ; return occurs ; [] 
    2028                      .dwattr $C$DW$162, DW_AT_TI_end_file("C:/ti/motorware/motorware_1_01_00_14/sw/drivers/spi/src/32b/f28
    2029                      .dwattr $C$DW$162, DW_AT_TI_end_line(0x7c)
    2030                      .dwattr $C$DW$162, DW_AT_TI_end_column(0x01)
    2031                      .dwendentry
    2032                      .dwendtag $C$DW$162
    2033              
    2034 00000098               .sect   ".text"
    2035                      .clink
    2036                      .global _SPI_disableLoopBack
    2037              
    2038              $C$DW$166       .dwtag  DW_TAG_subprogram, DW_AT_name("SPI_disableLoopBack")
    2039                      .dwattr $C$DW$166, DW_AT_low_pc(_SPI_disableLoopBack)
    2040                      .dwattr $C$DW$166, DW_AT_high_pc(0x00)
    2041                      .dwattr $C$DW$166, DW_AT_TI_symbol_name("_SPI_disableLoopBack")
    2042                      .dwattr $C$DW$166, DW_AT_external
    2043                      .dwattr $C$DW$166, DW_AT_TI_begin_file("C:/ti/motorware/motorware_1_01_00_14/sw/drivers/spi/src/32b/f
    2044                      .dwattr $C$DW$166, DW_AT_TI_begin_line(0x68)
    2045                      .dwattr $C$DW$166, DW_AT_TI_begin_column(0x06)
    2046                      .dwattr $C$DW$166, DW_AT_TI_max_frame_size(-2)
    2047                      .dwpsn  file "C:/ti/motorware/motorware_1_01_00_14/sw/drivers/spi/src/32b/f28x/f2806x/spi.c",line 105
    2048              
    2049                      .dwfde $C$DW$CIE, _SPI_disableLoopBack
    2050              $C$DW$167       .dwtag  DW_TAG_formal_parameter, DW_AT_name("spiHandle")
    2051                      .dwattr $C$DW$167, DW_AT_TI_symbol_name("_spiHandle")
    2052                      .dwattr $C$DW$167, DW_AT_type(*$C$DW$T$26)
    2053                      .dwattr $C$DW$167, DW_AT_location[DW_OP_reg12]
    2054              
    2055              ;***************************************************************
    2056              ;* FNAME: _SPI_disableLoopBack          FR SIZE:   0           *
    2057              ;*                                                             *
TMS320C2000 Assembler PC v6.4.4 Wed Jul 08 12:49:30 2015

Tools Copyright (c) 1996-2015 Texas Instruments Incorporated
C:\Users\grant\AppData\Local\Temp\0440810                            PAGE   39

    2058              ;* FUNCTION ENVIRONMENT                                        *
    2059              ;*                                                             *
    2060              ;* FUNCTION PROPERTIES                                         *
    2061              ;*                            0 Parameter,  0 Auto,  0 SOE     *
    2062              ;***************************************************************
    2063              
    2064              _SPI_disableLoopBack:
    2065              ;* AR4   assigned to _spiHandle
    2066              $C$DW$168       .dwtag  DW_TAG_variable, DW_AT_name("spiHandle")
    2067                      .dwattr $C$DW$168, DW_AT_TI_symbol_name("_spiHandle")
    2068                      .dwattr $C$DW$168, DW_AT_type(*$C$DW$T$68)
    2069                      .dwattr $C$DW$168, DW_AT_location[DW_OP_reg12]
    2070                      .dwcfi  cfa_offset, -2
    2071                      .dwcfi  save_reg_to_mem, 26, 0
    2072                      .dwpsn  file "C:/ti/motorware/motorware_1_01_00_14/sw/drivers/spi/src/32b/f28x/f2806x/spi.c",line 110
    2073 00000098 18C4          AND       *+XAR4[0],#0xffef     ; [CPU_] |110| 
         00000099 FFEF 
    2074              $C$DW$169       .dwtag  DW_TAG_TI_branch
    2075                      .dwattr $C$DW$169, DW_AT_low_pc(0x00)
    2076                      .dwattr $C$DW$169, DW_AT_TI_return
    2077 0000009a 0006          LRETR     ; [CPU_] 
    2078                      ; return occurs ; [] 
    2079                      .dwattr $C$DW$166, DW_AT_TI_end_file("C:/ti/motorware/motorware_1_01_00_14/sw/drivers/spi/src/32b/f28
    2080                      .dwattr $C$DW$166, DW_AT_TI_end_line(0x71)
    2081                      .dwattr $C$DW$166, DW_AT_TI_end_column(0x01)
    2082                      .dwendentry
    2083                      .dwendtag $C$DW$166
    2084              
    2085 0000009b               .sect   ".text"
    2086                      .clink
    2087                      .global _SPI_disableInt
    2088              
    2089              $C$DW$170       .dwtag  DW_TAG_subprogram, DW_AT_name("SPI_disableInt")
    2090                      .dwattr $C$DW$170, DW_AT_low_pc(_SPI_disableInt)
    2091                      .dwattr $C$DW$170, DW_AT_high_pc(0x00)
    2092                      .dwattr $C$DW$170, DW_AT_TI_symbol_name("_SPI_disableInt")
    2093                      .dwattr $C$DW$170, DW_AT_external
    2094                      .dwattr $C$DW$170, DW_AT_TI_begin_file("C:/ti/motorware/motorware_1_01_00_14/sw/drivers/spi/src/32b/f
    2095                      .dwattr $C$DW$170, DW_AT_TI_begin_line(0x5c)
    2096                      .dwattr $C$DW$170, DW_AT_TI_begin_column(0x06)
    2097                      .dwattr $C$DW$170, DW_AT_TI_max_frame_size(-2)
    2098                      .dwpsn  file "C:/ti/motorware/motorware_1_01_00_14/sw/drivers/spi/src/32b/f28x/f2806x/spi.c",line 93,
    2099              
    2100                      .dwfde $C$DW$CIE, _SPI_disableInt
    2101              $C$DW$171       .dwtag  DW_TAG_formal_parameter, DW_AT_name("spiHandle")
    2102                      .dwattr $C$DW$171, DW_AT_TI_symbol_name("_spiHandle")
    2103                      .dwattr $C$DW$171, DW_AT_type(*$C$DW$T$26)
    2104                      .dwattr $C$DW$171, DW_AT_location[DW_OP_reg12]
    2105              
    2106              ;***************************************************************
    2107              ;* FNAME: _SPI_disableInt               FR SIZE:   0           *
    2108              ;*                                                             *
    2109              ;* FUNCTION ENVIRONMENT                                        *
    2110              ;*                                                             *
    2111              ;* FUNCTION PROPERTIES                                         *
TMS320C2000 Assembler PC v6.4.4 Wed Jul 08 12:49:30 2015

Tools Copyright (c) 1996-2015 Texas Instruments Incorporated
C:\Users\grant\AppData\Local\Temp\0440810                            PAGE   40

    2112              ;*                            0 Parameter,  0 Auto,  0 SOE     *
    2113              ;***************************************************************
    2114              
    2115              _SPI_disableInt:
    2116              ;* AR4   assigned to _spiHandle
    2117              $C$DW$172       .dwtag  DW_TAG_variable, DW_AT_name("spiHandle")
    2118                      .dwattr $C$DW$172, DW_AT_TI_symbol_name("_spiHandle")
    2119                      .dwattr $C$DW$172, DW_AT_type(*$C$DW$T$68)
    2120                      .dwattr $C$DW$172, DW_AT_location[DW_OP_reg12]
    2121                      .dwcfi  cfa_offset, -2
    2122                      .dwcfi  save_reg_to_mem, 26, 0
    2123                      .dwpsn  file "C:/ti/motorware/motorware_1_01_00_14/sw/drivers/spi/src/32b/f28x/f2806x/spi.c",line 98,
    2124 0000009b 18CC          AND       *+XAR4[1],#0xfffe     ; [CPU_] |98| 
         0000009c FFFE 
    2125              $C$DW$173       .dwtag  DW_TAG_TI_branch
    2126                      .dwattr $C$DW$173, DW_AT_low_pc(0x00)
    2127                      .dwattr $C$DW$173, DW_AT_TI_return
    2128 0000009d 0006          LRETR     ; [CPU_] 
    2129                      ; return occurs ; [] 
    2130                      .dwattr $C$DW$170, DW_AT_TI_end_file("C:/ti/motorware/motorware_1_01_00_14/sw/drivers/spi/src/32b/f28
    2131                      .dwattr $C$DW$170, DW_AT_TI_end_line(0x65)
    2132                      .dwattr $C$DW$170, DW_AT_TI_end_column(0x01)
    2133                      .dwendentry
    2134                      .dwendtag $C$DW$170
    2135              
    2136 0000009e               .sect   ".text"
    2137                      .clink
    2138                      .global _SPI_clearTxFifoInt
    2139              
    2140              $C$DW$174       .dwtag  DW_TAG_subprogram, DW_AT_name("SPI_clearTxFifoInt")
    2141                      .dwattr $C$DW$174, DW_AT_low_pc(_SPI_clearTxFifoInt)
    2142                      .dwattr $C$DW$174, DW_AT_high_pc(0x00)
    2143                      .dwattr $C$DW$174, DW_AT_TI_symbol_name("_SPI_clearTxFifoInt")
    2144                      .dwattr $C$DW$174, DW_AT_external
    2145                      .dwattr $C$DW$174, DW_AT_TI_begin_file("C:/ti/motorware/motorware_1_01_00_14/sw/drivers/spi/src/32b/f
    2146                      .dwattr $C$DW$174, DW_AT_TI_begin_line(0x50)
    2147                      .dwattr $C$DW$174, DW_AT_TI_begin_column(0x06)
    2148                      .dwattr $C$DW$174, DW_AT_TI_max_frame_size(-2)
    2149                      .dwpsn  file "C:/ti/motorware/motorware_1_01_00_14/sw/drivers/spi/src/32b/f28x/f2806x/spi.c",line 81,
    2150              
    2151                      .dwfde $C$DW$CIE, _SPI_clearTxFifoInt
    2152              $C$DW$175       .dwtag  DW_TAG_formal_parameter, DW_AT_name("spiHandle")
    2153                      .dwattr $C$DW$175, DW_AT_TI_symbol_name("_spiHandle")
    2154                      .dwattr $C$DW$175, DW_AT_type(*$C$DW$T$26)
    2155                      .dwattr $C$DW$175, DW_AT_location[DW_OP_reg12]
    2156              
    2157              ;***************************************************************
    2158              ;* FNAME: _SPI_clearTxFifoInt           FR SIZE:   0           *
    2159              ;*                                                             *
    2160              ;* FUNCTION ENVIRONMENT                                        *
    2161              ;*                                                             *
    2162              ;* FUNCTION PROPERTIES                                         *
    2163              ;*                            0 Parameter,  0 Auto,  0 SOE     *
    2164              ;***************************************************************
    2165              
TMS320C2000 Assembler PC v6.4.4 Wed Jul 08 12:49:30 2015

Tools Copyright (c) 1996-2015 Texas Instruments Incorporated
C:\Users\grant\AppData\Local\Temp\0440810                            PAGE   41

    2166 0000009e       _SPI_clearTxFifoInt:
    2167                      .dwcfi  cfa_offset, -2
    2168                      .dwcfi  save_reg_to_mem, 26, 0
    2169                      .dwpsn  file "C:/ti/motorware/motorware_1_01_00_14/sw/drivers/spi/src/32b/f28x/f2806x/spi.c",line 86,
    2170 0000009e DC0A          ADDB      XAR4,#10              ; [CPU_] |86| 
    2171 0000009f 1AC4          OR        *+XAR4[0],#0x0040     ; [CPU_] |86| 
         000000a0 0040 
    2172              $C$DW$176       .dwtag  DW_TAG_TI_branch
    2173                      .dwattr $C$DW$176, DW_AT_low_pc(0x00)
    2174                      .dwattr $C$DW$176, DW_AT_TI_return
    2175 000000a1 0006          LRETR     ; [CPU_] 
    2176                      ; return occurs ; [] 
    2177                      .dwattr $C$DW$174, DW_AT_TI_end_file("C:/ti/motorware/motorware_1_01_00_14/sw/drivers/spi/src/32b/f28
    2178                      .dwattr $C$DW$174, DW_AT_TI_end_line(0x59)
    2179                      .dwattr $C$DW$174, DW_AT_TI_end_column(0x01)
    2180                      .dwendentry
    2181                      .dwendtag $C$DW$174
    2182              
    2183 000000a2               .sect   ".text"
    2184                      .clink
    2185                      .global _SPI_clearRxFifoOvf
    2186              
    2187              $C$DW$177       .dwtag  DW_TAG_subprogram, DW_AT_name("SPI_clearRxFifoOvf")
    2188                      .dwattr $C$DW$177, DW_AT_low_pc(_SPI_clearRxFifoOvf)
    2189                      .dwattr $C$DW$177, DW_AT_high_pc(0x00)
    2190                      .dwattr $C$DW$177, DW_AT_TI_symbol_name("_SPI_clearRxFifoOvf")
    2191                      .dwattr $C$DW$177, DW_AT_external
    2192                      .dwattr $C$DW$177, DW_AT_TI_begin_file("C:/ti/motorware/motorware_1_01_00_14/sw/drivers/spi/src/32b/f
    2193                      .dwattr $C$DW$177, DW_AT_TI_begin_line(0x38)
    2194                      .dwattr $C$DW$177, DW_AT_TI_begin_column(0x06)
    2195                      .dwattr $C$DW$177, DW_AT_TI_max_frame_size(-2)
    2196                      .dwpsn  file "C:/ti/motorware/motorware_1_01_00_14/sw/drivers/spi/src/32b/f28x/f2806x/spi.c",line 57,
    2197              
    2198                      .dwfde $C$DW$CIE, _SPI_clearRxFifoOvf
    2199              $C$DW$178       .dwtag  DW_TAG_formal_parameter, DW_AT_name("spiHandle")
    2200                      .dwattr $C$DW$178, DW_AT_TI_symbol_name("_spiHandle")
    2201                      .dwattr $C$DW$178, DW_AT_type(*$C$DW$T$26)
    2202                      .dwattr $C$DW$178, DW_AT_location[DW_OP_reg12]
    2203              
    2204              ;***************************************************************
    2205              ;* FNAME: _SPI_clearRxFifoOvf           FR SIZE:   0           *
    2206              ;*                                                             *
    2207              ;* FUNCTION ENVIRONMENT                                        *
    2208              ;*                                                             *
    2209              ;* FUNCTION PROPERTIES                                         *
    2210              ;*                            0 Parameter,  0 Auto,  0 SOE     *
    2211              ;***************************************************************
    2212              
    2213 000000a2       _SPI_clearRxFifoOvf:
    2214                      .dwcfi  cfa_offset, -2
    2215                      .dwcfi  save_reg_to_mem, 26, 0
    2216                      .dwpsn  file "C:/ti/motorware/motorware_1_01_00_14/sw/drivers/spi/src/32b/f28x/f2806x/spi.c",line 62,
    2217 000000a2 DC0B          ADDB      XAR4,#11              ; [CPU_] |62| 
    2218 000000a3 1AC4          OR        *+XAR4[0],#0x4000     ; [CPU_] |62| 
         000000a4 4000 
TMS320C2000 Assembler PC v6.4.4 Wed Jul 08 12:49:30 2015

Tools Copyright (c) 1996-2015 Texas Instruments Incorporated
C:\Users\grant\AppData\Local\Temp\0440810                            PAGE   42

    2219              $C$DW$179       .dwtag  DW_TAG_TI_branch
    2220                      .dwattr $C$DW$179, DW_AT_low_pc(0x00)
    2221                      .dwattr $C$DW$179, DW_AT_TI_return
    2222 000000a5 0006          LRETR     ; [CPU_] 
    2223                      ; return occurs ; [] 
    2224                      .dwattr $C$DW$177, DW_AT_TI_end_file("C:/ti/motorware/motorware_1_01_00_14/sw/drivers/spi/src/32b/f28
    2225                      .dwattr $C$DW$177, DW_AT_TI_end_line(0x41)
    2226                      .dwattr $C$DW$177, DW_AT_TI_end_column(0x01)
    2227                      .dwendentry
    2228                      .dwendtag $C$DW$177
    2229              
    2230 000000a6               .sect   ".text"
    2231                      .clink
    2232                      .global _SPI_clearRxFifoInt
    2233              
    2234              $C$DW$180       .dwtag  DW_TAG_subprogram, DW_AT_name("SPI_clearRxFifoInt")
    2235                      .dwattr $C$DW$180, DW_AT_low_pc(_SPI_clearRxFifoInt)
    2236                      .dwattr $C$DW$180, DW_AT_high_pc(0x00)
    2237                      .dwattr $C$DW$180, DW_AT_TI_symbol_name("_SPI_clearRxFifoInt")
    2238                      .dwattr $C$DW$180, DW_AT_external
    2239                      .dwattr $C$DW$180, DW_AT_TI_begin_file("C:/ti/motorware/motorware_1_01_00_14/sw/drivers/spi/src/32b/f
    2240                      .dwattr $C$DW$180, DW_AT_TI_begin_line(0x44)
    2241                      .dwattr $C$DW$180, DW_AT_TI_begin_column(0x06)
    2242                      .dwattr $C$DW$180, DW_AT_TI_max_frame_size(-2)
    2243                      .dwpsn  file "C:/ti/motorware/motorware_1_01_00_14/sw/drivers/spi/src/32b/f28x/f2806x/spi.c",line 69,
    2244              
    2245                      .dwfde $C$DW$CIE, _SPI_clearRxFifoInt
    2246              $C$DW$181       .dwtag  DW_TAG_formal_parameter, DW_AT_name("spiHandle")
    2247                      .dwattr $C$DW$181, DW_AT_TI_symbol_name("_spiHandle")
    2248                      .dwattr $C$DW$181, DW_AT_type(*$C$DW$T$26)
    2249                      .dwattr $C$DW$181, DW_AT_location[DW_OP_reg12]
    2250              
    2251              ;***************************************************************
    2252              ;* FNAME: _SPI_clearRxFifoInt           FR SIZE:   0           *
    2253              ;*                                                             *
    2254              ;* FUNCTION ENVIRONMENT                                        *
    2255              ;*                                                             *
    2256              ;* FUNCTION PROPERTIES                                         *
    2257              ;*                            0 Parameter,  0 Auto,  0 SOE     *
    2258              ;***************************************************************
    2259              
    2260 000000a6       _SPI_clearRxFifoInt:
    2261                      .dwcfi  cfa_offset, -2
    2262                      .dwcfi  save_reg_to_mem, 26, 0
    2263                      .dwpsn  file "C:/ti/motorware/motorware_1_01_00_14/sw/drivers/spi/src/32b/f28x/f2806x/spi.c",line 74,
    2264 000000a6 DC0B          ADDB      XAR4,#11              ; [CPU_] |74| 
    2265 000000a7 1AC4          OR        *+XAR4[0],#0x0040     ; [CPU_] |74| 
         000000a8 0040 
    2266              $C$DW$182       .dwtag  DW_TAG_TI_branch
    2267                      .dwattr $C$DW$182, DW_AT_low_pc(0x00)
    2268                      .dwattr $C$DW$182, DW_AT_TI_return
    2269 000000a9 0006          LRETR     ; [CPU_] 
    2270                      ; return occurs ; [] 
    2271                      .dwattr $C$DW$180, DW_AT_TI_end_file("C:/ti/motorware/motorware_1_01_00_14/sw/drivers/spi/src/32b/f28
    2272                      .dwattr $C$DW$180, DW_AT_TI_end_line(0x4d)
TMS320C2000 Assembler PC v6.4.4 Wed Jul 08 12:49:30 2015

Tools Copyright (c) 1996-2015 Texas Instruments Incorporated
C:\Users\grant\AppData\Local\Temp\0440810                            PAGE   43

    2273                      .dwattr $C$DW$180, DW_AT_TI_end_column(0x01)
    2274                      .dwendentry
    2275                      .dwendtag $C$DW$180
    2276              
    2277              
    2278              ;***************************************************************
    2279              ;* TYPE INFORMATION                                            *
    2280              ;***************************************************************
    2281              
    2282              $C$DW$T$23      .dwtag  DW_TAG_enumeration_type
    2283                      .dwattr $C$DW$T$23, DW_AT_byte_size(0x01)
    2284              $C$DW$183       .dwtag  DW_TAG_enumerator, DW_AT_name("SPI_FifoStatus_Empty"), DW_AT_const_value(0x00)
    2285              $C$DW$184       .dwtag  DW_TAG_enumerator, DW_AT_name("SPI_FifoStatus_1_Word"), DW_AT_const_value(0x100)
    2286              $C$DW$185       .dwtag  DW_TAG_enumerator, DW_AT_name("SPI_FifoStatus_2_Words"), DW_AT_const_value(0x200)
    2287              $C$DW$186       .dwtag  DW_TAG_enumerator, DW_AT_name("SPI_FifoStatus_3_Words"), DW_AT_const_value(0x300)
    2288              $C$DW$187       .dwtag  DW_TAG_enumerator, DW_AT_name("SPI_FifoStatus_4_Words"), DW_AT_const_value(0x400)
    2289                      .dwendtag $C$DW$T$23
    2290              
    2291              $C$DW$T$24      .dwtag  DW_TAG_typedef, DW_AT_name("SPI_FifoStatus_e")
    2292                      .dwattr $C$DW$T$24, DW_AT_type(*$C$DW$T$23)
    2293                      .dwattr $C$DW$T$24, DW_AT_language(DW_LANG_C)
    2294              
    2295              $C$DW$T$29      .dwtag  DW_TAG_enumeration_type
    2296                      .dwattr $C$DW$T$29, DW_AT_byte_size(0x01)
    2297              $C$DW$188       .dwtag  DW_TAG_enumerator, DW_AT_name("SPI_IntFlagStatus_InProgress"), DW_AT_const_value(0x00
    2298              $C$DW$189       .dwtag  DW_TAG_enumerator, DW_AT_name("SPI_IntFlagStatus_Completed"), DW_AT_const_value(0x40)
    2299                      .dwendtag $C$DW$T$29
    2300              
    2301              $C$DW$T$30      .dwtag  DW_TAG_typedef, DW_AT_name("SPI_IntFlagStatus_e")
    2302                      .dwattr $C$DW$T$30, DW_AT_type(*$C$DW$T$29)
    2303                      .dwattr $C$DW$T$30, DW_AT_language(DW_LANG_C)
    2304              
    2305              $C$DW$T$33      .dwtag  DW_TAG_enumeration_type
    2306                      .dwattr $C$DW$T$33, DW_AT_byte_size(0x01)
    2307              $C$DW$190       .dwtag  DW_TAG_enumerator, DW_AT_name("SPI_TxBufferStatus_Empty"), DW_AT_const_value(0x00)
    2308              $C$DW$191       .dwtag  DW_TAG_enumerator, DW_AT_name("SPI_TxBufferStatus_Full"), DW_AT_const_value(0x20)
    2309                      .dwendtag $C$DW$T$33
    2310              
    2311              $C$DW$T$34      .dwtag  DW_TAG_typedef, DW_AT_name("SPI_TxBufferStatus_e")
    2312                      .dwattr $C$DW$T$34, DW_AT_type(*$C$DW$T$33)
    2313                      .dwattr $C$DW$T$34, DW_AT_language(DW_LANG_C)
    2314              
    2315              $C$DW$T$37      .dwtag  DW_TAG_enumeration_type
    2316                      .dwattr $C$DW$T$37, DW_AT_byte_size(0x01)
    2317              $C$DW$192       .dwtag  DW_TAG_enumerator, DW_AT_name("SPI_BaudRate_LSPCLK_Over_Four"), DW_AT_const_value(0x0
    2318              $C$DW$193       .dwtag  DW_TAG_enumerator, DW_AT_name("SPI_BaudRate_1_MBaud"), DW_AT_const_value(0x0e)
    2319                      .dwendtag $C$DW$T$37
    2320              
    2321              $C$DW$T$38      .dwtag  DW_TAG_typedef, DW_AT_name("SPI_BaudRate_e")
    2322                      .dwattr $C$DW$T$38, DW_AT_type(*$C$DW$T$37)
    2323                      .dwattr $C$DW$T$38, DW_AT_language(DW_LANG_C)
    2324              $C$DW$194       .dwtag  DW_TAG_TI_far_type
    2325                      .dwattr $C$DW$194, DW_AT_type(*$C$DW$T$38)
    2326              $C$DW$T$39      .dwtag  DW_TAG_const_type
    2327                      .dwattr $C$DW$T$39, DW_AT_type(*$C$DW$194)
TMS320C2000 Assembler PC v6.4.4 Wed Jul 08 12:49:30 2015

Tools Copyright (c) 1996-2015 Texas Instruments Incorporated
C:\Users\grant\AppData\Local\Temp\0440810                            PAGE   44

    2328              
    2329              $C$DW$T$40      .dwtag  DW_TAG_enumeration_type
    2330                      .dwattr $C$DW$T$40, DW_AT_byte_size(0x01)
    2331              $C$DW$195       .dwtag  DW_TAG_enumerator, DW_AT_name("SPI_CharLength_1_Bit"), DW_AT_const_value(0x00)
    2332              $C$DW$196       .dwtag  DW_TAG_enumerator, DW_AT_name("SPI_CharLength_2_Bits"), DW_AT_const_value(0x01)
    2333              $C$DW$197       .dwtag  DW_TAG_enumerator, DW_AT_name("SPI_CharLength_3_Bits"), DW_AT_const_value(0x02)
    2334              $C$DW$198       .dwtag  DW_TAG_enumerator, DW_AT_name("SPI_CharLength_4_Bits"), DW_AT_const_value(0x03)
    2335              $C$DW$199       .dwtag  DW_TAG_enumerator, DW_AT_name("SPI_CharLength_5_Bits"), DW_AT_const_value(0x04)
    2336              $C$DW$200       .dwtag  DW_TAG_enumerator, DW_AT_name("SPI_CharLength_6_Bits"), DW_AT_const_value(0x05)
    2337              $C$DW$201       .dwtag  DW_TAG_enumerator, DW_AT_name("SPI_CharLength_7_Bits"), DW_AT_const_value(0x06)
    2338              $C$DW$202       .dwtag  DW_TAG_enumerator, DW_AT_name("SPI_CharLength_8_Bits"), DW_AT_const_value(0x07)
    2339              $C$DW$203       .dwtag  DW_TAG_enumerator, DW_AT_name("SPI_CharLength_9_Bits"), DW_AT_const_value(0x08)
    2340              $C$DW$204       .dwtag  DW_TAG_enumerator, DW_AT_name("SPI_CharLength_10_Bits"), DW_AT_const_value(0x09)
    2341              $C$DW$205       .dwtag  DW_TAG_enumerator, DW_AT_name("SPI_CharLength_11_Bits"), DW_AT_const_value(0x0a)
    2342              $C$DW$206       .dwtag  DW_TAG_enumerator, DW_AT_name("SPI_CharLength_12_Bits"), DW_AT_const_value(0x0b)
    2343              $C$DW$207       .dwtag  DW_TAG_enumerator, DW_AT_name("SPI_CharLength_13_Bits"), DW_AT_const_value(0x0c)
    2344              $C$DW$208       .dwtag  DW_TAG_enumerator, DW_AT_name("SPI_CharLength_14_Bits"), DW_AT_const_value(0x0d)
    2345              $C$DW$209       .dwtag  DW_TAG_enumerator, DW_AT_name("SPI_CharLength_15_Bits"), DW_AT_const_value(0x0e)
    2346              $C$DW$210       .dwtag  DW_TAG_enumerator, DW_AT_name("SPI_CharLength_16_Bits"), DW_AT_const_value(0x0f)
    2347                      .dwendtag $C$DW$T$40
    2348              
    2349              $C$DW$T$41      .dwtag  DW_TAG_typedef, DW_AT_name("SPI_CharLength_e")
    2350                      .dwattr $C$DW$T$41, DW_AT_type(*$C$DW$T$40)
    2351                      .dwattr $C$DW$T$41, DW_AT_language(DW_LANG_C)
    2352              $C$DW$211       .dwtag  DW_TAG_TI_far_type
    2353                      .dwattr $C$DW$211, DW_AT_type(*$C$DW$T$41)
    2354              $C$DW$T$42      .dwtag  DW_TAG_const_type
    2355                      .dwattr $C$DW$T$42, DW_AT_type(*$C$DW$211)
    2356              
    2357              $C$DW$T$43      .dwtag  DW_TAG_enumeration_type
    2358                      .dwattr $C$DW$T$43, DW_AT_byte_size(0x01)
    2359              $C$DW$212       .dwtag  DW_TAG_enumerator, DW_AT_name("SPI_ClkPhase_Normal"), DW_AT_const_value(0x00)
    2360              $C$DW$213       .dwtag  DW_TAG_enumerator, DW_AT_name("SPI_ClkPhase_Delayed"), DW_AT_const_value(0x08)
    2361                      .dwendtag $C$DW$T$43
    2362              
    2363              $C$DW$T$44      .dwtag  DW_TAG_typedef, DW_AT_name("SPI_ClkPhase_e")
    2364                      .dwattr $C$DW$T$44, DW_AT_type(*$C$DW$T$43)
    2365                      .dwattr $C$DW$T$44, DW_AT_language(DW_LANG_C)
    2366              $C$DW$214       .dwtag  DW_TAG_TI_far_type
    2367                      .dwattr $C$DW$214, DW_AT_type(*$C$DW$T$44)
    2368              $C$DW$T$45      .dwtag  DW_TAG_const_type
    2369                      .dwattr $C$DW$T$45, DW_AT_type(*$C$DW$214)
    2370              
    2371              $C$DW$T$46      .dwtag  DW_TAG_enumeration_type
    2372                      .dwattr $C$DW$T$46, DW_AT_byte_size(0x01)
    2373              $C$DW$215       .dwtag  DW_TAG_enumerator, DW_AT_name("SPI_ClkPolarity_OutputRisingEdge_InputFallingEdge"), D
    2374              $C$DW$216       .dwtag  DW_TAG_enumerator, DW_AT_name("SPI_ClkPolarity_OutputFallingEdge_InputRisingEdge"), D
    2375                      .dwendtag $C$DW$T$46
    2376              
    2377              $C$DW$T$47      .dwtag  DW_TAG_typedef, DW_AT_name("SPI_ClkPolarity_e")
    2378                      .dwattr $C$DW$T$47, DW_AT_type(*$C$DW$T$46)
    2379                      .dwattr $C$DW$T$47, DW_AT_language(DW_LANG_C)
    2380              $C$DW$217       .dwtag  DW_TAG_TI_far_type
    2381                      .dwattr $C$DW$217, DW_AT_type(*$C$DW$T$47)
    2382              $C$DW$T$48      .dwtag  DW_TAG_const_type
TMS320C2000 Assembler PC v6.4.4 Wed Jul 08 12:49:30 2015

Tools Copyright (c) 1996-2015 Texas Instruments Incorporated
C:\Users\grant\AppData\Local\Temp\0440810                            PAGE   45

    2383                      .dwattr $C$DW$T$48, DW_AT_type(*$C$DW$217)
    2384              
    2385              $C$DW$T$49      .dwtag  DW_TAG_enumeration_type
    2386                      .dwattr $C$DW$T$49, DW_AT_byte_size(0x01)
    2387              $C$DW$218       .dwtag  DW_TAG_enumerator, DW_AT_name("SPI_Mode_Slave"), DW_AT_const_value(0x00)
    2388              $C$DW$219       .dwtag  DW_TAG_enumerator, DW_AT_name("SPI_Mode_Master"), DW_AT_const_value(0x04)
    2389                      .dwendtag $C$DW$T$49
    2390              
    2391              $C$DW$T$50      .dwtag  DW_TAG_typedef, DW_AT_name("SPI_Mode_e")
    2392                      .dwattr $C$DW$T$50, DW_AT_type(*$C$DW$T$49)
    2393                      .dwattr $C$DW$T$50, DW_AT_language(DW_LANG_C)
    2394              $C$DW$220       .dwtag  DW_TAG_TI_far_type
    2395                      .dwattr $C$DW$220, DW_AT_type(*$C$DW$T$50)
    2396              $C$DW$T$51      .dwtag  DW_TAG_const_type
    2397                      .dwattr $C$DW$T$51, DW_AT_type(*$C$DW$220)
    2398              
    2399              $C$DW$T$52      .dwtag  DW_TAG_enumeration_type
    2400                      .dwattr $C$DW$T$52, DW_AT_byte_size(0x01)
    2401              $C$DW$221       .dwtag  DW_TAG_enumerator, DW_AT_name("SPI_Priority_Immediate"), DW_AT_const_value(0x00)
    2402              $C$DW$222       .dwtag  DW_TAG_enumerator, DW_AT_name("SPI_Priority_FreeRun"), DW_AT_const_value(0x10)
    2403              $C$DW$223       .dwtag  DW_TAG_enumerator, DW_AT_name("SPI_Priority_AfterRxRxSeq"), DW_AT_const_value(0x20)
    2404                      .dwendtag $C$DW$T$52
    2405              
    2406              $C$DW$T$53      .dwtag  DW_TAG_typedef, DW_AT_name("SPI_Priority_e")
    2407                      .dwattr $C$DW$T$53, DW_AT_type(*$C$DW$T$52)
    2408                      .dwattr $C$DW$T$53, DW_AT_language(DW_LANG_C)
    2409              $C$DW$224       .dwtag  DW_TAG_TI_far_type
    2410                      .dwattr $C$DW$224, DW_AT_type(*$C$DW$T$53)
    2411              $C$DW$T$54      .dwtag  DW_TAG_const_type
    2412                      .dwattr $C$DW$T$54, DW_AT_type(*$C$DW$224)
    2413              
    2414              $C$DW$T$55      .dwtag  DW_TAG_enumeration_type
    2415                      .dwattr $C$DW$T$55, DW_AT_byte_size(0x01)
    2416              $C$DW$225       .dwtag  DW_TAG_enumerator, DW_AT_name("SPI_FifoLevel_Empty"), DW_AT_const_value(0x00)
    2417              $C$DW$226       .dwtag  DW_TAG_enumerator, DW_AT_name("SPI_FifoLevel_1_Word"), DW_AT_const_value(0x01)
    2418              $C$DW$227       .dwtag  DW_TAG_enumerator, DW_AT_name("SPI_FifoLevel_2_Words"), DW_AT_const_value(0x02)
    2419              $C$DW$228       .dwtag  DW_TAG_enumerator, DW_AT_name("SPI_FifoLevel_3_Words"), DW_AT_const_value(0x03)
    2420              $C$DW$229       .dwtag  DW_TAG_enumerator, DW_AT_name("SPI_FifoLevel_4_Words"), DW_AT_const_value(0x04)
    2421                      .dwendtag $C$DW$T$55
    2422              
    2423              $C$DW$T$56      .dwtag  DW_TAG_typedef, DW_AT_name("SPI_FifoLevel_e")
    2424                      .dwattr $C$DW$T$56, DW_AT_type(*$C$DW$T$55)
    2425                      .dwattr $C$DW$T$56, DW_AT_language(DW_LANG_C)
    2426              $C$DW$230       .dwtag  DW_TAG_TI_far_type
    2427                      .dwattr $C$DW$230, DW_AT_type(*$C$DW$T$56)
    2428              $C$DW$T$57      .dwtag  DW_TAG_const_type
    2429                      .dwattr $C$DW$T$57, DW_AT_type(*$C$DW$230)
    2430              
    2431              $C$DW$T$58      .dwtag  DW_TAG_enumeration_type
    2432                      .dwattr $C$DW$T$58, DW_AT_byte_size(0x01)
    2433              $C$DW$231       .dwtag  DW_TAG_enumerator, DW_AT_name("SPI_SteInv_ActiveLow"), DW_AT_const_value(0x00)
    2434              $C$DW$232       .dwtag  DW_TAG_enumerator, DW_AT_name("SPI_SteInv_ActiveHigh"), DW_AT_const_value(0x02)
    2435                      .dwendtag $C$DW$T$58
    2436              
    2437              $C$DW$T$59      .dwtag  DW_TAG_typedef, DW_AT_name("SPI_SteInv_e")
TMS320C2000 Assembler PC v6.4.4 Wed Jul 08 12:49:30 2015

Tools Copyright (c) 1996-2015 Texas Instruments Incorporated
C:\Users\grant\AppData\Local\Temp\0440810                            PAGE   46

    2438                      .dwattr $C$DW$T$59, DW_AT_type(*$C$DW$T$58)
    2439                      .dwattr $C$DW$T$59, DW_AT_language(DW_LANG_C)
    2440              $C$DW$233       .dwtag  DW_TAG_TI_far_type
    2441                      .dwattr $C$DW$233, DW_AT_type(*$C$DW$T$59)
    2442              $C$DW$T$60      .dwtag  DW_TAG_const_type
    2443                      .dwattr $C$DW$T$60, DW_AT_type(*$C$DW$233)
    2444              
    2445              $C$DW$T$61      .dwtag  DW_TAG_enumeration_type
    2446                      .dwattr $C$DW$T$61, DW_AT_byte_size(0x01)
    2447              $C$DW$234       .dwtag  DW_TAG_enumerator, DW_AT_name("SPI_TxSuspend_00"), DW_AT_const_value(0x00)
    2448              $C$DW$235       .dwtag  DW_TAG_enumerator, DW_AT_name("SPI_TxSuspend_10"), DW_AT_const_value(0x20)
    2449              $C$DW$236       .dwtag  DW_TAG_enumerator, DW_AT_name("SPI_TxSuspend_free"), DW_AT_const_value(0x10)
    2450                      .dwendtag $C$DW$T$61
    2451              
    2452              $C$DW$T$62      .dwtag  DW_TAG_typedef, DW_AT_name("SPI_EmulationSuspend_e")
    2453                      .dwattr $C$DW$T$62, DW_AT_type(*$C$DW$T$61)
    2454                      .dwattr $C$DW$T$62, DW_AT_language(DW_LANG_C)
    2455              $C$DW$237       .dwtag  DW_TAG_TI_far_type
    2456                      .dwattr $C$DW$237, DW_AT_type(*$C$DW$T$62)
    2457              $C$DW$T$63      .dwtag  DW_TAG_const_type
    2458                      .dwattr $C$DW$T$63, DW_AT_type(*$C$DW$237)
    2459              
    2460              $C$DW$T$64      .dwtag  DW_TAG_enumeration_type
    2461                      .dwattr $C$DW$T$64, DW_AT_byte_size(0x01)
    2462              $C$DW$238       .dwtag  DW_TAG_enumerator, DW_AT_name("SPI_TriWire_NormalFourWire"), DW_AT_const_value(0x00)
    2463              $C$DW$239       .dwtag  DW_TAG_enumerator, DW_AT_name("SPI_TriWire_ThreeWire"), DW_AT_const_value(0x01)
    2464                      .dwendtag $C$DW$T$64
    2465              
    2466              $C$DW$T$65      .dwtag  DW_TAG_typedef, DW_AT_name("SPI_TriWire_e")
    2467                      .dwattr $C$DW$T$65, DW_AT_type(*$C$DW$T$64)
    2468                      .dwattr $C$DW$T$65, DW_AT_language(DW_LANG_C)
    2469              $C$DW$240       .dwtag  DW_TAG_TI_far_type
    2470                      .dwattr $C$DW$240, DW_AT_type(*$C$DW$T$65)
    2471              $C$DW$T$66      .dwtag  DW_TAG_const_type
    2472                      .dwattr $C$DW$T$66, DW_AT_type(*$C$DW$240)
    2473              
    2474              $C$DW$T$22      .dwtag  DW_TAG_structure_type
    2475                      .dwattr $C$DW$T$22, DW_AT_name("_SPI_Obj_")
    2476                      .dwattr $C$DW$T$22, DW_AT_byte_size(0x10)
    2477              $C$DW$241       .dwtag  DW_TAG_member
    2478                      .dwattr $C$DW$241, DW_AT_type(*$C$DW$T$20)
    2479                      .dwattr $C$DW$241, DW_AT_name("SPICCR")
    2480                      .dwattr $C$DW$241, DW_AT_TI_symbol_name("_SPICCR")
    2481                      .dwattr $C$DW$241, DW_AT_data_member_location[DW_OP_plus_uconst 0x0]
    2482                      .dwattr $C$DW$241, DW_AT_accessibility(DW_ACCESS_public)
    2483              $C$DW$242       .dwtag  DW_TAG_member
    2484                      .dwattr $C$DW$242, DW_AT_type(*$C$DW$T$20)
    2485                      .dwattr $C$DW$242, DW_AT_name("SPICTL")
    2486                      .dwattr $C$DW$242, DW_AT_TI_symbol_name("_SPICTL")
    2487                      .dwattr $C$DW$242, DW_AT_data_member_location[DW_OP_plus_uconst 0x1]
    2488                      .dwattr $C$DW$242, DW_AT_accessibility(DW_ACCESS_public)
    2489              $C$DW$243       .dwtag  DW_TAG_member
    2490                      .dwattr $C$DW$243, DW_AT_type(*$C$DW$T$20)
    2491                      .dwattr $C$DW$243, DW_AT_name("SPIST")
    2492                      .dwattr $C$DW$243, DW_AT_TI_symbol_name("_SPIST")
TMS320C2000 Assembler PC v6.4.4 Wed Jul 08 12:49:30 2015

Tools Copyright (c) 1996-2015 Texas Instruments Incorporated
C:\Users\grant\AppData\Local\Temp\0440810                            PAGE   47

    2493                      .dwattr $C$DW$243, DW_AT_data_member_location[DW_OP_plus_uconst 0x2]
    2494                      .dwattr $C$DW$243, DW_AT_accessibility(DW_ACCESS_public)
    2495              $C$DW$244       .dwtag  DW_TAG_member
    2496                      .dwattr $C$DW$244, DW_AT_type(*$C$DW$T$20)
    2497                      .dwattr $C$DW$244, DW_AT_name("rsvd_1")
    2498                      .dwattr $C$DW$244, DW_AT_TI_symbol_name("_rsvd_1")
    2499                      .dwattr $C$DW$244, DW_AT_data_member_location[DW_OP_plus_uconst 0x3]
    2500                      .dwattr $C$DW$244, DW_AT_accessibility(DW_ACCESS_public)
    2501              $C$DW$245       .dwtag  DW_TAG_member
    2502                      .dwattr $C$DW$245, DW_AT_type(*$C$DW$T$20)
    2503                      .dwattr $C$DW$245, DW_AT_name("SPIBRR")
    2504                      .dwattr $C$DW$245, DW_AT_TI_symbol_name("_SPIBRR")
    2505                      .dwattr $C$DW$245, DW_AT_data_member_location[DW_OP_plus_uconst 0x4]
    2506                      .dwattr $C$DW$245, DW_AT_accessibility(DW_ACCESS_public)
    2507              $C$DW$246       .dwtag  DW_TAG_member
    2508                      .dwattr $C$DW$246, DW_AT_type(*$C$DW$T$20)
    2509                      .dwattr $C$DW$246, DW_AT_name("rsvd_2")
    2510                      .dwattr $C$DW$246, DW_AT_TI_symbol_name("_rsvd_2")
    2511                      .dwattr $C$DW$246, DW_AT_data_member_location[DW_OP_plus_uconst 0x5]
    2512                      .dwattr $C$DW$246, DW_AT_accessibility(DW_ACCESS_public)
    2513              $C$DW$247       .dwtag  DW_TAG_member
    2514                      .dwattr $C$DW$247, DW_AT_type(*$C$DW$T$20)
    2515                      .dwattr $C$DW$247, DW_AT_name("SPIEMU")
    2516                      .dwattr $C$DW$247, DW_AT_TI_symbol_name("_SPIEMU")
    2517                      .dwattr $C$DW$247, DW_AT_data_member_location[DW_OP_plus_uconst 0x6]
    2518                      .dwattr $C$DW$247, DW_AT_accessibility(DW_ACCESS_public)
    2519              $C$DW$248       .dwtag  DW_TAG_member
    2520                      .dwattr $C$DW$248, DW_AT_type(*$C$DW$T$20)
    2521                      .dwattr $C$DW$248, DW_AT_name("SPIRXBUF")
    2522                      .dwattr $C$DW$248, DW_AT_TI_symbol_name("_SPIRXBUF")
    2523                      .dwattr $C$DW$248, DW_AT_data_member_location[DW_OP_plus_uconst 0x7]
    2524                      .dwattr $C$DW$248, DW_AT_accessibility(DW_ACCESS_public)
    2525              $C$DW$249       .dwtag  DW_TAG_member
    2526                      .dwattr $C$DW$249, DW_AT_type(*$C$DW$T$20)
    2527                      .dwattr $C$DW$249, DW_AT_name("SPITXBUF")
    2528                      .dwattr $C$DW$249, DW_AT_TI_symbol_name("_SPITXBUF")
    2529                      .dwattr $C$DW$249, DW_AT_data_member_location[DW_OP_plus_uconst 0x8]
    2530                      .dwattr $C$DW$249, DW_AT_accessibility(DW_ACCESS_public)
    2531              $C$DW$250       .dwtag  DW_TAG_member
    2532                      .dwattr $C$DW$250, DW_AT_type(*$C$DW$T$20)
    2533                      .dwattr $C$DW$250, DW_AT_name("SPIDAT")
    2534                      .dwattr $C$DW$250, DW_AT_TI_symbol_name("_SPIDAT")
    2535                      .dwattr $C$DW$250, DW_AT_data_member_location[DW_OP_plus_uconst 0x9]
    2536                      .dwattr $C$DW$250, DW_AT_accessibility(DW_ACCESS_public)
    2537              $C$DW$251       .dwtag  DW_TAG_member
    2538                      .dwattr $C$DW$251, DW_AT_type(*$C$DW$T$20)
    2539                      .dwattr $C$DW$251, DW_AT_name("SPIFFTX")
    2540                      .dwattr $C$DW$251, DW_AT_TI_symbol_name("_SPIFFTX")
    2541                      .dwattr $C$DW$251, DW_AT_data_member_location[DW_OP_plus_uconst 0xa]
    2542                      .dwattr $C$DW$251, DW_AT_accessibility(DW_ACCESS_public)
    2543              $C$DW$252       .dwtag  DW_TAG_member
    2544                      .dwattr $C$DW$252, DW_AT_type(*$C$DW$T$20)
    2545                      .dwattr $C$DW$252, DW_AT_name("SPIFFRX")
    2546                      .dwattr $C$DW$252, DW_AT_TI_symbol_name("_SPIFFRX")
    2547                      .dwattr $C$DW$252, DW_AT_data_member_location[DW_OP_plus_uconst 0xb]
TMS320C2000 Assembler PC v6.4.4 Wed Jul 08 12:49:30 2015

Tools Copyright (c) 1996-2015 Texas Instruments Incorporated
C:\Users\grant\AppData\Local\Temp\0440810                            PAGE   48

    2548                      .dwattr $C$DW$252, DW_AT_accessibility(DW_ACCESS_public)
    2549              $C$DW$253       .dwtag  DW_TAG_member
    2550                      .dwattr $C$DW$253, DW_AT_type(*$C$DW$T$20)
    2551                      .dwattr $C$DW$253, DW_AT_name("SPIFFCT")
    2552                      .dwattr $C$DW$253, DW_AT_TI_symbol_name("_SPIFFCT")
    2553                      .dwattr $C$DW$253, DW_AT_data_member_location[DW_OP_plus_uconst 0xc]
    2554                      .dwattr $C$DW$253, DW_AT_accessibility(DW_ACCESS_public)
    2555              $C$DW$254       .dwtag  DW_TAG_member
    2556                      .dwattr $C$DW$254, DW_AT_type(*$C$DW$T$21)
    2557                      .dwattr $C$DW$254, DW_AT_name("rsvd_3")
    2558                      .dwattr $C$DW$254, DW_AT_TI_symbol_name("_rsvd_3")
    2559                      .dwattr $C$DW$254, DW_AT_data_member_location[DW_OP_plus_uconst 0xd]
    2560                      .dwattr $C$DW$254, DW_AT_accessibility(DW_ACCESS_public)
    2561              $C$DW$255       .dwtag  DW_TAG_member
    2562                      .dwattr $C$DW$255, DW_AT_type(*$C$DW$T$20)
    2563                      .dwattr $C$DW$255, DW_AT_name("SPIPRI")
    2564                      .dwattr $C$DW$255, DW_AT_TI_symbol_name("_SPIPRI")
    2565                      .dwattr $C$DW$255, DW_AT_data_member_location[DW_OP_plus_uconst 0xf]
    2566                      .dwattr $C$DW$255, DW_AT_accessibility(DW_ACCESS_public)
    2567                      .dwendtag $C$DW$T$22
    2568              
    2569              $C$DW$T$67      .dwtag  DW_TAG_typedef, DW_AT_name("SPI_Obj")
    2570                      .dwattr $C$DW$T$67, DW_AT_type(*$C$DW$T$22)
    2571                      .dwattr $C$DW$T$67, DW_AT_language(DW_LANG_C)
    2572              $C$DW$T$25      .dwtag  DW_TAG_pointer_type
    2573                      .dwattr $C$DW$T$25, DW_AT_type(*$C$DW$T$22)
    2574                      .dwattr $C$DW$T$25, DW_AT_address_class(0x20)
    2575              $C$DW$T$26      .dwtag  DW_TAG_typedef, DW_AT_name("SPI_Handle")
    2576                      .dwattr $C$DW$T$26, DW_AT_type(*$C$DW$T$25)
    2577                      .dwattr $C$DW$T$26, DW_AT_language(DW_LANG_C)
    2578              $C$DW$256       .dwtag  DW_TAG_TI_far_type
    2579                      .dwattr $C$DW$256, DW_AT_type(*$C$DW$T$26)
    2580              $C$DW$T$68      .dwtag  DW_TAG_const_type
    2581                      .dwattr $C$DW$T$68, DW_AT_type(*$C$DW$256)
    2582              $C$DW$T$2       .dwtag  DW_TAG_unspecified_type
    2583                      .dwattr $C$DW$T$2, DW_AT_name("void")
    2584              $C$DW$T$3       .dwtag  DW_TAG_pointer_type
    2585                      .dwattr $C$DW$T$3, DW_AT_type(*$C$DW$T$2)
    2586                      .dwattr $C$DW$T$3, DW_AT_address_class(0x20)
    2587              $C$DW$T$4       .dwtag  DW_TAG_base_type
    2588                      .dwattr $C$DW$T$4, DW_AT_encoding(DW_ATE_boolean)
    2589                      .dwattr $C$DW$T$4, DW_AT_name("bool")
    2590                      .dwattr $C$DW$T$4, DW_AT_byte_size(0x01)
    2591              $C$DW$T$5       .dwtag  DW_TAG_base_type
    2592                      .dwattr $C$DW$T$5, DW_AT_encoding(DW_ATE_signed_char)
    2593                      .dwattr $C$DW$T$5, DW_AT_name("signed char")
    2594                      .dwattr $C$DW$T$5, DW_AT_byte_size(0x01)
    2595              $C$DW$T$6       .dwtag  DW_TAG_base_type
    2596                      .dwattr $C$DW$T$6, DW_AT_encoding(DW_ATE_unsigned_char)
    2597                      .dwattr $C$DW$T$6, DW_AT_name("unsigned char")
    2598                      .dwattr $C$DW$T$6, DW_AT_byte_size(0x01)
    2599              $C$DW$T$7       .dwtag  DW_TAG_base_type
    2600                      .dwattr $C$DW$T$7, DW_AT_encoding(DW_ATE_signed_char)
    2601                      .dwattr $C$DW$T$7, DW_AT_name("wchar_t")
    2602                      .dwattr $C$DW$T$7, DW_AT_byte_size(0x01)
TMS320C2000 Assembler PC v6.4.4 Wed Jul 08 12:49:30 2015

Tools Copyright (c) 1996-2015 Texas Instruments Incorporated
C:\Users\grant\AppData\Local\Temp\0440810                            PAGE   49

    2603              $C$DW$T$8       .dwtag  DW_TAG_base_type
    2604                      .dwattr $C$DW$T$8, DW_AT_encoding(DW_ATE_signed)
    2605                      .dwattr $C$DW$T$8, DW_AT_name("short")
    2606                      .dwattr $C$DW$T$8, DW_AT_byte_size(0x01)
    2607              $C$DW$T$9       .dwtag  DW_TAG_base_type
    2608                      .dwattr $C$DW$T$9, DW_AT_encoding(DW_ATE_unsigned)
    2609                      .dwattr $C$DW$T$9, DW_AT_name("unsigned short")
    2610                      .dwattr $C$DW$T$9, DW_AT_byte_size(0x01)
    2611              $C$DW$T$10      .dwtag  DW_TAG_base_type
    2612                      .dwattr $C$DW$T$10, DW_AT_encoding(DW_ATE_signed)
    2613                      .dwattr $C$DW$T$10, DW_AT_name("int")
    2614                      .dwattr $C$DW$T$10, DW_AT_byte_size(0x01)
    2615              $C$DW$T$11      .dwtag  DW_TAG_base_type
    2616                      .dwattr $C$DW$T$11, DW_AT_encoding(DW_ATE_unsigned)
    2617                      .dwattr $C$DW$T$11, DW_AT_name("unsigned int")
    2618                      .dwattr $C$DW$T$11, DW_AT_byte_size(0x01)
    2619              $C$DW$T$19      .dwtag  DW_TAG_typedef, DW_AT_name("uint16_t")
    2620                      .dwattr $C$DW$T$19, DW_AT_type(*$C$DW$T$11)
    2621                      .dwattr $C$DW$T$19, DW_AT_language(DW_LANG_C)
    2622              $C$DW$257       .dwtag  DW_TAG_TI_far_type
    2623                      .dwattr $C$DW$257, DW_AT_type(*$C$DW$T$19)
    2624              $C$DW$T$20      .dwtag  DW_TAG_volatile_type
    2625                      .dwattr $C$DW$T$20, DW_AT_type(*$C$DW$257)
    2626              
    2627              $C$DW$T$21      .dwtag  DW_TAG_array_type
    2628                      .dwattr $C$DW$T$21, DW_AT_type(*$C$DW$T$20)
    2629                      .dwattr $C$DW$T$21, DW_AT_language(DW_LANG_C)
    2630                      .dwattr $C$DW$T$21, DW_AT_byte_size(0x02)
    2631              $C$DW$258       .dwtag  DW_TAG_subrange_type
    2632                      .dwattr $C$DW$258, DW_AT_upper_bound(0x01)
    2633                      .dwendtag $C$DW$T$21
    2634              
    2635              $C$DW$T$86      .dwtag  DW_TAG_typedef, DW_AT_name("uint_least8_t")
    2636                      .dwattr $C$DW$T$86, DW_AT_type(*$C$DW$T$19)
    2637                      .dwattr $C$DW$T$86, DW_AT_language(DW_LANG_C)
    2638              $C$DW$259       .dwtag  DW_TAG_TI_far_type
    2639                      .dwattr $C$DW$259, DW_AT_type(*$C$DW$T$86)
    2640              $C$DW$T$87      .dwtag  DW_TAG_const_type
    2641                      .dwattr $C$DW$T$87, DW_AT_type(*$C$DW$259)
    2642              $C$DW$T$12      .dwtag  DW_TAG_base_type
    2643                      .dwattr $C$DW$T$12, DW_AT_encoding(DW_ATE_signed)
    2644                      .dwattr $C$DW$T$12, DW_AT_name("long")
    2645                      .dwattr $C$DW$T$12, DW_AT_byte_size(0x02)
    2646              $C$DW$T$13      .dwtag  DW_TAG_base_type
    2647                      .dwattr $C$DW$T$13, DW_AT_encoding(DW_ATE_unsigned)
    2648                      .dwattr $C$DW$T$13, DW_AT_name("unsigned long")
    2649                      .dwattr $C$DW$T$13, DW_AT_byte_size(0x02)
    2650              $C$DW$T$69      .dwtag  DW_TAG_typedef, DW_AT_name("size_t")
    2651                      .dwattr $C$DW$T$69, DW_AT_type(*$C$DW$T$13)
    2652                      .dwattr $C$DW$T$69, DW_AT_language(DW_LANG_C)
    2653              $C$DW$260       .dwtag  DW_TAG_TI_far_type
    2654                      .dwattr $C$DW$260, DW_AT_type(*$C$DW$T$69)
    2655              $C$DW$T$70      .dwtag  DW_TAG_const_type
    2656                      .dwattr $C$DW$T$70, DW_AT_type(*$C$DW$260)
    2657              $C$DW$T$14      .dwtag  DW_TAG_base_type
TMS320C2000 Assembler PC v6.4.4 Wed Jul 08 12:49:30 2015

Tools Copyright (c) 1996-2015 Texas Instruments Incorporated
C:\Users\grant\AppData\Local\Temp\0440810                            PAGE   50

    2658                      .dwattr $C$DW$T$14, DW_AT_encoding(DW_ATE_signed)
    2659                      .dwattr $C$DW$T$14, DW_AT_name("long long")
    2660                      .dwattr $C$DW$T$14, DW_AT_byte_size(0x04)
    2661              $C$DW$T$15      .dwtag  DW_TAG_base_type
    2662                      .dwattr $C$DW$T$15, DW_AT_encoding(DW_ATE_unsigned)
    2663                      .dwattr $C$DW$T$15, DW_AT_name("unsigned long long")
    2664                      .dwattr $C$DW$T$15, DW_AT_byte_size(0x04)
    2665              $C$DW$T$16      .dwtag  DW_TAG_base_type
    2666                      .dwattr $C$DW$T$16, DW_AT_encoding(DW_ATE_float)
    2667                      .dwattr $C$DW$T$16, DW_AT_name("float")
    2668                      .dwattr $C$DW$T$16, DW_AT_byte_size(0x02)
    2669              $C$DW$T$17      .dwtag  DW_TAG_base_type
    2670                      .dwattr $C$DW$T$17, DW_AT_encoding(DW_ATE_float)
    2671                      .dwattr $C$DW$T$17, DW_AT_name("double")
    2672                      .dwattr $C$DW$T$17, DW_AT_byte_size(0x02)
    2673              $C$DW$T$18      .dwtag  DW_TAG_base_type
    2674                      .dwattr $C$DW$T$18, DW_AT_encoding(DW_ATE_float)
    2675                      .dwattr $C$DW$T$18, DW_AT_name("long double")
    2676                      .dwattr $C$DW$T$18, DW_AT_byte_size(0x04)
    2677                      .dwattr $C$DW$CU, DW_AT_language(DW_LANG_C)
    2678              
    2679              ;***************************************************************
    2680              ;* DWARF CIE ENTRIES                                           *
    2681              ;***************************************************************
    2682              
    2683              $C$DW$CIE       .dwcie 26
    2684                      .dwcfi  cfa_register, 20
    2685                      .dwcfi  cfa_offset, 0
    2686                      .dwcfi  undefined, 0
    2687                      .dwcfi  undefined, 1
    2688                      .dwcfi  undefined, 2
    2689                      .dwcfi  undefined, 3
    2690                      .dwcfi  undefined, 20
    2691                      .dwcfi  undefined, 21
    2692                      .dwcfi  undefined, 22
    2693                      .dwcfi  undefined, 23
    2694                      .dwcfi  undefined, 24
    2695                      .dwcfi  undefined, 25
    2696                      .dwcfi  undefined, 26
    2697                      .dwcfi  same_value, 28
    2698                      .dwcfi  undefined, 29
    2699                      .dwcfi  undefined, 30
    2700                      .dwcfi  undefined, 31
    2701                      .dwcfi  undefined, 32
    2702                      .dwcfi  undefined, 33
    2703                      .dwcfi  undefined, 34
    2704                      .dwcfi  undefined, 35
    2705                      .dwcfi  undefined, 36
    2706                      .dwcfi  undefined, 37
    2707                      .dwcfi  undefined, 38
    2708                      .dwcfi  undefined, 75
    2709                      .dwcfi  undefined, 76
    2710                      .dwcfi  undefined, 77
    2711                      .dwcfi  undefined, 4
    2712                      .dwcfi  undefined, 5
TMS320C2000 Assembler PC v6.4.4 Wed Jul 08 12:49:30 2015

Tools Copyright (c) 1996-2015 Texas Instruments Incorporated
C:\Users\grant\AppData\Local\Temp\0440810                            PAGE   51

    2713                      .dwcfi  same_value, 6
    2714                      .dwcfi  same_value, 7
    2715                      .dwcfi  same_value, 8
    2716                      .dwcfi  same_value, 9
    2717                      .dwcfi  same_value, 10
    2718                      .dwcfi  same_value, 11
    2719                      .dwcfi  undefined, 12
    2720                      .dwcfi  undefined, 13
    2721                      .dwcfi  undefined, 14
    2722                      .dwcfi  undefined, 15
    2723                      .dwcfi  undefined, 16
    2724                      .dwcfi  undefined, 17
    2725                      .dwcfi  undefined, 18
    2726                      .dwcfi  undefined, 19
    2727                      .dwendentry
    2728              
    2729              ;***************************************************************
    2730              ;* DWARF REGISTER MAP                                          *
    2731              ;***************************************************************
    2732              
    2733              $C$DW$261       .dwtag  DW_TAG_TI_assign_register, DW_AT_name("AL")
    2734                      .dwattr $C$DW$261, DW_AT_location[DW_OP_reg0]
    2735              $C$DW$262       .dwtag  DW_TAG_TI_assign_register, DW_AT_name("AH")
    2736                      .dwattr $C$DW$262, DW_AT_location[DW_OP_reg1]
    2737              $C$DW$263       .dwtag  DW_TAG_TI_assign_register, DW_AT_name("PL")
    2738                      .dwattr $C$DW$263, DW_AT_location[DW_OP_reg2]
    2739              $C$DW$264       .dwtag  DW_TAG_TI_assign_register, DW_AT_name("PH")
    2740                      .dwattr $C$DW$264, DW_AT_location[DW_OP_reg3]
    2741              $C$DW$265       .dwtag  DW_TAG_TI_assign_register, DW_AT_name("SP")
    2742                      .dwattr $C$DW$265, DW_AT_location[DW_OP_reg20]
    2743              $C$DW$266       .dwtag  DW_TAG_TI_assign_register, DW_AT_name("XT")
    2744                      .dwattr $C$DW$266, DW_AT_location[DW_OP_reg21]
    2745              $C$DW$267       .dwtag  DW_TAG_TI_assign_register, DW_AT_name("T")
    2746                      .dwattr $C$DW$267, DW_AT_location[DW_OP_reg22]
    2747              $C$DW$268       .dwtag  DW_TAG_TI_assign_register, DW_AT_name("ST0")
    2748                      .dwattr $C$DW$268, DW_AT_location[DW_OP_reg23]
    2749              $C$DW$269       .dwtag  DW_TAG_TI_assign_register, DW_AT_name("ST1")
    2750                      .dwattr $C$DW$269, DW_AT_location[DW_OP_reg24]
    2751              $C$DW$270       .dwtag  DW_TAG_TI_assign_register, DW_AT_name("PC")
    2752                      .dwattr $C$DW$270, DW_AT_location[DW_OP_reg25]
    2753              $C$DW$271       .dwtag  DW_TAG_TI_assign_register, DW_AT_name("RPC")
    2754                      .dwattr $C$DW$271, DW_AT_location[DW_OP_reg26]
    2755              $C$DW$272       .dwtag  DW_TAG_TI_assign_register, DW_AT_name("FP")
    2756                      .dwattr $C$DW$272, DW_AT_location[DW_OP_reg28]
    2757              $C$DW$273       .dwtag  DW_TAG_TI_assign_register, DW_AT_name("DP")
    2758                      .dwattr $C$DW$273, DW_AT_location[DW_OP_reg29]
    2759              $C$DW$274       .dwtag  DW_TAG_TI_assign_register, DW_AT_name("SXM")
    2760                      .dwattr $C$DW$274, DW_AT_location[DW_OP_reg30]
    2761              $C$DW$275       .dwtag  DW_TAG_TI_assign_register, DW_AT_name("PM")
    2762                      .dwattr $C$DW$275, DW_AT_location[DW_OP_reg31]
    2763              $C$DW$276       .dwtag  DW_TAG_TI_assign_register, DW_AT_name("OVM")
    2764                      .dwattr $C$DW$276, DW_AT_location[DW_OP_regx 0x20]
    2765              $C$DW$277       .dwtag  DW_TAG_TI_assign_register, DW_AT_name("PAGE0")
    2766                      .dwattr $C$DW$277, DW_AT_location[DW_OP_regx 0x21]
    2767              $C$DW$278       .dwtag  DW_TAG_TI_assign_register, DW_AT_name("AMODE")
TMS320C2000 Assembler PC v6.4.4 Wed Jul 08 12:49:30 2015

Tools Copyright (c) 1996-2015 Texas Instruments Incorporated
C:\Users\grant\AppData\Local\Temp\0440810                            PAGE   52

    2768                      .dwattr $C$DW$278, DW_AT_location[DW_OP_regx 0x22]
    2769              $C$DW$279       .dwtag  DW_TAG_TI_assign_register, DW_AT_name("INTM")
    2770                      .dwattr $C$DW$279, DW_AT_location[DW_OP_regx 0x23]
    2771              $C$DW$280       .dwtag  DW_TAG_TI_assign_register, DW_AT_name("IFR")
    2772                      .dwattr $C$DW$280, DW_AT_location[DW_OP_regx 0x24]
    2773              $C$DW$281       .dwtag  DW_TAG_TI_assign_register, DW_AT_name("IER")
    2774                      .dwattr $C$DW$281, DW_AT_location[DW_OP_regx 0x25]
    2775              $C$DW$282       .dwtag  DW_TAG_TI_assign_register, DW_AT_name("V")
    2776                      .dwattr $C$DW$282, DW_AT_location[DW_OP_regx 0x26]
    2777              $C$DW$283       .dwtag  DW_TAG_TI_assign_register, DW_AT_name("PSEUDOH")
    2778                      .dwattr $C$DW$283, DW_AT_location[DW_OP_regx 0x4c]
    2779              $C$DW$284       .dwtag  DW_TAG_TI_assign_register, DW_AT_name("VOL")
    2780                      .dwattr $C$DW$284, DW_AT_location[DW_OP_regx 0x4d]
    2781              $C$DW$285       .dwtag  DW_TAG_TI_assign_register, DW_AT_name("AR0")
    2782                      .dwattr $C$DW$285, DW_AT_location[DW_OP_reg4]
    2783              $C$DW$286       .dwtag  DW_TAG_TI_assign_register, DW_AT_name("XAR0")
    2784                      .dwattr $C$DW$286, DW_AT_location[DW_OP_reg5]
    2785              $C$DW$287       .dwtag  DW_TAG_TI_assign_register, DW_AT_name("AR1")
    2786                      .dwattr $C$DW$287, DW_AT_location[DW_OP_reg6]
    2787              $C$DW$288       .dwtag  DW_TAG_TI_assign_register, DW_AT_name("XAR1")
    2788                      .dwattr $C$DW$288, DW_AT_location[DW_OP_reg7]
    2789              $C$DW$289       .dwtag  DW_TAG_TI_assign_register, DW_AT_name("AR2")
    2790                      .dwattr $C$DW$289, DW_AT_location[DW_OP_reg8]
    2791              $C$DW$290       .dwtag  DW_TAG_TI_assign_register, DW_AT_name("XAR2")
    2792                      .dwattr $C$DW$290, DW_AT_location[DW_OP_reg9]
    2793              $C$DW$291       .dwtag  DW_TAG_TI_assign_register, DW_AT_name("AR3")
    2794                      .dwattr $C$DW$291, DW_AT_location[DW_OP_reg10]
    2795              $C$DW$292       .dwtag  DW_TAG_TI_assign_register, DW_AT_name("XAR3")
    2796                      .dwattr $C$DW$292, DW_AT_location[DW_OP_reg11]
    2797              $C$DW$293       .dwtag  DW_TAG_TI_assign_register, DW_AT_name("AR4")
    2798                      .dwattr $C$DW$293, DW_AT_location[DW_OP_reg12]
    2799              $C$DW$294       .dwtag  DW_TAG_TI_assign_register, DW_AT_name("XAR4")
    2800                      .dwattr $C$DW$294, DW_AT_location[DW_OP_reg13]
    2801              $C$DW$295       .dwtag  DW_TAG_TI_assign_register, DW_AT_name("AR5")
    2802                      .dwattr $C$DW$295, DW_AT_location[DW_OP_reg14]
    2803              $C$DW$296       .dwtag  DW_TAG_TI_assign_register, DW_AT_name("XAR5")
    2804                      .dwattr $C$DW$296, DW_AT_location[DW_OP_reg15]
    2805              $C$DW$297       .dwtag  DW_TAG_TI_assign_register, DW_AT_name("AR6")
    2806                      .dwattr $C$DW$297, DW_AT_location[DW_OP_reg16]
    2807              $C$DW$298       .dwtag  DW_TAG_TI_assign_register, DW_AT_name("XAR6")
    2808                      .dwattr $C$DW$298, DW_AT_location[DW_OP_reg17]
    2809              $C$DW$299       .dwtag  DW_TAG_TI_assign_register, DW_AT_name("AR7")
    2810                      .dwattr $C$DW$299, DW_AT_location[DW_OP_reg18]
    2811              $C$DW$300       .dwtag  DW_TAG_TI_assign_register, DW_AT_name("XAR7")
    2812                      .dwattr $C$DW$300, DW_AT_location[DW_OP_reg19]
    2813                      .dwendtag $C$DW$CU
    2814              

No Assembly Errors, No Assembly Warnings
